ARM GAS  C:\Users\Xwx47\AppData\Local\Temp\cc1HOi1n.s 			page 1


   1              		.syntax unified
   2              		.cpu cortex-m0plus
   3              		.fpu softvfp
   4              		.eabi_attribute 20, 1
   5              		.eabi_attribute 21, 1
   6              		.eabi_attribute 23, 3
   7              		.eabi_attribute 24, 1
   8              		.eabi_attribute 25, 1
   9              		.eabi_attribute 26, 1
  10              		.eabi_attribute 30, 1
  11              		.eabi_attribute 34, 0
  12              		.eabi_attribute 18, 4
  13              		.thumb
  14              		.syntax unified
  15              		.file	"main.c"
  16              		.text
  17              	.Ltext0:
  18              		.cfi_sections	.debug_frame
  19              		.section	.text.IRQ_Handler,"ax",%progbits
  20              		.align	2
  21              		.global	IRQ_Handler
  22              		.code	16
  23              		.thumb_func
  24              		.type	IRQ_Handler, %function
  25              	IRQ_Handler:
  26              	.LFB33:
  27              		.file 1 "main.c"
   1:main.c        **** /*
   2:main.c        ****  * 00_Basic_Rx
   3:main.c        ****  * 
   4:main.c        ****  * The nrf24 is configured as Rx, it will print the received data via UART.
   5:main.c        ****  */
   6:main.c        **** 
   7:main.c        **** #include "project.h"
   8:main.c        **** #include <stdbool.h>
   9:main.c        **** 
  10:main.c        **** volatile bool irq_flag = false;
  11:main.c        **** 
  12:main.c        **** // here we will store the received data
  13:main.c        **** char data;
  14:main.c        **** 
  15:main.c        **** // Executed when the IRQ pin triggers an interrupt
  16:main.c        **** CY_ISR(IRQ_Handler)
  17:main.c        **** {
  28              		.loc 1 17 0
  29              		.cfi_startproc
  30              		@ args = 0, pretend = 0, frame = 0
  31              		@ frame_needed = 0, uses_anonymous_args = 0
  32 0000 10B5     		push	{r4, lr}
  33              		.cfi_def_cfa_offset 8
  34              		.cfi_offset 4, -8
  35              		.cfi_offset 14, -4
  18:main.c        ****     irq_flag = true;
  36              		.loc 1 18 0
  37 0002 0122     		movs	r2, #1
  38 0004 024B     		ldr	r3, .L2
  39 0006 1A70     		strb	r2, [r3]
ARM GAS  C:\Users\Xwx47\AppData\Local\Temp\cc1HOi1n.s 			page 2


  19:main.c        ****     IRQ_ClearInterrupt();
  40              		.loc 1 19 0
  41 0008 FFF7FEFF 		bl	IRQ_ClearInterrupt
  42              	.LVL0:
  20:main.c        **** }
  43              		.loc 1 20 0
  44              		@ sp needed
  45 000c 10BD     		pop	{r4, pc}
  46              	.L3:
  47 000e C046     		.align	2
  48              	.L2:
  49 0010 00000000 		.word	.LANCHOR0
  50              		.cfi_endproc
  51              	.LFE33:
  52              		.size	IRQ_Handler, .-IRQ_Handler
  53              		.section	.text.main,"ax",%progbits
  54              		.align	2
  55              		.global	main
  56              		.code	16
  57              		.thumb_func
  58              		.type	main, %function
  59              	main:
  60              	.LFB34:
  21:main.c        **** 
  22:main.c        **** int main(void)
  23:main.c        **** {
  61              		.loc 1 23 0
  62              		.cfi_startproc
  63              		@ args = 0, pretend = 0, frame = 8
  64              		@ frame_needed = 0, uses_anonymous_args = 0
  65 0000 10B5     		push	{r4, lr}
  66              		.cfi_def_cfa_offset 8
  67              		.cfi_offset 4, -8
  68              		.cfi_offset 14, -4
  69 0002 82B0     		sub	sp, sp, #8
  70              		.cfi_def_cfa_offset 16
  24:main.c        ****     CyGlobalIntEnable;
  71              		.loc 1 24 0
  72              		.syntax divided
  73              	@ 24 "main.c" 1
  74 0004 62B6     		CPSIE   i
  75              	@ 0 "" 2
  25:main.c        ****     
  26:main.c        ****     const uint8_t RX_ADDR[5]= {0xBA, 0xAD, 0xC0, 0xFF, 0xEE};
  76              		.loc 1 26 0
  77              		.thumb
  78              		.syntax unified
  79 0006 0522     		movs	r2, #5
  80 0008 1B49     		ldr	r1, .L7
  81 000a 6846     		mov	r0, sp
  82 000c FFF7FEFF 		bl	memcpy
  83              	.LVL1:
  27:main.c        ****     
  28:main.c        ****     // Set the Handler for the IRQ interrupt
  29:main.c        ****     isr_IRQ_StartEx(IRQ_Handler);
  84              		.loc 1 29 0
  85 0010 1A48     		ldr	r0, .L7+4
ARM GAS  C:\Users\Xwx47\AppData\Local\Temp\cc1HOi1n.s 			page 3


  86 0012 FFF7FEFF 		bl	isr_IRQ_StartEx
  87              	.LVL2:
  30:main.c        ****     
  31:main.c        ****     UART_Start();
  88              		.loc 1 31 0
  89 0016 FFF7FEFF 		bl	UART_Start
  90              	.LVL3:
  32:main.c        ****     UART_PutChar(0x0c);
  91              		.loc 1 32 0
  92 001a 0C20     		movs	r0, #12
  93 001c FFF7FEFF 		bl	UART_PutChar
  94              	.LVL4:
  33:main.c        ****     UART_PutString("Basic project, Rx\r\n");
  95              		.loc 1 33 0
  96 0020 1748     		ldr	r0, .L7+8
  97 0022 FFF7FEFF 		bl	UART_PutString
  98              	.LVL5:
  34:main.c        ****     
  35:main.c        ****     nRF24_start();
  99              		.loc 1 35 0
 100 0026 FFF7FEFF 		bl	nRF24_start
 101              	.LVL6:
  36:main.c        ****     nRF24_setRxPipe0Address(RX_ADDR, 5);
 102              		.loc 1 36 0
 103 002a 0521     		movs	r1, #5
 104 002c 6846     		mov	r0, sp
 105 002e FFF7FEFF 		bl	nRF24_setRxPipe0Address
 106              	.LVL7:
  37:main.c        ****     nRF24_setTxAddress(RX_ADDR, 5);
 107              		.loc 1 37 0
 108 0032 0521     		movs	r1, #5
 109 0034 6846     		mov	r0, sp
 110 0036 FFF7FEFF 		bl	nRF24_setTxAddress
 111              	.LVL8:
  38:main.c        ****     nRF24_startListening();
 112              		.loc 1 38 0
 113 003a FFF7FEFF 		bl	nRF24_startListening
 114              	.LVL9:
 115              	.L5:
  39:main.c        ****     
  40:main.c        ****     while (1) {
  41:main.c        ****         
  42:main.c        ****         if (true == irq_flag) {
 116              		.loc 1 42 0
 117 003e 114B     		ldr	r3, .L7+12
 118 0040 1B78     		ldrb	r3, [r3]
 119 0042 002B     		cmp	r3, #0
 120 0044 FBD0     		beq	.L5
 121              	.LBB2:
  43:main.c        ****             
  44:main.c        ****             // Get and clear the flag that caused the IRQ interrupt,
  45:main.c        ****             // in this project the only IRQ cause is the caused by
  46:main.c        ****             // receiving data (NRF_STATUS_RX_DR_MASK)
  47:main.c        ****             NrfIRQ flag = nRF24_getIRQFlag();
 122              		.loc 1 47 0
 123 0046 FFF7FEFF 		bl	nRF24_getIRQFlag
 124              	.LVL10:
ARM GAS  C:\Users\Xwx47\AppData\Local\Temp\cc1HOi1n.s 			page 4


  48:main.c        ****             nRF24_clearIRQFlag(flag);
 125              		.loc 1 48 0
 126 004a FFF7FEFF 		bl	nRF24_clearIRQFlag
 127              	.LVL11:
  49:main.c        ****             
  50:main.c        ****             LED_Write(~LED_Read());
 128              		.loc 1 50 0
 129 004e FFF7FEFF 		bl	LED_Read
 130              	.LVL12:
 131 0052 C043     		mvns	r0, r0
 132 0054 C0B2     		uxtb	r0, r0
 133 0056 FFF7FEFF 		bl	LED_Write
 134              	.LVL13:
  51:main.c        ****             
  52:main.c        ****             // How many bytes are in the pipe0 (data received)?
  53:main.c        ****             uint8_t payload_size = nRF24_getPayloadSize(NRF_DATA_PIPE0);
 135              		.loc 1 53 0
 136 005a 0020     		movs	r0, #0
 137 005c FFF7FEFF 		bl	nRF24_getPayloadSize
 138              	.LVL14:
 139 0060 0100     		movs	r1, r0
 140              	.LVL15:
  54:main.c        ****             
  55:main.c        ****             // get the data from the transmitter
  56:main.c        ****             nRF24_getRxPayload(&data, payload_size);
 141              		.loc 1 56 0
 142 0062 094C     		ldr	r4, .L7+16
 143 0064 2000     		movs	r0, r4
 144 0066 FFF7FEFF 		bl	nRF24_getRxPayload
 145              	.LVL16:
  57:main.c        ****             
  58:main.c        ****             // send data via UART
  59:main.c        ****             UART_PutChar(data);
 146              		.loc 1 59 0
 147 006a 2078     		ldrb	r0, [r4]
 148 006c FFF7FEFF 		bl	UART_PutChar
 149              	.LVL17:
  60:main.c        ****             
  61:main.c        ****             irq_flag = false;
 150              		.loc 1 61 0
 151 0070 0022     		movs	r2, #0
 152 0072 044B     		ldr	r3, .L7+12
 153 0074 1A70     		strb	r2, [r3]
 154 0076 E2E7     		b	.L5
 155              	.L8:
 156              		.align	2
 157              	.L7:
 158 0078 00000000 		.word	.LANCHOR1
 159 007c 00000000 		.word	IRQ_Handler
 160 0080 00000000 		.word	.LC4
 161 0084 00000000 		.word	.LANCHOR0
 162 0088 00000000 		.word	data
 163              	.LBE2:
 164              		.cfi_endproc
 165              	.LFE34:
 166              		.size	main, .-main
 167              		.comm	data,1,1
ARM GAS  C:\Users\Xwx47\AppData\Local\Temp\cc1HOi1n.s 			page 5


 168              		.global	irq_flag
 169              		.section	.rodata
 170              		.align	2
 171              		.set	.LANCHOR1,. + 0
 172              	.LC0:
 173 0000 BA       		.byte	-70
 174 0001 AD       		.byte	-83
 175 0002 C0       		.byte	-64
 176 0003 FF       		.byte	-1
 177 0004 EE       		.byte	-18
 178              		.section	.rodata.str1.4,"aMS",%progbits,1
 179              		.align	2
 180              	.LC4:
 181 0000 42617369 		.ascii	"Basic project, Rx\015\012\000"
 181      63207072 
 181      6F6A6563 
 181      742C2052 
 181      780D0A00 
 182              		.bss
 183              		.set	.LANCHOR0,. + 0
 184              		.type	irq_flag, %object
 185              		.size	irq_flag, 1
 186              	irq_flag:
 187 0000 00       		.space	1
 188              		.text
 189              	.Letext0:
 190              		.file 2 "c:\\program files (x86)\\cypress\\psoc creator\\4.1\\psoc creator\\import\\gnu\\arm\\5.4.
 191              		.file 3 "c:\\program files (x86)\\cypress\\psoc creator\\4.1\\psoc creator\\import\\gnu\\arm\\5.4.
 192              		.file 4 "Generated_Source\\PSoC4/nRF24_NRF_REGS.h"
 193              		.file 5 "Generated_Source\\PSoC4/IRQ.h"
 194              		.file 6 "Generated_Source\\PSoC4/nRF24_NRF_FUNCS.h"
 195              		.file 7 "Generated_Source\\PSoC4/LED.h"
 196              		.file 8 "Generated_Source\\PSoC4/UART.h"
 197              		.file 9 "Generated_Source\\PSoC4/isr_IRQ.h"