ARM GAS  C:\Users\d3bug\AppData\Local\Temp\ccLjXxQe.s 			page 1


   1              		.syntax unified
   2              		.cpu cortex-m0plus
   3              		.fpu softvfp
   4              		.eabi_attribute 20, 1
   5              		.eabi_attribute 21, 1
   6              		.eabi_attribute 23, 3
   7              		.eabi_attribute 24, 1
   8              		.eabi_attribute 25, 1
   9              		.eabi_attribute 26, 1
  10              		.eabi_attribute 30, 1
  11              		.eabi_attribute 34, 0
  12              		.eabi_attribute 18, 4
  13              		.thumb
  14              		.syntax unified
  15              		.file	"nRF24_HAL.c"
  16              		.text
  17              	.Ltext0:
  18              		.cfi_sections	.debug_frame
  19              		.section	.text.nRF24_spi_clear_fifo,"ax",%progbits
  20              		.align	2
  21              		.code	16
  22              		.thumb_func
  23              		.type	nRF24_spi_clear_fifo, %function
  24              	nRF24_spi_clear_fifo:
  25              	.LFB3:
  26              		.file 1 "Generated_Source\\PSoC4\\nRF24_HAL.c"
   1:Generated_Source\PSoC4/nRF24_HAL.c **** /**
   2:Generated_Source\PSoC4/nRF24_HAL.c **** * @file     nRF24_HAL.c
   3:Generated_Source\PSoC4/nRF24_HAL.c **** * @version  3
   4:Generated_Source\PSoC4/nRF24_HAL.c **** * @brief    The nRF24 radio is controlled via SPI, this file have all the SPI
   5:Generated_Source\PSoC4/nRF24_HAL.c **** * communication between the PSoC and the nRF24 radio.
   6:Generated_Source\PSoC4/nRF24_HAL.c **** */
   7:Generated_Source\PSoC4/nRF24_HAL.c **** 
   8:Generated_Source\PSoC4/nRF24_HAL.c **** #include <stdint.h>
   9:Generated_Source\PSoC4/nRF24_HAL.c **** #include <string.h>
  10:Generated_Source\PSoC4/nRF24_HAL.c **** 
  11:Generated_Source\PSoC4/nRF24_HAL.c **** #include "nRF24_CONFIG.h"
  12:Generated_Source\PSoC4/nRF24_HAL.c **** #include "nRF24_HAL.h"
  13:Generated_Source\PSoC4/nRF24_HAL.c **** 
  14:Generated_Source\PSoC4/nRF24_HAL.c **** #if defined (_PSOC6)
  15:Generated_Source\PSoC4/nRF24_HAL.c **** # include "gpio/cy_gpio.h"
  16:Generated_Source\PSoC4/nRF24_HAL.c **** #else // (_PSOC_UDB) || (_PSOC4)
  17:Generated_Source\PSoC4/nRF24_HAL.c **** # if defined (_PSOC4_SCB)
  18:Generated_Source\PSoC4/nRF24_HAL.c **** #  include "SPI_SPI_UART.h" // may be no longer necessary
  19:Generated_Source\PSoC4/nRF24_HAL.c **** # endif
  20:Generated_Source\PSoC4/nRF24_HAL.c **** # include "CE.h"
  21:Generated_Source\PSoC4/nRF24_HAL.c **** # include "SS.h"
  22:Generated_Source\PSoC4/nRF24_HAL.c **** #endif
  23:Generated_Source\PSoC4/nRF24_HAL.c **** 
  24:Generated_Source\PSoC4/nRF24_HAL.c **** /* GPIO Control */
  25:Generated_Source\PSoC4/nRF24_HAL.c **** 
  26:Generated_Source\PSoC4/nRF24_HAL.c **** /**
  27:Generated_Source\PSoC4/nRF24_HAL.c ****  * GPIO control in PSoC6 and PSoC4/PSoC5LP is a little bit different,
  28:Generated_Source\PSoC4/nRF24_HAL.c ****  * so here we try to unify them.
  29:Generated_Source\PSoC4/nRF24_HAL.c ****  *
  30:Generated_Source\PSoC4/nRF24_HAL.c ****  * @param[in] nrf_gpio state 
  31:Generated_Source\PSoC4/nRF24_HAL.c ****  */
ARM GAS  C:\Users\d3bug\AppData\Local\Temp\ccLjXxQe.s 			page 2


  32:Generated_Source\PSoC4/nRF24_HAL.c **** void nRF24_ss_write(nrf_gpio state)
  33:Generated_Source\PSoC4/nRF24_HAL.c **** {
  34:Generated_Source\PSoC4/nRF24_HAL.c ****     if (GPIO_CLEAR == state) {
  35:Generated_Source\PSoC4/nRF24_HAL.c **** #if defined (_PSOC6)
  36:Generated_Source\PSoC4/nRF24_HAL.c ****     Cy_GPIO_Clr(SS_PORT, SS_NUM);
  37:Generated_Source\PSoC4/nRF24_HAL.c **** #else // _PSoC4_SCB | _PSOC_UDB
  38:Generated_Source\PSoC4/nRF24_HAL.c ****     SS_Write(0);
  39:Generated_Source\PSoC4/nRF24_HAL.c **** #endif
  40:Generated_Source\PSoC4/nRF24_HAL.c ****     } else { // GPIO_SET
  41:Generated_Source\PSoC4/nRF24_HAL.c **** #if defined (_PSOC6)
  42:Generated_Source\PSoC4/nRF24_HAL.c ****     Cy_GPIO_Set(SS_PORT, SS_NUM);
  43:Generated_Source\PSoC4/nRF24_HAL.c **** #else // _PSoC4_SCB | _PSOC_UDB
  44:Generated_Source\PSoC4/nRF24_HAL.c ****     SS_Write(1);
  45:Generated_Source\PSoC4/nRF24_HAL.c **** #endif
  46:Generated_Source\PSoC4/nRF24_HAL.c ****     }
  47:Generated_Source\PSoC4/nRF24_HAL.c **** }
  48:Generated_Source\PSoC4/nRF24_HAL.c **** 
  49:Generated_Source\PSoC4/nRF24_HAL.c **** void nRF24_ce_write(nrf_gpio state)
  50:Generated_Source\PSoC4/nRF24_HAL.c **** {
  51:Generated_Source\PSoC4/nRF24_HAL.c ****     if (GPIO_CLEAR == state) {
  52:Generated_Source\PSoC4/nRF24_HAL.c **** #if defined (_PSOC6)
  53:Generated_Source\PSoC4/nRF24_HAL.c ****     Cy_GPIO_Clr(CE_PORT, CE_NUM);
  54:Generated_Source\PSoC4/nRF24_HAL.c **** #else // _PSoC4_SCB | _PSOC_UDB
  55:Generated_Source\PSoC4/nRF24_HAL.c ****     CE_Write(0);
  56:Generated_Source\PSoC4/nRF24_HAL.c **** #endif
  57:Generated_Source\PSoC4/nRF24_HAL.c ****     } else { // GPIO_SET
  58:Generated_Source\PSoC4/nRF24_HAL.c **** #if defined (_PSOC6)
  59:Generated_Source\PSoC4/nRF24_HAL.c ****     Cy_GPIO_Set(CE_PORT, CE_NUM);
  60:Generated_Source\PSoC4/nRF24_HAL.c **** #else // _PSoC4_SCB | _PSOC_UDB
  61:Generated_Source\PSoC4/nRF24_HAL.c ****     CE_Write(1);
  62:Generated_Source\PSoC4/nRF24_HAL.c **** #endif
  63:Generated_Source\PSoC4/nRF24_HAL.c ****     }
  64:Generated_Source\PSoC4/nRF24_HAL.c **** }
  65:Generated_Source\PSoC4/nRF24_HAL.c **** 
  66:Generated_Source\PSoC4/nRF24_HAL.c **** static void nRF24_spi_clear_fifo(void)
  67:Generated_Source\PSoC4/nRF24_HAL.c **** {
  27              		.loc 1 67 0
  28              		.cfi_startproc
  29              		@ args = 0, pretend = 0, frame = 0
  30              		@ frame_needed = 0, uses_anonymous_args = 0
  31 0000 10B5     		push	{r4, lr}
  32              		.cfi_def_cfa_offset 8
  33              		.cfi_offset 4, -8
  34              		.cfi_offset 14, -4
  68:Generated_Source\PSoC4/nRF24_HAL.c **** #if defined (_PSOC6)
  69:Generated_Source\PSoC4/nRF24_HAL.c ****     Cy_SCB_ClearRxFifo(SPI_HW);
  70:Generated_Source\PSoC4/nRF24_HAL.c ****     Cy_SCB_ClearTxFifo(SPI_HW);
  71:Generated_Source\PSoC4/nRF24_HAL.c **** #elif defined (_PSOC4_SCB)
  72:Generated_Source\PSoC4/nRF24_HAL.c ****     SPI_SpiUartClearRxBuffer();
  35              		.loc 1 72 0
  36 0002 FFF7FEFF 		bl	SPI_SpiUartClearRxBuffer
  37              	.LVL0:
  73:Generated_Source\PSoC4/nRF24_HAL.c ****     SPI_SpiUartClearTxBuffer();
  38              		.loc 1 73 0
  39 0006 FFF7FEFF 		bl	SPI_SpiUartClearTxBuffer
  40              	.LVL1:
  74:Generated_Source\PSoC4/nRF24_HAL.c **** #elif defined (_PSOC_UDB)
ARM GAS  C:\Users\d3bug\AppData\Local\Temp\ccLjXxQe.s 			page 3


  75:Generated_Source\PSoC4/nRF24_HAL.c ****     SPI_ClearFIFO();
  76:Generated_Source\PSoC4/nRF24_HAL.c **** #else
  77:Generated_Source\PSoC4/nRF24_HAL.c ****     #error "Non valid PSoC device identified."
  78:Generated_Source\PSoC4/nRF24_HAL.c **** #endif
  79:Generated_Source\PSoC4/nRF24_HAL.c **** }
  41              		.loc 1 79 0
  42              		@ sp needed
  43 000a 10BD     		pop	{r4, pc}
  44              		.cfi_endproc
  45              	.LFE3:
  46              		.size	nRF24_spi_clear_fifo, .-nRF24_spi_clear_fifo
  47              		.section	.text.nRF24_ss_write,"ax",%progbits
  48              		.align	2
  49              		.global	nRF24_ss_write
  50              		.code	16
  51              		.thumb_func
  52              		.type	nRF24_ss_write, %function
  53              	nRF24_ss_write:
  54              	.LFB1:
  33:Generated_Source\PSoC4/nRF24_HAL.c ****     if (GPIO_CLEAR == state) {
  55              		.loc 1 33 0
  56              		.cfi_startproc
  57              		@ args = 0, pretend = 0, frame = 0
  58              		@ frame_needed = 0, uses_anonymous_args = 0
  59              	.LVL2:
  60 0000 10B5     		push	{r4, lr}
  61              		.cfi_def_cfa_offset 8
  62              		.cfi_offset 4, -8
  63              		.cfi_offset 14, -4
  34:Generated_Source\PSoC4/nRF24_HAL.c **** #if defined (_PSOC6)
  64              		.loc 1 34 0
  65 0002 0028     		cmp	r0, #0
  66 0004 02D1     		bne	.L3
  38:Generated_Source\PSoC4/nRF24_HAL.c **** #endif
  67              		.loc 1 38 0
  68 0006 FFF7FEFF 		bl	SS_Write
  69              	.LVL3:
  70 000a 02E0     		b	.L2
  71              	.LVL4:
  72              	.L3:
  44:Generated_Source\PSoC4/nRF24_HAL.c **** #endif
  73              		.loc 1 44 0
  74 000c 0120     		movs	r0, #1
  75              	.LVL5:
  76 000e FFF7FEFF 		bl	SS_Write
  77              	.LVL6:
  78              	.L2:
  47:Generated_Source\PSoC4/nRF24_HAL.c **** 
  79              		.loc 1 47 0
  80              		@ sp needed
  81 0012 10BD     		pop	{r4, pc}
  82              		.cfi_endproc
  83              	.LFE1:
  84              		.size	nRF24_ss_write, .-nRF24_ss_write
  85              		.section	.text.nRF24_ce_write,"ax",%progbits
  86              		.align	2
  87              		.global	nRF24_ce_write
ARM GAS  C:\Users\d3bug\AppData\Local\Temp\ccLjXxQe.s 			page 4


  88              		.code	16
  89              		.thumb_func
  90              		.type	nRF24_ce_write, %function
  91              	nRF24_ce_write:
  92              	.LFB2:
  50:Generated_Source\PSoC4/nRF24_HAL.c ****     if (GPIO_CLEAR == state) {
  93              		.loc 1 50 0
  94              		.cfi_startproc
  95              		@ args = 0, pretend = 0, frame = 0
  96              		@ frame_needed = 0, uses_anonymous_args = 0
  97              	.LVL7:
  98 0000 10B5     		push	{r4, lr}
  99              		.cfi_def_cfa_offset 8
 100              		.cfi_offset 4, -8
 101              		.cfi_offset 14, -4
  51:Generated_Source\PSoC4/nRF24_HAL.c **** #if defined (_PSOC6)
 102              		.loc 1 51 0
 103 0002 0028     		cmp	r0, #0
 104 0004 02D1     		bne	.L6
  55:Generated_Source\PSoC4/nRF24_HAL.c **** #endif
 105              		.loc 1 55 0
 106 0006 FFF7FEFF 		bl	CE_Write
 107              	.LVL8:
 108 000a 02E0     		b	.L5
 109              	.LVL9:
 110              	.L6:
  61:Generated_Source\PSoC4/nRF24_HAL.c **** #endif
 111              		.loc 1 61 0
 112 000c 0120     		movs	r0, #1
 113              	.LVL10:
 114 000e FFF7FEFF 		bl	CE_Write
 115              	.LVL11:
 116              	.L5:
  64:Generated_Source\PSoC4/nRF24_HAL.c **** 
 117              		.loc 1 64 0
 118              		@ sp needed
 119 0012 10BD     		pop	{r4, pc}
 120              		.cfi_endproc
 121              	.LFE2:
 122              		.size	nRF24_ce_write, .-nRF24_ce_write
 123              		.section	.text.nRF24_spi_xfer,"ax",%progbits
 124              		.align	2
 125              		.global	nRF24_spi_xfer
 126              		.code	16
 127              		.thumb_func
 128              		.type	nRF24_spi_xfer, %function
 129              	nRF24_spi_xfer:
 130              	.LFB4:
  80:Generated_Source\PSoC4/nRF24_HAL.c **** 
  81:Generated_Source\PSoC4/nRF24_HAL.c **** // xfer xfer_size bytes to the nrf24 radio and get back xfer_size bytes back
  82:Generated_Source\PSoC4/nRF24_HAL.c **** // from it.
  83:Generated_Source\PSoC4/nRF24_HAL.c **** // in[0] is always the NRF_COMMAND
  84:Generated_Source\PSoC4/nRF24_HAL.c **** // out[0] is always the STATUS_REGISTER
  85:Generated_Source\PSoC4/nRF24_HAL.c **** //
  86:Generated_Source\PSoC4/nRF24_HAL.c **** // Example of use:
  87:Generated_Source\PSoC4/nRF24_HAL.c **** // - To read the radio status register and save it in status_reg variable:
  88:Generated_Source\PSoC4/nRF24_HAL.c **** //
ARM GAS  C:\Users\d3bug\AppData\Local\Temp\ccLjXxQe.s 			page 5


  89:Generated_Source\PSoC4/nRF24_HAL.c **** // uint8_t NRF_DUMMY = 0xFF;
  90:Generated_Source\PSoC4/nRF24_HAL.c **** // uint8_t status_reg = 0;
  91:Generated_Source\PSoC4/nRF24_HAL.c **** // nrf24_spi_xfer(&NRF_DUMMY, &status_reg, 1);
  92:Generated_Source\PSoC4/nRF24_HAL.c **** void nRF24_spi_xfer(const uint8_t *in, uint8_t *out, const size_t xfer_size)
  93:Generated_Source\PSoC4/nRF24_HAL.c **** {
 131              		.loc 1 93 0
 132              		.cfi_startproc
 133              		@ args = 0, pretend = 0, frame = 0
 134              		@ frame_needed = 0, uses_anonymous_args = 0
 135              	.LVL12:
 136 0000 F0B5     		push	{r4, r5, r6, r7, lr}
 137              		.cfi_def_cfa_offset 20
 138              		.cfi_offset 4, -20
 139              		.cfi_offset 5, -16
 140              		.cfi_offset 6, -12
 141              		.cfi_offset 7, -8
 142              		.cfi_offset 14, -4
 143 0002 4746     		mov	r7, r8
 144 0004 80B4     		push	{r7}
 145              		.cfi_def_cfa_offset 24
 146              		.cfi_offset 8, -24
 147 0006 8046     		mov	r8, r0
 148 0008 0F00     		movs	r7, r1
 149 000a 1600     		movs	r6, r2
  94:Generated_Source\PSoC4/nRF24_HAL.c ****     nRF24_spi_clear_fifo();
 150              		.loc 1 94 0
 151 000c FFF7FEFF 		bl	nRF24_spi_clear_fifo
 152              	.LVL13:
  95:Generated_Source\PSoC4/nRF24_HAL.c **** 
  96:Generated_Source\PSoC4/nRF24_HAL.c ****     nRF24_ss_write(GPIO_CLEAR);
 153              		.loc 1 96 0
 154 0010 0020     		movs	r0, #0
 155 0012 FFF7FEFF 		bl	nRF24_ss_write
 156              	.LVL14:
 157              	.LBB2:
  97:Generated_Source\PSoC4/nRF24_HAL.c **** 
  98:Generated_Source\PSoC4/nRF24_HAL.c **** #if defined (_PSOC6)
  99:Generated_Source\PSoC4/nRF24_HAL.c ****     for(size_t i = 0; i < xfer_size; i++){
 100:Generated_Source\PSoC4/nRF24_HAL.c ****         while(Cy_SCB_Write(SPI_HW, in[i]) == 0);
 101:Generated_Source\PSoC4/nRF24_HAL.c ****         while (Cy_SCB_GetNumInRxFifo(SPI_HW) == 0) {}
 102:Generated_Source\PSoC4/nRF24_HAL.c ****         out[i] = Cy_SCB_ReadRxFifo(SPI_HW);
 103:Generated_Source\PSoC4/nRF24_HAL.c ****     }
 104:Generated_Source\PSoC4/nRF24_HAL.c **** #elif defined (_PSOC4_SCB)
 105:Generated_Source\PSoC4/nRF24_HAL.c ****     for (size_t i = 0; i < xfer_size; i++) {
 158              		.loc 1 105 0
 159 0016 0024     		movs	r4, #0
 160 0018 0CE0     		b	.L9
 161              	.LVL15:
 162              	.L11:
 106:Generated_Source\PSoC4/nRF24_HAL.c ****         SPI_SpiUartWriteTxData(in[i]);
 163              		.loc 1 106 0
 164 001a 4346     		mov	r3, r8
 165 001c 185D     		ldrb	r0, [r3, r4]
 166 001e FFF7FEFF 		bl	SPI_SpiUartWriteTxData
 167              	.LVL16:
 168              	.L10:
 107:Generated_Source\PSoC4/nRF24_HAL.c ****         while (SPI_SpiUartGetRxBufferSize() == 0){}
ARM GAS  C:\Users\d3bug\AppData\Local\Temp\ccLjXxQe.s 			page 6


 169              		.loc 1 107 0 discriminator 1
 170 0022 FFF7FEFF 		bl	SPI_SpiUartGetRxBufferSize
 171              	.LVL17:
 172 0026 0028     		cmp	r0, #0
 173 0028 FBD0     		beq	.L10
 108:Generated_Source\PSoC4/nRF24_HAL.c ****         out[i] = SPI_SpiUartReadRxData();
 174              		.loc 1 108 0 discriminator 2
 175 002a 3D19     		adds	r5, r7, r4
 176 002c FFF7FEFF 		bl	SPI_SpiUartReadRxData
 177              	.LVL18:
 178 0030 2870     		strb	r0, [r5]
 105:Generated_Source\PSoC4/nRF24_HAL.c ****         SPI_SpiUartWriteTxData(in[i]);
 179              		.loc 1 105 0 discriminator 2
 180 0032 0134     		adds	r4, r4, #1
 181              	.LVL19:
 182              	.L9:
 105:Generated_Source\PSoC4/nRF24_HAL.c ****         SPI_SpiUartWriteTxData(in[i]);
 183              		.loc 1 105 0 is_stmt 0 discriminator 1
 184 0034 B442     		cmp	r4, r6
 185 0036 F0D3     		bcc	.L11
 186              	.LBE2:
 109:Generated_Source\PSoC4/nRF24_HAL.c ****     }
 110:Generated_Source\PSoC4/nRF24_HAL.c **** #elif defined (_PSOC_UDB)
 111:Generated_Source\PSoC4/nRF24_HAL.c ****     for (size_t i = 0; i < xfer_size; i++) {
 112:Generated_Source\PSoC4/nRF24_HAL.c ****         SPI_WriteTxData(in[i]);
 113:Generated_Source\PSoC4/nRF24_HAL.c ****         while (!(SPI_ReadTxStatus() & SPI_STS_BYTE_COMPLETE)) {
 114:Generated_Source\PSoC4/nRF24_HAL.c ****         }
 115:Generated_Source\PSoC4/nRF24_HAL.c ****         out[i] = SPI_ReadRxData();
 116:Generated_Source\PSoC4/nRF24_HAL.c ****     }
 117:Generated_Source\PSoC4/nRF24_HAL.c **** #else
 118:Generated_Source\PSoC4/nRF24_HAL.c ****     #error "Non valid PSoC device identified."
 119:Generated_Source\PSoC4/nRF24_HAL.c **** #endif
 120:Generated_Source\PSoC4/nRF24_HAL.c **** 
 121:Generated_Source\PSoC4/nRF24_HAL.c ****     nRF24_ss_write(GPIO_SET);
 187              		.loc 1 121 0 is_stmt 1
 188 0038 0120     		movs	r0, #1
 189 003a FFF7FEFF 		bl	nRF24_ss_write
 190              	.LVL20:
 122:Generated_Source\PSoC4/nRF24_HAL.c **** }
 191              		.loc 1 122 0
 192              		@ sp needed
 193              	.LVL21:
 194              	.LVL22:
 195              	.LVL23:
 196              	.LVL24:
 197 003e 04BC     		pop	{r2}
 198 0040 9046     		mov	r8, r2
 199 0042 F0BD     		pop	{r4, r5, r6, r7, pc}
 200              		.cfi_endproc
 201              	.LFE4:
 202              		.size	nRF24_spi_xfer, .-nRF24_spi_xfer
 203              		.section	.text.nRF24_read_reg,"ax",%progbits
 204              		.align	2
 205              		.global	nRF24_read_reg
 206              		.code	16
 207              		.thumb_func
 208              		.type	nRF24_read_reg, %function
ARM GAS  C:\Users\d3bug\AppData\Local\Temp\ccLjXxQe.s 			page 7


 209              	nRF24_read_reg:
 210              	.LFB5:
 123:Generated_Source\PSoC4/nRF24_HAL.c **** 
 124:Generated_Source\PSoC4/nRF24_HAL.c **** /**
 125:Generated_Source\PSoC4/nRF24_HAL.c ****  * Read the specified nRF24 register (bigger than 1 byte).
 126:Generated_Source\PSoC4/nRF24_HAL.c ****  *
 127:Generated_Source\PSoC4/nRF24_HAL.c ****  * @param[in]   reg: Register to be read, see @nrf_register.
 128:Generated_Source\PSoC4/nRF24_HAL.c ****  * @param[out]  data: Where the content of the register will be stored.
 129:Generated_Source\PSoC4/nRF24_HAL.c ****  * @param[int]  data_size: Size (in bytes) of the register and data.
 130:Generated_Source\PSoC4/nRF24_HAL.c ****  *
 131:Generated_Source\PSoC4/nRF24_HAL.c ****  * @return      status register.
 132:Generated_Source\PSoC4/nRF24_HAL.c ****  */
 133:Generated_Source\PSoC4/nRF24_HAL.c **** uint8_t nRF24_read_reg(const nrf_register reg,
 134:Generated_Source\PSoC4/nRF24_HAL.c ****     uint8_t *data, const size_t data_size)
 135:Generated_Source\PSoC4/nRF24_HAL.c **** {
 211              		.loc 1 135 0
 212              		.cfi_startproc
 213              		@ args = 0, pretend = 0, frame = 0
 214              		@ frame_needed = 1, uses_anonymous_args = 0
 215              	.LVL25:
 216 0000 F8B5     		push	{r3, r4, r5, r6, r7, lr}
 217              		.cfi_def_cfa_offset 24
 218              		.cfi_offset 3, -24
 219              		.cfi_offset 4, -20
 220              		.cfi_offset 5, -16
 221              		.cfi_offset 6, -12
 222              		.cfi_offset 7, -8
 223              		.cfi_offset 14, -4
 224 0002 00AF     		add	r7, sp, #0
 225              		.cfi_def_cfa_register 7
 226 0004 0C00     		movs	r4, r1
 227 0006 1600     		movs	r6, r2
 136:Generated_Source\PSoC4/nRF24_HAL.c ****     uint8_t data_out[data_size + 1];
 228              		.loc 1 136 0
 229 0008 0132     		adds	r2, r2, #1
 230              	.LVL26:
 231 000a 3300     		movs	r3, r6
 232 000c 0833     		adds	r3, r3, #8
 233 000e DB08     		lsrs	r3, r3, #3
 234 0010 DB00     		lsls	r3, r3, #3
 235 0012 6946     		mov	r1, sp
 236              	.LVL27:
 237 0014 C91A     		subs	r1, r1, r3
 238 0016 8D46     		mov	sp, r1
 239 0018 6D46     		mov	r5, sp
 240              	.LVL28:
 137:Generated_Source\PSoC4/nRF24_HAL.c ****     uint8_t data_in[data_size + 1];
 241              		.loc 1 137 0
 242 001a CB1A     		subs	r3, r1, r3
 243 001c 9D46     		mov	sp, r3
 244              	.LVL29:
 138:Generated_Source\PSoC4/nRF24_HAL.c ****     
 139:Generated_Source\PSoC4/nRF24_HAL.c ****     data_in[0] = NRF_CMD_R_REGISTER | reg;
 245              		.loc 1 139 0
 246 001e 1870     		strb	r0, [r3]
 140:Generated_Source\PSoC4/nRF24_HAL.c ****     nRF24_spi_xfer(data_in, data_out, sizeof data_in/sizeof *data_in);
 247              		.loc 1 140 0
ARM GAS  C:\Users\d3bug\AppData\Local\Temp\ccLjXxQe.s 			page 8


 248 0020 6846     		mov	r0, sp
 249              	.LVL30:
 250 0022 FFF7FEFF 		bl	nRF24_spi_xfer
 251              	.LVL31:
 141:Generated_Source\PSoC4/nRF24_HAL.c ****     memcpy(data, &data_out[1], data_size);
 252              		.loc 1 141 0
 253 0026 691C     		adds	r1, r5, #1
 254 0028 3200     		movs	r2, r6
 255 002a 2000     		movs	r0, r4
 256 002c FFF7FEFF 		bl	memcpy
 257              	.LVL32:
 142:Generated_Source\PSoC4/nRF24_HAL.c ****     
 143:Generated_Source\PSoC4/nRF24_HAL.c ****     // Return the NRF_STATUS register.
 144:Generated_Source\PSoC4/nRF24_HAL.c ****     return data_out[0];
 258              		.loc 1 144 0
 259 0030 2878     		ldrb	r0, [r5]
 145:Generated_Source\PSoC4/nRF24_HAL.c **** }
 260              		.loc 1 145 0
 261 0032 BD46     		mov	sp, r7
 262              	.LVL33:
 263              		@ sp needed
 264              	.LVL34:
 265              	.LVL35:
 266              	.LVL36:
 267 0034 F8BD     		pop	{r3, r4, r5, r6, r7, pc}
 268              		.cfi_endproc
 269              	.LFE5:
 270              		.size	nRF24_read_reg, .-nRF24_read_reg
 271 0036 C046     		.section	.text.nRF24_write_reg,"ax",%progbits
 272              		.align	2
 273              		.global	nRF24_write_reg
 274              		.code	16
 275              		.thumb_func
 276              		.type	nRF24_write_reg, %function
 277              	nRF24_write_reg:
 278              	.LFB6:
 146:Generated_Source\PSoC4/nRF24_HAL.c **** 
 147:Generated_Source\PSoC4/nRF24_HAL.c **** /**
 148:Generated_Source\PSoC4/nRF24_HAL.c ****  * Read the specified nRF24 register (bigger than 1 byte).
 149:Generated_Source\PSoC4/nRF24_HAL.c ****  *
 150:Generated_Source\PSoC4/nRF24_HAL.c ****  * @param[in]   reg: Register to be read, see @nrf_register.
 151:Generated_Source\PSoC4/nRF24_HAL.c ****  * @param[in]   data: Data to be written to the register.
 152:Generated_Source\PSoC4/nRF24_HAL.c ****  * @param[int]  data_size: Size (in bytes) of the register and data.
 153:Generated_Source\PSoC4/nRF24_HAL.c ****  *
 154:Generated_Source\PSoC4/nRF24_HAL.c ****  * @return      status register.
 155:Generated_Source\PSoC4/nRF24_HAL.c ****  */
 156:Generated_Source\PSoC4/nRF24_HAL.c **** uint8_t nRF24_write_reg(const nrf_register reg,
 157:Generated_Source\PSoC4/nRF24_HAL.c ****     const uint8_t *data, const size_t data_size)
 158:Generated_Source\PSoC4/nRF24_HAL.c **** {
 279              		.loc 1 158 0
 280              		.cfi_startproc
 281              		@ args = 0, pretend = 0, frame = 0
 282              		@ frame_needed = 1, uses_anonymous_args = 0
 283              	.LVL37:
 284 0000 F8B5     		push	{r3, r4, r5, r6, r7, lr}
 285              		.cfi_def_cfa_offset 24
 286              		.cfi_offset 3, -24
ARM GAS  C:\Users\d3bug\AppData\Local\Temp\ccLjXxQe.s 			page 9


 287              		.cfi_offset 4, -20
 288              		.cfi_offset 5, -16
 289              		.cfi_offset 6, -12
 290              		.cfi_offset 7, -8
 291              		.cfi_offset 14, -4
 292 0002 00AF     		add	r7, sp, #0
 293              		.cfi_def_cfa_register 7
 159:Generated_Source\PSoC4/nRF24_HAL.c ****     uint8_t data_out[data_size + 1];
 294              		.loc 1 159 0
 295 0004 541C     		adds	r4, r2, #1
 296 0006 1300     		movs	r3, r2
 297 0008 0833     		adds	r3, r3, #8
 298 000a DB08     		lsrs	r3, r3, #3
 299 000c DB00     		lsls	r3, r3, #3
 300 000e 6D46     		mov	r5, sp
 301 0010 ED1A     		subs	r5, r5, r3
 302 0012 AD46     		mov	sp, r5
 303              	.LVL38:
 160:Generated_Source\PSoC4/nRF24_HAL.c ****     uint8_t data_in[data_size + 1];
 304              		.loc 1 160 0
 305 0014 6E46     		mov	r6, sp
 306 0016 F31A     		subs	r3, r6, r3
 307 0018 9D46     		mov	sp, r3
 308 001a 6E46     		mov	r6, sp
 309              	.LVL39:
 161:Generated_Source\PSoC4/nRF24_HAL.c ****     
 162:Generated_Source\PSoC4/nRF24_HAL.c ****     data_in[0] = NRF_CMD_W_REGISTER | reg;
 310              		.loc 1 162 0
 311 001c 2023     		movs	r3, #32
 312              	.LVL40:
 313 001e 1843     		orrs	r0, r3
 314              	.LVL41:
 315 0020 3070     		strb	r0, [r6]
 163:Generated_Source\PSoC4/nRF24_HAL.c ****     memcpy(&data_in[1], data, data_size);
 316              		.loc 1 163 0
 317 0022 701C     		adds	r0, r6, #1
 318 0024 FFF7FEFF 		bl	memcpy
 319              	.LVL42:
 164:Generated_Source\PSoC4/nRF24_HAL.c **** 
 165:Generated_Source\PSoC4/nRF24_HAL.c ****     nRF24_spi_xfer(data_in, data_out, sizeof data_in/sizeof *data_in);
 320              		.loc 1 165 0
 321 0028 2200     		movs	r2, r4
 322 002a 2900     		movs	r1, r5
 323 002c 6846     		mov	r0, sp
 324 002e FFF7FEFF 		bl	nRF24_spi_xfer
 325              	.LVL43:
 166:Generated_Source\PSoC4/nRF24_HAL.c ****     
 167:Generated_Source\PSoC4/nRF24_HAL.c ****     // Return the NRF_STATUS register.
 168:Generated_Source\PSoC4/nRF24_HAL.c ****     return data_out[0];
 326              		.loc 1 168 0
 327 0032 2878     		ldrb	r0, [r5]
 169:Generated_Source\PSoC4/nRF24_HAL.c **** }
 328              		.loc 1 169 0
 329 0034 BD46     		mov	sp, r7
 330              		@ sp needed
 331              	.LVL44:
 332              	.LVL45:
ARM GAS  C:\Users\d3bug\AppData\Local\Temp\ccLjXxQe.s 			page 10


 333              	.LVL46:
 334 0036 F8BD     		pop	{r3, r4, r5, r6, r7, pc}
 335              		.cfi_endproc
 336              	.LFE6:
 337              		.size	nRF24_write_reg, .-nRF24_write_reg
 338              		.section	.text.nRF24_write_bit,"ax",%progbits
 339              		.align	2
 340              		.code	16
 341              		.thumb_func
 342              		.type	nRF24_write_bit, %function
 343              	nRF24_write_bit:
 344              	.LFB8:
 170:Generated_Source\PSoC4/nRF24_HAL.c **** 
 171:Generated_Source\PSoC4/nRF24_HAL.c **** /**
 172:Generated_Source\PSoC4/nRF24_HAL.c ****  * Read the specified bit.
 173:Generated_Source\PSoC4/nRF24_HAL.c ****  *
 174:Generated_Source\PSoC4/nRF24_HAL.c ****  * @param[in] reg: Register to be read, see @c nrf_register.
 175:Generated_Source\PSoC4/nRF24_HAL.c ****  * @param[in] bit_pos: Bit position to be read.
 176:Generated_Source\PSoC4/nRF24_HAL.c ****  *
 177:Generated_Source\PSoC4/nRF24_HAL.c ****  * @return bool: Bit value.
 178:Generated_Source\PSoC4/nRF24_HAL.c ****  */
 179:Generated_Source\PSoC4/nRF24_HAL.c **** bool nRF24_read_bit(const nrf_register reg, const uint8_t bit_pos)
 180:Generated_Source\PSoC4/nRF24_HAL.c **** {
 181:Generated_Source\PSoC4/nRF24_HAL.c ****     uint8_t reg_val;
 182:Generated_Source\PSoC4/nRF24_HAL.c ****     nRF24_read_reg(reg, &reg_val, 1);
 183:Generated_Source\PSoC4/nRF24_HAL.c ****     return (reg_val & (1 << bit_pos)) != 0;
 184:Generated_Source\PSoC4/nRF24_HAL.c **** }
 185:Generated_Source\PSoC4/nRF24_HAL.c **** 
 186:Generated_Source\PSoC4/nRF24_HAL.c **** /**
 187:Generated_Source\PSoC4/nRF24_HAL.c ****  * Set (1) or clear (0) the specified bit of the specified nRF24 register.
 188:Generated_Source\PSoC4/nRF24_HAL.c ****  *
 189:Generated_Source\PSoC4/nRF24_HAL.c ****  * First we read the specified register and check the content of the specified
 190:Generated_Source\PSoC4/nRF24_HAL.c ****  * bit, exit early if the bit already is the value we wanted, otherwise we set
 191:Generated_Source\PSoC4/nRF24_HAL.c ****  * the bit to the specified value.
 192:Generated_Source\PSoC4/nRF24_HAL.c ****  *
 193:Generated_Source\PSoC4/nRF24_HAL.c ****  * @param[in] reg: Register to be written, see @c nrf_register.
 194:Generated_Source\PSoC4/nRF24_HAL.c ****  * @param[in] bit_pos: Position of the bit to be written.
 195:Generated_Source\PSoC4/nRF24_HAL.c ****  * @param[in] value: Value (1 or 0) to write into the bit.
 196:Generated_Source\PSoC4/nRF24_HAL.c ****  */
 197:Generated_Source\PSoC4/nRF24_HAL.c **** static void nRF24_write_bit(const nrf_register reg,
 198:Generated_Source\PSoC4/nRF24_HAL.c ****                                   const uint8_t bit_pos, const bool value)
 199:Generated_Source\PSoC4/nRF24_HAL.c **** {
 345              		.loc 1 199 0
 346              		.cfi_startproc
 347              		@ args = 0, pretend = 0, frame = 8
 348              		@ frame_needed = 0, uses_anonymous_args = 0
 349              	.LVL47:
 350 0000 F0B5     		push	{r4, r5, r6, r7, lr}
 351              		.cfi_def_cfa_offset 20
 352              		.cfi_offset 4, -20
 353              		.cfi_offset 5, -16
 354              		.cfi_offset 6, -12
 355              		.cfi_offset 7, -8
 356              		.cfi_offset 14, -4
 357 0002 83B0     		sub	sp, sp, #12
 358              		.cfi_def_cfa_offset 32
 359 0004 0400     		movs	r4, r0
ARM GAS  C:\Users\d3bug\AppData\Local\Temp\ccLjXxQe.s 			page 11


 360 0006 0F00     		movs	r7, r1
 361 0008 1600     		movs	r6, r2
 200:Generated_Source\PSoC4/nRF24_HAL.c ****     uint8_t temp;
 201:Generated_Source\PSoC4/nRF24_HAL.c ****     nRF24_read_reg(reg, &temp, 1);
 362              		.loc 1 201 0
 363 000a 6B46     		mov	r3, sp
 364 000c DD1D     		adds	r5, r3, #7
 365 000e 0122     		movs	r2, #1
 366              	.LVL48:
 367 0010 2900     		movs	r1, r5
 368              	.LVL49:
 369 0012 FFF7FEFF 		bl	nRF24_read_reg
 370              	.LVL50:
 202:Generated_Source\PSoC4/nRF24_HAL.c ****     
 203:Generated_Source\PSoC4/nRF24_HAL.c ****     const uint8_t bit_mask = 1 << bit_pos;
 371              		.loc 1 203 0
 372 0016 0123     		movs	r3, #1
 373 0018 BB40     		lsls	r3, r3, r7
 374 001a D9B2     		uxtb	r1, r3
 375              	.LVL51:
 204:Generated_Source\PSoC4/nRF24_HAL.c ****     
 205:Generated_Source\PSoC4/nRF24_HAL.c ****     // Read the bit value before writing to it.
 206:Generated_Source\PSoC4/nRF24_HAL.c ****     // Check if the bit is 1
 207:Generated_Source\PSoC4/nRF24_HAL.c ****     if ((temp & bit_mask) != 0) {
 376              		.loc 1 207 0
 377 001c 2A78     		ldrb	r2, [r5]
 378 001e 0A42     		tst	r2, r1
 379 0020 02D0     		beq	.L15
 208:Generated_Source\PSoC4/nRF24_HAL.c ****         // it is 1, return if we wanted to set it to 1
 209:Generated_Source\PSoC4/nRF24_HAL.c ****         if (value) {
 380              		.loc 1 209 0
 381 0022 002E     		cmp	r6, #0
 382 0024 0ED1     		bne	.L14
 383 0026 01E0     		b	.L17
 384              	.L15:
 210:Generated_Source\PSoC4/nRF24_HAL.c ****             return;
 211:Generated_Source\PSoC4/nRF24_HAL.c ****         }
 212:Generated_Source\PSoC4/nRF24_HAL.c ****     } else { // the bit is 0
 213:Generated_Source\PSoC4/nRF24_HAL.c ****         // it is 0, return if we wanted to set it to 0
 214:Generated_Source\PSoC4/nRF24_HAL.c ****         if (!value) {
 385              		.loc 1 214 0
 386 0028 002E     		cmp	r6, #0
 387 002a 0BD0     		beq	.L14
 388              	.L17:
 215:Generated_Source\PSoC4/nRF24_HAL.c ****             return;
 216:Generated_Source\PSoC4/nRF24_HAL.c ****         }
 217:Generated_Source\PSoC4/nRF24_HAL.c ****     }
 218:Generated_Source\PSoC4/nRF24_HAL.c **** 
 219:Generated_Source\PSoC4/nRF24_HAL.c ****     // Calculate the new value to be written into the register
 220:Generated_Source\PSoC4/nRF24_HAL.c ****     temp = value ? temp | bit_mask : temp & ~bit_mask;
 389              		.loc 1 220 0
 390 002c 002E     		cmp	r6, #0
 391 002e 01D0     		beq	.L18
 392              		.loc 1 220 0 is_stmt 0 discriminator 1
 393 0030 0A43     		orrs	r2, r1
 394 0032 00E0     		b	.L19
 395              	.L18:
ARM GAS  C:\Users\d3bug\AppData\Local\Temp\ccLjXxQe.s 			page 12


 396              		.loc 1 220 0 discriminator 2
 397 0034 9A43     		bics	r2, r3
 398              	.L19:
 399              		.loc 1 220 0 discriminator 4
 400 0036 6B46     		mov	r3, sp
 401 0038 D91D     		adds	r1, r3, #7
 402              	.LVL52:
 403 003a 0A70     		strb	r2, [r1]
 221:Generated_Source\PSoC4/nRF24_HAL.c **** 
 222:Generated_Source\PSoC4/nRF24_HAL.c ****     nRF24_write_reg(reg, &temp, 1);
 404              		.loc 1 222 0 is_stmt 1 discriminator 4
 405 003c 0122     		movs	r2, #1
 406              	.LVL53:
 407 003e 2000     		movs	r0, r4
 408 0040 FFF7FEFF 		bl	nRF24_write_reg
 409              	.LVL54:
 410              	.L14:
 223:Generated_Source\PSoC4/nRF24_HAL.c **** }
 411              		.loc 1 223 0
 412 0044 03B0     		add	sp, sp, #12
 413              		@ sp needed
 414              	.LVL55:
 415 0046 F0BD     		pop	{r4, r5, r6, r7, pc}
 416              		.cfi_endproc
 417              	.LFE8:
 418              		.size	nRF24_write_bit, .-nRF24_write_bit
 419              		.section	.text.nRF24_read_bit,"ax",%progbits
 420              		.align	2
 421              		.global	nRF24_read_bit
 422              		.code	16
 423              		.thumb_func
 424              		.type	nRF24_read_bit, %function
 425              	nRF24_read_bit:
 426              	.LFB7:
 180:Generated_Source\PSoC4/nRF24_HAL.c ****     uint8_t reg_val;
 427              		.loc 1 180 0
 428              		.cfi_startproc
 429              		@ args = 0, pretend = 0, frame = 8
 430              		@ frame_needed = 0, uses_anonymous_args = 0
 431              	.LVL56:
 432 0000 30B5     		push	{r4, r5, lr}
 433              		.cfi_def_cfa_offset 12
 434              		.cfi_offset 4, -12
 435              		.cfi_offset 5, -8
 436              		.cfi_offset 14, -4
 437 0002 83B0     		sub	sp, sp, #12
 438              		.cfi_def_cfa_offset 24
 439 0004 0D00     		movs	r5, r1
 182:Generated_Source\PSoC4/nRF24_HAL.c ****     return (reg_val & (1 << bit_pos)) != 0;
 440              		.loc 1 182 0
 441 0006 6B46     		mov	r3, sp
 442 0008 DC1D     		adds	r4, r3, #7
 443 000a 0122     		movs	r2, #1
 444 000c 2100     		movs	r1, r4
 445              	.LVL57:
 446 000e FFF7FEFF 		bl	nRF24_read_reg
 447              	.LVL58:
ARM GAS  C:\Users\d3bug\AppData\Local\Temp\ccLjXxQe.s 			page 13


 183:Generated_Source\PSoC4/nRF24_HAL.c **** }
 448              		.loc 1 183 0
 449 0012 2078     		ldrb	r0, [r4]
 450 0014 2841     		asrs	r0, r0, r5
 451 0016 0123     		movs	r3, #1
 452 0018 1840     		ands	r0, r3
 184:Generated_Source\PSoC4/nRF24_HAL.c **** 
 453              		.loc 1 184 0
 454 001a 03B0     		add	sp, sp, #12
 455              		@ sp needed
 456 001c 30BD     		pop	{r4, r5, pc}
 457              		.cfi_endproc
 458              	.LFE7:
 459              		.size	nRF24_read_bit, .-nRF24_read_bit
 460 001e C046     		.section	.text.nRF24_clear_bit,"ax",%progbits
 461              		.align	2
 462              		.global	nRF24_clear_bit
 463              		.code	16
 464              		.thumb_func
 465              		.type	nRF24_clear_bit, %function
 466              	nRF24_clear_bit:
 467              	.LFB9:
 224:Generated_Source\PSoC4/nRF24_HAL.c **** 
 225:Generated_Source\PSoC4/nRF24_HAL.c **** /**
 226:Generated_Source\PSoC4/nRF24_HAL.c ****  * Set to 0 the specified bit of the specified nRF24 register.
 227:Generated_Source\PSoC4/nRF24_HAL.c ****  *
 228:Generated_Source\PSoC4/nRF24_HAL.c ****  * @param[in]   reg: Register to be written, see @c nrf_register.
 229:Generated_Source\PSoC4/nRF24_HAL.c ****  * @param[in]   bit_pos: Position of the bit to be written.
 230:Generated_Source\PSoC4/nRF24_HAL.c ****  */
 231:Generated_Source\PSoC4/nRF24_HAL.c **** void nRF24_clear_bit(const nrf_register reg, const uint8_t bit_pos)
 232:Generated_Source\PSoC4/nRF24_HAL.c **** {
 468              		.loc 1 232 0
 469              		.cfi_startproc
 470              		@ args = 0, pretend = 0, frame = 0
 471              		@ frame_needed = 0, uses_anonymous_args = 0
 472              	.LVL59:
 473 0000 10B5     		push	{r4, lr}
 474              		.cfi_def_cfa_offset 8
 475              		.cfi_offset 4, -8
 476              		.cfi_offset 14, -4
 233:Generated_Source\PSoC4/nRF24_HAL.c ****     if (8 < bit_pos) {
 477              		.loc 1 233 0
 478 0002 0829     		cmp	r1, #8
 479 0004 02D8     		bhi	.L22
 234:Generated_Source\PSoC4/nRF24_HAL.c ****         return;
 235:Generated_Source\PSoC4/nRF24_HAL.c ****     }
 236:Generated_Source\PSoC4/nRF24_HAL.c **** 
 237:Generated_Source\PSoC4/nRF24_HAL.c ****     nRF24_write_bit(reg, bit_pos, 0);
 480              		.loc 1 237 0
 481 0006 0022     		movs	r2, #0
 482 0008 FFF7FEFF 		bl	nRF24_write_bit
 483              	.LVL60:
 484              	.L22:
 238:Generated_Source\PSoC4/nRF24_HAL.c **** }
 485              		.loc 1 238 0
 486              		@ sp needed
 487 000c 10BD     		pop	{r4, pc}
ARM GAS  C:\Users\d3bug\AppData\Local\Temp\ccLjXxQe.s 			page 14


 488              		.cfi_endproc
 489              	.LFE9:
 490              		.size	nRF24_clear_bit, .-nRF24_clear_bit
 491 000e C046     		.section	.text.nRF24_set_bit,"ax",%progbits
 492              		.align	2
 493              		.global	nRF24_set_bit
 494              		.code	16
 495              		.thumb_func
 496              		.type	nRF24_set_bit, %function
 497              	nRF24_set_bit:
 498              	.LFB10:
 239:Generated_Source\PSoC4/nRF24_HAL.c **** 
 240:Generated_Source\PSoC4/nRF24_HAL.c **** /**
 241:Generated_Source\PSoC4/nRF24_HAL.c ****  * Set to 1 the specified bit of the specified nRF24 register.
 242:Generated_Source\PSoC4/nRF24_HAL.c ****  *
 243:Generated_Source\PSoC4/nRF24_HAL.c ****  * @param[in]   reg: Register to be written, see @c nrf_register.
 244:Generated_Source\PSoC4/nRF24_HAL.c ****  * @param[in]   bit_pos: Position of the bit to be written.
 245:Generated_Source\PSoC4/nRF24_HAL.c ****  */
 246:Generated_Source\PSoC4/nRF24_HAL.c **** void nRF24_set_bit(const nrf_register reg, const uint8_t bit_pos)
 247:Generated_Source\PSoC4/nRF24_HAL.c **** {
 499              		.loc 1 247 0
 500              		.cfi_startproc
 501              		@ args = 0, pretend = 0, frame = 0
 502              		@ frame_needed = 0, uses_anonymous_args = 0
 503              	.LVL61:
 504 0000 10B5     		push	{r4, lr}
 505              		.cfi_def_cfa_offset 8
 506              		.cfi_offset 4, -8
 507              		.cfi_offset 14, -4
 248:Generated_Source\PSoC4/nRF24_HAL.c ****     if (8 < bit_pos) {
 508              		.loc 1 248 0
 509 0002 0829     		cmp	r1, #8
 510 0004 02D8     		bhi	.L24
 249:Generated_Source\PSoC4/nRF24_HAL.c ****         return;
 250:Generated_Source\PSoC4/nRF24_HAL.c ****     }
 251:Generated_Source\PSoC4/nRF24_HAL.c **** 
 252:Generated_Source\PSoC4/nRF24_HAL.c ****     nRF24_write_bit(reg, bit_pos, 1);
 511              		.loc 1 252 0
 512 0006 0122     		movs	r2, #1
 513 0008 FFF7FEFF 		bl	nRF24_write_bit
 514              	.LVL62:
 515              	.L24:
 253:Generated_Source\PSoC4/nRF24_HAL.c **** }
 516              		.loc 1 253 0
 517              		@ sp needed
 518 000c 10BD     		pop	{r4, pc}
 519              		.cfi_endproc
 520              	.LFE10:
 521              		.size	nRF24_set_bit, .-nRF24_set_bit
 522 000e C046     		.text
 523              	.Letext0:
 524              		.file 2 "c:\\program files (x86)\\cypress\\psoc creator\\4.2\\psoc creator\\import\\gnu\\arm\\5.4.
 525              		.file 3 "c:\\program files (x86)\\cypress\\psoc creator\\4.2\\psoc creator\\import\\gnu\\arm\\5.4.
 526              		.file 4 "c:\\program files (x86)\\cypress\\psoc creator\\4.2\\psoc creator\\import\\gnu\\arm\\5.4.
 527              		.file 5 "Generated_Source\\PSoC4\\nRF24_DEFS.h"
 528              		.file 6 "Generated_Source\\PSoC4\\nRF24_HAL.h"
 529              		.file 7 "Generated_Source\\PSoC4\\SPI_SPI_UART.h"
ARM GAS  C:\Users\d3bug\AppData\Local\Temp\ccLjXxQe.s 			page 15


 530              		.file 8 "Generated_Source\\PSoC4\\SS.h"
 531              		.file 9 "Generated_Source\\PSoC4\\CE.h"