ARM GAS  C:\Users\Xwx47\AppData\Local\Temp\ccidPk4n.s 			page 1


   1              		.syntax unified
   2              		.cpu cortex-m0plus
   3              		.fpu softvfp
   4              		.eabi_attribute 20, 1
   5              		.eabi_attribute 21, 1
   6              		.eabi_attribute 23, 3
   7              		.eabi_attribute 24, 1
   8              		.eabi_attribute 25, 1
   9              		.eabi_attribute 26, 1
  10              		.eabi_attribute 30, 1
  11              		.eabi_attribute 34, 0
  12              		.eabi_attribute 18, 4
  13              		.thumb
  14              		.syntax unified
  15              		.file	"nRF24_NRF_FUNCS.c"
  16              		.text
  17              	.Ltext0:
  18              		.cfi_sections	.debug_frame
  19              		.section	.text.nRF24_init,"ax",%progbits
  20              		.align	2
  21              		.global	nRF24_init
  22              		.code	16
  23              		.thumb_func
  24              		.type	nRF24_init, %function
  25              	nRF24_init:
  26              	.LFB2:
  27              		.file 1 "Generated_Source\\PSoC4\\nRF24_NRF_FUNCS.c"
   1:Generated_Source\PSoC4/nRF24_NRF_FUNCS.c **** /****************************************************************************
   2:Generated_Source\PSoC4/nRF24_NRF_FUNCS.c **** * This file is part of the nRF24 Custom Component for PSoC Devices.
   3:Generated_Source\PSoC4/nRF24_NRF_FUNCS.c **** *
   4:Generated_Source\PSoC4/nRF24_NRF_FUNCS.c **** * Copyright (C) 2017 Carlos Diaz <carlos.santiago.diaz@gmail.com>
   5:Generated_Source\PSoC4/nRF24_NRF_FUNCS.c **** *
   6:Generated_Source\PSoC4/nRF24_NRF_FUNCS.c **** * Permission to use, copy, modify, and/or distribute this software for any
   7:Generated_Source\PSoC4/nRF24_NRF_FUNCS.c **** * purpose with or without fee is hereby granted, provided that the above
   8:Generated_Source\PSoC4/nRF24_NRF_FUNCS.c **** * copyright notice and this permission notice appear in all copies.
   9:Generated_Source\PSoC4/nRF24_NRF_FUNCS.c **** *
  10:Generated_Source\PSoC4/nRF24_NRF_FUNCS.c **** * THE SOFTWARE IS PROVIDED "AS IS" AND THE AUTHOR DISCLAIMS ALL WARRANTIES
  11:Generated_Source\PSoC4/nRF24_NRF_FUNCS.c **** * WITH REGARD TO THIS SOFTWARE INCLUDING ALL IMPLIED WARRANTIES OF
  12:Generated_Source\PSoC4/nRF24_NRF_FUNCS.c **** * MERCHANTABILITY AND FITNESS. IN NO EVENT SHALL THE AUTHOR BE LIABLE FOR
  13:Generated_Source\PSoC4/nRF24_NRF_FUNCS.c **** * ANY SPECIAL, DIRECT, INDIRECT, OR CONSEQUENTIAL DAMAGES OR ANY DAMAGES
  14:Generated_Source\PSoC4/nRF24_NRF_FUNCS.c **** * WHATSOEVER RESULTING FROM LOSS OF USE, DATA OR PROFITS, WHETHER IN AN
  15:Generated_Source\PSoC4/nRF24_NRF_FUNCS.c **** * ACTION OF CONTRACT, NEGLIGENCE OR OTHER TORTIOUS ACTION, ARISING OUT OF
  16:Generated_Source\PSoC4/nRF24_NRF_FUNCS.c **** * OR IN CONNECTION WITH THE USE OR PERFORMANCE OF THIS SOFTWARE.
  17:Generated_Source\PSoC4/nRF24_NRF_FUNCS.c **** ****************************************************************************/
  18:Generated_Source\PSoC4/nRF24_NRF_FUNCS.c **** 
  19:Generated_Source\PSoC4/nRF24_NRF_FUNCS.c **** /**
  20:Generated_Source\PSoC4/nRF24_NRF_FUNCS.c **** * @file nRF24_NRF_FUNCS.c
  21:Generated_Source\PSoC4/nRF24_NRF_FUNCS.c **** *
  22:Generated_Source\PSoC4/nRF24_NRF_FUNCS.c **** * @brief This file define all the functions available to the user.
  23:Generated_Source\PSoC4/nRF24_NRF_FUNCS.c **** */
  24:Generated_Source\PSoC4/nRF24_NRF_FUNCS.c **** 
  25:Generated_Source\PSoC4/nRF24_NRF_FUNCS.c **** #include <CE.h>
  26:Generated_Source\PSoC4/nRF24_NRF_FUNCS.c **** #include <SPI.h>
  27:Generated_Source\PSoC4/nRF24_NRF_FUNCS.c **** #include <SS.h>
  28:Generated_Source\PSoC4/nRF24_NRF_FUNCS.c **** 
  29:Generated_Source\PSoC4/nRF24_NRF_FUNCS.c **** #if defined(CY_SCB_SPI_H)
  30:Generated_Source\PSoC4/nRF24_NRF_FUNCS.c **** #include <SPI_SPI_UART.h>
ARM GAS  C:\Users\Xwx47\AppData\Local\Temp\ccidPk4n.s 			page 2


  31:Generated_Source\PSoC4/nRF24_NRF_FUNCS.c **** #endif
  32:Generated_Source\PSoC4/nRF24_NRF_FUNCS.c **** 
  33:Generated_Source\PSoC4/nRF24_NRF_FUNCS.c **** #include "nRF24_LL_SPI.h"
  34:Generated_Source\PSoC4/nRF24_NRF_FUNCS.c **** #include "nRF24_NRF_COMMANDS.h"
  35:Generated_Source\PSoC4/nRF24_NRF_FUNCS.c **** #include "nRF24_NRF_CONFIG.h"
  36:Generated_Source\PSoC4/nRF24_NRF_FUNCS.c **** #include "nRF24_NRF_FUNCS.h"
  37:Generated_Source\PSoC4/nRF24_NRF_FUNCS.c **** #include "nRF24_NRF_REGS.h"
  38:Generated_Source\PSoC4/nRF24_NRF_FUNCS.c **** 
  39:Generated_Source\PSoC4/nRF24_NRF_FUNCS.c **** // nRF24 Power-on-reset delay
  40:Generated_Source\PSoC4/nRF24_NRF_FUNCS.c **** #define nRF24_POR_DELAY 100
  41:Generated_Source\PSoC4/nRF24_NRF_FUNCS.c **** 
  42:Generated_Source\PSoC4/nRF24_NRF_FUNCS.c **** /**
  43:Generated_Source\PSoC4/nRF24_NRF_FUNCS.c ****  * @brief Configure the radio and clear IRQs, TX and RX FIFOs.
  44:Generated_Source\PSoC4/nRF24_NRF_FUNCS.c ****  *
  45:Generated_Source\PSoC4/nRF24_NRF_FUNCS.c ****  * @param
  46:Generated_Source\PSoC4/nRF24_NRF_FUNCS.c ****  *
  47:Generated_Source\PSoC4/nRF24_NRF_FUNCS.c ****  * @return
  48:Generated_Source\PSoC4/nRF24_NRF_FUNCS.c ****  */
  49:Generated_Source\PSoC4/nRF24_NRF_FUNCS.c **** void nRF24_start(void)
  50:Generated_Source\PSoC4/nRF24_NRF_FUNCS.c **** {
  51:Generated_Source\PSoC4/nRF24_NRF_FUNCS.c ****     // Recommended delay to start using the nRF24
  52:Generated_Source\PSoC4/nRF24_NRF_FUNCS.c ****     CyDelay(nRF24_POR_DELAY);
  53:Generated_Source\PSoC4/nRF24_NRF_FUNCS.c ****     
  54:Generated_Source\PSoC4/nRF24_NRF_FUNCS.c ****     // Set SS to logic 1, CE to logic 0 and Start the SPI
  55:Generated_Source\PSoC4/nRF24_NRF_FUNCS.c ****     CE_Write(0);
  56:Generated_Source\PSoC4/nRF24_NRF_FUNCS.c ****     SS_Write(1);
  57:Generated_Source\PSoC4/nRF24_NRF_FUNCS.c ****     SPI_Start();
  58:Generated_Source\PSoC4/nRF24_NRF_FUNCS.c **** 
  59:Generated_Source\PSoC4/nRF24_NRF_FUNCS.c ****     // Configure the nRF24 with the data from the customizer
  60:Generated_Source\PSoC4/nRF24_NRF_FUNCS.c ****     nRF24_init();
  61:Generated_Source\PSoC4/nRF24_NRF_FUNCS.c ****     
  62:Generated_Source\PSoC4/nRF24_NRF_FUNCS.c ****     // Clear IRQ flags
  63:Generated_Source\PSoC4/nRF24_NRF_FUNCS.c ****     nRF24_clearAllIRQs();
  64:Generated_Source\PSoC4/nRF24_NRF_FUNCS.c ****     
  65:Generated_Source\PSoC4/nRF24_NRF_FUNCS.c ****     // Flush both nRF24 FIFOs
  66:Generated_Source\PSoC4/nRF24_NRF_FUNCS.c ****     nRF24_FlushRxCmd();
  67:Generated_Source\PSoC4/nRF24_NRF_FUNCS.c ****     nRF24_FlushTxCmd();
  68:Generated_Source\PSoC4/nRF24_NRF_FUNCS.c **** }
  69:Generated_Source\PSoC4/nRF24_NRF_FUNCS.c **** 
  70:Generated_Source\PSoC4/nRF24_NRF_FUNCS.c **** /**
  71:Generated_Source\PSoC4/nRF24_NRF_FUNCS.c ****  * @brief Configure the nRF24 registers with the data from the customizer.
  72:Generated_Source\PSoC4/nRF24_NRF_FUNCS.c ****  *
  73:Generated_Source\PSoC4/nRF24_NRF_FUNCS.c ****  * @param
  74:Generated_Source\PSoC4/nRF24_NRF_FUNCS.c ****  *
  75:Generated_Source\PSoC4/nRF24_NRF_FUNCS.c ****  * @return
  76:Generated_Source\PSoC4/nRF24_NRF_FUNCS.c ****  */
  77:Generated_Source\PSoC4/nRF24_NRF_FUNCS.c **** void nRF24_init(void)
  78:Generated_Source\PSoC4/nRF24_NRF_FUNCS.c **** {
  28              		.loc 1 78 0
  29              		.cfi_startproc
  30              		@ args = 0, pretend = 0, frame = 0
  31              		@ frame_needed = 0, uses_anonymous_args = 0
  32 0000 10B5     		push	{r4, lr}
  33              		.cfi_def_cfa_offset 8
  34              		.cfi_offset 4, -8
  35              		.cfi_offset 14, -4
  79:Generated_Source\PSoC4/nRF24_NRF_FUNCS.c ****     nRF24_writeRegister( NRF_CONFIG_REG,
ARM GAS  C:\Users\Xwx47\AppData\Local\Temp\ccidPk4n.s 			page 3


  36              		.loc 1 79 0
  37 0002 0B21     		movs	r1, #11
  38 0004 0020     		movs	r0, #0
  39 0006 FFF7FEFF 		bl	nRF24_writeRegister
  40              	.LVL0:
  80:Generated_Source\PSoC4/nRF24_NRF_FUNCS.c ****         (0 << NRF_CONFIG_MASK_RX_DR) | (0 << NRF_CONFIG_MASK_TX_DS) |
  81:Generated_Source\PSoC4/nRF24_NRF_FUNCS.c ****         (0 << NRF_CONFIG_MASK_MAX_RT) | (1 << NRF_CONFIG_EN_CRC) |
  82:Generated_Source\PSoC4/nRF24_NRF_FUNCS.c ****         (0 << NRF_CONFIG_CRCO) | ( 1<< NRF_CONFIG_PWR_UP) |
  83:Generated_Source\PSoC4/nRF24_NRF_FUNCS.c ****         (1 << NRF_CONFIG_PRIM_RX));
  84:Generated_Source\PSoC4/nRF24_NRF_FUNCS.c ****     nRF24_writeRegister(NRF_EN_AA_REG,
  41              		.loc 1 84 0
  42 000a 0021     		movs	r1, #0
  43 000c 0120     		movs	r0, #1
  44 000e FFF7FEFF 		bl	nRF24_writeRegister
  45              	.LVL1:
  85:Generated_Source\PSoC4/nRF24_NRF_FUNCS.c ****         (0 << NRF_EN_AA_ENAA_P5) | (0 << NRF_EN_AA_ENAA_P4) |
  86:Generated_Source\PSoC4/nRF24_NRF_FUNCS.c ****         (0 << NRF_EN_AA_ENAA_P3) | (0 << NRF_EN_AA_ENAA_P2) |
  87:Generated_Source\PSoC4/nRF24_NRF_FUNCS.c ****         (0 << NRF_EN_AA_ENAA_P1) | (0 << NRF_EN_AA_ENAA_P0));
  88:Generated_Source\PSoC4/nRF24_NRF_FUNCS.c ****     nRF24_writeRegister(NRF_EN_RXADDR_REG,
  46              		.loc 1 88 0
  47 0012 0121     		movs	r1, #1
  48 0014 0220     		movs	r0, #2
  49 0016 FFF7FEFF 		bl	nRF24_writeRegister
  50              	.LVL2:
  89:Generated_Source\PSoC4/nRF24_NRF_FUNCS.c ****         (0 << NRF_EN_RXADDR_ERX_P5) | (0 << NRF_EN_RXADDR_ERX_P4) |
  90:Generated_Source\PSoC4/nRF24_NRF_FUNCS.c ****         (0 << NRF_EN_RXADDR_ERX_P3) | (0 << NRF_EN_RXADDR_ERX_P2) |
  91:Generated_Source\PSoC4/nRF24_NRF_FUNCS.c ****         (0 << NRF_EN_RXADDR_ERX_P1) | (1 << NRF_EN_RXADDR_ERX_P0));
  92:Generated_Source\PSoC4/nRF24_NRF_FUNCS.c ****     nRF24_writeRegister(NRF_SETUP_AW_REG, 3);
  51              		.loc 1 92 0
  52 001a 0321     		movs	r1, #3
  53 001c 0320     		movs	r0, #3
  54 001e FFF7FEFF 		bl	nRF24_writeRegister
  55              	.LVL3:
  93:Generated_Source\PSoC4/nRF24_NRF_FUNCS.c ****     nRF24_writeRegister(NRF_SETUP_RETR_REG,
  56              		.loc 1 93 0
  57 0022 0321     		movs	r1, #3
  58 0024 0420     		movs	r0, #4
  59 0026 FFF7FEFF 		bl	nRF24_writeRegister
  60              	.LVL4:
  94:Generated_Source\PSoC4/nRF24_NRF_FUNCS.c ****         (0 << NRF_SETUP_RETR_ARD_SHIFT) | 3);
  95:Generated_Source\PSoC4/nRF24_NRF_FUNCS.c ****     nRF24_writeRegister(NRF_RF_CH_REG, 75);
  61              		.loc 1 95 0
  62 002a 4B21     		movs	r1, #75
  63 002c 0520     		movs	r0, #5
  64 002e FFF7FEFF 		bl	nRF24_writeRegister
  65              	.LVL5:
  96:Generated_Source\PSoC4/nRF24_NRF_FUNCS.c ****     nRF24_writeRegister(NRF_RF_SETUP_REG,
  66              		.loc 1 96 0
  67 0032 2621     		movs	r1, #38
  68 0034 0620     		movs	r0, #6
  69 0036 FFF7FEFF 		bl	nRF24_writeRegister
  70              	.LVL6:
  97:Generated_Source\PSoC4/nRF24_NRF_FUNCS.c ****         (0 << NRF_RF_SETUP_CONT_WAVE) | (4 << NRF_RF_SETUP_RF_DR) |
  98:Generated_Source\PSoC4/nRF24_NRF_FUNCS.c ****         (3 << NRF_RF_SETUP_RF_PWR));
  99:Generated_Source\PSoC4/nRF24_NRF_FUNCS.c ****     nRF24_writeRegister(NRF_DYNPD_REG,
  71              		.loc 1 99 0
  72 003a 0021     		movs	r1, #0
ARM GAS  C:\Users\Xwx47\AppData\Local\Temp\ccidPk4n.s 			page 4


  73 003c 1C20     		movs	r0, #28
  74 003e FFF7FEFF 		bl	nRF24_writeRegister
  75              	.LVL7:
 100:Generated_Source\PSoC4/nRF24_NRF_FUNCS.c ****         (0 << NRF_DYNPD_DPL_P5) | (0 << NRF_DYNPD_DPL_P4) |
 101:Generated_Source\PSoC4/nRF24_NRF_FUNCS.c ****         (0 << NRF_DYNPD_DPL_P3) | (0 << NRF_DYNPD_DPL_P2) |
 102:Generated_Source\PSoC4/nRF24_NRF_FUNCS.c ****         (0 << NRF_DYNPD_DPL_P1) | (0 << NRF_DYNPD_DPL_P0));
 103:Generated_Source\PSoC4/nRF24_NRF_FUNCS.c ****     nRF24_writeRegister(NRF_FEATURE_REG,
  76              		.loc 1 103 0
  77 0042 0021     		movs	r1, #0
  78 0044 1D20     		movs	r0, #29
  79 0046 FFF7FEFF 		bl	nRF24_writeRegister
  80              	.LVL8:
 104:Generated_Source\PSoC4/nRF24_NRF_FUNCS.c ****         (0 << NRF_FEATURE_EN_DPL) | (0 << NRF_FEATURE_EN_ACK_PAY) |
 105:Generated_Source\PSoC4/nRF24_NRF_FUNCS.c ****         (0 << NRF_FEATURE_EN_DYN_ACK));
 106:Generated_Source\PSoC4/nRF24_NRF_FUNCS.c **** 
 107:Generated_Source\PSoC4/nRF24_NRF_FUNCS.c **** // Configuring data pipes
 108:Generated_Source\PSoC4/nRF24_NRF_FUNCS.c **** #if (ENABLE_PIPE0 == 1)
 109:Generated_Source\PSoC4/nRF24_NRF_FUNCS.c ****     // Set data pipe 0 bytes in rx payload
 110:Generated_Source\PSoC4/nRF24_NRF_FUNCS.c ****     nRF24_writeRegister(NRF_RX_PW_P0_REG, 1);
  81              		.loc 1 110 0
  82 004a 0121     		movs	r1, #1
  83 004c 1120     		movs	r0, #17
  84 004e FFF7FEFF 		bl	nRF24_writeRegister
  85              	.LVL9:
 111:Generated_Source\PSoC4/nRF24_NRF_FUNCS.c **** #endif
 112:Generated_Source\PSoC4/nRF24_NRF_FUNCS.c **** #if (ENABLE_PIPE1 == 1)
 113:Generated_Source\PSoC4/nRF24_NRF_FUNCS.c ****     // Set data pipe 1 bytes in rx payload
 114:Generated_Source\PSoC4/nRF24_NRF_FUNCS.c ****     nRF24_writeRegister(NRF_RX_PW_P1_REG, 0);
 115:Generated_Source\PSoC4/nRF24_NRF_FUNCS.c **** #endif
 116:Generated_Source\PSoC4/nRF24_NRF_FUNCS.c **** #if (ENABLE_PIPE2 == 1)
 117:Generated_Source\PSoC4/nRF24_NRF_FUNCS.c ****     // Set data pipe 2 address (LSB)
 118:Generated_Source\PSoC4/nRF24_NRF_FUNCS.c ****     nRF24_writeRegister(NRF_RX_ADDR_P2_REG, 195);
 119:Generated_Source\PSoC4/nRF24_NRF_FUNCS.c ****     // Set data pipe 2 bytes in rx payload
 120:Generated_Source\PSoC4/nRF24_NRF_FUNCS.c ****     nRF24_writeRegister(NRF_RX_PW_P2_REG, 0);
 121:Generated_Source\PSoC4/nRF24_NRF_FUNCS.c **** #endif
 122:Generated_Source\PSoC4/nRF24_NRF_FUNCS.c **** #if (ENABLE_PIPE3 == 1)
 123:Generated_Source\PSoC4/nRF24_NRF_FUNCS.c ****     // Set data pipe 3 address (LSB)
 124:Generated_Source\PSoC4/nRF24_NRF_FUNCS.c ****     nRF24_writeRegister(NRF_RX_ADDR_P3_REG, );
 125:Generated_Source\PSoC4/nRF24_NRF_FUNCS.c ****     // Set data pipe 3 bytes in rx payload
 126:Generated_Source\PSoC4/nRF24_NRF_FUNCS.c ****     nRF24_writeRegister(NRF_RX_PW_P3_REG, 0);
 127:Generated_Source\PSoC4/nRF24_NRF_FUNCS.c **** #endif
 128:Generated_Source\PSoC4/nRF24_NRF_FUNCS.c **** #if (ENABLE_PIPE4 == 1)
 129:Generated_Source\PSoC4/nRF24_NRF_FUNCS.c ****     // Set data pipe 4 address (LSB)
 130:Generated_Source\PSoC4/nRF24_NRF_FUNCS.c ****     nRF24_writeRegister(NRF_RX_ADDR_P4_REG, );
 131:Generated_Source\PSoC4/nRF24_NRF_FUNCS.c ****     // Set data pipe 4 bytes in rx payload
 132:Generated_Source\PSoC4/nRF24_NRF_FUNCS.c ****     nRF24_writeRegister(NRF_RX_PW_P4_REG, 0);
 133:Generated_Source\PSoC4/nRF24_NRF_FUNCS.c **** #endif
 134:Generated_Source\PSoC4/nRF24_NRF_FUNCS.c **** #if (ENABLE_PIPE5 == 1)
 135:Generated_Source\PSoC4/nRF24_NRF_FUNCS.c ****     // Set data pipe 5 address (LSB)
 136:Generated_Source\PSoC4/nRF24_NRF_FUNCS.c ****     nRF24_writeRegister(NRF_RX_ADDR_P5_REG, );
 137:Generated_Source\PSoC4/nRF24_NRF_FUNCS.c ****     // Set data pipe 5 bytes in rx payload
 138:Generated_Source\PSoC4/nRF24_NRF_FUNCS.c ****     nRF24_writeRegister(NRF_RX_PW_P5_REG, 0);
 139:Generated_Source\PSoC4/nRF24_NRF_FUNCS.c **** #endif
 140:Generated_Source\PSoC4/nRF24_NRF_FUNCS.c **** }
  86              		.loc 1 140 0
  87              		@ sp needed
  88 0052 10BD     		pop	{r4, pc}
ARM GAS  C:\Users\Xwx47\AppData\Local\Temp\ccidPk4n.s 			page 5


  89              		.cfi_endproc
  90              	.LFE2:
  91              		.size	nRF24_init, .-nRF24_init
  92              		.section	.text.nRF24_enable,"ax",%progbits
  93              		.align	2
  94              		.global	nRF24_enable
  95              		.code	16
  96              		.thumb_func
  97              		.type	nRF24_enable, %function
  98              	nRF24_enable:
  99              	.LFB3:
 141:Generated_Source\PSoC4/nRF24_NRF_FUNCS.c **** 
 142:Generated_Source\PSoC4/nRF24_NRF_FUNCS.c **** /**
 143:Generated_Source\PSoC4/nRF24_NRF_FUNCS.c ****  * @brief Enable the nRF24 radio.
 144:Generated_Source\PSoC4/nRF24_NRF_FUNCS.c ****  *
 145:Generated_Source\PSoC4/nRF24_NRF_FUNCS.c ****  * @todo Implement this function
 146:Generated_Source\PSoC4/nRF24_NRF_FUNCS.c ****  *
 147:Generated_Source\PSoC4/nRF24_NRF_FUNCS.c ****  * @param
 148:Generated_Source\PSoC4/nRF24_NRF_FUNCS.c ****  *
 149:Generated_Source\PSoC4/nRF24_NRF_FUNCS.c ****  * @return
 150:Generated_Source\PSoC4/nRF24_NRF_FUNCS.c ****  */
 151:Generated_Source\PSoC4/nRF24_NRF_FUNCS.c **** void nRF24_enable(void)
 152:Generated_Source\PSoC4/nRF24_NRF_FUNCS.c **** {
 100              		.loc 1 152 0
 101              		.cfi_startproc
 102              		@ args = 0, pretend = 0, frame = 0
 103              		@ frame_needed = 0, uses_anonymous_args = 0
 104              		@ link register save eliminated.
 153:Generated_Source\PSoC4/nRF24_NRF_FUNCS.c ****     // TODO
 154:Generated_Source\PSoC4/nRF24_NRF_FUNCS.c **** }
 105              		.loc 1 154 0
 106              		@ sp needed
 107 0000 7047     		bx	lr
 108              		.cfi_endproc
 109              	.LFE3:
 110              		.size	nRF24_enable, .-nRF24_enable
 111 0002 C046     		.section	.text.nRF24_stop,"ax",%progbits
 112              		.align	2
 113              		.global	nRF24_stop
 114              		.code	16
 115              		.thumb_func
 116              		.type	nRF24_stop, %function
 117              	nRF24_stop:
 118              	.LFB4:
 155:Generated_Source\PSoC4/nRF24_NRF_FUNCS.c **** 
 156:Generated_Source\PSoC4/nRF24_NRF_FUNCS.c **** /**
 157:Generated_Source\PSoC4/nRF24_NRF_FUNCS.c ****  * @brief Stop the nRF24 radio.
 158:Generated_Source\PSoC4/nRF24_NRF_FUNCS.c ****  *
 159:Generated_Source\PSoC4/nRF24_NRF_FUNCS.c ****  * @todo Implement this function
 160:Generated_Source\PSoC4/nRF24_NRF_FUNCS.c ****  *
 161:Generated_Source\PSoC4/nRF24_NRF_FUNCS.c ****  * @param
 162:Generated_Source\PSoC4/nRF24_NRF_FUNCS.c ****  *
 163:Generated_Source\PSoC4/nRF24_NRF_FUNCS.c ****  * @return
 164:Generated_Source\PSoC4/nRF24_NRF_FUNCS.c ****  */
 165:Generated_Source\PSoC4/nRF24_NRF_FUNCS.c **** void nRF24_stop(void)
 166:Generated_Source\PSoC4/nRF24_NRF_FUNCS.c **** {
 119              		.loc 1 166 0
ARM GAS  C:\Users\Xwx47\AppData\Local\Temp\ccidPk4n.s 			page 6


 120              		.cfi_startproc
 121              		@ args = 0, pretend = 0, frame = 0
 122              		@ frame_needed = 0, uses_anonymous_args = 0
 123              		@ link register save eliminated.
 167:Generated_Source\PSoC4/nRF24_NRF_FUNCS.c ****     // TODO
 168:Generated_Source\PSoC4/nRF24_NRF_FUNCS.c **** }
 124              		.loc 1 168 0
 125              		@ sp needed
 126 0000 7047     		bx	lr
 127              		.cfi_endproc
 128              	.LFE4:
 129              		.size	nRF24_stop, .-nRF24_stop
 130 0002 C046     		.section	.text.nRF24_sleep,"ax",%progbits
 131              		.align	2
 132              		.global	nRF24_sleep
 133              		.code	16
 134              		.thumb_func
 135              		.type	nRF24_sleep, %function
 136              	nRF24_sleep:
 137              	.LFB5:
 169:Generated_Source\PSoC4/nRF24_NRF_FUNCS.c **** 
 170:Generated_Source\PSoC4/nRF24_NRF_FUNCS.c **** /**
 171:Generated_Source\PSoC4/nRF24_NRF_FUNCS.c ****  * @brief Put the nRF24 radio on Sleep mode.
 172:Generated_Source\PSoC4/nRF24_NRF_FUNCS.c ****  *
 173:Generated_Source\PSoC4/nRF24_NRF_FUNCS.c ****  * @todo Implement this function.
 174:Generated_Source\PSoC4/nRF24_NRF_FUNCS.c ****  *
 175:Generated_Source\PSoC4/nRF24_NRF_FUNCS.c ****  * @param
 176:Generated_Source\PSoC4/nRF24_NRF_FUNCS.c ****  *
 177:Generated_Source\PSoC4/nRF24_NRF_FUNCS.c ****  * @return
 178:Generated_Source\PSoC4/nRF24_NRF_FUNCS.c ****  */
 179:Generated_Source\PSoC4/nRF24_NRF_FUNCS.c **** void nRF24_sleep(void)
 180:Generated_Source\PSoC4/nRF24_NRF_FUNCS.c **** {
 138              		.loc 1 180 0
 139              		.cfi_startproc
 140              		@ args = 0, pretend = 0, frame = 0
 141              		@ frame_needed = 0, uses_anonymous_args = 0
 142              		@ link register save eliminated.
 181:Generated_Source\PSoC4/nRF24_NRF_FUNCS.c ****     // TODO
 182:Generated_Source\PSoC4/nRF24_NRF_FUNCS.c **** }
 143              		.loc 1 182 0
 144              		@ sp needed
 145 0000 7047     		bx	lr
 146              		.cfi_endproc
 147              	.LFE5:
 148              		.size	nRF24_sleep, .-nRF24_sleep
 149 0002 C046     		.section	.text.nRF24_wakeup,"ax",%progbits
 150              		.align	2
 151              		.global	nRF24_wakeup
 152              		.code	16
 153              		.thumb_func
 154              		.type	nRF24_wakeup, %function
 155              	nRF24_wakeup:
 156              	.LFB6:
 183:Generated_Source\PSoC4/nRF24_NRF_FUNCS.c **** 
 184:Generated_Source\PSoC4/nRF24_NRF_FUNCS.c **** /**
 185:Generated_Source\PSoC4/nRF24_NRF_FUNCS.c ****  * @brief Wakeup the nRF24 radio, and restore the configuration.
 186:Generated_Source\PSoC4/nRF24_NRF_FUNCS.c ****  *
ARM GAS  C:\Users\Xwx47\AppData\Local\Temp\ccidPk4n.s 			page 7


 187:Generated_Source\PSoC4/nRF24_NRF_FUNCS.c ****  * @todo Implement this function.
 188:Generated_Source\PSoC4/nRF24_NRF_FUNCS.c ****  *
 189:Generated_Source\PSoC4/nRF24_NRF_FUNCS.c ****  * @param
 190:Generated_Source\PSoC4/nRF24_NRF_FUNCS.c ****  *
 191:Generated_Source\PSoC4/nRF24_NRF_FUNCS.c ****  * @return
 192:Generated_Source\PSoC4/nRF24_NRF_FUNCS.c ****  */
 193:Generated_Source\PSoC4/nRF24_NRF_FUNCS.c **** void nRF24_wakeup(void)
 194:Generated_Source\PSoC4/nRF24_NRF_FUNCS.c **** {
 157              		.loc 1 194 0
 158              		.cfi_startproc
 159              		@ args = 0, pretend = 0, frame = 0
 160              		@ frame_needed = 0, uses_anonymous_args = 0
 161              		@ link register save eliminated.
 195:Generated_Source\PSoC4/nRF24_NRF_FUNCS.c ****     // TODO
 196:Generated_Source\PSoC4/nRF24_NRF_FUNCS.c **** }
 162              		.loc 1 196 0
 163              		@ sp needed
 164 0000 7047     		bx	lr
 165              		.cfi_endproc
 166              	.LFE6:
 167              		.size	nRF24_wakeup, .-nRF24_wakeup
 168 0002 C046     		.section	.text.nRF24_saveConfig,"ax",%progbits
 169              		.align	2
 170              		.global	nRF24_saveConfig
 171              		.code	16
 172              		.thumb_func
 173              		.type	nRF24_saveConfig, %function
 174              	nRF24_saveConfig:
 175              	.LFB7:
 197:Generated_Source\PSoC4/nRF24_NRF_FUNCS.c **** 
 198:Generated_Source\PSoC4/nRF24_NRF_FUNCS.c **** /**
 199:Generated_Source\PSoC4/nRF24_NRF_FUNCS.c ****  * @brief Save the nRF24 radio configuration.
 200:Generated_Source\PSoC4/nRF24_NRF_FUNCS.c ****  *
 201:Generated_Source\PSoC4/nRF24_NRF_FUNCS.c ****  * @todo Implement this function.
 202:Generated_Source\PSoC4/nRF24_NRF_FUNCS.c ****  *
 203:Generated_Source\PSoC4/nRF24_NRF_FUNCS.c ****  * @param
 204:Generated_Source\PSoC4/nRF24_NRF_FUNCS.c ****  *
 205:Generated_Source\PSoC4/nRF24_NRF_FUNCS.c ****  * @return
 206:Generated_Source\PSoC4/nRF24_NRF_FUNCS.c ****  */
 207:Generated_Source\PSoC4/nRF24_NRF_FUNCS.c **** void nRF24_saveConfig(void)
 208:Generated_Source\PSoC4/nRF24_NRF_FUNCS.c **** {
 176              		.loc 1 208 0
 177              		.cfi_startproc
 178              		@ args = 0, pretend = 0, frame = 0
 179              		@ frame_needed = 0, uses_anonymous_args = 0
 180              		@ link register save eliminated.
 209:Generated_Source\PSoC4/nRF24_NRF_FUNCS.c ****     // TODO
 210:Generated_Source\PSoC4/nRF24_NRF_FUNCS.c **** }
 181              		.loc 1 210 0
 182              		@ sp needed
 183 0000 7047     		bx	lr
 184              		.cfi_endproc
 185              	.LFE7:
 186              		.size	nRF24_saveConfig, .-nRF24_saveConfig
 187 0002 C046     		.section	.text.nRF24_restoreConfig,"ax",%progbits
 188              		.align	2
 189              		.global	nRF24_restoreConfig
ARM GAS  C:\Users\Xwx47\AppData\Local\Temp\ccidPk4n.s 			page 8


 190              		.code	16
 191              		.thumb_func
 192              		.type	nRF24_restoreConfig, %function
 193              	nRF24_restoreConfig:
 194              	.LFB8:
 211:Generated_Source\PSoC4/nRF24_NRF_FUNCS.c **** 
 212:Generated_Source\PSoC4/nRF24_NRF_FUNCS.c **** /**
 213:Generated_Source\PSoC4/nRF24_NRF_FUNCS.c ****  * @brief Restore the nRF24 radio configuration.
 214:Generated_Source\PSoC4/nRF24_NRF_FUNCS.c ****  *
 215:Generated_Source\PSoC4/nRF24_NRF_FUNCS.c ****  * @todo Implement this function.
 216:Generated_Source\PSoC4/nRF24_NRF_FUNCS.c ****  *
 217:Generated_Source\PSoC4/nRF24_NRF_FUNCS.c ****  * @param
 218:Generated_Source\PSoC4/nRF24_NRF_FUNCS.c ****  *
 219:Generated_Source\PSoC4/nRF24_NRF_FUNCS.c ****  * @return
 220:Generated_Source\PSoC4/nRF24_NRF_FUNCS.c ****  */
 221:Generated_Source\PSoC4/nRF24_NRF_FUNCS.c **** void nRF24_restoreConfig(void)
 222:Generated_Source\PSoC4/nRF24_NRF_FUNCS.c **** {
 195              		.loc 1 222 0
 196              		.cfi_startproc
 197              		@ args = 0, pretend = 0, frame = 0
 198              		@ frame_needed = 0, uses_anonymous_args = 0
 199              		@ link register save eliminated.
 223:Generated_Source\PSoC4/nRF24_NRF_FUNCS.c ****     // TODO
 224:Generated_Source\PSoC4/nRF24_NRF_FUNCS.c **** }
 200              		.loc 1 224 0
 201              		@ sp needed
 202 0000 7047     		bx	lr
 203              		.cfi_endproc
 204              	.LFE8:
 205              		.size	nRF24_restoreConfig, .-nRF24_restoreConfig
 206 0002 C046     		.section	.text.nRF24_setPowerDownMode,"ax",%progbits
 207              		.align	2
 208              		.global	nRF24_setPowerDownMode
 209              		.code	16
 210              		.thumb_func
 211              		.type	nRF24_setPowerDownMode, %function
 212              	nRF24_setPowerDownMode:
 213              	.LFB10:
 225:Generated_Source\PSoC4/nRF24_NRF_FUNCS.c **** 
 226:Generated_Source\PSoC4/nRF24_NRF_FUNCS.c **** /**
 227:Generated_Source\PSoC4/nRF24_NRF_FUNCS.c ****  * @brief Configure the radio as Receiver or Transmitter.
 228:Generated_Source\PSoC4/nRF24_NRF_FUNCS.c ****  *
 229:Generated_Source\PSoC4/nRF24_NRF_FUNCS.c ****  * @param const NrfMode mode: The radio can be configured as Receiver (PRX)
 230:Generated_Source\PSoC4/nRF24_NRF_FUNCS.c ****  * or Transmitter (PTX).
 231:Generated_Source\PSoC4/nRF24_NRF_FUNCS.c ****  *
 232:Generated_Source\PSoC4/nRF24_NRF_FUNCS.c ****  * @return
 233:Generated_Source\PSoC4/nRF24_NRF_FUNCS.c ****  */
 234:Generated_Source\PSoC4/nRF24_NRF_FUNCS.c **** void nRF24_setMode(const NrfMode mode)
 235:Generated_Source\PSoC4/nRF24_NRF_FUNCS.c **** {
 236:Generated_Source\PSoC4/nRF24_NRF_FUNCS.c ****     NRF_MODE_TX == mode ? nRF24_setTxMode() :
 237:Generated_Source\PSoC4/nRF24_NRF_FUNCS.c ****                             nRF24_setRxMode();
 238:Generated_Source\PSoC4/nRF24_NRF_FUNCS.c **** }
 239:Generated_Source\PSoC4/nRF24_NRF_FUNCS.c **** 
 240:Generated_Source\PSoC4/nRF24_NRF_FUNCS.c **** /**
 241:Generated_Source\PSoC4/nRF24_NRF_FUNCS.c ****  * @brief Set radio in Power Down Mode.
 242:Generated_Source\PSoC4/nRF24_NRF_FUNCS.c ****  *
 243:Generated_Source\PSoC4/nRF24_NRF_FUNCS.c ****  * In power down mode nRF24 is disabled using minimal current consumption.
ARM GAS  C:\Users\Xwx47\AppData\Local\Temp\ccidPk4n.s 			page 9


 244:Generated_Source\PSoC4/nRF24_NRF_FUNCS.c ****  * All register values available are maintained and the SPI is kept active,
 245:Generated_Source\PSoC4/nRF24_NRF_FUNCS.c ****  * enabling change of configuration and the uploading/downloading of data
 246:Generated_Source\PSoC4/nRF24_NRF_FUNCS.c ****  * registers.
 247:Generated_Source\PSoC4/nRF24_NRF_FUNCS.c ****  * Power down mode is entered by setting the PWR_UP bit in the CONFIG register
 248:Generated_Source\PSoC4/nRF24_NRF_FUNCS.c ****  * low.
 249:Generated_Source\PSoC4/nRF24_NRF_FUNCS.c ****  *
 250:Generated_Source\PSoC4/nRF24_NRF_FUNCS.c ****  * @param
 251:Generated_Source\PSoC4/nRF24_NRF_FUNCS.c ****  *
 252:Generated_Source\PSoC4/nRF24_NRF_FUNCS.c ****  * @return
 253:Generated_Source\PSoC4/nRF24_NRF_FUNCS.c ****  */
 254:Generated_Source\PSoC4/nRF24_NRF_FUNCS.c **** void nRF24_setPowerDownMode(void)
 255:Generated_Source\PSoC4/nRF24_NRF_FUNCS.c **** {
 214              		.loc 1 255 0
 215              		.cfi_startproc
 216              		@ args = 0, pretend = 0, frame = 0
 217              		@ frame_needed = 0, uses_anonymous_args = 0
 218 0000 10B5     		push	{r4, lr}
 219              		.cfi_def_cfa_offset 8
 220              		.cfi_offset 4, -8
 221              		.cfi_offset 14, -4
 256:Generated_Source\PSoC4/nRF24_NRF_FUNCS.c ****     nRF24_clearBit(NRF_CONFIG_REG, NRF_CONFIG_PWR_UP);
 222              		.loc 1 256 0
 223 0002 0121     		movs	r1, #1
 224 0004 0020     		movs	r0, #0
 225 0006 FFF7FEFF 		bl	nRF24_clearBit
 226              	.LVL10:
 257:Generated_Source\PSoC4/nRF24_NRF_FUNCS.c **** }
 227              		.loc 1 257 0
 228              		@ sp needed
 229 000a 10BD     		pop	{r4, pc}
 230              		.cfi_endproc
 231              	.LFE10:
 232              		.size	nRF24_setPowerDownMode, .-nRF24_setPowerDownMode
 233              		.section	.text.nRF24_setRxMode,"ax",%progbits
 234              		.align	2
 235              		.global	nRF24_setRxMode
 236              		.code	16
 237              		.thumb_func
 238              		.type	nRF24_setRxMode, %function
 239              	nRF24_setRxMode:
 240              	.LFB13:
 258:Generated_Source\PSoC4/nRF24_NRF_FUNCS.c **** 
 259:Generated_Source\PSoC4/nRF24_NRF_FUNCS.c **** /**
 260:Generated_Source\PSoC4/nRF24_NRF_FUNCS.c ****  * @brief Set the radio in Standby I Mode.
 261:Generated_Source\PSoC4/nRF24_NRF_FUNCS.c ****  *
 262:Generated_Source\PSoC4/nRF24_NRF_FUNCS.c ****  * By setting the PWR_UP bit in the CONFIG register to 1, the device enters
 263:Generated_Source\PSoC4/nRF24_NRF_FUNCS.c ****  * standby-I mode. Standby-I mode is used to minimize average current
 264:Generated_Source\PSoC4/nRF24_NRF_FUNCS.c ****  * consumption while maintaining short start up times.
 265:Generated_Source\PSoC4/nRF24_NRF_FUNCS.c ****  * In this mode only part of the crystal oscillator is active. Change to
 266:Generated_Source\PSoC4/nRF24_NRF_FUNCS.c ****  * active modes only happens if CE is set high and when CE is set low,
 267:Generated_Source\PSoC4/nRF24_NRF_FUNCS.c ****  * the nRF24 returns to standby-I mode from both the TX and RX modes.
 268:Generated_Source\PSoC4/nRF24_NRF_FUNCS.c ****  *
 269:Generated_Source\PSoC4/nRF24_NRF_FUNCS.c ****  * @param
 270:Generated_Source\PSoC4/nRF24_NRF_FUNCS.c ****  *
 271:Generated_Source\PSoC4/nRF24_NRF_FUNCS.c ****  * @return
 272:Generated_Source\PSoC4/nRF24_NRF_FUNCS.c ****  */
 273:Generated_Source\PSoC4/nRF24_NRF_FUNCS.c **** void nRF24_setStandbyIMode(void)
ARM GAS  C:\Users\Xwx47\AppData\Local\Temp\ccidPk4n.s 			page 10


 274:Generated_Source\PSoC4/nRF24_NRF_FUNCS.c **** {
 275:Generated_Source\PSoC4/nRF24_NRF_FUNCS.c ****     nRF24_listen(false);
 276:Generated_Source\PSoC4/nRF24_NRF_FUNCS.c ****     nRF24_clearBit(NRF_CONFIG_REG, NRF_CONFIG_PWR_UP);
 277:Generated_Source\PSoC4/nRF24_NRF_FUNCS.c **** }
 278:Generated_Source\PSoC4/nRF24_NRF_FUNCS.c **** 
 279:Generated_Source\PSoC4/nRF24_NRF_FUNCS.c **** /**
 280:Generated_Source\PSoC4/nRF24_NRF_FUNCS.c ****  * @brief Set the radio in Standby II Mode.
 281:Generated_Source\PSoC4/nRF24_NRF_FUNCS.c ****  *
 282:Generated_Source\PSoC4/nRF24_NRF_FUNCS.c ****  * In standby-II mode extra clock buffers are active and more current is used
 283:Generated_Source\PSoC4/nRF24_NRF_FUNCS.c ****  * compared to standby-I mode. nRF24 enters standby-II mode if CE is held high
 284:Generated_Source\PSoC4/nRF24_NRF_FUNCS.c ****  * on a TX device with an empty TX FIFO.
 285:Generated_Source\PSoC4/nRF24_NRF_FUNCS.c ****  * If a new packet is uploaded to the TX FIFO, the PLL immediately starts and
 286:Generated_Source\PSoC4/nRF24_NRF_FUNCS.c ****  * the packet is transmitted after the normal PLL settling  delay (130us).
 287:Generated_Source\PSoC4/nRF24_NRF_FUNCS.c ****  *
 288:Generated_Source\PSoC4/nRF24_NRF_FUNCS.c ****  * @param
 289:Generated_Source\PSoC4/nRF24_NRF_FUNCS.c ****  *
 290:Generated_Source\PSoC4/nRF24_NRF_FUNCS.c ****  * @return
 291:Generated_Source\PSoC4/nRF24_NRF_FUNCS.c ****  */
 292:Generated_Source\PSoC4/nRF24_NRF_FUNCS.c **** void nRF24_setStandbyIIMode(void)
 293:Generated_Source\PSoC4/nRF24_NRF_FUNCS.c **** {
 294:Generated_Source\PSoC4/nRF24_NRF_FUNCS.c ****     nRF24_listen(true);
 295:Generated_Source\PSoC4/nRF24_NRF_FUNCS.c ****     nRF24_setBit(NRF_CONFIG_REG, NRF_CONFIG_PWR_UP);
 296:Generated_Source\PSoC4/nRF24_NRF_FUNCS.c **** }
 297:Generated_Source\PSoC4/nRF24_NRF_FUNCS.c **** 
 298:Generated_Source\PSoC4/nRF24_NRF_FUNCS.c **** /**
 299:Generated_Source\PSoC4/nRF24_NRF_FUNCS.c ****  * @brief Set the radio in Receiver (Rx) Mode.
 300:Generated_Source\PSoC4/nRF24_NRF_FUNCS.c ****  *
 301:Generated_Source\PSoC4/nRF24_NRF_FUNCS.c ****  * RX mode is an active mode where the nRF24 radio is used as receiver. To
 302:Generated_Source\PSoC4/nRF24_NRF_FUNCS.c ****  * enter this mode, the nRF24 must have the PWR_UP bit, PRIM_RX bit and the CE
 303:Generated_Source\PSoC4/nRF24_NRF_FUNCS.c ****  * pin set high.
 304:Generated_Source\PSoC4/nRF24_NRF_FUNCS.c ****  *
 305:Generated_Source\PSoC4/nRF24_NRF_FUNCS.c ****  * @param
 306:Generated_Source\PSoC4/nRF24_NRF_FUNCS.c ****  *
 307:Generated_Source\PSoC4/nRF24_NRF_FUNCS.c ****  * @return
 308:Generated_Source\PSoC4/nRF24_NRF_FUNCS.c ****  */
 309:Generated_Source\PSoC4/nRF24_NRF_FUNCS.c **** void nRF24_setRxMode(void)
 310:Generated_Source\PSoC4/nRF24_NRF_FUNCS.c **** {
 241              		.loc 1 310 0
 242              		.cfi_startproc
 243              		@ args = 0, pretend = 0, frame = 0
 244              		@ frame_needed = 0, uses_anonymous_args = 0
 245 0000 10B5     		push	{r4, lr}
 246              		.cfi_def_cfa_offset 8
 247              		.cfi_offset 4, -8
 248              		.cfi_offset 14, -4
 311:Generated_Source\PSoC4/nRF24_NRF_FUNCS.c ****     nRF24_setBit(NRF_CONFIG_REG, NRF_CONFIG_PRIM_RX);
 249              		.loc 1 311 0
 250 0002 0021     		movs	r1, #0
 251 0004 0020     		movs	r0, #0
 252 0006 FFF7FEFF 		bl	nRF24_setBit
 253              	.LVL11:
 312:Generated_Source\PSoC4/nRF24_NRF_FUNCS.c **** }
 254              		.loc 1 312 0
 255              		@ sp needed
 256 000a 10BD     		pop	{r4, pc}
 257              		.cfi_endproc
 258              	.LFE13:
ARM GAS  C:\Users\Xwx47\AppData\Local\Temp\ccidPk4n.s 			page 11


 259              		.size	nRF24_setRxMode, .-nRF24_setRxMode
 260              		.section	.text.nRF24_setTxMode,"ax",%progbits
 261              		.align	2
 262              		.global	nRF24_setTxMode
 263              		.code	16
 264              		.thumb_func
 265              		.type	nRF24_setTxMode, %function
 266              	nRF24_setTxMode:
 267              	.LFB14:
 313:Generated_Source\PSoC4/nRF24_NRF_FUNCS.c **** 
 314:Generated_Source\PSoC4/nRF24_NRF_FUNCS.c **** /**
 315:Generated_Source\PSoC4/nRF24_NRF_FUNCS.c ****  * @brief Set the radio in Transmitted (Tx) Mode.
 316:Generated_Source\PSoC4/nRF24_NRF_FUNCS.c ****  *
 317:Generated_Source\PSoC4/nRF24_NRF_FUNCS.c ****  * TX mode is an active mode for transmitting packets. To enter this mode,
 318:Generated_Source\PSoC4/nRF24_NRF_FUNCS.c ****  * the nRF24 must have the PWR_UP bit set high, PRIM_RX bit set low, a payload
 319:Generated_Source\PSoC4/nRF24_NRF_FUNCS.c ****  * in the TX FIFO and a high pulse on the CE for more than 10us.
 320:Generated_Source\PSoC4/nRF24_NRF_FUNCS.c ****  *
 321:Generated_Source\PSoC4/nRF24_NRF_FUNCS.c ****  * @param
 322:Generated_Source\PSoC4/nRF24_NRF_FUNCS.c ****  *
 323:Generated_Source\PSoC4/nRF24_NRF_FUNCS.c ****  * @return
 324:Generated_Source\PSoC4/nRF24_NRF_FUNCS.c ****  */
 325:Generated_Source\PSoC4/nRF24_NRF_FUNCS.c **** void nRF24_setTxMode(void)
 326:Generated_Source\PSoC4/nRF24_NRF_FUNCS.c **** {
 268              		.loc 1 326 0
 269              		.cfi_startproc
 270              		@ args = 0, pretend = 0, frame = 0
 271              		@ frame_needed = 0, uses_anonymous_args = 0
 272 0000 10B5     		push	{r4, lr}
 273              		.cfi_def_cfa_offset 8
 274              		.cfi_offset 4, -8
 275              		.cfi_offset 14, -4
 327:Generated_Source\PSoC4/nRF24_NRF_FUNCS.c ****     nRF24_clearBit(NRF_CONFIG_REG, NRF_CONFIG_PRIM_RX);
 276              		.loc 1 327 0
 277 0002 0021     		movs	r1, #0
 278 0004 0020     		movs	r0, #0
 279 0006 FFF7FEFF 		bl	nRF24_clearBit
 280              	.LVL12:
 328:Generated_Source\PSoC4/nRF24_NRF_FUNCS.c **** }
 281              		.loc 1 328 0
 282              		@ sp needed
 283 000a 10BD     		pop	{r4, pc}
 284              		.cfi_endproc
 285              	.LFE14:
 286              		.size	nRF24_setTxMode, .-nRF24_setTxMode
 287              		.section	.text.nRF24_setMode,"ax",%progbits
 288              		.align	2
 289              		.global	nRF24_setMode
 290              		.code	16
 291              		.thumb_func
 292              		.type	nRF24_setMode, %function
 293              	nRF24_setMode:
 294              	.LFB9:
 235:Generated_Source\PSoC4/nRF24_NRF_FUNCS.c ****     NRF_MODE_TX == mode ? nRF24_setTxMode() :
 295              		.loc 1 235 0
 296              		.cfi_startproc
 297              		@ args = 0, pretend = 0, frame = 0
 298              		@ frame_needed = 0, uses_anonymous_args = 0
ARM GAS  C:\Users\Xwx47\AppData\Local\Temp\ccidPk4n.s 			page 12


 299              	.LVL13:
 300 0000 10B5     		push	{r4, lr}
 301              		.cfi_def_cfa_offset 8
 302              		.cfi_offset 4, -8
 303              		.cfi_offset 14, -4
 236:Generated_Source\PSoC4/nRF24_NRF_FUNCS.c ****                             nRF24_setRxMode();
 304              		.loc 1 236 0
 305 0002 0028     		cmp	r0, #0
 306 0004 02D1     		bne	.L12
 236:Generated_Source\PSoC4/nRF24_NRF_FUNCS.c ****                             nRF24_setRxMode();
 307              		.loc 1 236 0 is_stmt 0 discriminator 1
 308 0006 FFF7FEFF 		bl	nRF24_setTxMode
 309              	.LVL14:
 310 000a 01E0     		b	.L11
 311              	.LVL15:
 312              	.L12:
 237:Generated_Source\PSoC4/nRF24_NRF_FUNCS.c **** }
 313              		.loc 1 237 0 is_stmt 1
 314 000c FFF7FEFF 		bl	nRF24_setRxMode
 315              	.LVL16:
 316              	.L11:
 238:Generated_Source\PSoC4/nRF24_NRF_FUNCS.c **** 
 317              		.loc 1 238 0
 318              		@ sp needed
 319 0010 10BD     		pop	{r4, pc}
 320              		.cfi_endproc
 321              	.LFE9:
 322              		.size	nRF24_setMode, .-nRF24_setMode
 323 0012 C046     		.section	.text.nRF24_enableAutoACK,"ax",%progbits
 324              		.align	2
 325              		.global	nRF24_enableAutoACK
 326              		.code	16
 327              		.thumb_func
 328              		.type	nRF24_enableAutoACK, %function
 329              	nRF24_enableAutoACK:
 330              	.LFB15:
 329:Generated_Source\PSoC4/nRF24_NRF_FUNCS.c **** 
 330:Generated_Source\PSoC4/nRF24_NRF_FUNCS.c **** /**
 331:Generated_Source\PSoC4/nRF24_NRF_FUNCS.c ****  * @brief Enable AutoACK in the given pipe.
 332:Generated_Source\PSoC4/nRF24_NRF_FUNCS.c ****  *
 333:Generated_Source\PSoC4/nRF24_NRF_FUNCS.c ****  * @param pipe: Enable AutoACK in the given pipe.
 334:Generated_Source\PSoC4/nRF24_NRF_FUNCS.c ****  *
 335:Generated_Source\PSoC4/nRF24_NRF_FUNCS.c ****  * @return
 336:Generated_Source\PSoC4/nRF24_NRF_FUNCS.c ****  */
 337:Generated_Source\PSoC4/nRF24_NRF_FUNCS.c **** void nRF24_enableAutoACK(const NrfDataPipe pipe)
 338:Generated_Source\PSoC4/nRF24_NRF_FUNCS.c **** {
 331              		.loc 1 338 0
 332              		.cfi_startproc
 333              		@ args = 0, pretend = 0, frame = 0
 334              		@ frame_needed = 0, uses_anonymous_args = 0
 335              	.LVL17:
 336 0000 10B5     		push	{r4, lr}
 337              		.cfi_def_cfa_offset 8
 338              		.cfi_offset 4, -8
 339              		.cfi_offset 14, -4
 340 0002 0100     		movs	r1, r0
 339:Generated_Source\PSoC4/nRF24_NRF_FUNCS.c ****     nRF24_setBit(NRF_EN_AA_REG, pipe);
ARM GAS  C:\Users\Xwx47\AppData\Local\Temp\ccidPk4n.s 			page 13


 341              		.loc 1 339 0
 342 0004 0120     		movs	r0, #1
 343              	.LVL18:
 344 0006 FFF7FEFF 		bl	nRF24_setBit
 345              	.LVL19:
 340:Generated_Source\PSoC4/nRF24_NRF_FUNCS.c **** }
 346              		.loc 1 340 0
 347              		@ sp needed
 348 000a 10BD     		pop	{r4, pc}
 349              		.cfi_endproc
 350              	.LFE15:
 351              		.size	nRF24_enableAutoACK, .-nRF24_enableAutoACK
 352              		.section	.text.nRF24_disableAutoACK,"ax",%progbits
 353              		.align	2
 354              		.global	nRF24_disableAutoACK
 355              		.code	16
 356              		.thumb_func
 357              		.type	nRF24_disableAutoACK, %function
 358              	nRF24_disableAutoACK:
 359              	.LFB16:
 341:Generated_Source\PSoC4/nRF24_NRF_FUNCS.c **** 
 342:Generated_Source\PSoC4/nRF24_NRF_FUNCS.c **** /**
 343:Generated_Source\PSoC4/nRF24_NRF_FUNCS.c ****  * @brief Disable AutoACK in the given pipe.
 344:Generated_Source\PSoC4/nRF24_NRF_FUNCS.c ****  *
 345:Generated_Source\PSoC4/nRF24_NRF_FUNCS.c ****  * @param pipe: Disable AutoACK in the given pipe.
 346:Generated_Source\PSoC4/nRF24_NRF_FUNCS.c ****  *
 347:Generated_Source\PSoC4/nRF24_NRF_FUNCS.c ****  * @return
 348:Generated_Source\PSoC4/nRF24_NRF_FUNCS.c ****  */
 349:Generated_Source\PSoC4/nRF24_NRF_FUNCS.c **** void nRF24_disableAutoACK(const NrfDataPipe pipe)
 350:Generated_Source\PSoC4/nRF24_NRF_FUNCS.c **** {
 360              		.loc 1 350 0
 361              		.cfi_startproc
 362              		@ args = 0, pretend = 0, frame = 0
 363              		@ frame_needed = 0, uses_anonymous_args = 0
 364              	.LVL20:
 365 0000 10B5     		push	{r4, lr}
 366              		.cfi_def_cfa_offset 8
 367              		.cfi_offset 4, -8
 368              		.cfi_offset 14, -4
 369 0002 0100     		movs	r1, r0
 351:Generated_Source\PSoC4/nRF24_NRF_FUNCS.c ****     nRF24_clearBit(NRF_EN_AA_REG, pipe);
 370              		.loc 1 351 0
 371 0004 0120     		movs	r0, #1
 372              	.LVL21:
 373 0006 FFF7FEFF 		bl	nRF24_clearBit
 374              	.LVL22:
 352:Generated_Source\PSoC4/nRF24_NRF_FUNCS.c **** }
 375              		.loc 1 352 0
 376              		@ sp needed
 377 000a 10BD     		pop	{r4, pc}
 378              		.cfi_endproc
 379              	.LFE16:
 380              		.size	nRF24_disableAutoACK, .-nRF24_disableAutoACK
 381              		.section	.text.nRF24_setChannel,"ax",%progbits
 382              		.align	2
 383              		.global	nRF24_setChannel
 384              		.code	16
ARM GAS  C:\Users\Xwx47\AppData\Local\Temp\ccidPk4n.s 			page 14


 385              		.thumb_func
 386              		.type	nRF24_setChannel, %function
 387              	nRF24_setChannel:
 388              	.LFB17:
 353:Generated_Source\PSoC4/nRF24_NRF_FUNCS.c **** 
 354:Generated_Source\PSoC4/nRF24_NRF_FUNCS.c **** /**
 355:Generated_Source\PSoC4/nRF24_NRF_FUNCS.c ****  * @brief Set the channel where the radio will work.
 356:Generated_Source\PSoC4/nRF24_NRF_FUNCS.c ****  *
 357:Generated_Source\PSoC4/nRF24_NRF_FUNCS.c ****  * @param uint8_t channel: Channel where the radio will work.
 358:Generated_Source\PSoC4/nRF24_NRF_FUNCS.c ****  *
 359:Generated_Source\PSoC4/nRF24_NRF_FUNCS.c ****  * @return
 360:Generated_Source\PSoC4/nRF24_NRF_FUNCS.c ****  */
 361:Generated_Source\PSoC4/nRF24_NRF_FUNCS.c **** void nRF24_setChannel(uint8_t channel)
 362:Generated_Source\PSoC4/nRF24_NRF_FUNCS.c **** {
 389              		.loc 1 362 0
 390              		.cfi_startproc
 391              		@ args = 0, pretend = 0, frame = 0
 392              		@ frame_needed = 0, uses_anonymous_args = 0
 393              	.LVL23:
 394 0000 10B5     		push	{r4, lr}
 395              		.cfi_def_cfa_offset 8
 396              		.cfi_offset 4, -8
 397              		.cfi_offset 14, -4
 398 0002 0100     		movs	r1, r0
 363:Generated_Source\PSoC4/nRF24_NRF_FUNCS.c ****     // There's only 125 channels available
 364:Generated_Source\PSoC4/nRF24_NRF_FUNCS.c ****     if (125 < channel) {
 399              		.loc 1 364 0
 400 0004 7D28     		cmp	r0, #125
 401 0006 00D9     		bls	.L17
 365:Generated_Source\PSoC4/nRF24_NRF_FUNCS.c ****         channel = 125;
 402              		.loc 1 365 0
 403 0008 7D21     		movs	r1, #125
 404              	.L17:
 405              	.LVL24:
 366:Generated_Source\PSoC4/nRF24_NRF_FUNCS.c ****     }
 367:Generated_Source\PSoC4/nRF24_NRF_FUNCS.c **** 
 368:Generated_Source\PSoC4/nRF24_NRF_FUNCS.c ****     nRF24_writeRegister(NRF_RF_CH_REG, channel);
 406              		.loc 1 368 0
 407 000a 0520     		movs	r0, #5
 408 000c FFF7FEFF 		bl	nRF24_writeRegister
 409              	.LVL25:
 369:Generated_Source\PSoC4/nRF24_NRF_FUNCS.c **** }
 410              		.loc 1 369 0
 411              		@ sp needed
 412 0010 10BD     		pop	{r4, pc}
 413              		.cfi_endproc
 414              	.LFE17:
 415              		.size	nRF24_setChannel, .-nRF24_setChannel
 416 0012 C046     		.section	.text.nRF24_setPipesAddressWidth,"ax",%progbits
 417              		.align	2
 418              		.global	nRF24_setPipesAddressWidth
 419              		.code	16
 420              		.thumb_func
 421              		.type	nRF24_setPipesAddressWidth, %function
 422              	nRF24_setPipesAddressWidth:
 423              	.LFB18:
 370:Generated_Source\PSoC4/nRF24_NRF_FUNCS.c **** 
ARM GAS  C:\Users\Xwx47\AppData\Local\Temp\ccidPk4n.s 			page 15


 371:Generated_Source\PSoC4/nRF24_NRF_FUNCS.c **** /**
 372:Generated_Source\PSoC4/nRF24_NRF_FUNCS.c ****  * @brief Set the address width common for all the pipes.
 373:Generated_Source\PSoC4/nRF24_NRF_FUNCS.c ****  *
 374:Generated_Source\PSoC4/nRF24_NRF_FUNCS.c ****  * @param const NrfSetupAddressWidth addr_width:
 375:Generated_Source\PSoC4/nRF24_NRF_FUNCS.c ****  *
 376:Generated_Source\PSoC4/nRF24_NRF_FUNCS.c ****  * @return
 377:Generated_Source\PSoC4/nRF24_NRF_FUNCS.c ****  */
 378:Generated_Source\PSoC4/nRF24_NRF_FUNCS.c **** void nRF24_setPipesAddressWidth(
 379:Generated_Source\PSoC4/nRF24_NRF_FUNCS.c ****     const NrfSetupAddressWidth addr_width)
 380:Generated_Source\PSoC4/nRF24_NRF_FUNCS.c **** {
 424              		.loc 1 380 0
 425              		.cfi_startproc
 426              		@ args = 0, pretend = 0, frame = 0
 427              		@ frame_needed = 0, uses_anonymous_args = 0
 428              	.LVL26:
 429 0000 10B5     		push	{r4, lr}
 430              		.cfi_def_cfa_offset 8
 431              		.cfi_offset 4, -8
 432              		.cfi_offset 14, -4
 433 0002 0100     		movs	r1, r0
 381:Generated_Source\PSoC4/nRF24_NRF_FUNCS.c ****     nRF24_writeRegister(NRF_SETUP_AW_REG, (uint8_t)addr_width);
 434              		.loc 1 381 0
 435 0004 0320     		movs	r0, #3
 436              	.LVL27:
 437 0006 FFF7FEFF 		bl	nRF24_writeRegister
 438              	.LVL28:
 382:Generated_Source\PSoC4/nRF24_NRF_FUNCS.c **** }
 439              		.loc 1 382 0
 440              		@ sp needed
 441 000a 10BD     		pop	{r4, pc}
 442              		.cfi_endproc
 443              	.LFE18:
 444              		.size	nRF24_setPipesAddressWidth, .-nRF24_setPipesAddressWidth
 445              		.section	.text.nRF24_getPipesAddressWidth,"ax",%progbits
 446              		.align	2
 447              		.global	nRF24_getPipesAddressWidth
 448              		.code	16
 449              		.thumb_func
 450              		.type	nRF24_getPipesAddressWidth, %function
 451              	nRF24_getPipesAddressWidth:
 452              	.LFB19:
 383:Generated_Source\PSoC4/nRF24_NRF_FUNCS.c **** 
 384:Generated_Source\PSoC4/nRF24_NRF_FUNCS.c **** /**
 385:Generated_Source\PSoC4/nRF24_NRF_FUNCS.c ****  * @brief Get the address width common for all the pipes.
 386:Generated_Source\PSoC4/nRF24_NRF_FUNCS.c ****  *
 387:Generated_Source\PSoC4/nRF24_NRF_FUNCS.c ****  * @param
 388:Generated_Source\PSoC4/nRF24_NRF_FUNCS.c ****  *
 389:Generated_Source\PSoC4/nRF24_NRF_FUNCS.c ****  * @return NrfSetupAddressWidth:
 390:Generated_Source\PSoC4/nRF24_NRF_FUNCS.c ****  */
 391:Generated_Source\PSoC4/nRF24_NRF_FUNCS.c **** uint8_t nRF24_getPipesAddressWidth(void)
 392:Generated_Source\PSoC4/nRF24_NRF_FUNCS.c **** {
 453              		.loc 1 392 0
 454              		.cfi_startproc
 455              		@ args = 0, pretend = 0, frame = 0
 456              		@ frame_needed = 0, uses_anonymous_args = 0
 457 0000 10B5     		push	{r4, lr}
 458              		.cfi_def_cfa_offset 8
ARM GAS  C:\Users\Xwx47\AppData\Local\Temp\ccidPk4n.s 			page 16


 459              		.cfi_offset 4, -8
 460              		.cfi_offset 14, -4
 393:Generated_Source\PSoC4/nRF24_NRF_FUNCS.c ****     uint8_t reg = nRF24_readRegister(NRF_SETUP_AW_REG);
 461              		.loc 1 393 0
 462 0002 0320     		movs	r0, #3
 463 0004 FFF7FEFF 		bl	nRF24_readRegister
 464              	.LVL29:
 394:Generated_Source\PSoC4/nRF24_NRF_FUNCS.c **** 
 395:Generated_Source\PSoC4/nRF24_NRF_FUNCS.c ****     switch (reg) {
 465              		.loc 1 395 0
 466 0008 0228     		cmp	r0, #2
 467 000a 09D0     		beq	.L25
 468 000c 0328     		cmp	r0, #3
 469 000e 03D0     		beq	.L23
 470 0010 0128     		cmp	r0, #1
 471 0012 03D1     		bne	.L26
 396:Generated_Source\PSoC4/nRF24_NRF_FUNCS.c ****     case NRF_SETUP_AW_3BYTES:
 397:Generated_Source\PSoC4/nRF24_NRF_FUNCS.c ****         return 3;
 472              		.loc 1 397 0
 473 0014 0230     		adds	r0, r0, #2
 474              	.LVL30:
 475 0016 04E0     		b	.L22
 476              	.LVL31:
 477              	.L23:
 398:Generated_Source\PSoC4/nRF24_NRF_FUNCS.c ****         break;
 399:Generated_Source\PSoC4/nRF24_NRF_FUNCS.c ****     case NRF_SETUP_AW_4BYTES:
 400:Generated_Source\PSoC4/nRF24_NRF_FUNCS.c ****         return 4;
 401:Generated_Source\PSoC4/nRF24_NRF_FUNCS.c ****         break;
 402:Generated_Source\PSoC4/nRF24_NRF_FUNCS.c ****     case NRF_SETUP_AW_5BYTES:
 403:Generated_Source\PSoC4/nRF24_NRF_FUNCS.c ****         return 5;
 478              		.loc 1 403 0
 479 0018 0520     		movs	r0, #5
 480              	.LVL32:
 481 001a 02E0     		b	.L22
 482              	.LVL33:
 483              	.L26:
 404:Generated_Source\PSoC4/nRF24_NRF_FUNCS.c ****         break;
 405:Generated_Source\PSoC4/nRF24_NRF_FUNCS.c ****     default:
 406:Generated_Source\PSoC4/nRF24_NRF_FUNCS.c ****         return 0;
 484              		.loc 1 406 0
 485 001c 0020     		movs	r0, #0
 486              	.LVL34:
 487 001e 00E0     		b	.L22
 488              	.LVL35:
 489              	.L25:
 400:Generated_Source\PSoC4/nRF24_NRF_FUNCS.c ****         break;
 490              		.loc 1 400 0
 491 0020 0420     		movs	r0, #4
 492              	.LVL36:
 493              	.L22:
 407:Generated_Source\PSoC4/nRF24_NRF_FUNCS.c ****         break;
 408:Generated_Source\PSoC4/nRF24_NRF_FUNCS.c ****     }
 409:Generated_Source\PSoC4/nRF24_NRF_FUNCS.c **** }
 494              		.loc 1 409 0
 495              		@ sp needed
 496 0022 10BD     		pop	{r4, pc}
 497              		.cfi_endproc
ARM GAS  C:\Users\Xwx47\AppData\Local\Temp\ccidPk4n.s 			page 17


 498              	.LFE19:
 499              		.size	nRF24_getPipesAddressWidth, .-nRF24_getPipesAddressWidth
 500              		.section	.text.nRF24_setRxAddress,"ax",%progbits
 501              		.align	2
 502              		.global	nRF24_setRxAddress
 503              		.code	16
 504              		.thumb_func
 505              		.type	nRF24_setRxAddress, %function
 506              	nRF24_setRxAddress:
 507              	.LFB20:
 410:Generated_Source\PSoC4/nRF24_NRF_FUNCS.c **** 
 411:Generated_Source\PSoC4/nRF24_NRF_FUNCS.c **** /**
 412:Generated_Source\PSoC4/nRF24_NRF_FUNCS.c ****  * @brief Set the Rx Address of the radio.
 413:Generated_Source\PSoC4/nRF24_NRF_FUNCS.c ****  *
 414:Generated_Source\PSoC4/nRF24_NRF_FUNCS.c ****  * This function configure the address of the Rx Pipe 0 of the radio.
 415:Generated_Source\PSoC4/nRF24_NRF_FUNCS.c ****  *
 416:Generated_Source\PSoC4/nRF24_NRF_FUNCS.c ****  * @param const uint8_t* addr:
 417:Generated_Source\PSoC4/nRF24_NRF_FUNCS.c ****  * @param size_t size:
 418:Generated_Source\PSoC4/nRF24_NRF_FUNCS.c ****  *
 419:Generated_Source\PSoC4/nRF24_NRF_FUNCS.c ****  * @return
 420:Generated_Source\PSoC4/nRF24_NRF_FUNCS.c ****  */
 421:Generated_Source\PSoC4/nRF24_NRF_FUNCS.c **** void nRF24_setRxAddress(const uint8_t* addr, size_t size)
 422:Generated_Source\PSoC4/nRF24_NRF_FUNCS.c **** {
 508              		.loc 1 422 0
 509              		.cfi_startproc
 510              		@ args = 0, pretend = 0, frame = 0
 511              		@ frame_needed = 0, uses_anonymous_args = 0
 512              	.LVL37:
 513 0000 10B5     		push	{r4, lr}
 514              		.cfi_def_cfa_offset 8
 515              		.cfi_offset 4, -8
 516              		.cfi_offset 14, -4
 423:Generated_Source\PSoC4/nRF24_NRF_FUNCS.c ****     if (NULL == addr) {
 517              		.loc 1 423 0
 518 0002 0028     		cmp	r0, #0
 519 0004 07D0     		beq	.L27
 424:Generated_Source\PSoC4/nRF24_NRF_FUNCS.c ****         return;
 425:Generated_Source\PSoC4/nRF24_NRF_FUNCS.c ****     }
 426:Generated_Source\PSoC4/nRF24_NRF_FUNCS.c **** 
 427:Generated_Source\PSoC4/nRF24_NRF_FUNCS.c ****     if (5 < size) {
 520              		.loc 1 427 0
 521 0006 0529     		cmp	r1, #5
 522 0008 00D9     		bls	.L29
 428:Generated_Source\PSoC4/nRF24_NRF_FUNCS.c ****         size = 5;
 523              		.loc 1 428 0
 524 000a 0521     		movs	r1, #5
 525              	.LVL38:
 526              	.L29:
 429:Generated_Source\PSoC4/nRF24_NRF_FUNCS.c ****     }
 430:Generated_Source\PSoC4/nRF24_NRF_FUNCS.c ****     
 431:Generated_Source\PSoC4/nRF24_NRF_FUNCS.c ****     nRF24_writeLongRegister(NRF_RX_ADDR_P0_REG, addr, size);
 527              		.loc 1 431 0
 528 000c 0A00     		movs	r2, r1
 529 000e 0100     		movs	r1, r0
 530              	.LVL39:
 531 0010 0A20     		movs	r0, #10
 532              	.LVL40:
ARM GAS  C:\Users\Xwx47\AppData\Local\Temp\ccidPk4n.s 			page 18


 533 0012 FFF7FEFF 		bl	nRF24_writeLongRegister
 534              	.LVL41:
 535              	.L27:
 432:Generated_Source\PSoC4/nRF24_NRF_FUNCS.c **** }
 536              		.loc 1 432 0
 537              		@ sp needed
 538 0016 10BD     		pop	{r4, pc}
 539              		.cfi_endproc
 540              	.LFE20:
 541              		.size	nRF24_setRxAddress, .-nRF24_setRxAddress
 542              		.section	.text.nRF24_getRxAddress,"ax",%progbits
 543              		.align	2
 544              		.global	nRF24_getRxAddress
 545              		.code	16
 546              		.thumb_func
 547              		.type	nRF24_getRxAddress, %function
 548              	nRF24_getRxAddress:
 549              	.LFB21:
 433:Generated_Source\PSoC4/nRF24_NRF_FUNCS.c **** 
 434:Generated_Source\PSoC4/nRF24_NRF_FUNCS.c **** /**
 435:Generated_Source\PSoC4/nRF24_NRF_FUNCS.c ****  * @brief Get the Rx Address of the radio.
 436:Generated_Source\PSoC4/nRF24_NRF_FUNCS.c ****  *
 437:Generated_Source\PSoC4/nRF24_NRF_FUNCS.c ****  * @param const uint8_t* addr:
 438:Generated_Source\PSoC4/nRF24_NRF_FUNCS.c ****  * @param size_t size:
 439:Generated_Source\PSoC4/nRF24_NRF_FUNCS.c ****  *
 440:Generated_Source\PSoC4/nRF24_NRF_FUNCS.c ****  * @return
 441:Generated_Source\PSoC4/nRF24_NRF_FUNCS.c ****  */
 442:Generated_Source\PSoC4/nRF24_NRF_FUNCS.c **** void nRF24_getRxAddress(uint8_t* addr, size_t size)
 443:Generated_Source\PSoC4/nRF24_NRF_FUNCS.c **** {
 550              		.loc 1 443 0
 551              		.cfi_startproc
 552              		@ args = 0, pretend = 0, frame = 0
 553              		@ frame_needed = 0, uses_anonymous_args = 0
 554              	.LVL42:
 555 0000 10B5     		push	{r4, lr}
 556              		.cfi_def_cfa_offset 8
 557              		.cfi_offset 4, -8
 558              		.cfi_offset 14, -4
 444:Generated_Source\PSoC4/nRF24_NRF_FUNCS.c ****     if (NULL == addr) {
 559              		.loc 1 444 0
 560 0002 0028     		cmp	r0, #0
 561 0004 06D0     		beq	.L31
 445:Generated_Source\PSoC4/nRF24_NRF_FUNCS.c ****         return;
 446:Generated_Source\PSoC4/nRF24_NRF_FUNCS.c ****     }
 447:Generated_Source\PSoC4/nRF24_NRF_FUNCS.c **** 
 448:Generated_Source\PSoC4/nRF24_NRF_FUNCS.c ****     if (5 < size) {
 562              		.loc 1 448 0
 563 0006 0529     		cmp	r1, #5
 564 0008 04D8     		bhi	.L31
 449:Generated_Source\PSoC4/nRF24_NRF_FUNCS.c ****         return;
 450:Generated_Source\PSoC4/nRF24_NRF_FUNCS.c ****     }
 451:Generated_Source\PSoC4/nRF24_NRF_FUNCS.c ****     
 452:Generated_Source\PSoC4/nRF24_NRF_FUNCS.c ****     nRF24_readLongRegister(NRF_RX_ADDR_P0_REG, addr, size);
 565              		.loc 1 452 0
 566 000a 0A00     		movs	r2, r1
 567 000c 0100     		movs	r1, r0
 568              	.LVL43:
ARM GAS  C:\Users\Xwx47\AppData\Local\Temp\ccidPk4n.s 			page 19


 569 000e 0A20     		movs	r0, #10
 570              	.LVL44:
 571 0010 FFF7FEFF 		bl	nRF24_readLongRegister
 572              	.LVL45:
 573              	.L31:
 453:Generated_Source\PSoC4/nRF24_NRF_FUNCS.c **** }
 574              		.loc 1 453 0
 575              		@ sp needed
 576 0014 10BD     		pop	{r4, pc}
 577              		.cfi_endproc
 578              	.LFE21:
 579              		.size	nRF24_getRxAddress, .-nRF24_getRxAddress
 580 0016 C046     		.section	.text.nRF24_setRxPipe0Address,"ax",%progbits
 581              		.align	2
 582              		.global	nRF24_setRxPipe0Address
 583              		.code	16
 584              		.thumb_func
 585              		.type	nRF24_setRxPipe0Address, %function
 586              	nRF24_setRxPipe0Address:
 587              	.LFB22:
 454:Generated_Source\PSoC4/nRF24_NRF_FUNCS.c **** 
 455:Generated_Source\PSoC4/nRF24_NRF_FUNCS.c **** /**
 456:Generated_Source\PSoC4/nRF24_NRF_FUNCS.c ****  * @brief Set the address of the RX Pipe 0 in the radio.
 457:Generated_Source\PSoC4/nRF24_NRF_FUNCS.c ****  *
 458:Generated_Source\PSoC4/nRF24_NRF_FUNCS.c ****  * This function configure the address of the Rx Pipe 0 of the radio.
 459:Generated_Source\PSoC4/nRF24_NRF_FUNCS.c ****  *
 460:Generated_Source\PSoC4/nRF24_NRF_FUNCS.c ****  * @param const uint8_t* addr:
 461:Generated_Source\PSoC4/nRF24_NRF_FUNCS.c ****  * @param size_t size:
 462:Generated_Source\PSoC4/nRF24_NRF_FUNCS.c ****  *
 463:Generated_Source\PSoC4/nRF24_NRF_FUNCS.c ****  * @return
 464:Generated_Source\PSoC4/nRF24_NRF_FUNCS.c ****  */
 465:Generated_Source\PSoC4/nRF24_NRF_FUNCS.c **** void nRF24_setRxPipe0Address(const uint8_t* addr, size_t size)
 466:Generated_Source\PSoC4/nRF24_NRF_FUNCS.c **** {
 588              		.loc 1 466 0
 589              		.cfi_startproc
 590              		@ args = 0, pretend = 0, frame = 0
 591              		@ frame_needed = 0, uses_anonymous_args = 0
 592              	.LVL46:
 593 0000 10B5     		push	{r4, lr}
 594              		.cfi_def_cfa_offset 8
 595              		.cfi_offset 4, -8
 596              		.cfi_offset 14, -4
 467:Generated_Source\PSoC4/nRF24_NRF_FUNCS.c ****     if (NULL == addr) {
 597              		.loc 1 467 0
 598 0002 0028     		cmp	r0, #0
 599 0004 07D0     		beq	.L33
 468:Generated_Source\PSoC4/nRF24_NRF_FUNCS.c ****         return;
 469:Generated_Source\PSoC4/nRF24_NRF_FUNCS.c ****     }
 470:Generated_Source\PSoC4/nRF24_NRF_FUNCS.c **** 
 471:Generated_Source\PSoC4/nRF24_NRF_FUNCS.c ****     if (5 < size) {
 600              		.loc 1 471 0
 601 0006 0529     		cmp	r1, #5
 602 0008 00D9     		bls	.L35
 472:Generated_Source\PSoC4/nRF24_NRF_FUNCS.c ****         size = 5;
 603              		.loc 1 472 0
 604 000a 0521     		movs	r1, #5
 605              	.LVL47:
ARM GAS  C:\Users\Xwx47\AppData\Local\Temp\ccidPk4n.s 			page 20


 606              	.L35:
 473:Generated_Source\PSoC4/nRF24_NRF_FUNCS.c ****     }
 474:Generated_Source\PSoC4/nRF24_NRF_FUNCS.c ****     
 475:Generated_Source\PSoC4/nRF24_NRF_FUNCS.c ****     nRF24_writeLongRegister(NRF_RX_ADDR_P0_REG, addr, size);
 607              		.loc 1 475 0
 608 000c 0A00     		movs	r2, r1
 609 000e 0100     		movs	r1, r0
 610              	.LVL48:
 611 0010 0A20     		movs	r0, #10
 612              	.LVL49:
 613 0012 FFF7FEFF 		bl	nRF24_writeLongRegister
 614              	.LVL50:
 615              	.L33:
 476:Generated_Source\PSoC4/nRF24_NRF_FUNCS.c **** }
 616              		.loc 1 476 0
 617              		@ sp needed
 618 0016 10BD     		pop	{r4, pc}
 619              		.cfi_endproc
 620              	.LFE22:
 621              		.size	nRF24_setRxPipe0Address, .-nRF24_setRxPipe0Address
 622              		.section	.text.nRF24_getRxPipe0Address,"ax",%progbits
 623              		.align	2
 624              		.global	nRF24_getRxPipe0Address
 625              		.code	16
 626              		.thumb_func
 627              		.type	nRF24_getRxPipe0Address, %function
 628              	nRF24_getRxPipe0Address:
 629              	.LFB23:
 477:Generated_Source\PSoC4/nRF24_NRF_FUNCS.c **** 
 478:Generated_Source\PSoC4/nRF24_NRF_FUNCS.c **** /**
 479:Generated_Source\PSoC4/nRF24_NRF_FUNCS.c ****  * @brief Get the address of the RX Pipe 0 in the radio.
 480:Generated_Source\PSoC4/nRF24_NRF_FUNCS.c ****  *
 481:Generated_Source\PSoC4/nRF24_NRF_FUNCS.c ****  * @param uint8_t* addr:
 482:Generated_Source\PSoC4/nRF24_NRF_FUNCS.c ****  * @param size_t size:
 483:Generated_Source\PSoC4/nRF24_NRF_FUNCS.c ****  *
 484:Generated_Source\PSoC4/nRF24_NRF_FUNCS.c ****  * @return
 485:Generated_Source\PSoC4/nRF24_NRF_FUNCS.c ****  */
 486:Generated_Source\PSoC4/nRF24_NRF_FUNCS.c **** void nRF24_getRxPipe0Address(uint8_t* addr, size_t size)
 487:Generated_Source\PSoC4/nRF24_NRF_FUNCS.c **** {
 630              		.loc 1 487 0
 631              		.cfi_startproc
 632              		@ args = 0, pretend = 0, frame = 0
 633              		@ frame_needed = 0, uses_anonymous_args = 0
 634              	.LVL51:
 635 0000 10B5     		push	{r4, lr}
 636              		.cfi_def_cfa_offset 8
 637              		.cfi_offset 4, -8
 638              		.cfi_offset 14, -4
 488:Generated_Source\PSoC4/nRF24_NRF_FUNCS.c ****     if (NULL == addr) {
 639              		.loc 1 488 0
 640 0002 0028     		cmp	r0, #0
 641 0004 06D0     		beq	.L37
 489:Generated_Source\PSoC4/nRF24_NRF_FUNCS.c ****         return;
 490:Generated_Source\PSoC4/nRF24_NRF_FUNCS.c ****     }
 491:Generated_Source\PSoC4/nRF24_NRF_FUNCS.c **** 
 492:Generated_Source\PSoC4/nRF24_NRF_FUNCS.c ****     if (5 < size) {
 642              		.loc 1 492 0
ARM GAS  C:\Users\Xwx47\AppData\Local\Temp\ccidPk4n.s 			page 21


 643 0006 0529     		cmp	r1, #5
 644 0008 04D8     		bhi	.L37
 493:Generated_Source\PSoC4/nRF24_NRF_FUNCS.c ****         return;
 494:Generated_Source\PSoC4/nRF24_NRF_FUNCS.c ****     }
 495:Generated_Source\PSoC4/nRF24_NRF_FUNCS.c ****     
 496:Generated_Source\PSoC4/nRF24_NRF_FUNCS.c ****     nRF24_readLongRegister(NRF_RX_ADDR_P0_REG, addr, size);
 645              		.loc 1 496 0
 646 000a 0A00     		movs	r2, r1
 647 000c 0100     		movs	r1, r0
 648              	.LVL52:
 649 000e 0A20     		movs	r0, #10
 650              	.LVL53:
 651 0010 FFF7FEFF 		bl	nRF24_readLongRegister
 652              	.LVL54:
 653              	.L37:
 497:Generated_Source\PSoC4/nRF24_NRF_FUNCS.c **** }
 654              		.loc 1 497 0
 655              		@ sp needed
 656 0014 10BD     		pop	{r4, pc}
 657              		.cfi_endproc
 658              	.LFE23:
 659              		.size	nRF24_getRxPipe0Address, .-nRF24_getRxPipe0Address
 660 0016 C046     		.section	.text.nRF24_setRxPipe1Address,"ax",%progbits
 661              		.align	2
 662              		.global	nRF24_setRxPipe1Address
 663              		.code	16
 664              		.thumb_func
 665              		.type	nRF24_setRxPipe1Address, %function
 666              	nRF24_setRxPipe1Address:
 667              	.LFB24:
 498:Generated_Source\PSoC4/nRF24_NRF_FUNCS.c **** 
 499:Generated_Source\PSoC4/nRF24_NRF_FUNCS.c **** /**
 500:Generated_Source\PSoC4/nRF24_NRF_FUNCS.c ****  * @brief Set the address of the RX Pipe 1 in the radio.
 501:Generated_Source\PSoC4/nRF24_NRF_FUNCS.c ****  *
 502:Generated_Source\PSoC4/nRF24_NRF_FUNCS.c ****  * This function configure the address of the Rx Pipe 1 of the radio.
 503:Generated_Source\PSoC4/nRF24_NRF_FUNCS.c ****  *
 504:Generated_Source\PSoC4/nRF24_NRF_FUNCS.c ****  * @param const uint8_t* addr:
 505:Generated_Source\PSoC4/nRF24_NRF_FUNCS.c ****  * @param size_t:
 506:Generated_Source\PSoC4/nRF24_NRF_FUNCS.c ****  *
 507:Generated_Source\PSoC4/nRF24_NRF_FUNCS.c ****  * @return
 508:Generated_Source\PSoC4/nRF24_NRF_FUNCS.c ****  */
 509:Generated_Source\PSoC4/nRF24_NRF_FUNCS.c **** void nRF24_setRxPipe1Address(const uint8_t* addr, size_t size)
 510:Generated_Source\PSoC4/nRF24_NRF_FUNCS.c **** {
 668              		.loc 1 510 0
 669              		.cfi_startproc
 670              		@ args = 0, pretend = 0, frame = 0
 671              		@ frame_needed = 0, uses_anonymous_args = 0
 672              	.LVL55:
 673 0000 10B5     		push	{r4, lr}
 674              		.cfi_def_cfa_offset 8
 675              		.cfi_offset 4, -8
 676              		.cfi_offset 14, -4
 511:Generated_Source\PSoC4/nRF24_NRF_FUNCS.c ****     if (NULL == addr) {
 677              		.loc 1 511 0
 678 0002 0028     		cmp	r0, #0
 679 0004 07D0     		beq	.L39
 512:Generated_Source\PSoC4/nRF24_NRF_FUNCS.c ****         return;
ARM GAS  C:\Users\Xwx47\AppData\Local\Temp\ccidPk4n.s 			page 22


 513:Generated_Source\PSoC4/nRF24_NRF_FUNCS.c ****     }
 514:Generated_Source\PSoC4/nRF24_NRF_FUNCS.c **** 
 515:Generated_Source\PSoC4/nRF24_NRF_FUNCS.c ****     if (5 < size) {
 680              		.loc 1 515 0
 681 0006 0529     		cmp	r1, #5
 682 0008 00D9     		bls	.L41
 516:Generated_Source\PSoC4/nRF24_NRF_FUNCS.c ****         size = 5;
 683              		.loc 1 516 0
 684 000a 0521     		movs	r1, #5
 685              	.LVL56:
 686              	.L41:
 517:Generated_Source\PSoC4/nRF24_NRF_FUNCS.c ****     }
 518:Generated_Source\PSoC4/nRF24_NRF_FUNCS.c ****     
 519:Generated_Source\PSoC4/nRF24_NRF_FUNCS.c ****     nRF24_writeLongRegister(NRF_RX_ADDR_P1_REG, addr, size);
 687              		.loc 1 519 0
 688 000c 0A00     		movs	r2, r1
 689 000e 0100     		movs	r1, r0
 690              	.LVL57:
 691 0010 0B20     		movs	r0, #11
 692              	.LVL58:
 693 0012 FFF7FEFF 		bl	nRF24_writeLongRegister
 694              	.LVL59:
 695              	.L39:
 520:Generated_Source\PSoC4/nRF24_NRF_FUNCS.c **** }
 696              		.loc 1 520 0
 697              		@ sp needed
 698 0016 10BD     		pop	{r4, pc}
 699              		.cfi_endproc
 700              	.LFE24:
 701              		.size	nRF24_setRxPipe1Address, .-nRF24_setRxPipe1Address
 702              		.section	.text.nRF24_getRxPipe1Address,"ax",%progbits
 703              		.align	2
 704              		.global	nRF24_getRxPipe1Address
 705              		.code	16
 706              		.thumb_func
 707              		.type	nRF24_getRxPipe1Address, %function
 708              	nRF24_getRxPipe1Address:
 709              	.LFB25:
 521:Generated_Source\PSoC4/nRF24_NRF_FUNCS.c **** 
 522:Generated_Source\PSoC4/nRF24_NRF_FUNCS.c **** /**
 523:Generated_Source\PSoC4/nRF24_NRF_FUNCS.c ****  * @brief Get the address of the RX Pipe 1 in the radio.
 524:Generated_Source\PSoC4/nRF24_NRF_FUNCS.c ****  *
 525:Generated_Source\PSoC4/nRF24_NRF_FUNCS.c ****  * @param uint8_t* addr:
 526:Generated_Source\PSoC4/nRF24_NRF_FUNCS.c ****  * @param size_t size:
 527:Generated_Source\PSoC4/nRF24_NRF_FUNCS.c ****  *
 528:Generated_Source\PSoC4/nRF24_NRF_FUNCS.c ****  * @return
 529:Generated_Source\PSoC4/nRF24_NRF_FUNCS.c ****  */
 530:Generated_Source\PSoC4/nRF24_NRF_FUNCS.c **** void nRF24_getRxPipe1Address(uint8_t* addr, size_t size)
 531:Generated_Source\PSoC4/nRF24_NRF_FUNCS.c **** {
 710              		.loc 1 531 0
 711              		.cfi_startproc
 712              		@ args = 0, pretend = 0, frame = 0
 713              		@ frame_needed = 0, uses_anonymous_args = 0
 714              	.LVL60:
 715 0000 10B5     		push	{r4, lr}
 716              		.cfi_def_cfa_offset 8
 717              		.cfi_offset 4, -8
ARM GAS  C:\Users\Xwx47\AppData\Local\Temp\ccidPk4n.s 			page 23


 718              		.cfi_offset 14, -4
 532:Generated_Source\PSoC4/nRF24_NRF_FUNCS.c ****     if (NULL == addr) {
 719              		.loc 1 532 0
 720 0002 0028     		cmp	r0, #0
 721 0004 06D0     		beq	.L43
 533:Generated_Source\PSoC4/nRF24_NRF_FUNCS.c ****         return;
 534:Generated_Source\PSoC4/nRF24_NRF_FUNCS.c ****     }
 535:Generated_Source\PSoC4/nRF24_NRF_FUNCS.c **** 
 536:Generated_Source\PSoC4/nRF24_NRF_FUNCS.c ****     if (5 < size) {
 722              		.loc 1 536 0
 723 0006 0529     		cmp	r1, #5
 724 0008 04D8     		bhi	.L43
 537:Generated_Source\PSoC4/nRF24_NRF_FUNCS.c ****         return;
 538:Generated_Source\PSoC4/nRF24_NRF_FUNCS.c ****     }
 539:Generated_Source\PSoC4/nRF24_NRF_FUNCS.c ****     
 540:Generated_Source\PSoC4/nRF24_NRF_FUNCS.c ****     nRF24_readLongRegister(NRF_RX_ADDR_P1_REG, addr, size);
 725              		.loc 1 540 0
 726 000a 0A00     		movs	r2, r1
 727 000c 0100     		movs	r1, r0
 728              	.LVL61:
 729 000e 0B20     		movs	r0, #11
 730              	.LVL62:
 731 0010 FFF7FEFF 		bl	nRF24_readLongRegister
 732              	.LVL63:
 733              	.L43:
 541:Generated_Source\PSoC4/nRF24_NRF_FUNCS.c **** }
 734              		.loc 1 541 0
 735              		@ sp needed
 736 0014 10BD     		pop	{r4, pc}
 737              		.cfi_endproc
 738              	.LFE25:
 739              		.size	nRF24_getRxPipe1Address, .-nRF24_getRxPipe1Address
 740 0016 C046     		.section	.text.nRF24_setRxPipe2Address,"ax",%progbits
 741              		.align	2
 742              		.global	nRF24_setRxPipe2Address
 743              		.code	16
 744              		.thumb_func
 745              		.type	nRF24_setRxPipe2Address, %function
 746              	nRF24_setRxPipe2Address:
 747              	.LFB26:
 542:Generated_Source\PSoC4/nRF24_NRF_FUNCS.c **** 
 543:Generated_Source\PSoC4/nRF24_NRF_FUNCS.c **** /**
 544:Generated_Source\PSoC4/nRF24_NRF_FUNCS.c ****  * @brief Set the address of the RX Pipe 2 in the radio.
 545:Generated_Source\PSoC4/nRF24_NRF_FUNCS.c ****  *
 546:Generated_Source\PSoC4/nRF24_NRF_FUNCS.c ****  * This function configure the address of the Rx Pipe 2 of the radio.
 547:Generated_Source\PSoC4/nRF24_NRF_FUNCS.c ****  *
 548:Generated_Source\PSoC4/nRF24_NRF_FUNCS.c ****  * @param const uint8_t addr_lsb:
 549:Generated_Source\PSoC4/nRF24_NRF_FUNCS.c ****  *
 550:Generated_Source\PSoC4/nRF24_NRF_FUNCS.c ****  * @return
 551:Generated_Source\PSoC4/nRF24_NRF_FUNCS.c ****  */
 552:Generated_Source\PSoC4/nRF24_NRF_FUNCS.c **** void nRF24_setRxPipe2Address(const uint8_t addr_lsb)
 553:Generated_Source\PSoC4/nRF24_NRF_FUNCS.c **** {
 748              		.loc 1 553 0
 749              		.cfi_startproc
 750              		@ args = 0, pretend = 0, frame = 0
 751              		@ frame_needed = 0, uses_anonymous_args = 0
 752              	.LVL64:
ARM GAS  C:\Users\Xwx47\AppData\Local\Temp\ccidPk4n.s 			page 24


 753 0000 10B5     		push	{r4, lr}
 754              		.cfi_def_cfa_offset 8
 755              		.cfi_offset 4, -8
 756              		.cfi_offset 14, -4
 757 0002 0100     		movs	r1, r0
 554:Generated_Source\PSoC4/nRF24_NRF_FUNCS.c ****     nRF24_writeRegister(NRF_RX_ADDR_P2_REG, addr_lsb);
 758              		.loc 1 554 0
 759 0004 0C20     		movs	r0, #12
 760              	.LVL65:
 761 0006 FFF7FEFF 		bl	nRF24_writeRegister
 762              	.LVL66:
 555:Generated_Source\PSoC4/nRF24_NRF_FUNCS.c **** }
 763              		.loc 1 555 0
 764              		@ sp needed
 765 000a 10BD     		pop	{r4, pc}
 766              		.cfi_endproc
 767              	.LFE26:
 768              		.size	nRF24_setRxPipe2Address, .-nRF24_setRxPipe2Address
 769              		.section	.text.nRF24_getRxPipe2Address,"ax",%progbits
 770              		.align	2
 771              		.global	nRF24_getRxPipe2Address
 772              		.code	16
 773              		.thumb_func
 774              		.type	nRF24_getRxPipe2Address, %function
 775              	nRF24_getRxPipe2Address:
 776              	.LFB27:
 556:Generated_Source\PSoC4/nRF24_NRF_FUNCS.c **** 
 557:Generated_Source\PSoC4/nRF24_NRF_FUNCS.c **** /**
 558:Generated_Source\PSoC4/nRF24_NRF_FUNCS.c ****  * @brief Get the address of the RX Pipe 2 in the radio.
 559:Generated_Source\PSoC4/nRF24_NRF_FUNCS.c ****  *
 560:Generated_Source\PSoC4/nRF24_NRF_FUNCS.c ****  * @param uint8_t* addr:
 561:Generated_Source\PSoC4/nRF24_NRF_FUNCS.c ****  * @param size_t size:
 562:Generated_Source\PSoC4/nRF24_NRF_FUNCS.c ****  *
 563:Generated_Source\PSoC4/nRF24_NRF_FUNCS.c ****  * @return
 564:Generated_Source\PSoC4/nRF24_NRF_FUNCS.c ****  */
 565:Generated_Source\PSoC4/nRF24_NRF_FUNCS.c **** void nRF24_getRxPipe2Address(uint8_t* addr, size_t size)
 566:Generated_Source\PSoC4/nRF24_NRF_FUNCS.c **** {
 777              		.loc 1 566 0
 778              		.cfi_startproc
 779              		@ args = 0, pretend = 0, frame = 0
 780              		@ frame_needed = 0, uses_anonymous_args = 0
 781              	.LVL67:
 782 0000 70B5     		push	{r4, r5, r6, lr}
 783              		.cfi_def_cfa_offset 16
 784              		.cfi_offset 4, -16
 785              		.cfi_offset 5, -12
 786              		.cfi_offset 6, -8
 787              		.cfi_offset 14, -4
 788 0002 051E     		subs	r5, r0, #0
 567:Generated_Source\PSoC4/nRF24_NRF_FUNCS.c ****     if (NULL == addr) {
 789              		.loc 1 567 0
 790 0004 0CD0     		beq	.L46
 568:Generated_Source\PSoC4/nRF24_NRF_FUNCS.c ****         return;
 569:Generated_Source\PSoC4/nRF24_NRF_FUNCS.c ****     }
 570:Generated_Source\PSoC4/nRF24_NRF_FUNCS.c **** 
 571:Generated_Source\PSoC4/nRF24_NRF_FUNCS.c ****     if (5 < size) {
 791              		.loc 1 571 0
ARM GAS  C:\Users\Xwx47\AppData\Local\Temp\ccidPk4n.s 			page 25


 792 0006 0529     		cmp	r1, #5
 793 0008 0AD8     		bhi	.L46
 572:Generated_Source\PSoC4/nRF24_NRF_FUNCS.c ****         return;
 573:Generated_Source\PSoC4/nRF24_NRF_FUNCS.c ****     }
 574:Generated_Source\PSoC4/nRF24_NRF_FUNCS.c ****     
 575:Generated_Source\PSoC4/nRF24_NRF_FUNCS.c ****     // The pipe2 address is the same as the pipe1 address except the LSB
 576:Generated_Source\PSoC4/nRF24_NRF_FUNCS.c ****     nRF24_readLongRegister(NRF_RX_ADDR_P1_REG, addr, size - 1);
 794              		.loc 1 576 0
 795 000a 4C1E     		subs	r4, r1, #1
 796 000c 2200     		movs	r2, r4
 797 000e 0100     		movs	r1, r0
 798              	.LVL68:
 799 0010 0B20     		movs	r0, #11
 800              	.LVL69:
 801 0012 FFF7FEFF 		bl	nRF24_readLongRegister
 802              	.LVL70:
 577:Generated_Source\PSoC4/nRF24_NRF_FUNCS.c ****     addr[size - 1] = nRF24_readRegister(NRF_RX_ADDR_P2_REG);
 803              		.loc 1 577 0
 804 0016 2C19     		adds	r4, r5, r4
 805              	.LVL71:
 806 0018 0C20     		movs	r0, #12
 807 001a FFF7FEFF 		bl	nRF24_readRegister
 808              	.LVL72:
 809 001e 2070     		strb	r0, [r4]
 810              	.L46:
 578:Generated_Source\PSoC4/nRF24_NRF_FUNCS.c **** }
 811              		.loc 1 578 0
 812              		@ sp needed
 813              	.LVL73:
 814 0020 70BD     		pop	{r4, r5, r6, pc}
 815              		.cfi_endproc
 816              	.LFE27:
 817              		.size	nRF24_getRxPipe2Address, .-nRF24_getRxPipe2Address
 818 0022 C046     		.section	.text.nRF24_setRxPipe3Address,"ax",%progbits
 819              		.align	2
 820              		.global	nRF24_setRxPipe3Address
 821              		.code	16
 822              		.thumb_func
 823              		.type	nRF24_setRxPipe3Address, %function
 824              	nRF24_setRxPipe3Address:
 825              	.LFB28:
 579:Generated_Source\PSoC4/nRF24_NRF_FUNCS.c **** 
 580:Generated_Source\PSoC4/nRF24_NRF_FUNCS.c **** /**
 581:Generated_Source\PSoC4/nRF24_NRF_FUNCS.c ****  * @brief Set the address of the RX Pipe 3 in the radio.
 582:Generated_Source\PSoC4/nRF24_NRF_FUNCS.c ****  *
 583:Generated_Source\PSoC4/nRF24_NRF_FUNCS.c ****  * This function configure the address of the Rx Pipe 3 of the radio.
 584:Generated_Source\PSoC4/nRF24_NRF_FUNCS.c ****  *
 585:Generated_Source\PSoC4/nRF24_NRF_FUNCS.c ****  * @param const uint8_t addr_lsb:
 586:Generated_Source\PSoC4/nRF24_NRF_FUNCS.c ****  *
 587:Generated_Source\PSoC4/nRF24_NRF_FUNCS.c ****  * @return
 588:Generated_Source\PSoC4/nRF24_NRF_FUNCS.c ****  */
 589:Generated_Source\PSoC4/nRF24_NRF_FUNCS.c **** void nRF24_setRxPipe3Address(const uint8_t addr_lsb)
 590:Generated_Source\PSoC4/nRF24_NRF_FUNCS.c **** {
 826              		.loc 1 590 0
 827              		.cfi_startproc
 828              		@ args = 0, pretend = 0, frame = 0
 829              		@ frame_needed = 0, uses_anonymous_args = 0
ARM GAS  C:\Users\Xwx47\AppData\Local\Temp\ccidPk4n.s 			page 26


 830              	.LVL74:
 831 0000 10B5     		push	{r4, lr}
 832              		.cfi_def_cfa_offset 8
 833              		.cfi_offset 4, -8
 834              		.cfi_offset 14, -4
 835 0002 0100     		movs	r1, r0
 591:Generated_Source\PSoC4/nRF24_NRF_FUNCS.c ****     nRF24_writeRegister(NRF_RX_ADDR_P3_REG, addr_lsb);
 836              		.loc 1 591 0
 837 0004 0D20     		movs	r0, #13
 838              	.LVL75:
 839 0006 FFF7FEFF 		bl	nRF24_writeRegister
 840              	.LVL76:
 592:Generated_Source\PSoC4/nRF24_NRF_FUNCS.c **** }
 841              		.loc 1 592 0
 842              		@ sp needed
 843 000a 10BD     		pop	{r4, pc}
 844              		.cfi_endproc
 845              	.LFE28:
 846              		.size	nRF24_setRxPipe3Address, .-nRF24_setRxPipe3Address
 847              		.section	.text.nRF24_getRxPipe3Address,"ax",%progbits
 848              		.align	2
 849              		.global	nRF24_getRxPipe3Address
 850              		.code	16
 851              		.thumb_func
 852              		.type	nRF24_getRxPipe3Address, %function
 853              	nRF24_getRxPipe3Address:
 854              	.LFB29:
 593:Generated_Source\PSoC4/nRF24_NRF_FUNCS.c **** 
 594:Generated_Source\PSoC4/nRF24_NRF_FUNCS.c **** /**
 595:Generated_Source\PSoC4/nRF24_NRF_FUNCS.c ****  * @brief Get the address of the RX Pipe 3 in the radio.
 596:Generated_Source\PSoC4/nRF24_NRF_FUNCS.c ****  *
 597:Generated_Source\PSoC4/nRF24_NRF_FUNCS.c ****  * @param uint8_t* addr:
 598:Generated_Source\PSoC4/nRF24_NRF_FUNCS.c ****  * @param size_t size:
 599:Generated_Source\PSoC4/nRF24_NRF_FUNCS.c ****  *
 600:Generated_Source\PSoC4/nRF24_NRF_FUNCS.c ****  * @return
 601:Generated_Source\PSoC4/nRF24_NRF_FUNCS.c ****  */
 602:Generated_Source\PSoC4/nRF24_NRF_FUNCS.c **** void nRF24_getRxPipe3Address(uint8_t* addr, size_t size)
 603:Generated_Source\PSoC4/nRF24_NRF_FUNCS.c **** {
 855              		.loc 1 603 0
 856              		.cfi_startproc
 857              		@ args = 0, pretend = 0, frame = 0
 858              		@ frame_needed = 0, uses_anonymous_args = 0
 859              	.LVL77:
 860 0000 70B5     		push	{r4, r5, r6, lr}
 861              		.cfi_def_cfa_offset 16
 862              		.cfi_offset 4, -16
 863              		.cfi_offset 5, -12
 864              		.cfi_offset 6, -8
 865              		.cfi_offset 14, -4
 866 0002 051E     		subs	r5, r0, #0
 604:Generated_Source\PSoC4/nRF24_NRF_FUNCS.c ****     if (NULL == addr) {
 867              		.loc 1 604 0
 868 0004 0CD0     		beq	.L49
 605:Generated_Source\PSoC4/nRF24_NRF_FUNCS.c ****         return;
 606:Generated_Source\PSoC4/nRF24_NRF_FUNCS.c ****     }
 607:Generated_Source\PSoC4/nRF24_NRF_FUNCS.c **** 
 608:Generated_Source\PSoC4/nRF24_NRF_FUNCS.c ****     if (5 < size) {
ARM GAS  C:\Users\Xwx47\AppData\Local\Temp\ccidPk4n.s 			page 27


 869              		.loc 1 608 0
 870 0006 0529     		cmp	r1, #5
 871 0008 0AD8     		bhi	.L49
 609:Generated_Source\PSoC4/nRF24_NRF_FUNCS.c ****         return;
 610:Generated_Source\PSoC4/nRF24_NRF_FUNCS.c ****     }
 611:Generated_Source\PSoC4/nRF24_NRF_FUNCS.c ****     
 612:Generated_Source\PSoC4/nRF24_NRF_FUNCS.c ****     // The pipe3 address is the same as the pipe1 address except the LSB
 613:Generated_Source\PSoC4/nRF24_NRF_FUNCS.c ****     nRF24_readLongRegister(NRF_RX_ADDR_P1_REG, addr, size - 1);
 872              		.loc 1 613 0
 873 000a 4C1E     		subs	r4, r1, #1
 874 000c 2200     		movs	r2, r4
 875 000e 0100     		movs	r1, r0
 876              	.LVL78:
 877 0010 0B20     		movs	r0, #11
 878              	.LVL79:
 879 0012 FFF7FEFF 		bl	nRF24_readLongRegister
 880              	.LVL80:
 614:Generated_Source\PSoC4/nRF24_NRF_FUNCS.c ****     addr[size - 1] = nRF24_readRegister(NRF_RX_ADDR_P3_REG);
 881              		.loc 1 614 0
 882 0016 2C19     		adds	r4, r5, r4
 883              	.LVL81:
 884 0018 0D20     		movs	r0, #13
 885 001a FFF7FEFF 		bl	nRF24_readRegister
 886              	.LVL82:
 887 001e 2070     		strb	r0, [r4]
 888              	.L49:
 615:Generated_Source\PSoC4/nRF24_NRF_FUNCS.c **** }
 889              		.loc 1 615 0
 890              		@ sp needed
 891              	.LVL83:
 892 0020 70BD     		pop	{r4, r5, r6, pc}
 893              		.cfi_endproc
 894              	.LFE29:
 895              		.size	nRF24_getRxPipe3Address, .-nRF24_getRxPipe3Address
 896 0022 C046     		.section	.text.nRF24_setRxPipe4Address,"ax",%progbits
 897              		.align	2
 898              		.global	nRF24_setRxPipe4Address
 899              		.code	16
 900              		.thumb_func
 901              		.type	nRF24_setRxPipe4Address, %function
 902              	nRF24_setRxPipe4Address:
 903              	.LFB30:
 616:Generated_Source\PSoC4/nRF24_NRF_FUNCS.c **** 
 617:Generated_Source\PSoC4/nRF24_NRF_FUNCS.c **** /**
 618:Generated_Source\PSoC4/nRF24_NRF_FUNCS.c ****  * @brief Set the address of the RX Pipe 4 in the radio.
 619:Generated_Source\PSoC4/nRF24_NRF_FUNCS.c ****  *
 620:Generated_Source\PSoC4/nRF24_NRF_FUNCS.c ****  * This function configure the address of the Rx Pipe 4 of the radio.
 621:Generated_Source\PSoC4/nRF24_NRF_FUNCS.c ****  *
 622:Generated_Source\PSoC4/nRF24_NRF_FUNCS.c ****  * @param const uint8_t addr_lsb:
 623:Generated_Source\PSoC4/nRF24_NRF_FUNCS.c ****  *
 624:Generated_Source\PSoC4/nRF24_NRF_FUNCS.c ****  * @return
 625:Generated_Source\PSoC4/nRF24_NRF_FUNCS.c ****  */
 626:Generated_Source\PSoC4/nRF24_NRF_FUNCS.c **** void nRF24_setRxPipe4Address(const uint8_t addr_lsb)
 627:Generated_Source\PSoC4/nRF24_NRF_FUNCS.c **** {
 904              		.loc 1 627 0
 905              		.cfi_startproc
 906              		@ args = 0, pretend = 0, frame = 0
ARM GAS  C:\Users\Xwx47\AppData\Local\Temp\ccidPk4n.s 			page 28


 907              		@ frame_needed = 0, uses_anonymous_args = 0
 908              	.LVL84:
 909 0000 10B5     		push	{r4, lr}
 910              		.cfi_def_cfa_offset 8
 911              		.cfi_offset 4, -8
 912              		.cfi_offset 14, -4
 913 0002 0100     		movs	r1, r0
 628:Generated_Source\PSoC4/nRF24_NRF_FUNCS.c ****     nRF24_writeRegister(NRF_RX_ADDR_P4_REG, addr_lsb);
 914              		.loc 1 628 0
 915 0004 0E20     		movs	r0, #14
 916              	.LVL85:
 917 0006 FFF7FEFF 		bl	nRF24_writeRegister
 918              	.LVL86:
 629:Generated_Source\PSoC4/nRF24_NRF_FUNCS.c **** }
 919              		.loc 1 629 0
 920              		@ sp needed
 921 000a 10BD     		pop	{r4, pc}
 922              		.cfi_endproc
 923              	.LFE30:
 924              		.size	nRF24_setRxPipe4Address, .-nRF24_setRxPipe4Address
 925              		.section	.text.nRF24_getRxPipe4Address,"ax",%progbits
 926              		.align	2
 927              		.global	nRF24_getRxPipe4Address
 928              		.code	16
 929              		.thumb_func
 930              		.type	nRF24_getRxPipe4Address, %function
 931              	nRF24_getRxPipe4Address:
 932              	.LFB31:
 630:Generated_Source\PSoC4/nRF24_NRF_FUNCS.c **** 
 631:Generated_Source\PSoC4/nRF24_NRF_FUNCS.c **** /**
 632:Generated_Source\PSoC4/nRF24_NRF_FUNCS.c ****  * @brief Get the address of the RX Pipe 4 in the radio.
 633:Generated_Source\PSoC4/nRF24_NRF_FUNCS.c ****  *
 634:Generated_Source\PSoC4/nRF24_NRF_FUNCS.c ****  * @param uint8_t* addr:
 635:Generated_Source\PSoC4/nRF24_NRF_FUNCS.c ****  * @param size_t size:
 636:Generated_Source\PSoC4/nRF24_NRF_FUNCS.c ****  *
 637:Generated_Source\PSoC4/nRF24_NRF_FUNCS.c ****  * @return
 638:Generated_Source\PSoC4/nRF24_NRF_FUNCS.c ****  */
 639:Generated_Source\PSoC4/nRF24_NRF_FUNCS.c **** void nRF24_getRxPipe4Address(uint8_t* addr, size_t size)
 640:Generated_Source\PSoC4/nRF24_NRF_FUNCS.c **** {
 933              		.loc 1 640 0
 934              		.cfi_startproc
 935              		@ args = 0, pretend = 0, frame = 0
 936              		@ frame_needed = 0, uses_anonymous_args = 0
 937              	.LVL87:
 938 0000 70B5     		push	{r4, r5, r6, lr}
 939              		.cfi_def_cfa_offset 16
 940              		.cfi_offset 4, -16
 941              		.cfi_offset 5, -12
 942              		.cfi_offset 6, -8
 943              		.cfi_offset 14, -4
 944 0002 051E     		subs	r5, r0, #0
 641:Generated_Source\PSoC4/nRF24_NRF_FUNCS.c ****     if (NULL == addr) {
 945              		.loc 1 641 0
 946 0004 0CD0     		beq	.L52
 642:Generated_Source\PSoC4/nRF24_NRF_FUNCS.c ****         return;
 643:Generated_Source\PSoC4/nRF24_NRF_FUNCS.c ****     }
 644:Generated_Source\PSoC4/nRF24_NRF_FUNCS.c **** 
ARM GAS  C:\Users\Xwx47\AppData\Local\Temp\ccidPk4n.s 			page 29


 645:Generated_Source\PSoC4/nRF24_NRF_FUNCS.c ****     if (5 < size) {
 947              		.loc 1 645 0
 948 0006 0529     		cmp	r1, #5
 949 0008 0AD8     		bhi	.L52
 646:Generated_Source\PSoC4/nRF24_NRF_FUNCS.c ****         return;
 647:Generated_Source\PSoC4/nRF24_NRF_FUNCS.c ****     }
 648:Generated_Source\PSoC4/nRF24_NRF_FUNCS.c ****     
 649:Generated_Source\PSoC4/nRF24_NRF_FUNCS.c ****     // The pipe4 address is the same as the pipe1 address except the LSB
 650:Generated_Source\PSoC4/nRF24_NRF_FUNCS.c ****     nRF24_readLongRegister(NRF_RX_ADDR_P1_REG, addr, size - 1);
 950              		.loc 1 650 0
 951 000a 4C1E     		subs	r4, r1, #1
 952 000c 2200     		movs	r2, r4
 953 000e 0100     		movs	r1, r0
 954              	.LVL88:
 955 0010 0B20     		movs	r0, #11
 956              	.LVL89:
 957 0012 FFF7FEFF 		bl	nRF24_readLongRegister
 958              	.LVL90:
 651:Generated_Source\PSoC4/nRF24_NRF_FUNCS.c ****     addr[size - 1] = nRF24_readRegister(NRF_RX_ADDR_P4_REG);
 959              		.loc 1 651 0
 960 0016 2C19     		adds	r4, r5, r4
 961              	.LVL91:
 962 0018 0E20     		movs	r0, #14
 963 001a FFF7FEFF 		bl	nRF24_readRegister
 964              	.LVL92:
 965 001e 2070     		strb	r0, [r4]
 966              	.L52:
 652:Generated_Source\PSoC4/nRF24_NRF_FUNCS.c **** }
 967              		.loc 1 652 0
 968              		@ sp needed
 969              	.LVL93:
 970 0020 70BD     		pop	{r4, r5, r6, pc}
 971              		.cfi_endproc
 972              	.LFE31:
 973              		.size	nRF24_getRxPipe4Address, .-nRF24_getRxPipe4Address
 974 0022 C046     		.section	.text.nRF24_setRxPipe5Address,"ax",%progbits
 975              		.align	2
 976              		.global	nRF24_setRxPipe5Address
 977              		.code	16
 978              		.thumb_func
 979              		.type	nRF24_setRxPipe5Address, %function
 980              	nRF24_setRxPipe5Address:
 981              	.LFB32:
 653:Generated_Source\PSoC4/nRF24_NRF_FUNCS.c **** 
 654:Generated_Source\PSoC4/nRF24_NRF_FUNCS.c **** /**
 655:Generated_Source\PSoC4/nRF24_NRF_FUNCS.c ****  * @brief Set the address of the RX Pipe 5 in the radio.
 656:Generated_Source\PSoC4/nRF24_NRF_FUNCS.c ****  *
 657:Generated_Source\PSoC4/nRF24_NRF_FUNCS.c ****  * This function configure the address of the Rx Pipe 5 of the radio.
 658:Generated_Source\PSoC4/nRF24_NRF_FUNCS.c ****  *
 659:Generated_Source\PSoC4/nRF24_NRF_FUNCS.c ****  * @param const uint8_t addr_lsb:
 660:Generated_Source\PSoC4/nRF24_NRF_FUNCS.c ****  *
 661:Generated_Source\PSoC4/nRF24_NRF_FUNCS.c ****  * @return
 662:Generated_Source\PSoC4/nRF24_NRF_FUNCS.c ****  */
 663:Generated_Source\PSoC4/nRF24_NRF_FUNCS.c **** void nRF24_setRxPipe5Address(const uint8_t addr_lsb)
 664:Generated_Source\PSoC4/nRF24_NRF_FUNCS.c **** {
 982              		.loc 1 664 0
 983              		.cfi_startproc
ARM GAS  C:\Users\Xwx47\AppData\Local\Temp\ccidPk4n.s 			page 30


 984              		@ args = 0, pretend = 0, frame = 0
 985              		@ frame_needed = 0, uses_anonymous_args = 0
 986              	.LVL94:
 987 0000 10B5     		push	{r4, lr}
 988              		.cfi_def_cfa_offset 8
 989              		.cfi_offset 4, -8
 990              		.cfi_offset 14, -4
 991 0002 0100     		movs	r1, r0
 665:Generated_Source\PSoC4/nRF24_NRF_FUNCS.c ****     nRF24_writeRegister(NRF_RX_ADDR_P5_REG, addr_lsb);
 992              		.loc 1 665 0
 993 0004 0F20     		movs	r0, #15
 994              	.LVL95:
 995 0006 FFF7FEFF 		bl	nRF24_writeRegister
 996              	.LVL96:
 666:Generated_Source\PSoC4/nRF24_NRF_FUNCS.c **** }
 997              		.loc 1 666 0
 998              		@ sp needed
 999 000a 10BD     		pop	{r4, pc}
 1000              		.cfi_endproc
 1001              	.LFE32:
 1002              		.size	nRF24_setRxPipe5Address, .-nRF24_setRxPipe5Address
 1003              		.section	.text.nRF24_getRxPipe5Address,"ax",%progbits
 1004              		.align	2
 1005              		.global	nRF24_getRxPipe5Address
 1006              		.code	16
 1007              		.thumb_func
 1008              		.type	nRF24_getRxPipe5Address, %function
 1009              	nRF24_getRxPipe5Address:
 1010              	.LFB33:
 667:Generated_Source\PSoC4/nRF24_NRF_FUNCS.c **** 
 668:Generated_Source\PSoC4/nRF24_NRF_FUNCS.c **** /**
 669:Generated_Source\PSoC4/nRF24_NRF_FUNCS.c ****  * @brief Get the address of the RX Pipe 5 in the radio.
 670:Generated_Source\PSoC4/nRF24_NRF_FUNCS.c ****  *
 671:Generated_Source\PSoC4/nRF24_NRF_FUNCS.c ****  * @param uint8_t* addr:
 672:Generated_Source\PSoC4/nRF24_NRF_FUNCS.c ****  * @param size_t size:
 673:Generated_Source\PSoC4/nRF24_NRF_FUNCS.c ****  *
 674:Generated_Source\PSoC4/nRF24_NRF_FUNCS.c ****  * @return
 675:Generated_Source\PSoC4/nRF24_NRF_FUNCS.c ****  */
 676:Generated_Source\PSoC4/nRF24_NRF_FUNCS.c **** void nRF24_getRxPipe5Address(uint8_t* addr, size_t size)
 677:Generated_Source\PSoC4/nRF24_NRF_FUNCS.c **** {
 1011              		.loc 1 677 0
 1012              		.cfi_startproc
 1013              		@ args = 0, pretend = 0, frame = 0
 1014              		@ frame_needed = 0, uses_anonymous_args = 0
 1015              	.LVL97:
 1016 0000 70B5     		push	{r4, r5, r6, lr}
 1017              		.cfi_def_cfa_offset 16
 1018              		.cfi_offset 4, -16
 1019              		.cfi_offset 5, -12
 1020              		.cfi_offset 6, -8
 1021              		.cfi_offset 14, -4
 1022 0002 051E     		subs	r5, r0, #0
 678:Generated_Source\PSoC4/nRF24_NRF_FUNCS.c ****     if (NULL == addr) {
 1023              		.loc 1 678 0
 1024 0004 0CD0     		beq	.L55
 679:Generated_Source\PSoC4/nRF24_NRF_FUNCS.c ****         return;
 680:Generated_Source\PSoC4/nRF24_NRF_FUNCS.c ****     }
ARM GAS  C:\Users\Xwx47\AppData\Local\Temp\ccidPk4n.s 			page 31


 681:Generated_Source\PSoC4/nRF24_NRF_FUNCS.c **** 
 682:Generated_Source\PSoC4/nRF24_NRF_FUNCS.c ****     if (5 < size) {
 1025              		.loc 1 682 0
 1026 0006 0529     		cmp	r1, #5
 1027 0008 0AD8     		bhi	.L55
 683:Generated_Source\PSoC4/nRF24_NRF_FUNCS.c ****         return;
 684:Generated_Source\PSoC4/nRF24_NRF_FUNCS.c ****     }
 685:Generated_Source\PSoC4/nRF24_NRF_FUNCS.c ****     
 686:Generated_Source\PSoC4/nRF24_NRF_FUNCS.c ****     // The pipe5 address is the same as the pipe1 address except the LSB
 687:Generated_Source\PSoC4/nRF24_NRF_FUNCS.c ****     nRF24_readLongRegister(NRF_RX_ADDR_P1_REG, addr, size - 1);
 1028              		.loc 1 687 0
 1029 000a 4C1E     		subs	r4, r1, #1
 1030 000c 2200     		movs	r2, r4
 1031 000e 0100     		movs	r1, r0
 1032              	.LVL98:
 1033 0010 0B20     		movs	r0, #11
 1034              	.LVL99:
 1035 0012 FFF7FEFF 		bl	nRF24_readLongRegister
 1036              	.LVL100:
 688:Generated_Source\PSoC4/nRF24_NRF_FUNCS.c ****     addr[size - 1] = nRF24_readRegister(NRF_RX_ADDR_P5_REG);
 1037              		.loc 1 688 0
 1038 0016 2C19     		adds	r4, r5, r4
 1039              	.LVL101:
 1040 0018 0F20     		movs	r0, #15
 1041 001a FFF7FEFF 		bl	nRF24_readRegister
 1042              	.LVL102:
 1043 001e 2070     		strb	r0, [r4]
 1044              	.L55:
 689:Generated_Source\PSoC4/nRF24_NRF_FUNCS.c **** }
 1045              		.loc 1 689 0
 1046              		@ sp needed
 1047              	.LVL103:
 1048 0020 70BD     		pop	{r4, r5, r6, pc}
 1049              		.cfi_endproc
 1050              	.LFE33:
 1051              		.size	nRF24_getRxPipe5Address, .-nRF24_getRxPipe5Address
 1052 0022 C046     		.section	.text.nRF24_setTxAddress,"ax",%progbits
 1053              		.align	2
 1054              		.global	nRF24_setTxAddress
 1055              		.code	16
 1056              		.thumb_func
 1057              		.type	nRF24_setTxAddress, %function
 1058              	nRF24_setTxAddress:
 1059              	.LFB34:
 690:Generated_Source\PSoC4/nRF24_NRF_FUNCS.c **** 
 691:Generated_Source\PSoC4/nRF24_NRF_FUNCS.c **** /**
 692:Generated_Source\PSoC4/nRF24_NRF_FUNCS.c ****  * @brief Set the TX Address of the radio.
 693:Generated_Source\PSoC4/nRF24_NRF_FUNCS.c ****  *
 694:Generated_Source\PSoC4/nRF24_NRF_FUNCS.c ****  * @param const uint8_t* addr:
 695:Generated_Source\PSoC4/nRF24_NRF_FUNCS.c ****  * @param size_t size:
 696:Generated_Source\PSoC4/nRF24_NRF_FUNCS.c ****  *
 697:Generated_Source\PSoC4/nRF24_NRF_FUNCS.c ****  * @return
 698:Generated_Source\PSoC4/nRF24_NRF_FUNCS.c ****  */
 699:Generated_Source\PSoC4/nRF24_NRF_FUNCS.c **** void nRF24_setTxAddress(const uint8_t* addr, size_t size)
 700:Generated_Source\PSoC4/nRF24_NRF_FUNCS.c **** {
 1060              		.loc 1 700 0
 1061              		.cfi_startproc
ARM GAS  C:\Users\Xwx47\AppData\Local\Temp\ccidPk4n.s 			page 32


 1062              		@ args = 0, pretend = 0, frame = 0
 1063              		@ frame_needed = 0, uses_anonymous_args = 0
 1064              	.LVL104:
 1065 0000 10B5     		push	{r4, lr}
 1066              		.cfi_def_cfa_offset 8
 1067              		.cfi_offset 4, -8
 1068              		.cfi_offset 14, -4
 701:Generated_Source\PSoC4/nRF24_NRF_FUNCS.c ****     if (NULL == addr) {
 1069              		.loc 1 701 0
 1070 0002 0028     		cmp	r0, #0
 1071 0004 07D0     		beq	.L57
 702:Generated_Source\PSoC4/nRF24_NRF_FUNCS.c ****         return;
 703:Generated_Source\PSoC4/nRF24_NRF_FUNCS.c ****     }
 704:Generated_Source\PSoC4/nRF24_NRF_FUNCS.c **** 
 705:Generated_Source\PSoC4/nRF24_NRF_FUNCS.c ****     if (5 < size) {
 1072              		.loc 1 705 0
 1073 0006 0529     		cmp	r1, #5
 1074 0008 00D9     		bls	.L59
 706:Generated_Source\PSoC4/nRF24_NRF_FUNCS.c ****         size = 5;
 1075              		.loc 1 706 0
 1076 000a 0521     		movs	r1, #5
 1077              	.LVL105:
 1078              	.L59:
 707:Generated_Source\PSoC4/nRF24_NRF_FUNCS.c ****     }
 708:Generated_Source\PSoC4/nRF24_NRF_FUNCS.c ****     
 709:Generated_Source\PSoC4/nRF24_NRF_FUNCS.c ****     nRF24_writeLongRegister(NRF_TX_ADDR_REG, addr, size);
 1079              		.loc 1 709 0
 1080 000c 0A00     		movs	r2, r1
 1081 000e 0100     		movs	r1, r0
 1082              	.LVL106:
 1083 0010 1020     		movs	r0, #16
 1084              	.LVL107:
 1085 0012 FFF7FEFF 		bl	nRF24_writeLongRegister
 1086              	.LVL108:
 1087              	.L57:
 710:Generated_Source\PSoC4/nRF24_NRF_FUNCS.c **** }
 1088              		.loc 1 710 0
 1089              		@ sp needed
 1090 0016 10BD     		pop	{r4, pc}
 1091              		.cfi_endproc
 1092              	.LFE34:
 1093              		.size	nRF24_setTxAddress, .-nRF24_setTxAddress
 1094              		.section	.text.nRF24_getTxAddress,"ax",%progbits
 1095              		.align	2
 1096              		.global	nRF24_getTxAddress
 1097              		.code	16
 1098              		.thumb_func
 1099              		.type	nRF24_getTxAddress, %function
 1100              	nRF24_getTxAddress:
 1101              	.LFB35:
 711:Generated_Source\PSoC4/nRF24_NRF_FUNCS.c **** 
 712:Generated_Source\PSoC4/nRF24_NRF_FUNCS.c **** /**
 713:Generated_Source\PSoC4/nRF24_NRF_FUNCS.c ****  * @brief Get the TX Address of the radio.
 714:Generated_Source\PSoC4/nRF24_NRF_FUNCS.c ****  *
 715:Generated_Source\PSoC4/nRF24_NRF_FUNCS.c ****  * @param const uint8_t* addr:
 716:Generated_Source\PSoC4/nRF24_NRF_FUNCS.c ****  * @param const size_t size:
 717:Generated_Source\PSoC4/nRF24_NRF_FUNCS.c ****  */
ARM GAS  C:\Users\Xwx47\AppData\Local\Temp\ccidPk4n.s 			page 33


 718:Generated_Source\PSoC4/nRF24_NRF_FUNCS.c **** void nRF24_getTxAddress(uint8_t* addr, const size_t size)
 719:Generated_Source\PSoC4/nRF24_NRF_FUNCS.c **** {
 1102              		.loc 1 719 0
 1103              		.cfi_startproc
 1104              		@ args = 0, pretend = 0, frame = 0
 1105              		@ frame_needed = 0, uses_anonymous_args = 0
 1106              	.LVL109:
 1107 0000 10B5     		push	{r4, lr}
 1108              		.cfi_def_cfa_offset 8
 1109              		.cfi_offset 4, -8
 1110              		.cfi_offset 14, -4
 720:Generated_Source\PSoC4/nRF24_NRF_FUNCS.c ****     if (NULL == addr) {
 1111              		.loc 1 720 0
 1112 0002 0028     		cmp	r0, #0
 1113 0004 06D0     		beq	.L61
 721:Generated_Source\PSoC4/nRF24_NRF_FUNCS.c ****         return;
 722:Generated_Source\PSoC4/nRF24_NRF_FUNCS.c ****     }
 723:Generated_Source\PSoC4/nRF24_NRF_FUNCS.c **** 
 724:Generated_Source\PSoC4/nRF24_NRF_FUNCS.c ****     if (5 < size) {
 1114              		.loc 1 724 0
 1115 0006 0529     		cmp	r1, #5
 1116 0008 04D8     		bhi	.L61
 725:Generated_Source\PSoC4/nRF24_NRF_FUNCS.c ****         return;
 726:Generated_Source\PSoC4/nRF24_NRF_FUNCS.c ****     }
 727:Generated_Source\PSoC4/nRF24_NRF_FUNCS.c ****     
 728:Generated_Source\PSoC4/nRF24_NRF_FUNCS.c ****     nRF24_readLongRegister(NRF_TX_ADDR_REG, addr, size);
 1117              		.loc 1 728 0
 1118 000a 0A00     		movs	r2, r1
 1119 000c 0100     		movs	r1, r0
 1120              	.LVL110:
 1121 000e 1020     		movs	r0, #16
 1122              	.LVL111:
 1123 0010 FFF7FEFF 		bl	nRF24_readLongRegister
 1124              	.LVL112:
 1125              	.L61:
 729:Generated_Source\PSoC4/nRF24_NRF_FUNCS.c **** }
 1126              		.loc 1 729 0
 1127              		@ sp needed
 1128 0014 10BD     		pop	{r4, pc}
 1129              		.cfi_endproc
 1130              	.LFE35:
 1131              		.size	nRF24_getTxAddress, .-nRF24_getTxAddress
 1132 0016 C046     		.section	.text.nRF24_setPayloadSize,"ax",%progbits
 1133              		.align	2
 1134              		.global	nRF24_setPayloadSize
 1135              		.code	16
 1136              		.thumb_func
 1137              		.type	nRF24_setPayloadSize, %function
 1138              	nRF24_setPayloadSize:
 1139              	.LFB36:
 730:Generated_Source\PSoC4/nRF24_NRF_FUNCS.c **** 
 731:Generated_Source\PSoC4/nRF24_NRF_FUNCS.c **** /**
 732:Generated_Source\PSoC4/nRF24_NRF_FUNCS.c ****  * @brief Set the payload size of the given pipe.
 733:Generated_Source\PSoC4/nRF24_NRF_FUNCS.c ****  *
 734:Generated_Source\PSoC4/nRF24_NRF_FUNCS.c ****  * Every pipe can have up to 32 bytes of payload, this function configure the
 735:Generated_Source\PSoC4/nRF24_NRF_FUNCS.c ****  * payload size of the given pipe.
 736:Generated_Source\PSoC4/nRF24_NRF_FUNCS.c ****  * It also checks that the parameter @size is not larger than 32 bytes.
ARM GAS  C:\Users\Xwx47\AppData\Local\Temp\ccidPk4n.s 			page 34


 737:Generated_Source\PSoC4/nRF24_NRF_FUNCS.c ****  *
 738:Generated_Source\PSoC4/nRF24_NRF_FUNCS.c ****  * @param const NrfDataPipe pipe:
 739:Generated_Source\PSoC4/nRF24_NRF_FUNCS.c ****  * @param uint8_t size:
 740:Generated_Source\PSoC4/nRF24_NRF_FUNCS.c ****  *
 741:Generated_Source\PSoC4/nRF24_NRF_FUNCS.c ****  * @return
 742:Generated_Source\PSoC4/nRF24_NRF_FUNCS.c ****  */
 743:Generated_Source\PSoC4/nRF24_NRF_FUNCS.c **** void nRF24_setPayloadSize(const NrfDataPipe pipe, uint8_t size)
 744:Generated_Source\PSoC4/nRF24_NRF_FUNCS.c **** {
 1140              		.loc 1 744 0
 1141              		.cfi_startproc
 1142              		@ args = 0, pretend = 0, frame = 0
 1143              		@ frame_needed = 0, uses_anonymous_args = 0
 1144              	.LVL113:
 1145 0000 10B5     		push	{r4, lr}
 1146              		.cfi_def_cfa_offset 8
 1147              		.cfi_offset 4, -8
 1148              		.cfi_offset 14, -4
 745:Generated_Source\PSoC4/nRF24_NRF_FUNCS.c ****     if (32 < size) {
 1149              		.loc 1 745 0
 1150 0002 2029     		cmp	r1, #32
 1151 0004 00D9     		bls	.L64
 746:Generated_Source\PSoC4/nRF24_NRF_FUNCS.c ****         size = 32;
 1152              		.loc 1 746 0
 1153 0006 2021     		movs	r1, #32
 1154              	.LVL114:
 1155              	.L64:
 747:Generated_Source\PSoC4/nRF24_NRF_FUNCS.c ****     }
 748:Generated_Source\PSoC4/nRF24_NRF_FUNCS.c **** 
 749:Generated_Source\PSoC4/nRF24_NRF_FUNCS.c ****     switch (pipe) {
 1156              		.loc 1 749 0
 1157 0008 0528     		cmp	r0, #5
 1158 000a 1AD8     		bhi	.L63
 1159 000c 8000     		lsls	r0, r0, #2
 1160              	.LVL115:
 1161 000e 0D4B     		ldr	r3, .L74
 1162 0010 1B58     		ldr	r3, [r3, r0]
 1163 0012 9F46     		mov	pc, r3
 1164              		.section	.rodata
 1165              		.align	2
 1166              	.L67:
 1167 0000 14000000 		.word	.L66
 1168 0004 1C000000 		.word	.L68
 1169 0008 24000000 		.word	.L69
 1170 000c 2C000000 		.word	.L70
 1171 0010 34000000 		.word	.L71
 1172 0014 3C000000 		.word	.L72
 1173              		.section	.text.nRF24_setPayloadSize
 1174              	.L66:
 750:Generated_Source\PSoC4/nRF24_NRF_FUNCS.c ****     case NRF_DATA_PIPE0:
 751:Generated_Source\PSoC4/nRF24_NRF_FUNCS.c ****         nRF24_writeRegister(NRF_RX_PW_P0_REG, size);
 1175              		.loc 1 751 0
 1176 0014 1120     		movs	r0, #17
 1177 0016 FFF7FEFF 		bl	nRF24_writeRegister
 1178              	.LVL116:
 752:Generated_Source\PSoC4/nRF24_NRF_FUNCS.c ****         break;
 1179              		.loc 1 752 0
 1180 001a 12E0     		b	.L63
ARM GAS  C:\Users\Xwx47\AppData\Local\Temp\ccidPk4n.s 			page 35


 1181              	.LVL117:
 1182              	.L68:
 753:Generated_Source\PSoC4/nRF24_NRF_FUNCS.c ****     case NRF_DATA_PIPE1:
 754:Generated_Source\PSoC4/nRF24_NRF_FUNCS.c ****         nRF24_writeRegister(NRF_RX_PW_P1_REG, size);
 1183              		.loc 1 754 0
 1184 001c 1220     		movs	r0, #18
 1185 001e FFF7FEFF 		bl	nRF24_writeRegister
 1186              	.LVL118:
 755:Generated_Source\PSoC4/nRF24_NRF_FUNCS.c ****         break;
 1187              		.loc 1 755 0
 1188 0022 0EE0     		b	.L63
 1189              	.LVL119:
 1190              	.L69:
 756:Generated_Source\PSoC4/nRF24_NRF_FUNCS.c ****     case NRF_DATA_PIPE2:
 757:Generated_Source\PSoC4/nRF24_NRF_FUNCS.c ****         nRF24_writeRegister(NRF_RX_PW_P2_REG, size);
 1191              		.loc 1 757 0
 1192 0024 1320     		movs	r0, #19
 1193 0026 FFF7FEFF 		bl	nRF24_writeRegister
 1194              	.LVL120:
 758:Generated_Source\PSoC4/nRF24_NRF_FUNCS.c ****         break;
 1195              		.loc 1 758 0
 1196 002a 0AE0     		b	.L63
 1197              	.LVL121:
 1198              	.L70:
 759:Generated_Source\PSoC4/nRF24_NRF_FUNCS.c ****     case NRF_DATA_PIPE3:
 760:Generated_Source\PSoC4/nRF24_NRF_FUNCS.c ****         nRF24_writeRegister(NRF_RX_PW_P3_REG, size);
 1199              		.loc 1 760 0
 1200 002c 1420     		movs	r0, #20
 1201 002e FFF7FEFF 		bl	nRF24_writeRegister
 1202              	.LVL122:
 761:Generated_Source\PSoC4/nRF24_NRF_FUNCS.c ****         break;
 1203              		.loc 1 761 0
 1204 0032 06E0     		b	.L63
 1205              	.LVL123:
 1206              	.L71:
 762:Generated_Source\PSoC4/nRF24_NRF_FUNCS.c ****     case NRF_DATA_PIPE4:
 763:Generated_Source\PSoC4/nRF24_NRF_FUNCS.c ****         nRF24_writeRegister(NRF_RX_PW_P4_REG, size);
 1207              		.loc 1 763 0
 1208 0034 1520     		movs	r0, #21
 1209 0036 FFF7FEFF 		bl	nRF24_writeRegister
 1210              	.LVL124:
 764:Generated_Source\PSoC4/nRF24_NRF_FUNCS.c ****         break;
 1211              		.loc 1 764 0
 1212 003a 02E0     		b	.L63
 1213              	.LVL125:
 1214              	.L72:
 765:Generated_Source\PSoC4/nRF24_NRF_FUNCS.c ****     case NRF_DATA_PIPE5:
 766:Generated_Source\PSoC4/nRF24_NRF_FUNCS.c ****         nRF24_writeRegister(NRF_RX_PW_P5_REG, size);
 1215              		.loc 1 766 0
 1216 003c 1620     		movs	r0, #22
 1217 003e FFF7FEFF 		bl	nRF24_writeRegister
 1218              	.LVL126:
 1219              	.L63:
 767:Generated_Source\PSoC4/nRF24_NRF_FUNCS.c ****         break;
 768:Generated_Source\PSoC4/nRF24_NRF_FUNCS.c ****     default:
 769:Generated_Source\PSoC4/nRF24_NRF_FUNCS.c ****         break;
 770:Generated_Source\PSoC4/nRF24_NRF_FUNCS.c ****     }
ARM GAS  C:\Users\Xwx47\AppData\Local\Temp\ccidPk4n.s 			page 36


 771:Generated_Source\PSoC4/nRF24_NRF_FUNCS.c **** }
 1220              		.loc 1 771 0
 1221              		@ sp needed
 1222 0042 10BD     		pop	{r4, pc}
 1223              	.L75:
 1224              		.align	2
 1225              	.L74:
 1226 0044 00000000 		.word	.L67
 1227              		.cfi_endproc
 1228              	.LFE36:
 1229              		.size	nRF24_setPayloadSize, .-nRF24_setPayloadSize
 1230              		.section	.text.nRF24_getPayloadSize,"ax",%progbits
 1231              		.align	2
 1232              		.global	nRF24_getPayloadSize
 1233              		.code	16
 1234              		.thumb_func
 1235              		.type	nRF24_getPayloadSize, %function
 1236              	nRF24_getPayloadSize:
 1237              	.LFB37:
 772:Generated_Source\PSoC4/nRF24_NRF_FUNCS.c **** 
 773:Generated_Source\PSoC4/nRF24_NRF_FUNCS.c **** /**
 774:Generated_Source\PSoC4/nRF24_NRF_FUNCS.c ****  * @brief Get the payload size of the given pipe.
 775:Generated_Source\PSoC4/nRF24_NRF_FUNCS.c ****  *
 776:Generated_Source\PSoC4/nRF24_NRF_FUNCS.c ****  * @param const NrfDataPipe pipe:
 777:Generated_Source\PSoC4/nRF24_NRF_FUNCS.c ****  *
 778:Generated_Source\PSoC4/nRF24_NRF_FUNCS.c ****  * @return uint8_t:
 779:Generated_Source\PSoC4/nRF24_NRF_FUNCS.c ****  */
 780:Generated_Source\PSoC4/nRF24_NRF_FUNCS.c **** uint8_t nRF24_getPayloadSize(const NrfDataPipe pipe)
 781:Generated_Source\PSoC4/nRF24_NRF_FUNCS.c **** {
 1238              		.loc 1 781 0
 1239              		.cfi_startproc
 1240              		@ args = 0, pretend = 0, frame = 0
 1241              		@ frame_needed = 0, uses_anonymous_args = 0
 1242              	.LVL127:
 1243 0000 10B5     		push	{r4, lr}
 1244              		.cfi_def_cfa_offset 8
 1245              		.cfi_offset 4, -8
 1246              		.cfi_offset 14, -4
 782:Generated_Source\PSoC4/nRF24_NRF_FUNCS.c ****     switch (pipe) {
 1247              		.loc 1 782 0
 1248 0002 0528     		cmp	r0, #5
 1249 0004 1BD8     		bhi	.L85
 1250 0006 8000     		lsls	r0, r0, #2
 1251              	.LVL128:
 1252 0008 0E4B     		ldr	r3, .L86
 1253 000a 1B58     		ldr	r3, [r3, r0]
 1254 000c 9F46     		mov	pc, r3
 1255              		.section	.rodata
 1256              		.align	2
 1257              	.L79:
 1258 0018 0E000000 		.word	.L78
 1259 001c 16000000 		.word	.L80
 1260 0020 1E000000 		.word	.L81
 1261 0024 26000000 		.word	.L82
 1262 0028 2E000000 		.word	.L83
 1263 002c 36000000 		.word	.L84
 1264              		.section	.text.nRF24_getPayloadSize
ARM GAS  C:\Users\Xwx47\AppData\Local\Temp\ccidPk4n.s 			page 37


 1265              	.L78:
 783:Generated_Source\PSoC4/nRF24_NRF_FUNCS.c ****     case NRF_DATA_PIPE0:
 784:Generated_Source\PSoC4/nRF24_NRF_FUNCS.c ****         return nRF24_readRegister(NRF_RX_PW_P0_REG);
 1266              		.loc 1 784 0
 1267 000e 1120     		movs	r0, #17
 1268 0010 FFF7FEFF 		bl	nRF24_readRegister
 1269              	.LVL129:
 1270 0014 14E0     		b	.L77
 1271              	.L80:
 785:Generated_Source\PSoC4/nRF24_NRF_FUNCS.c ****         break;
 786:Generated_Source\PSoC4/nRF24_NRF_FUNCS.c ****     case NRF_DATA_PIPE1:
 787:Generated_Source\PSoC4/nRF24_NRF_FUNCS.c ****         return nRF24_readRegister(NRF_RX_PW_P1_REG);
 1272              		.loc 1 787 0
 1273 0016 1220     		movs	r0, #18
 1274 0018 FFF7FEFF 		bl	nRF24_readRegister
 1275              	.LVL130:
 1276 001c 10E0     		b	.L77
 1277              	.L81:
 788:Generated_Source\PSoC4/nRF24_NRF_FUNCS.c ****         break;
 789:Generated_Source\PSoC4/nRF24_NRF_FUNCS.c ****     case NRF_DATA_PIPE2:
 790:Generated_Source\PSoC4/nRF24_NRF_FUNCS.c ****         return nRF24_readRegister(NRF_RX_PW_P2_REG);
 1278              		.loc 1 790 0
 1279 001e 1320     		movs	r0, #19
 1280 0020 FFF7FEFF 		bl	nRF24_readRegister
 1281              	.LVL131:
 1282 0024 0CE0     		b	.L77
 1283              	.L82:
 791:Generated_Source\PSoC4/nRF24_NRF_FUNCS.c ****         break;
 792:Generated_Source\PSoC4/nRF24_NRF_FUNCS.c ****     case NRF_DATA_PIPE3:
 793:Generated_Source\PSoC4/nRF24_NRF_FUNCS.c ****         return nRF24_readRegister(NRF_RX_PW_P3_REG);
 1284              		.loc 1 793 0
 1285 0026 1420     		movs	r0, #20
 1286 0028 FFF7FEFF 		bl	nRF24_readRegister
 1287              	.LVL132:
 1288 002c 08E0     		b	.L77
 1289              	.L83:
 794:Generated_Source\PSoC4/nRF24_NRF_FUNCS.c ****         break;
 795:Generated_Source\PSoC4/nRF24_NRF_FUNCS.c ****     case NRF_DATA_PIPE4:
 796:Generated_Source\PSoC4/nRF24_NRF_FUNCS.c ****         return nRF24_readRegister(NRF_RX_PW_P4_REG);
 1290              		.loc 1 796 0
 1291 002e 1520     		movs	r0, #21
 1292 0030 FFF7FEFF 		bl	nRF24_readRegister
 1293              	.LVL133:
 1294 0034 04E0     		b	.L77
 1295              	.L84:
 797:Generated_Source\PSoC4/nRF24_NRF_FUNCS.c ****         break;
 798:Generated_Source\PSoC4/nRF24_NRF_FUNCS.c ****     case NRF_DATA_PIPE5:
 799:Generated_Source\PSoC4/nRF24_NRF_FUNCS.c ****         return nRF24_readRegister(NRF_RX_PW_P5_REG);
 1296              		.loc 1 799 0
 1297 0036 1620     		movs	r0, #22
 1298 0038 FFF7FEFF 		bl	nRF24_readRegister
 1299              	.LVL134:
 1300 003c 00E0     		b	.L77
 1301              	.LVL135:
 1302              	.L85:
 800:Generated_Source\PSoC4/nRF24_NRF_FUNCS.c ****         break;
 801:Generated_Source\PSoC4/nRF24_NRF_FUNCS.c ****     default:
ARM GAS  C:\Users\Xwx47\AppData\Local\Temp\ccidPk4n.s 			page 38


 802:Generated_Source\PSoC4/nRF24_NRF_FUNCS.c ****         return 0;
 1303              		.loc 1 802 0
 1304 003e 0020     		movs	r0, #0
 1305              	.LVL136:
 1306              	.L77:
 803:Generated_Source\PSoC4/nRF24_NRF_FUNCS.c ****     }
 804:Generated_Source\PSoC4/nRF24_NRF_FUNCS.c **** }
 1307              		.loc 1 804 0
 1308              		@ sp needed
 1309 0040 10BD     		pop	{r4, pc}
 1310              	.L87:
 1311 0042 C046     		.align	2
 1312              	.L86:
 1313 0044 18000000 		.word	.L79
 1314              		.cfi_endproc
 1315              	.LFE37:
 1316              		.size	nRF24_getPayloadSize, .-nRF24_getPayloadSize
 1317              		.section	.text.nRF24_enableDynamicPayload,"ax",%progbits
 1318              		.align	2
 1319              		.global	nRF24_enableDynamicPayload
 1320              		.code	16
 1321              		.thumb_func
 1322              		.type	nRF24_enableDynamicPayload, %function
 1323              	nRF24_enableDynamicPayload:
 1324              	.LFB39:
 805:Generated_Source\PSoC4/nRF24_NRF_FUNCS.c **** 
 806:Generated_Source\PSoC4/nRF24_NRF_FUNCS.c **** /**
 807:Generated_Source\PSoC4/nRF24_NRF_FUNCS.c ****  * @brief Reuse last transmitted payload.
 808:Generated_Source\PSoC4/nRF24_NRF_FUNCS.c ****  *
 809:Generated_Source\PSoC4/nRF24_NRF_FUNCS.c ****  * This function issue the command ReuseTxPayload and then toggle the CE pin
 810:Generated_Source\PSoC4/nRF24_NRF_FUNCS.c ****  * to transmit the last transmitted payload.
 811:Generated_Source\PSoC4/nRF24_NRF_FUNCS.c ****  */
 812:Generated_Source\PSoC4/nRF24_NRF_FUNCS.c **** void nRF24_PTX_reuseLastTransmittedPayload(void)
 813:Generated_Source\PSoC4/nRF24_NRF_FUNCS.c **** {
 814:Generated_Source\PSoC4/nRF24_NRF_FUNCS.c ****     nRF24_PTX_ReuseTxPayloadCmd();
 815:Generated_Source\PSoC4/nRF24_NRF_FUNCS.c ****     nRF24_transmitPulse();
 816:Generated_Source\PSoC4/nRF24_NRF_FUNCS.c **** }
 817:Generated_Source\PSoC4/nRF24_NRF_FUNCS.c **** 
 818:Generated_Source\PSoC4/nRF24_NRF_FUNCS.c **** /**
 819:Generated_Source\PSoC4/nRF24_NRF_FUNCS.c ****  * @brief Enable dynamic payload on the given pipe.
 820:Generated_Source\PSoC4/nRF24_NRF_FUNCS.c ****  *
 821:Generated_Source\PSoC4/nRF24_NRF_FUNCS.c ****  * @param const NrfDataPipe pipe:
 822:Generated_Source\PSoC4/nRF24_NRF_FUNCS.c ****  */
 823:Generated_Source\PSoC4/nRF24_NRF_FUNCS.c **** void nRF24_enableDynamicPayload(const NrfDataPipe pipe)
 824:Generated_Source\PSoC4/nRF24_NRF_FUNCS.c **** {
 1325              		.loc 1 824 0
 1326              		.cfi_startproc
 1327              		@ args = 0, pretend = 0, frame = 0
 1328              		@ frame_needed = 0, uses_anonymous_args = 0
 1329              	.LVL137:
 1330 0000 10B5     		push	{r4, lr}
 1331              		.cfi_def_cfa_offset 8
 1332              		.cfi_offset 4, -8
 1333              		.cfi_offset 14, -4
 1334 0002 0400     		movs	r4, r0
 825:Generated_Source\PSoC4/nRF24_NRF_FUNCS.c ****     nRF24_setBit(NRF_EN_AA_REG, pipe);
 1335              		.loc 1 825 0
ARM GAS  C:\Users\Xwx47\AppData\Local\Temp\ccidPk4n.s 			page 39


 1336 0004 0100     		movs	r1, r0
 1337 0006 0120     		movs	r0, #1
 1338              	.LVL138:
 1339 0008 FFF7FEFF 		bl	nRF24_setBit
 1340              	.LVL139:
 826:Generated_Source\PSoC4/nRF24_NRF_FUNCS.c ****     nRF24_setBit(NRF_FEATURE_REG, NRF_FEATURE_EN_ACK_PAY);
 1341              		.loc 1 826 0
 1342 000c 0121     		movs	r1, #1
 1343 000e 1D20     		movs	r0, #29
 1344 0010 FFF7FEFF 		bl	nRF24_setBit
 1345              	.LVL140:
 827:Generated_Source\PSoC4/nRF24_NRF_FUNCS.c ****     nRF24_setBit(NRF_FEATURE_REG, NRF_FEATURE_EN_DPL);
 1346              		.loc 1 827 0
 1347 0014 0221     		movs	r1, #2
 1348 0016 1D20     		movs	r0, #29
 1349 0018 FFF7FEFF 		bl	nRF24_setBit
 1350              	.LVL141:
 828:Generated_Source\PSoC4/nRF24_NRF_FUNCS.c ****     nRF24_setBit(NRF_DYNPD_REG, pipe);
 1351              		.loc 1 828 0
 1352 001c 2100     		movs	r1, r4
 1353 001e 1C20     		movs	r0, #28
 1354 0020 FFF7FEFF 		bl	nRF24_setBit
 1355              	.LVL142:
 829:Generated_Source\PSoC4/nRF24_NRF_FUNCS.c **** }
 1356              		.loc 1 829 0
 1357              		@ sp needed
 1358 0024 10BD     		pop	{r4, pc}
 1359              		.cfi_endproc
 1360              	.LFE39:
 1361              		.size	nRF24_enableDynamicPayload, .-nRF24_enableDynamicPayload
 1362 0026 C046     		.section	.text.nRF24_disableDynamicPayload,"ax",%progbits
 1363              		.align	2
 1364              		.global	nRF24_disableDynamicPayload
 1365              		.code	16
 1366              		.thumb_func
 1367              		.type	nRF24_disableDynamicPayload, %function
 1368              	nRF24_disableDynamicPayload:
 1369              	.LFB40:
 830:Generated_Source\PSoC4/nRF24_NRF_FUNCS.c **** 
 831:Generated_Source\PSoC4/nRF24_NRF_FUNCS.c **** /**
 832:Generated_Source\PSoC4/nRF24_NRF_FUNCS.c ****  * @brief Disable dynamic payload on the given pipe.
 833:Generated_Source\PSoC4/nRF24_NRF_FUNCS.c ****  *
 834:Generated_Source\PSoC4/nRF24_NRF_FUNCS.c ****  * @param const NrfDataPipe pipe:
 835:Generated_Source\PSoC4/nRF24_NRF_FUNCS.c ****  */
 836:Generated_Source\PSoC4/nRF24_NRF_FUNCS.c **** void nRF24_disableDynamicPayload(const NrfDataPipe pipe)
 837:Generated_Source\PSoC4/nRF24_NRF_FUNCS.c **** {
 1370              		.loc 1 837 0
 1371              		.cfi_startproc
 1372              		@ args = 0, pretend = 0, frame = 0
 1373              		@ frame_needed = 0, uses_anonymous_args = 0
 1374              	.LVL143:
 1375 0000 10B5     		push	{r4, lr}
 1376              		.cfi_def_cfa_offset 8
 1377              		.cfi_offset 4, -8
 1378              		.cfi_offset 14, -4
 1379 0002 0400     		movs	r4, r0
 838:Generated_Source\PSoC4/nRF24_NRF_FUNCS.c ****     nRF24_clearBit(NRF_EN_AA_REG, pipe);
ARM GAS  C:\Users\Xwx47\AppData\Local\Temp\ccidPk4n.s 			page 40


 1380              		.loc 1 838 0
 1381 0004 0100     		movs	r1, r0
 1382 0006 0120     		movs	r0, #1
 1383              	.LVL144:
 1384 0008 FFF7FEFF 		bl	nRF24_clearBit
 1385              	.LVL145:
 839:Generated_Source\PSoC4/nRF24_NRF_FUNCS.c ****     nRF24_clearBit(NRF_FEATURE_REG, NRF_FEATURE_EN_ACK_PAY);
 1386              		.loc 1 839 0
 1387 000c 0121     		movs	r1, #1
 1388 000e 1D20     		movs	r0, #29
 1389 0010 FFF7FEFF 		bl	nRF24_clearBit
 1390              	.LVL146:
 840:Generated_Source\PSoC4/nRF24_NRF_FUNCS.c ****     nRF24_clearBit(NRF_FEATURE_REG, NRF_FEATURE_EN_DPL);
 1391              		.loc 1 840 0
 1392 0014 0221     		movs	r1, #2
 1393 0016 1D20     		movs	r0, #29
 1394 0018 FFF7FEFF 		bl	nRF24_clearBit
 1395              	.LVL147:
 841:Generated_Source\PSoC4/nRF24_NRF_FUNCS.c ****     nRF24_clearBit(NRF_DYNPD_REG, pipe);
 1396              		.loc 1 841 0
 1397 001c 2100     		movs	r1, r4
 1398 001e 1C20     		movs	r0, #28
 1399 0020 FFF7FEFF 		bl	nRF24_clearBit
 1400              	.LVL148:
 842:Generated_Source\PSoC4/nRF24_NRF_FUNCS.c **** }
 1401              		.loc 1 842 0
 1402              		@ sp needed
 1403 0024 10BD     		pop	{r4, pc}
 1404              		.cfi_endproc
 1405              	.LFE40:
 1406              		.size	nRF24_disableDynamicPayload, .-nRF24_disableDynamicPayload
 1407 0026 C046     		.section	.text.nRF24_enableDynamicPayloadLength,"ax",%progbits
 1408              		.align	2
 1409              		.global	nRF24_enableDynamicPayloadLength
 1410              		.code	16
 1411              		.thumb_func
 1412              		.type	nRF24_enableDynamicPayloadLength, %function
 1413              	nRF24_enableDynamicPayloadLength:
 1414              	.LFB41:
 843:Generated_Source\PSoC4/nRF24_NRF_FUNCS.c **** 
 844:Generated_Source\PSoC4/nRF24_NRF_FUNCS.c **** /**
 845:Generated_Source\PSoC4/nRF24_NRF_FUNCS.c ****  * @brief Enable dinamic payload length.
 846:Generated_Source\PSoC4/nRF24_NRF_FUNCS.c ****  */
 847:Generated_Source\PSoC4/nRF24_NRF_FUNCS.c **** void nRF24_enableDynamicPayloadLength(void)
 848:Generated_Source\PSoC4/nRF24_NRF_FUNCS.c **** {
 1415              		.loc 1 848 0
 1416              		.cfi_startproc
 1417              		@ args = 0, pretend = 0, frame = 0
 1418              		@ frame_needed = 0, uses_anonymous_args = 0
 1419 0000 10B5     		push	{r4, lr}
 1420              		.cfi_def_cfa_offset 8
 1421              		.cfi_offset 4, -8
 1422              		.cfi_offset 14, -4
 849:Generated_Source\PSoC4/nRF24_NRF_FUNCS.c ****     nRF24_setBit(NRF_FEATURE_REG, NRF_FEATURE_EN_DPL);
 1423              		.loc 1 849 0
 1424 0002 0221     		movs	r1, #2
 1425 0004 1D20     		movs	r0, #29
ARM GAS  C:\Users\Xwx47\AppData\Local\Temp\ccidPk4n.s 			page 41


 1426 0006 FFF7FEFF 		bl	nRF24_setBit
 1427              	.LVL149:
 850:Generated_Source\PSoC4/nRF24_NRF_FUNCS.c **** }
 1428              		.loc 1 850 0
 1429              		@ sp needed
 1430 000a 10BD     		pop	{r4, pc}
 1431              		.cfi_endproc
 1432              	.LFE41:
 1433              		.size	nRF24_enableDynamicPayloadLength, .-nRF24_enableDynamicPayloadLength
 1434              		.section	.text.nRF24_disableDynamicPayloadLength,"ax",%progbits
 1435              		.align	2
 1436              		.global	nRF24_disableDynamicPayloadLength
 1437              		.code	16
 1438              		.thumb_func
 1439              		.type	nRF24_disableDynamicPayloadLength, %function
 1440              	nRF24_disableDynamicPayloadLength:
 1441              	.LFB42:
 851:Generated_Source\PSoC4/nRF24_NRF_FUNCS.c **** 
 852:Generated_Source\PSoC4/nRF24_NRF_FUNCS.c **** /**
 853:Generated_Source\PSoC4/nRF24_NRF_FUNCS.c ****  * @brief Disable dynamic payload length.
 854:Generated_Source\PSoC4/nRF24_NRF_FUNCS.c ****  */
 855:Generated_Source\PSoC4/nRF24_NRF_FUNCS.c **** void nRF24_disableDynamicPayloadLength(void)
 856:Generated_Source\PSoC4/nRF24_NRF_FUNCS.c **** {
 1442              		.loc 1 856 0
 1443              		.cfi_startproc
 1444              		@ args = 0, pretend = 0, frame = 0
 1445              		@ frame_needed = 0, uses_anonymous_args = 0
 1446 0000 10B5     		push	{r4, lr}
 1447              		.cfi_def_cfa_offset 8
 1448              		.cfi_offset 4, -8
 1449              		.cfi_offset 14, -4
 857:Generated_Source\PSoC4/nRF24_NRF_FUNCS.c ****     nRF24_clearBit(NRF_FEATURE_REG, NRF_FEATURE_EN_DPL);
 1450              		.loc 1 857 0
 1451 0002 0221     		movs	r1, #2
 1452 0004 1D20     		movs	r0, #29
 1453 0006 FFF7FEFF 		bl	nRF24_clearBit
 1454              	.LVL150:
 858:Generated_Source\PSoC4/nRF24_NRF_FUNCS.c **** }
 1455              		.loc 1 858 0
 1456              		@ sp needed
 1457 000a 10BD     		pop	{r4, pc}
 1458              		.cfi_endproc
 1459              	.LFE42:
 1460              		.size	nRF24_disableDynamicPayloadLength, .-nRF24_disableDynamicPayloadLength
 1461              		.section	.text.nRF24_enablePayloadWithACK,"ax",%progbits
 1462              		.align	2
 1463              		.global	nRF24_enablePayloadWithACK
 1464              		.code	16
 1465              		.thumb_func
 1466              		.type	nRF24_enablePayloadWithACK, %function
 1467              	nRF24_enablePayloadWithACK:
 1468              	.LFB43:
 859:Generated_Source\PSoC4/nRF24_NRF_FUNCS.c **** 
 860:Generated_Source\PSoC4/nRF24_NRF_FUNCS.c **** /**
 861:Generated_Source\PSoC4/nRF24_NRF_FUNCS.c ****  * @brief Enable payload with ACK.
 862:Generated_Source\PSoC4/nRF24_NRF_FUNCS.c ****  */
 863:Generated_Source\PSoC4/nRF24_NRF_FUNCS.c **** void nRF24_enablePayloadWithACK(void)
ARM GAS  C:\Users\Xwx47\AppData\Local\Temp\ccidPk4n.s 			page 42


 864:Generated_Source\PSoC4/nRF24_NRF_FUNCS.c **** {
 1469              		.loc 1 864 0
 1470              		.cfi_startproc
 1471              		@ args = 0, pretend = 0, frame = 0
 1472              		@ frame_needed = 0, uses_anonymous_args = 0
 1473 0000 10B5     		push	{r4, lr}
 1474              		.cfi_def_cfa_offset 8
 1475              		.cfi_offset 4, -8
 1476              		.cfi_offset 14, -4
 865:Generated_Source\PSoC4/nRF24_NRF_FUNCS.c ****     nRF24_setBit(NRF_FEATURE_REG, NRF_FEATURE_EN_ACK_PAY);
 1477              		.loc 1 865 0
 1478 0002 0121     		movs	r1, #1
 1479 0004 1D20     		movs	r0, #29
 1480 0006 FFF7FEFF 		bl	nRF24_setBit
 1481              	.LVL151:
 866:Generated_Source\PSoC4/nRF24_NRF_FUNCS.c **** }
 1482              		.loc 1 866 0
 1483              		@ sp needed
 1484 000a 10BD     		pop	{r4, pc}
 1485              		.cfi_endproc
 1486              	.LFE43:
 1487              		.size	nRF24_enablePayloadWithACK, .-nRF24_enablePayloadWithACK
 1488              		.section	.text.nRF24_disablePayloadWithACK,"ax",%progbits
 1489              		.align	2
 1490              		.global	nRF24_disablePayloadWithACK
 1491              		.code	16
 1492              		.thumb_func
 1493              		.type	nRF24_disablePayloadWithACK, %function
 1494              	nRF24_disablePayloadWithACK:
 1495              	.LFB44:
 867:Generated_Source\PSoC4/nRF24_NRF_FUNCS.c **** 
 868:Generated_Source\PSoC4/nRF24_NRF_FUNCS.c **** /**
 869:Generated_Source\PSoC4/nRF24_NRF_FUNCS.c ****  * @brief Disable Payload with ACK.
 870:Generated_Source\PSoC4/nRF24_NRF_FUNCS.c ****  */
 871:Generated_Source\PSoC4/nRF24_NRF_FUNCS.c **** void nRF24_disablePayloadWithACK(void)
 872:Generated_Source\PSoC4/nRF24_NRF_FUNCS.c **** {
 1496              		.loc 1 872 0
 1497              		.cfi_startproc
 1498              		@ args = 0, pretend = 0, frame = 0
 1499              		@ frame_needed = 0, uses_anonymous_args = 0
 1500 0000 10B5     		push	{r4, lr}
 1501              		.cfi_def_cfa_offset 8
 1502              		.cfi_offset 4, -8
 1503              		.cfi_offset 14, -4
 873:Generated_Source\PSoC4/nRF24_NRF_FUNCS.c ****     nRF24_clearBit(NRF_FEATURE_REG, NRF_FEATURE_EN_ACK_PAY);
 1504              		.loc 1 873 0
 1505 0002 0121     		movs	r1, #1
 1506 0004 1D20     		movs	r0, #29
 1507 0006 FFF7FEFF 		bl	nRF24_clearBit
 1508              	.LVL152:
 874:Generated_Source\PSoC4/nRF24_NRF_FUNCS.c **** }
 1509              		.loc 1 874 0
 1510              		@ sp needed
 1511 000a 10BD     		pop	{r4, pc}
 1512              		.cfi_endproc
 1513              	.LFE44:
 1514              		.size	nRF24_disablePayloadWithACK, .-nRF24_disablePayloadWithACK
ARM GAS  C:\Users\Xwx47\AppData\Local\Temp\ccidPk4n.s 			page 43


 1515              		.section	.text.nRF24_enablePayloadWithNoACKCmd,"ax",%progbits
 1516              		.align	2
 1517              		.global	nRF24_enablePayloadWithNoACKCmd
 1518              		.code	16
 1519              		.thumb_func
 1520              		.type	nRF24_enablePayloadWithNoACKCmd, %function
 1521              	nRF24_enablePayloadWithNoACKCmd:
 1522              	.LFB45:
 875:Generated_Source\PSoC4/nRF24_NRF_FUNCS.c **** 
 876:Generated_Source\PSoC4/nRF24_NRF_FUNCS.c **** /**
 877:Generated_Source\PSoC4/nRF24_NRF_FUNCS.c ****  * @brief Enable dynamic payload length.
 878:Generated_Source\PSoC4/nRF24_NRF_FUNCS.c ****  */
 879:Generated_Source\PSoC4/nRF24_NRF_FUNCS.c **** void nRF24_enablePayloadWithNoACKCmd(void)
 880:Generated_Source\PSoC4/nRF24_NRF_FUNCS.c **** {
 1523              		.loc 1 880 0
 1524              		.cfi_startproc
 1525              		@ args = 0, pretend = 0, frame = 0
 1526              		@ frame_needed = 0, uses_anonymous_args = 0
 1527 0000 10B5     		push	{r4, lr}
 1528              		.cfi_def_cfa_offset 8
 1529              		.cfi_offset 4, -8
 1530              		.cfi_offset 14, -4
 881:Generated_Source\PSoC4/nRF24_NRF_FUNCS.c ****     nRF24_setBit(NRF_FEATURE_REG, NRF_FEATURE_EN_DYN_ACK);
 1531              		.loc 1 881 0
 1532 0002 0021     		movs	r1, #0
 1533 0004 1D20     		movs	r0, #29
 1534 0006 FFF7FEFF 		bl	nRF24_setBit
 1535              	.LVL153:
 882:Generated_Source\PSoC4/nRF24_NRF_FUNCS.c **** }
 1536              		.loc 1 882 0
 1537              		@ sp needed
 1538 000a 10BD     		pop	{r4, pc}
 1539              		.cfi_endproc
 1540              	.LFE45:
 1541              		.size	nRF24_enablePayloadWithNoACKCmd, .-nRF24_enablePayloadWithNoACKCmd
 1542              		.section	.text.nRF24_disablePayloadWithNoACKCmd,"ax",%progbits
 1543              		.align	2
 1544              		.global	nRF24_disablePayloadWithNoACKCmd
 1545              		.code	16
 1546              		.thumb_func
 1547              		.type	nRF24_disablePayloadWithNoACKCmd, %function
 1548              	nRF24_disablePayloadWithNoACKCmd:
 1549              	.LFB46:
 883:Generated_Source\PSoC4/nRF24_NRF_FUNCS.c **** 
 884:Generated_Source\PSoC4/nRF24_NRF_FUNCS.c **** /**
 885:Generated_Source\PSoC4/nRF24_NRF_FUNCS.c ****  * @brief Disable Payload with no ACK.
 886:Generated_Source\PSoC4/nRF24_NRF_FUNCS.c ****  */
 887:Generated_Source\PSoC4/nRF24_NRF_FUNCS.c **** void nRF24_disablePayloadWithNoACKCmd(void)
 888:Generated_Source\PSoC4/nRF24_NRF_FUNCS.c **** {
 1550              		.loc 1 888 0
 1551              		.cfi_startproc
 1552              		@ args = 0, pretend = 0, frame = 0
 1553              		@ frame_needed = 0, uses_anonymous_args = 0
 1554 0000 10B5     		push	{r4, lr}
 1555              		.cfi_def_cfa_offset 8
 1556              		.cfi_offset 4, -8
 1557              		.cfi_offset 14, -4
ARM GAS  C:\Users\Xwx47\AppData\Local\Temp\ccidPk4n.s 			page 44


 889:Generated_Source\PSoC4/nRF24_NRF_FUNCS.c ****     nRF24_clearBit(NRF_FEATURE_REG, NRF_FEATURE_EN_DYN_ACK);
 1558              		.loc 1 889 0
 1559 0002 0021     		movs	r1, #0
 1560 0004 1D20     		movs	r0, #29
 1561 0006 FFF7FEFF 		bl	nRF24_clearBit
 1562              	.LVL154:
 890:Generated_Source\PSoC4/nRF24_NRF_FUNCS.c **** }
 1563              		.loc 1 890 0
 1564              		@ sp needed
 1565 000a 10BD     		pop	{r4, pc}
 1566              		.cfi_endproc
 1567              	.LFE46:
 1568              		.size	nRF24_disablePayloadWithNoACKCmd, .-nRF24_disablePayloadWithNoACKCmd
 1569              		.section	.text.nRF24_listen,"ax",%progbits
 1570              		.align	2
 1571              		.global	nRF24_listen
 1572              		.code	16
 1573              		.thumb_func
 1574              		.type	nRF24_listen, %function
 1575              	nRF24_listen:
 1576              	.LFB47:
 891:Generated_Source\PSoC4/nRF24_NRF_FUNCS.c **** 
 892:Generated_Source\PSoC4/nRF24_NRF_FUNCS.c **** /**
 893:Generated_Source\PSoC4/nRF24_NRF_FUNCS.c ****  * @brief Set the value of the CE pin to listen or not.
 894:Generated_Source\PSoC4/nRF24_NRF_FUNCS.c ****  *
 895:Generated_Source\PSoC4/nRF24_NRF_FUNCS.c ****  * @param const bool listen: If @listen is set to true, then the radio will
 896:Generated_Source\PSoC4/nRF24_NRF_FUNCS.c ****  * listen, if set to false the radio will stop listening.
 897:Generated_Source\PSoC4/nRF24_NRF_FUNCS.c ****  */
 898:Generated_Source\PSoC4/nRF24_NRF_FUNCS.c **** void nRF24_listen(const bool listen)
 899:Generated_Source\PSoC4/nRF24_NRF_FUNCS.c **** {
 1577              		.loc 1 899 0
 1578              		.cfi_startproc
 1579              		@ args = 0, pretend = 0, frame = 0
 1580              		@ frame_needed = 0, uses_anonymous_args = 0
 1581              	.LVL155:
 1582 0000 10B5     		push	{r4, lr}
 1583              		.cfi_def_cfa_offset 8
 1584              		.cfi_offset 4, -8
 1585              		.cfi_offset 14, -4
 900:Generated_Source\PSoC4/nRF24_NRF_FUNCS.c ****     listen ? CE_Write(1) : CE_Write(0);
 1586              		.loc 1 900 0
 1587 0002 0028     		cmp	r0, #0
 1588 0004 03D0     		beq	.L97
 1589              		.loc 1 900 0 is_stmt 0 discriminator 1
 1590 0006 0120     		movs	r0, #1
 1591              	.LVL156:
 1592 0008 FFF7FEFF 		bl	CE_Write
 1593              	.LVL157:
 1594 000c 02E0     		b	.L96
 1595              	.LVL158:
 1596              	.L97:
 1597              		.loc 1 900 0 discriminator 2
 1598 000e 0020     		movs	r0, #0
 1599              	.LVL159:
 1600 0010 FFF7FEFF 		bl	CE_Write
 1601              	.LVL160:
 1602              	.L96:
ARM GAS  C:\Users\Xwx47\AppData\Local\Temp\ccidPk4n.s 			page 45


 901:Generated_Source\PSoC4/nRF24_NRF_FUNCS.c **** }
 1603              		.loc 1 901 0 is_stmt 1
 1604              		@ sp needed
 1605 0014 10BD     		pop	{r4, pc}
 1606              		.cfi_endproc
 1607              	.LFE47:
 1608              		.size	nRF24_listen, .-nRF24_listen
 1609 0016 C046     		.section	.text.nRF24_setStandbyIMode,"ax",%progbits
 1610              		.align	2
 1611              		.global	nRF24_setStandbyIMode
 1612              		.code	16
 1613              		.thumb_func
 1614              		.type	nRF24_setStandbyIMode, %function
 1615              	nRF24_setStandbyIMode:
 1616              	.LFB11:
 274:Generated_Source\PSoC4/nRF24_NRF_FUNCS.c ****     nRF24_listen(false);
 1617              		.loc 1 274 0
 1618              		.cfi_startproc
 1619              		@ args = 0, pretend = 0, frame = 0
 1620              		@ frame_needed = 0, uses_anonymous_args = 0
 1621 0000 10B5     		push	{r4, lr}
 1622              		.cfi_def_cfa_offset 8
 1623              		.cfi_offset 4, -8
 1624              		.cfi_offset 14, -4
 275:Generated_Source\PSoC4/nRF24_NRF_FUNCS.c ****     nRF24_clearBit(NRF_CONFIG_REG, NRF_CONFIG_PWR_UP);
 1625              		.loc 1 275 0
 1626 0002 0020     		movs	r0, #0
 1627 0004 FFF7FEFF 		bl	nRF24_listen
 1628              	.LVL161:
 276:Generated_Source\PSoC4/nRF24_NRF_FUNCS.c **** }
 1629              		.loc 1 276 0
 1630 0008 0121     		movs	r1, #1
 1631 000a 0020     		movs	r0, #0
 1632 000c FFF7FEFF 		bl	nRF24_clearBit
 1633              	.LVL162:
 277:Generated_Source\PSoC4/nRF24_NRF_FUNCS.c **** 
 1634              		.loc 1 277 0
 1635              		@ sp needed
 1636 0010 10BD     		pop	{r4, pc}
 1637              		.cfi_endproc
 1638              	.LFE11:
 1639              		.size	nRF24_setStandbyIMode, .-nRF24_setStandbyIMode
 1640 0012 C046     		.section	.text.nRF24_setStandbyIIMode,"ax",%progbits
 1641              		.align	2
 1642              		.global	nRF24_setStandbyIIMode
 1643              		.code	16
 1644              		.thumb_func
 1645              		.type	nRF24_setStandbyIIMode, %function
 1646              	nRF24_setStandbyIIMode:
 1647              	.LFB12:
 293:Generated_Source\PSoC4/nRF24_NRF_FUNCS.c ****     nRF24_listen(true);
 1648              		.loc 1 293 0
 1649              		.cfi_startproc
 1650              		@ args = 0, pretend = 0, frame = 0
 1651              		@ frame_needed = 0, uses_anonymous_args = 0
 1652 0000 10B5     		push	{r4, lr}
 1653              		.cfi_def_cfa_offset 8
ARM GAS  C:\Users\Xwx47\AppData\Local\Temp\ccidPk4n.s 			page 46


 1654              		.cfi_offset 4, -8
 1655              		.cfi_offset 14, -4
 294:Generated_Source\PSoC4/nRF24_NRF_FUNCS.c ****     nRF24_setBit(NRF_CONFIG_REG, NRF_CONFIG_PWR_UP);
 1656              		.loc 1 294 0
 1657 0002 0120     		movs	r0, #1
 1658 0004 FFF7FEFF 		bl	nRF24_listen
 1659              	.LVL163:
 295:Generated_Source\PSoC4/nRF24_NRF_FUNCS.c **** }
 1660              		.loc 1 295 0
 1661 0008 0121     		movs	r1, #1
 1662 000a 0020     		movs	r0, #0
 1663 000c FFF7FEFF 		bl	nRF24_setBit
 1664              	.LVL164:
 296:Generated_Source\PSoC4/nRF24_NRF_FUNCS.c **** 
 1665              		.loc 1 296 0
 1666              		@ sp needed
 1667 0010 10BD     		pop	{r4, pc}
 1668              		.cfi_endproc
 1669              	.LFE12:
 1670              		.size	nRF24_setStandbyIIMode, .-nRF24_setStandbyIIMode
 1671 0012 C046     		.section	.text.nRF24_startListening,"ax",%progbits
 1672              		.align	2
 1673              		.global	nRF24_startListening
 1674              		.code	16
 1675              		.thumb_func
 1676              		.type	nRF24_startListening, %function
 1677              	nRF24_startListening:
 1678              	.LFB48:
 902:Generated_Source\PSoC4/nRF24_NRF_FUNCS.c **** 
 903:Generated_Source\PSoC4/nRF24_NRF_FUNCS.c **** /**
 904:Generated_Source\PSoC4/nRF24_NRF_FUNCS.c ****  * @brief The nRF24 radio will start listening.
 905:Generated_Source\PSoC4/nRF24_NRF_FUNCS.c ****  *
 906:Generated_Source\PSoC4/nRF24_NRF_FUNCS.c ****  * This function set the pin CE to logic high, this enable the radio for
 907:Generated_Source\PSoC4/nRF24_NRF_FUNCS.c ****  * listening.
 908:Generated_Source\PSoC4/nRF24_NRF_FUNCS.c ****  */
 909:Generated_Source\PSoC4/nRF24_NRF_FUNCS.c **** void nRF24_startListening(void) {
 1679              		.loc 1 909 0
 1680              		.cfi_startproc
 1681              		@ args = 0, pretend = 0, frame = 0
 1682              		@ frame_needed = 0, uses_anonymous_args = 0
 1683 0000 10B5     		push	{r4, lr}
 1684              		.cfi_def_cfa_offset 8
 1685              		.cfi_offset 4, -8
 1686              		.cfi_offset 14, -4
 910:Generated_Source\PSoC4/nRF24_NRF_FUNCS.c ****     nRF24_listen(true); }
 1687              		.loc 1 910 0
 1688 0002 0120     		movs	r0, #1
 1689 0004 FFF7FEFF 		bl	nRF24_listen
 1690              	.LVL165:
 1691              		@ sp needed
 1692 0008 10BD     		pop	{r4, pc}
 1693              		.cfi_endproc
 1694              	.LFE48:
 1695              		.size	nRF24_startListening, .-nRF24_startListening
 1696 000a C046     		.section	.text.nRF24_stopListening,"ax",%progbits
 1697              		.align	2
 1698              		.global	nRF24_stopListening
ARM GAS  C:\Users\Xwx47\AppData\Local\Temp\ccidPk4n.s 			page 47


 1699              		.code	16
 1700              		.thumb_func
 1701              		.type	nRF24_stopListening, %function
 1702              	nRF24_stopListening:
 1703              	.LFB49:
 911:Generated_Source\PSoC4/nRF24_NRF_FUNCS.c **** 
 912:Generated_Source\PSoC4/nRF24_NRF_FUNCS.c **** /**
 913:Generated_Source\PSoC4/nRF24_NRF_FUNCS.c ****  * @brief The nRF24 radio will stop listening.
 914:Generated_Source\PSoC4/nRF24_NRF_FUNCS.c ****  *
 915:Generated_Source\PSoC4/nRF24_NRF_FUNCS.c ****  * This function the pin CE of the nRF24 radio will be set to logic low,
 916:Generated_Source\PSoC4/nRF24_NRF_FUNCS.c ****  * this disable the radio for listening.
 917:Generated_Source\PSoC4/nRF24_NRF_FUNCS.c ****  */
 918:Generated_Source\PSoC4/nRF24_NRF_FUNCS.c **** void nRF24_stopListening(void) {
 1704              		.loc 1 918 0
 1705              		.cfi_startproc
 1706              		@ args = 0, pretend = 0, frame = 0
 1707              		@ frame_needed = 0, uses_anonymous_args = 0
 1708 0000 10B5     		push	{r4, lr}
 1709              		.cfi_def_cfa_offset 8
 1710              		.cfi_offset 4, -8
 1711              		.cfi_offset 14, -4
 919:Generated_Source\PSoC4/nRF24_NRF_FUNCS.c ****     nRF24_listen(false); }
 1712              		.loc 1 919 0
 1713 0002 0020     		movs	r0, #0
 1714 0004 FFF7FEFF 		bl	nRF24_listen
 1715              	.LVL166:
 1716              		@ sp needed
 1717 0008 10BD     		pop	{r4, pc}
 1718              		.cfi_endproc
 1719              	.LFE49:
 1720              		.size	nRF24_stopListening, .-nRF24_stopListening
 1721 000a C046     		.section	.text.nRF24_transmitPulse,"ax",%progbits
 1722              		.align	2
 1723              		.global	nRF24_transmitPulse
 1724              		.code	16
 1725              		.thumb_func
 1726              		.type	nRF24_transmitPulse, %function
 1727              	nRF24_transmitPulse:
 1728              	.LFB50:
 920:Generated_Source\PSoC4/nRF24_NRF_FUNCS.c **** 
 921:Generated_Source\PSoC4/nRF24_NRF_FUNCS.c **** /**
 922:Generated_Source\PSoC4/nRF24_NRF_FUNCS.c ****  * @brief Transmit pulse on the CE pin.
 923:Generated_Source\PSoC4/nRF24_NRF_FUNCS.c ****  *
 924:Generated_Source\PSoC4/nRF24_NRF_FUNCS.c ****  * With this function the CE pin of the nRF24 radio will have a pulse of 15us,
 925:Generated_Source\PSoC4/nRF24_NRF_FUNCS.c ****  * this pulse trigger a transmission of the content of the TX FIFO.
 926:Generated_Source\PSoC4/nRF24_NRF_FUNCS.c ****  */
 927:Generated_Source\PSoC4/nRF24_NRF_FUNCS.c **** void nRF24_transmitPulse(void)
 928:Generated_Source\PSoC4/nRF24_NRF_FUNCS.c **** {
 1729              		.loc 1 928 0
 1730              		.cfi_startproc
 1731              		@ args = 0, pretend = 0, frame = 0
 1732              		@ frame_needed = 0, uses_anonymous_args = 0
 1733 0000 10B5     		push	{r4, lr}
 1734              		.cfi_def_cfa_offset 8
 1735              		.cfi_offset 4, -8
 1736              		.cfi_offset 14, -4
 929:Generated_Source\PSoC4/nRF24_NRF_FUNCS.c ****     CE_Write(1);
ARM GAS  C:\Users\Xwx47\AppData\Local\Temp\ccidPk4n.s 			page 48


 1737              		.loc 1 929 0
 1738 0002 0120     		movs	r0, #1
 1739 0004 FFF7FEFF 		bl	CE_Write
 1740              	.LVL167:
 930:Generated_Source\PSoC4/nRF24_NRF_FUNCS.c ****     CyDelayUs(15);
 1741              		.loc 1 930 0
 1742 0008 0F20     		movs	r0, #15
 1743 000a FFF7FEFF 		bl	CyDelayUs
 1744              	.LVL168:
 931:Generated_Source\PSoC4/nRF24_NRF_FUNCS.c ****     CE_Write(0);
 1745              		.loc 1 931 0
 1746 000e 0020     		movs	r0, #0
 1747 0010 FFF7FEFF 		bl	CE_Write
 1748              	.LVL169:
 932:Generated_Source\PSoC4/nRF24_NRF_FUNCS.c **** }
 1749              		.loc 1 932 0
 1750              		@ sp needed
 1751 0014 10BD     		pop	{r4, pc}
 1752              		.cfi_endproc
 1753              	.LFE50:
 1754              		.size	nRF24_transmitPulse, .-nRF24_transmitPulse
 1755 0016 C046     		.section	.text.nRF24_PTX_reuseLastTransmittedPayload,"ax",%progbits
 1756              		.align	2
 1757              		.global	nRF24_PTX_reuseLastTransmittedPayload
 1758              		.code	16
 1759              		.thumb_func
 1760              		.type	nRF24_PTX_reuseLastTransmittedPayload, %function
 1761              	nRF24_PTX_reuseLastTransmittedPayload:
 1762              	.LFB38:
 813:Generated_Source\PSoC4/nRF24_NRF_FUNCS.c ****     nRF24_PTX_ReuseTxPayloadCmd();
 1763              		.loc 1 813 0
 1764              		.cfi_startproc
 1765              		@ args = 0, pretend = 0, frame = 0
 1766              		@ frame_needed = 0, uses_anonymous_args = 0
 1767 0000 10B5     		push	{r4, lr}
 1768              		.cfi_def_cfa_offset 8
 1769              		.cfi_offset 4, -8
 1770              		.cfi_offset 14, -4
 814:Generated_Source\PSoC4/nRF24_NRF_FUNCS.c ****     nRF24_transmitPulse();
 1771              		.loc 1 814 0
 1772 0002 FFF7FEFF 		bl	nRF24_PTX_ReuseTxPayloadCmd
 1773              	.LVL170:
 815:Generated_Source\PSoC4/nRF24_NRF_FUNCS.c **** }
 1774              		.loc 1 815 0
 1775 0006 FFF7FEFF 		bl	nRF24_transmitPulse
 1776              	.LVL171:
 816:Generated_Source\PSoC4/nRF24_NRF_FUNCS.c **** 
 1777              		.loc 1 816 0
 1778              		@ sp needed
 1779 000a 10BD     		pop	{r4, pc}
 1780              		.cfi_endproc
 1781              	.LFE38:
 1782              		.size	nRF24_PTX_reuseLastTransmittedPayload, .-nRF24_PTX_reuseLastTransmittedPayload
 1783              		.section	.text.nRF24_getStatus,"ax",%progbits
 1784              		.align	2
 1785              		.global	nRF24_getStatus
 1786              		.code	16
ARM GAS  C:\Users\Xwx47\AppData\Local\Temp\ccidPk4n.s 			page 49


 1787              		.thumb_func
 1788              		.type	nRF24_getStatus, %function
 1789              	nRF24_getStatus:
 1790              	.LFB51:
 933:Generated_Source\PSoC4/nRF24_NRF_FUNCS.c **** 
 934:Generated_Source\PSoC4/nRF24_NRF_FUNCS.c **** /**
 935:Generated_Source\PSoC4/nRF24_NRF_FUNCS.c ****  * @brief Get the STATUS register of the nRF24.
 936:Generated_Source\PSoC4/nRF24_NRF_FUNCS.c ****  *
 937:Generated_Source\PSoC4/nRF24_NRF_FUNCS.c ****  * @param
 938:Generated_Source\PSoC4/nRF24_NRF_FUNCS.c ****  *
 939:Generated_Source\PSoC4/nRF24_NRF_FUNCS.c ****  * @return uint8_t: STATUS register of the nRF24.
 940:Generated_Source\PSoC4/nRF24_NRF_FUNCS.c ****  */
 941:Generated_Source\PSoC4/nRF24_NRF_FUNCS.c **** uint8_t nRF24_getStatus(void) { return nRF24_NOPCmd(); }
 1791              		.loc 1 941 0
 1792              		.cfi_startproc
 1793              		@ args = 0, pretend = 0, frame = 0
 1794              		@ frame_needed = 0, uses_anonymous_args = 0
 1795 0000 10B5     		push	{r4, lr}
 1796              		.cfi_def_cfa_offset 8
 1797              		.cfi_offset 4, -8
 1798              		.cfi_offset 14, -4
 1799              		.loc 1 941 0
 1800 0002 FFF7FEFF 		bl	nRF24_NOPCmd
 1801              	.LVL172:
 1802              		@ sp needed
 1803 0006 10BD     		pop	{r4, pc}
 1804              		.cfi_endproc
 1805              	.LFE51:
 1806              		.size	nRF24_getStatus, .-nRF24_getStatus
 1807              		.section	.text.nRF24_getRetransmissionsCount,"ax",%progbits
 1808              		.align	2
 1809              		.global	nRF24_getRetransmissionsCount
 1810              		.code	16
 1811              		.thumb_func
 1812              		.type	nRF24_getRetransmissionsCount, %function
 1813              	nRF24_getRetransmissionsCount:
 1814              	.LFB52:
 942:Generated_Source\PSoC4/nRF24_NRF_FUNCS.c **** 
 943:Generated_Source\PSoC4/nRF24_NRF_FUNCS.c **** /**
 944:Generated_Source\PSoC4/nRF24_NRF_FUNCS.c ****  * @brief Get the number of retransmissions.
 945:Generated_Source\PSoC4/nRF24_NRF_FUNCS.c ****  *
 946:Generated_Source\PSoC4/nRF24_NRF_FUNCS.c ****  * @param
 947:Generated_Source\PSoC4/nRF24_NRF_FUNCS.c ****  *
 948:Generated_Source\PSoC4/nRF24_NRF_FUNCS.c ****  * @return uint8_t: Retransmissions count.
 949:Generated_Source\PSoC4/nRF24_NRF_FUNCS.c ****  */
 950:Generated_Source\PSoC4/nRF24_NRF_FUNCS.c **** uint8_t nRF24_getRetransmissionsCount(void)
 951:Generated_Source\PSoC4/nRF24_NRF_FUNCS.c **** {
 1815              		.loc 1 951 0
 1816              		.cfi_startproc
 1817              		@ args = 0, pretend = 0, frame = 0
 1818              		@ frame_needed = 0, uses_anonymous_args = 0
 1819 0000 10B5     		push	{r4, lr}
 1820              		.cfi_def_cfa_offset 8
 1821              		.cfi_offset 4, -8
 1822              		.cfi_offset 14, -4
 952:Generated_Source\PSoC4/nRF24_NRF_FUNCS.c ****     uint8_t count = nRF24_readRegister(NRF_OBSERVE_TX_REG);
 1823              		.loc 1 952 0
ARM GAS  C:\Users\Xwx47\AppData\Local\Temp\ccidPk4n.s 			page 50


 1824 0002 0820     		movs	r0, #8
 1825 0004 FFF7FEFF 		bl	nRF24_readRegister
 1826              	.LVL173:
 953:Generated_Source\PSoC4/nRF24_NRF_FUNCS.c ****     return count & NRF_OBSERVE_TX_ARC_CNT_MASK;
 1827              		.loc 1 953 0
 1828 0008 0F23     		movs	r3, #15
 1829 000a 1840     		ands	r0, r3
 1830              	.LVL174:
 954:Generated_Source\PSoC4/nRF24_NRF_FUNCS.c ****     ;
 955:Generated_Source\PSoC4/nRF24_NRF_FUNCS.c **** }
 1831              		.loc 1 955 0
 1832              		@ sp needed
 1833 000c 10BD     		pop	{r4, pc}
 1834              		.cfi_endproc
 1835              	.LFE52:
 1836              		.size	nRF24_getRetransmissionsCount, .-nRF24_getRetransmissionsCount
 1837 000e C046     		.section	.text.nRF24_getLostPacketsCount,"ax",%progbits
 1838              		.align	2
 1839              		.global	nRF24_getLostPacketsCount
 1840              		.code	16
 1841              		.thumb_func
 1842              		.type	nRF24_getLostPacketsCount, %function
 1843              	nRF24_getLostPacketsCount:
 1844              	.LFB53:
 956:Generated_Source\PSoC4/nRF24_NRF_FUNCS.c **** 
 957:Generated_Source\PSoC4/nRF24_NRF_FUNCS.c **** /**
 958:Generated_Source\PSoC4/nRF24_NRF_FUNCS.c ****  * @brief Get the number of lost packets.
 959:Generated_Source\PSoC4/nRF24_NRF_FUNCS.c ****  *
 960:Generated_Source\PSoC4/nRF24_NRF_FUNCS.c ****  * @param
 961:Generated_Source\PSoC4/nRF24_NRF_FUNCS.c ****  *
 962:Generated_Source\PSoC4/nRF24_NRF_FUNCS.c ****  * @return uint8_t: Lost packets.
 963:Generated_Source\PSoC4/nRF24_NRF_FUNCS.c ****  */
 964:Generated_Source\PSoC4/nRF24_NRF_FUNCS.c **** uint8_t nRF24_getLostPacketsCount(void)
 965:Generated_Source\PSoC4/nRF24_NRF_FUNCS.c **** {
 1845              		.loc 1 965 0
 1846              		.cfi_startproc
 1847              		@ args = 0, pretend = 0, frame = 0
 1848              		@ frame_needed = 0, uses_anonymous_args = 0
 1849 0000 10B5     		push	{r4, lr}
 1850              		.cfi_def_cfa_offset 8
 1851              		.cfi_offset 4, -8
 1852              		.cfi_offset 14, -4
 966:Generated_Source\PSoC4/nRF24_NRF_FUNCS.c ****     uint8_t lostPackets = nRF24_readRegister(NRF_OBSERVE_TX_REG);
 1853              		.loc 1 966 0
 1854 0002 0820     		movs	r0, #8
 1855 0004 FFF7FEFF 		bl	nRF24_readRegister
 1856              	.LVL175:
 967:Generated_Source\PSoC4/nRF24_NRF_FUNCS.c ****     lostPackets = lostPackets & NRF_OBSERVE_TX_PLOS_CNT_MASK;
 968:Generated_Source\PSoC4/nRF24_NRF_FUNCS.c ****     return lostPackets >> NRF_OBSERVE_TX_PLOS_CNT_POS;
 1857              		.loc 1 968 0
 1858 0008 0009     		lsrs	r0, r0, #4
 1859              	.LVL176:
 1860 000a C0B2     		uxtb	r0, r0
 969:Generated_Source\PSoC4/nRF24_NRF_FUNCS.c **** }
 1861              		.loc 1 969 0
 1862              		@ sp needed
 1863 000c 10BD     		pop	{r4, pc}
ARM GAS  C:\Users\Xwx47\AppData\Local\Temp\ccidPk4n.s 			page 51


 1864              		.cfi_endproc
 1865              	.LFE53:
 1866              		.size	nRF24_getLostPacketsCount, .-nRF24_getLostPacketsCount
 1867 000e C046     		.section	.text.nRF24_putInTXFIFO,"ax",%progbits
 1868              		.align	2
 1869              		.global	nRF24_putInTXFIFO
 1870              		.code	16
 1871              		.thumb_func
 1872              		.type	nRF24_putInTXFIFO, %function
 1873              	nRF24_putInTXFIFO:
 1874              	.LFB54:
 970:Generated_Source\PSoC4/nRF24_NRF_FUNCS.c **** 
 971:Generated_Source\PSoC4/nRF24_NRF_FUNCS.c **** /**
 972:Generated_Source\PSoC4/nRF24_NRF_FUNCS.c ****  * Put data into the TX FIFO wihout sending it.
 973:Generated_Source\PSoC4/nRF24_NRF_FUNCS.c ****  *
 974:Generated_Source\PSoC4/nRF24_NRF_FUNCS.c ****  * @param const uint8_t* data:
 975:Generated_Source\PSoC4/nRF24_NRF_FUNCS.c ****  * @param const size_t size:
 976:Generated_Source\PSoC4/nRF24_NRF_FUNCS.c ****  */
 977:Generated_Source\PSoC4/nRF24_NRF_FUNCS.c **** void nRF24_putInTXFIFO(const uint8_t* data, const size_t size)
 978:Generated_Source\PSoC4/nRF24_NRF_FUNCS.c **** {
 1875              		.loc 1 978 0
 1876              		.cfi_startproc
 1877              		@ args = 0, pretend = 0, frame = 0
 1878              		@ frame_needed = 0, uses_anonymous_args = 0
 1879              	.LVL177:
 1880 0000 10B5     		push	{r4, lr}
 1881              		.cfi_def_cfa_offset 8
 1882              		.cfi_offset 4, -8
 1883              		.cfi_offset 14, -4
 979:Generated_Source\PSoC4/nRF24_NRF_FUNCS.c ****     nRF24_WriteTXPayloadCmd(data, size);
 1884              		.loc 1 979 0
 1885 0002 FFF7FEFF 		bl	nRF24_WriteTXPayloadCmd
 1886              	.LVL178:
 980:Generated_Source\PSoC4/nRF24_NRF_FUNCS.c **** }
 1887              		.loc 1 980 0
 1888              		@ sp needed
 1889 0006 10BD     		pop	{r4, pc}
 1890              		.cfi_endproc
 1891              	.LFE54:
 1892              		.size	nRF24_putInTXFIFO, .-nRF24_putInTXFIFO
 1893              		.section	.text.nRF24_PTX_Transmit,"ax",%progbits
 1894              		.align	2
 1895              		.global	nRF24_PTX_Transmit
 1896              		.code	16
 1897              		.thumb_func
 1898              		.type	nRF24_PTX_Transmit, %function
 1899              	nRF24_PTX_Transmit:
 1900              	.LFB55:
 981:Generated_Source\PSoC4/nRF24_NRF_FUNCS.c **** 
 982:Generated_Source\PSoC4/nRF24_NRF_FUNCS.c **** /**
 983:Generated_Source\PSoC4/nRF24_NRF_FUNCS.c ****  * Put data in TX FIFO and transmit it.
 984:Generated_Source\PSoC4/nRF24_NRF_FUNCS.c ****  *
 985:Generated_Source\PSoC4/nRF24_NRF_FUNCS.c ****  * @param const uint8_t* data:
 986:Generated_Source\PSoC4/nRF24_NRF_FUNCS.c ****  * @param const size_t size:
 987:Generated_Source\PSoC4/nRF24_NRF_FUNCS.c ****  */
 988:Generated_Source\PSoC4/nRF24_NRF_FUNCS.c **** void nRF24_PTX_Transmit(const uint8_t* data, const size_t size)
 989:Generated_Source\PSoC4/nRF24_NRF_FUNCS.c **** {
ARM GAS  C:\Users\Xwx47\AppData\Local\Temp\ccidPk4n.s 			page 52


 1901              		.loc 1 989 0
 1902              		.cfi_startproc
 1903              		@ args = 0, pretend = 0, frame = 0
 1904              		@ frame_needed = 0, uses_anonymous_args = 0
 1905              	.LVL179:
 1906 0000 10B5     		push	{r4, lr}
 1907              		.cfi_def_cfa_offset 8
 1908              		.cfi_offset 4, -8
 1909              		.cfi_offset 14, -4
 990:Generated_Source\PSoC4/nRF24_NRF_FUNCS.c ****     if (NULL == data) {
 1910              		.loc 1 990 0
 1911 0002 0028     		cmp	r0, #0
 1912 0004 03D0     		beq	.L109
 991:Generated_Source\PSoC4/nRF24_NRF_FUNCS.c ****         return;
 992:Generated_Source\PSoC4/nRF24_NRF_FUNCS.c ****     }
 993:Generated_Source\PSoC4/nRF24_NRF_FUNCS.c **** 
 994:Generated_Source\PSoC4/nRF24_NRF_FUNCS.c ****     nRF24_putInTXFIFO(data, size);
 1913              		.loc 1 994 0
 1914 0006 FFF7FEFF 		bl	nRF24_putInTXFIFO
 1915              	.LVL180:
 995:Generated_Source\PSoC4/nRF24_NRF_FUNCS.c ****     nRF24_transmitPulse();
 1916              		.loc 1 995 0
 1917 000a FFF7FEFF 		bl	nRF24_transmitPulse
 1918              	.LVL181:
 1919              	.L109:
 996:Generated_Source\PSoC4/nRF24_NRF_FUNCS.c **** }
 1920              		.loc 1 996 0
 1921              		@ sp needed
 1922 000e 10BD     		pop	{r4, pc}
 1923              		.cfi_endproc
 1924              	.LFE55:
 1925              		.size	nRF24_PTX_Transmit, .-nRF24_PTX_Transmit
 1926              		.section	.text.nRF24_isDataReady,"ax",%progbits
 1927              		.align	2
 1928              		.global	nRF24_isDataReady
 1929              		.code	16
 1930              		.thumb_func
 1931              		.type	nRF24_isDataReady, %function
 1932              	nRF24_isDataReady:
 1933              	.LFB56:
 997:Generated_Source\PSoC4/nRF24_NRF_FUNCS.c **** 
 998:Generated_Source\PSoC4/nRF24_NRF_FUNCS.c **** /**
 999:Generated_Source\PSoC4/nRF24_NRF_FUNCS.c ****  * @brief
1000:Generated_Source\PSoC4/nRF24_NRF_FUNCS.c ****  *
1001:Generated_Source\PSoC4/nRF24_NRF_FUNCS.c ****  * @return bool: True if there's data ready.
1002:Generated_Source\PSoC4/nRF24_NRF_FUNCS.c ****  */
1003:Generated_Source\PSoC4/nRF24_NRF_FUNCS.c **** bool nRF24_isDataReady(void)
1004:Generated_Source\PSoC4/nRF24_NRF_FUNCS.c **** {
 1934              		.loc 1 1004 0
 1935              		.cfi_startproc
 1936              		@ args = 0, pretend = 0, frame = 0
 1937              		@ frame_needed = 0, uses_anonymous_args = 0
 1938 0000 10B5     		push	{r4, lr}
 1939              		.cfi_def_cfa_offset 8
 1940              		.cfi_offset 4, -8
 1941              		.cfi_offset 14, -4
1005:Generated_Source\PSoC4/nRF24_NRF_FUNCS.c ****     return NRF_STATUS_DATA_IS_RDY & nRF24_getStatus();
ARM GAS  C:\Users\Xwx47\AppData\Local\Temp\ccidPk4n.s 			page 53


 1942              		.loc 1 1005 0
 1943 0002 FFF7FEFF 		bl	nRF24_getStatus
 1944              	.LVL182:
 1945 0006 8009     		lsrs	r0, r0, #6
 1946 0008 0123     		movs	r3, #1
 1947 000a 1840     		ands	r0, r3
1006:Generated_Source\PSoC4/nRF24_NRF_FUNCS.c **** }
 1948              		.loc 1 1006 0
 1949              		@ sp needed
 1950 000c 10BD     		pop	{r4, pc}
 1951              		.cfi_endproc
 1952              	.LFE56:
 1953              		.size	nRF24_isDataReady, .-nRF24_isDataReady
 1954 000e C046     		.section	.text.nRF24_getRxPayload,"ax",%progbits
 1955              		.align	2
 1956              		.global	nRF24_getRxPayload
 1957              		.code	16
 1958              		.thumb_func
 1959              		.type	nRF24_getRxPayload, %function
 1960              	nRF24_getRxPayload:
 1961              	.LFB57:
1007:Generated_Source\PSoC4/nRF24_NRF_FUNCS.c **** 
1008:Generated_Source\PSoC4/nRF24_NRF_FUNCS.c **** /**
1009:Generated_Source\PSoC4/nRF24_NRF_FUNCS.c ****  * @brief
1010:Generated_Source\PSoC4/nRF24_NRF_FUNCS.c ****  *
1011:Generated_Source\PSoC4/nRF24_NRF_FUNCS.c ****  * @param uint8_t* data:
1012:Generated_Source\PSoC4/nRF24_NRF_FUNCS.c ****  * @param const size_t size:
1013:Generated_Source\PSoC4/nRF24_NRF_FUNCS.c ****  */
1014:Generated_Source\PSoC4/nRF24_NRF_FUNCS.c **** void nRF24_getRxPayload(uint8_t* data, const size_t size)
1015:Generated_Source\PSoC4/nRF24_NRF_FUNCS.c **** {
 1962              		.loc 1 1015 0
 1963              		.cfi_startproc
 1964              		@ args = 0, pretend = 0, frame = 0
 1965              		@ frame_needed = 0, uses_anonymous_args = 0
 1966              	.LVL183:
 1967 0000 10B5     		push	{r4, lr}
 1968              		.cfi_def_cfa_offset 8
 1969              		.cfi_offset 4, -8
 1970              		.cfi_offset 14, -4
1016:Generated_Source\PSoC4/nRF24_NRF_FUNCS.c ****     nRF24_PRX_ReadRXPayloadCmd(data, size);
 1971              		.loc 1 1016 0
 1972 0002 FFF7FEFF 		bl	nRF24_PRX_ReadRXPayloadCmd
 1973              	.LVL184:
1017:Generated_Source\PSoC4/nRF24_NRF_FUNCS.c **** }
 1974              		.loc 1 1017 0
 1975              		@ sp needed
 1976 0006 10BD     		pop	{r4, pc}
 1977              		.cfi_endproc
 1978              	.LFE57:
 1979              		.size	nRF24_getRxPayload, .-nRF24_getRxPayload
 1980              		.section	.text.nRF24_txTransmitWaitNoACK,"ax",%progbits
 1981              		.align	2
 1982              		.global	nRF24_txTransmitWaitNoACK
 1983              		.code	16
 1984              		.thumb_func
 1985              		.type	nRF24_txTransmitWaitNoACK, %function
 1986              	nRF24_txTransmitWaitNoACK:
ARM GAS  C:\Users\Xwx47\AppData\Local\Temp\ccidPk4n.s 			page 54


 1987              	.LFB58:
1018:Generated_Source\PSoC4/nRF24_NRF_FUNCS.c **** 
1019:Generated_Source\PSoC4/nRF24_NRF_FUNCS.c **** /**
1020:Generated_Source\PSoC4/nRF24_NRF_FUNCS.c ****  * @brief
1021:Generated_Source\PSoC4/nRF24_NRF_FUNCS.c ****  *
1022:Generated_Source\PSoC4/nRF24_NRF_FUNCS.c ****  * @param const uint8_t* data:
1023:Generated_Source\PSoC4/nRF24_NRF_FUNCS.c ****  * @param size_t size:
1024:Generated_Source\PSoC4/nRF24_NRF_FUNCS.c ****  */
1025:Generated_Source\PSoC4/nRF24_NRF_FUNCS.c **** void nRF24_txTransmitWaitNoACK(const uint8_t* data, const size_t size)
1026:Generated_Source\PSoC4/nRF24_NRF_FUNCS.c **** {
 1988              		.loc 1 1026 0
 1989              		.cfi_startproc
 1990              		@ args = 0, pretend = 0, frame = 0
 1991              		@ frame_needed = 0, uses_anonymous_args = 0
 1992              	.LVL185:
 1993 0000 10B5     		push	{r4, lr}
 1994              		.cfi_def_cfa_offset 8
 1995              		.cfi_offset 4, -8
 1996              		.cfi_offset 14, -4
1027:Generated_Source\PSoC4/nRF24_NRF_FUNCS.c ****     nRF24_PTX_NoACKPayloadCmd(data, size);
 1997              		.loc 1 1027 0
 1998 0002 FFF7FEFF 		bl	nRF24_PTX_NoACKPayloadCmd
 1999              	.LVL186:
1028:Generated_Source\PSoC4/nRF24_NRF_FUNCS.c ****     nRF24_transmitPulse();
 2000              		.loc 1 1028 0
 2001 0006 FFF7FEFF 		bl	nRF24_transmitPulse
 2002              	.LVL187:
1029:Generated_Source\PSoC4/nRF24_NRF_FUNCS.c **** }
 2003              		.loc 1 1029 0
 2004              		@ sp needed
 2005 000a 10BD     		pop	{r4, pc}
 2006              		.cfi_endproc
 2007              	.LFE58:
 2008              		.size	nRF24_txTransmitWaitNoACK, .-nRF24_txTransmitWaitNoACK
 2009              		.section	.text.nRF24_rxWritePayload,"ax",%progbits
 2010              		.align	2
 2011              		.global	nRF24_rxWritePayload
 2012              		.code	16
 2013              		.thumb_func
 2014              		.type	nRF24_rxWritePayload, %function
 2015              	nRF24_rxWritePayload:
 2016              	.LFB59:
1030:Generated_Source\PSoC4/nRF24_NRF_FUNCS.c **** 
1031:Generated_Source\PSoC4/nRF24_NRF_FUNCS.c **** /**
1032:Generated_Source\PSoC4/nRF24_NRF_FUNCS.c ****  * @brief
1033:Generated_Source\PSoC4/nRF24_NRF_FUNCS.c ****  *
1034:Generated_Source\PSoC4/nRF24_NRF_FUNCS.c ****  * @param const NrfDataPipe pipe:
1035:Generated_Source\PSoC4/nRF24_NRF_FUNCS.c ****  * @param const uint8_t* data:
1036:Generated_Source\PSoC4/nRF24_NRF_FUNCS.c ****  * @param size_t size:
1037:Generated_Source\PSoC4/nRF24_NRF_FUNCS.c ****  */
1038:Generated_Source\PSoC4/nRF24_NRF_FUNCS.c **** void nRF24_rxWritePayload(const NrfDataPipe pipe, const uint8_t* data,
1039:Generated_Source\PSoC4/nRF24_NRF_FUNCS.c ****                                      const size_t size)
1040:Generated_Source\PSoC4/nRF24_NRF_FUNCS.c **** {
 2017              		.loc 1 1040 0
 2018              		.cfi_startproc
 2019              		@ args = 0, pretend = 0, frame = 0
 2020              		@ frame_needed = 0, uses_anonymous_args = 0
ARM GAS  C:\Users\Xwx47\AppData\Local\Temp\ccidPk4n.s 			page 55


 2021              	.LVL188:
 2022 0000 10B5     		push	{r4, lr}
 2023              		.cfi_def_cfa_offset 8
 2024              		.cfi_offset 4, -8
 2025              		.cfi_offset 14, -4
1041:Generated_Source\PSoC4/nRF24_NRF_FUNCS.c ****     nRF24_PRX_WriteACKPayloadCmd(pipe, data, size);
 2026              		.loc 1 1041 0
 2027 0002 FFF7FEFF 		bl	nRF24_PRX_WriteACKPayloadCmd
 2028              	.LVL189:
1042:Generated_Source\PSoC4/nRF24_NRF_FUNCS.c **** }
 2029              		.loc 1 1042 0
 2030              		@ sp needed
 2031 0006 10BD     		pop	{r4, pc}
 2032              		.cfi_endproc
 2033              	.LFE59:
 2034              		.size	nRF24_rxWritePayload, .-nRF24_rxWritePayload
 2035              		.section	.text.nRF24_getDataPipeWithPayload,"ax",%progbits
 2036              		.align	2
 2037              		.global	nRF24_getDataPipeWithPayload
 2038              		.code	16
 2039              		.thumb_func
 2040              		.type	nRF24_getDataPipeWithPayload, %function
 2041              	nRF24_getDataPipeWithPayload:
 2042              	.LFB60:
1043:Generated_Source\PSoC4/nRF24_NRF_FUNCS.c **** 
1044:Generated_Source\PSoC4/nRF24_NRF_FUNCS.c **** /**
1045:Generated_Source\PSoC4/nRF24_NRF_FUNCS.c ****  * Return the pipe number with data.
1046:Generated_Source\PSoC4/nRF24_NRF_FUNCS.c ****  *
1047:Generated_Source\PSoC4/nRF24_NRF_FUNCS.c ****  * @return uint8_t:
1048:Generated_Source\PSoC4/nRF24_NRF_FUNCS.c ****  */
1049:Generated_Source\PSoC4/nRF24_NRF_FUNCS.c **** uint8_t nRF24_getDataPipeWithPayload(void)
1050:Generated_Source\PSoC4/nRF24_NRF_FUNCS.c **** {
 2043              		.loc 1 1050 0
 2044              		.cfi_startproc
 2045              		@ args = 0, pretend = 0, frame = 0
 2046              		@ frame_needed = 0, uses_anonymous_args = 0
 2047 0000 10B5     		push	{r4, lr}
 2048              		.cfi_def_cfa_offset 8
 2049              		.cfi_offset 4, -8
 2050              		.cfi_offset 14, -4
1051:Generated_Source\PSoC4/nRF24_NRF_FUNCS.c ****     uint8_t pipe = nRF24_readRegister(NRF_STATUS_REG);
 2051              		.loc 1 1051 0
 2052 0002 0720     		movs	r0, #7
 2053 0004 FFF7FEFF 		bl	nRF24_readRegister
 2054              	.LVL190:
1052:Generated_Source\PSoC4/nRF24_NRF_FUNCS.c ****     return (pipe & 0x0Eu) >> 1;
 2055              		.loc 1 1052 0
 2056 0008 4008     		lsrs	r0, r0, #1
 2057              	.LVL191:
 2058 000a 0723     		movs	r3, #7
 2059 000c 1840     		ands	r0, r3
1053:Generated_Source\PSoC4/nRF24_NRF_FUNCS.c **** }
 2060              		.loc 1 1053 0
 2061              		@ sp needed
 2062 000e 10BD     		pop	{r4, pc}
 2063              		.cfi_endproc
 2064              	.LFE60:
ARM GAS  C:\Users\Xwx47\AppData\Local\Temp\ccidPk4n.s 			page 56


 2065              		.size	nRF24_getDataPipeWithPayload, .-nRF24_getDataPipeWithPayload
 2066              		.section	.text.nRF24_PRX_receivedPowerDetector,"ax",%progbits
 2067              		.align	2
 2068              		.global	nRF24_PRX_receivedPowerDetector
 2069              		.code	16
 2070              		.thumb_func
 2071              		.type	nRF24_PRX_receivedPowerDetector, %function
 2072              	nRF24_PRX_receivedPowerDetector:
 2073              	.LFB61:
1054:Generated_Source\PSoC4/nRF24_NRF_FUNCS.c **** 
1055:Generated_Source\PSoC4/nRF24_NRF_FUNCS.c **** /**
1056:Generated_Source\PSoC4/nRF24_NRF_FUNCS.c ****  * @brief
1057:Generated_Source\PSoC4/nRF24_NRF_FUNCS.c ****  *
1058:Generated_Source\PSoC4/nRF24_NRF_FUNCS.c ****  * @return uint8_t:
1059:Generated_Source\PSoC4/nRF24_NRF_FUNCS.c ****  */
1060:Generated_Source\PSoC4/nRF24_NRF_FUNCS.c **** uint8_t nRF24_PRX_receivedPowerDetector(void)
1061:Generated_Source\PSoC4/nRF24_NRF_FUNCS.c **** {
 2074              		.loc 1 1061 0
 2075              		.cfi_startproc
 2076              		@ args = 0, pretend = 0, frame = 0
 2077              		@ frame_needed = 0, uses_anonymous_args = 0
 2078 0000 10B5     		push	{r4, lr}
 2079              		.cfi_def_cfa_offset 8
 2080              		.cfi_offset 4, -8
 2081              		.cfi_offset 14, -4
1062:Generated_Source\PSoC4/nRF24_NRF_FUNCS.c ****     return nRF24_readBit(NRF_RPD_REG, NRF_RPD_RPD);
 2082              		.loc 1 1062 0
 2083 0002 0021     		movs	r1, #0
 2084 0004 0920     		movs	r0, #9
 2085 0006 FFF7FEFF 		bl	nRF24_readBit
 2086              	.LVL192:
1063:Generated_Source\PSoC4/nRF24_NRF_FUNCS.c **** }
 2087              		.loc 1 1063 0
 2088              		@ sp needed
 2089 000a 10BD     		pop	{r4, pc}
 2090              		.cfi_endproc
 2091              	.LFE61:
 2092              		.size	nRF24_PRX_receivedPowerDetector, .-nRF24_PRX_receivedPowerDetector
 2093              		.section	.text.nRF24_isTXFIFOFull,"ax",%progbits
 2094              		.align	2
 2095              		.global	nRF24_isTXFIFOFull
 2096              		.code	16
 2097              		.thumb_func
 2098              		.type	nRF24_isTXFIFOFull, %function
 2099              	nRF24_isTXFIFOFull:
 2100              	.LFB62:
1064:Generated_Source\PSoC4/nRF24_NRF_FUNCS.c **** 
1065:Generated_Source\PSoC4/nRF24_NRF_FUNCS.c **** /**
1066:Generated_Source\PSoC4/nRF24_NRF_FUNCS.c ****  * @return bool: true if the TX FIFO is full, false if it have available
1067:Generated_Source\PSoC4/nRF24_NRF_FUNCS.c ****  * locations.
1068:Generated_Source\PSoC4/nRF24_NRF_FUNCS.c ****  */
1069:Generated_Source\PSoC4/nRF24_NRF_FUNCS.c **** bool nRF24_isTXFIFOFull(void)
1070:Generated_Source\PSoC4/nRF24_NRF_FUNCS.c **** {
 2101              		.loc 1 1070 0
 2102              		.cfi_startproc
 2103              		@ args = 0, pretend = 0, frame = 0
 2104              		@ frame_needed = 0, uses_anonymous_args = 0
ARM GAS  C:\Users\Xwx47\AppData\Local\Temp\ccidPk4n.s 			page 57


 2105 0000 10B5     		push	{r4, lr}
 2106              		.cfi_def_cfa_offset 8
 2107              		.cfi_offset 4, -8
 2108              		.cfi_offset 14, -4
1071:Generated_Source\PSoC4/nRF24_NRF_FUNCS.c ****     return nRF24_readBit(NRF_FIFO_STATUS_REG,
 2109              		.loc 1 1071 0
 2110 0002 0521     		movs	r1, #5
 2111 0004 1720     		movs	r0, #23
 2112 0006 FFF7FEFF 		bl	nRF24_readBit
 2113              	.LVL193:
1072:Generated_Source\PSoC4/nRF24_NRF_FUNCS.c ****                                     NRF_FIFO_STATUS_TX_FULL);
1073:Generated_Source\PSoC4/nRF24_NRF_FUNCS.c **** }
 2114              		.loc 1 1073 0
 2115              		@ sp needed
 2116 000a 10BD     		pop	{r4, pc}
 2117              		.cfi_endproc
 2118              	.LFE62:
 2119              		.size	nRF24_isTXFIFOFull, .-nRF24_isTXFIFOFull
 2120              		.section	.text.nRF24_isRXFIFOEmpty,"ax",%progbits
 2121              		.align	2
 2122              		.global	nRF24_isRXFIFOEmpty
 2123              		.code	16
 2124              		.thumb_func
 2125              		.type	nRF24_isRXFIFOEmpty, %function
 2126              	nRF24_isRXFIFOEmpty:
 2127              	.LFB63:
1074:Generated_Source\PSoC4/nRF24_NRF_FUNCS.c **** 
1075:Generated_Source\PSoC4/nRF24_NRF_FUNCS.c **** /**
1076:Generated_Source\PSoC4/nRF24_NRF_FUNCS.c ****  * @return bool: true if the RX FIFO es empty, false if any pipe have data.
1077:Generated_Source\PSoC4/nRF24_NRF_FUNCS.c ****  */
1078:Generated_Source\PSoC4/nRF24_NRF_FUNCS.c **** bool nRF24_isRXFIFOEmpty(void)
1079:Generated_Source\PSoC4/nRF24_NRF_FUNCS.c **** {
 2128              		.loc 1 1079 0
 2129              		.cfi_startproc
 2130              		@ args = 0, pretend = 0, frame = 0
 2131              		@ frame_needed = 0, uses_anonymous_args = 0
 2132 0000 10B5     		push	{r4, lr}
 2133              		.cfi_def_cfa_offset 8
 2134              		.cfi_offset 4, -8
 2135              		.cfi_offset 14, -4
1080:Generated_Source\PSoC4/nRF24_NRF_FUNCS.c ****     return nRF24_readBit(NRF_FIFO_STATUS_REG,
 2136              		.loc 1 1080 0
 2137 0002 0021     		movs	r1, #0
 2138 0004 1720     		movs	r0, #23
 2139 0006 FFF7FEFF 		bl	nRF24_readBit
 2140              	.LVL194:
1081:Generated_Source\PSoC4/nRF24_NRF_FUNCS.c ****                                     NRF_FIFO_STATUS_RX_EMPTY);
1082:Generated_Source\PSoC4/nRF24_NRF_FUNCS.c **** }
 2141              		.loc 1 1082 0
 2142              		@ sp needed
 2143 000a 10BD     		pop	{r4, pc}
 2144              		.cfi_endproc
 2145              	.LFE63:
 2146              		.size	nRF24_isRXFIFOEmpty, .-nRF24_isRXFIFOEmpty
 2147              		.section	.text.nRF24_clearAllIRQs,"ax",%progbits
 2148              		.align	2
 2149              		.global	nRF24_clearAllIRQs
ARM GAS  C:\Users\Xwx47\AppData\Local\Temp\ccidPk4n.s 			page 58


 2150              		.code	16
 2151              		.thumb_func
 2152              		.type	nRF24_clearAllIRQs, %function
 2153              	nRF24_clearAllIRQs:
 2154              	.LFB64:
1083:Generated_Source\PSoC4/nRF24_NRF_FUNCS.c **** 
1084:Generated_Source\PSoC4/nRF24_NRF_FUNCS.c **** /**
1085:Generated_Source\PSoC4/nRF24_NRF_FUNCS.c ****  * This function will write 1 to all the three IRQ "flag" bits on the
1086:Generated_Source\PSoC4/nRF24_NRF_FUNCS.c ****  * STATUS register.
1087:Generated_Source\PSoC4/nRF24_NRF_FUNCS.c ****  */
1088:Generated_Source\PSoC4/nRF24_NRF_FUNCS.c **** void nRF24_clearAllIRQs(void)
1089:Generated_Source\PSoC4/nRF24_NRF_FUNCS.c **** {
 2155              		.loc 1 1089 0
 2156              		.cfi_startproc
 2157              		@ args = 0, pretend = 0, frame = 0
 2158              		@ frame_needed = 0, uses_anonymous_args = 0
 2159 0000 10B5     		push	{r4, lr}
 2160              		.cfi_def_cfa_offset 8
 2161              		.cfi_offset 4, -8
 2162              		.cfi_offset 14, -4
1090:Generated_Source\PSoC4/nRF24_NRF_FUNCS.c ****     nRF24_writeRegister(NRF_STATUS_REG, 0x70);
 2163              		.loc 1 1090 0
 2164 0002 7021     		movs	r1, #112
 2165 0004 0720     		movs	r0, #7
 2166 0006 FFF7FEFF 		bl	nRF24_writeRegister
 2167              	.LVL195:
1091:Generated_Source\PSoC4/nRF24_NRF_FUNCS.c **** }
 2168              		.loc 1 1091 0
 2169              		@ sp needed
 2170 000a 10BD     		pop	{r4, pc}
 2171              		.cfi_endproc
 2172              	.LFE64:
 2173              		.size	nRF24_clearAllIRQs, .-nRF24_clearAllIRQs
 2174              		.section	.text.nRF24_start,"ax",%progbits
 2175              		.align	2
 2176              		.global	nRF24_start
 2177              		.code	16
 2178              		.thumb_func
 2179              		.type	nRF24_start, %function
 2180              	nRF24_start:
 2181              	.LFB1:
  50:Generated_Source\PSoC4/nRF24_NRF_FUNCS.c ****     // Recommended delay to start using the nRF24
 2182              		.loc 1 50 0
 2183              		.cfi_startproc
 2184              		@ args = 0, pretend = 0, frame = 0
 2185              		@ frame_needed = 0, uses_anonymous_args = 0
 2186 0000 10B5     		push	{r4, lr}
 2187              		.cfi_def_cfa_offset 8
 2188              		.cfi_offset 4, -8
 2189              		.cfi_offset 14, -4
  52:Generated_Source\PSoC4/nRF24_NRF_FUNCS.c ****     
 2190              		.loc 1 52 0
 2191 0002 6420     		movs	r0, #100
 2192 0004 FFF7FEFF 		bl	CyDelay
 2193              	.LVL196:
  55:Generated_Source\PSoC4/nRF24_NRF_FUNCS.c ****     SS_Write(1);
 2194              		.loc 1 55 0
ARM GAS  C:\Users\Xwx47\AppData\Local\Temp\ccidPk4n.s 			page 59


 2195 0008 0020     		movs	r0, #0
 2196 000a FFF7FEFF 		bl	CE_Write
 2197              	.LVL197:
  56:Generated_Source\PSoC4/nRF24_NRF_FUNCS.c ****     SPI_Start();
 2198              		.loc 1 56 0
 2199 000e 0120     		movs	r0, #1
 2200 0010 FFF7FEFF 		bl	SS_Write
 2201              	.LVL198:
  57:Generated_Source\PSoC4/nRF24_NRF_FUNCS.c **** 
 2202              		.loc 1 57 0
 2203 0014 FFF7FEFF 		bl	SPI_Start
 2204              	.LVL199:
  60:Generated_Source\PSoC4/nRF24_NRF_FUNCS.c ****     
 2205              		.loc 1 60 0
 2206 0018 FFF7FEFF 		bl	nRF24_init
 2207              	.LVL200:
  63:Generated_Source\PSoC4/nRF24_NRF_FUNCS.c ****     
 2208              		.loc 1 63 0
 2209 001c FFF7FEFF 		bl	nRF24_clearAllIRQs
 2210              	.LVL201:
  66:Generated_Source\PSoC4/nRF24_NRF_FUNCS.c ****     nRF24_FlushTxCmd();
 2211              		.loc 1 66 0
 2212 0020 FFF7FEFF 		bl	nRF24_FlushRxCmd
 2213              	.LVL202:
  67:Generated_Source\PSoC4/nRF24_NRF_FUNCS.c **** }
 2214              		.loc 1 67 0
 2215 0024 FFF7FEFF 		bl	nRF24_FlushTxCmd
 2216              	.LVL203:
  68:Generated_Source\PSoC4/nRF24_NRF_FUNCS.c **** 
 2217              		.loc 1 68 0
 2218              		@ sp needed
 2219 0028 10BD     		pop	{r4, pc}
 2220              		.cfi_endproc
 2221              	.LFE1:
 2222              		.size	nRF24_start, .-nRF24_start
 2223 002a C046     		.section	.text.nRF24_clearIRQFlag,"ax",%progbits
 2224              		.align	2
 2225              		.global	nRF24_clearIRQFlag
 2226              		.code	16
 2227              		.thumb_func
 2228              		.type	nRF24_clearIRQFlag, %function
 2229              	nRF24_clearIRQFlag:
 2230              	.LFB65:
1092:Generated_Source\PSoC4/nRF24_NRF_FUNCS.c **** 
1093:Generated_Source\PSoC4/nRF24_NRF_FUNCS.c **** /**
1094:Generated_Source\PSoC4/nRF24_NRF_FUNCS.c ****  * @brief Clears the specific IRQ flag.
1095:Generated_Source\PSoC4/nRF24_NRF_FUNCS.c ****  *
1096:Generated_Source\PSoC4/nRF24_NRF_FUNCS.c ****  * Clear the flag by writing 1 to the interrupt flag bit.
1097:Generated_Source\PSoC4/nRF24_NRF_FUNCS.c ****  *
1098:Generated_Source\PSoC4/nRF24_NRF_FUNCS.c ****  * @param NrfIRQ irq_flag: Interrupt flag to clear.
1099:Generated_Source\PSoC4/nRF24_NRF_FUNCS.c ****  */
1100:Generated_Source\PSoC4/nRF24_NRF_FUNCS.c **** void nRF24_clearIRQFlag(const NrfIRQ irq_flag)
1101:Generated_Source\PSoC4/nRF24_NRF_FUNCS.c **** {
 2231              		.loc 1 1101 0
 2232              		.cfi_startproc
 2233              		@ args = 0, pretend = 0, frame = 0
 2234              		@ frame_needed = 0, uses_anonymous_args = 0
ARM GAS  C:\Users\Xwx47\AppData\Local\Temp\ccidPk4n.s 			page 60


 2235              	.LVL204:
 2236 0000 10B5     		push	{r4, lr}
 2237              		.cfi_def_cfa_offset 8
 2238              		.cfi_offset 4, -8
 2239              		.cfi_offset 14, -4
1102:Generated_Source\PSoC4/nRF24_NRF_FUNCS.c ****     nRF24_writeRegister(NRF_STATUS_REG, (1 << irq_flag));
 2240              		.loc 1 1102 0
 2241 0002 0121     		movs	r1, #1
 2242 0004 8140     		lsls	r1, r1, r0
 2243 0006 C9B2     		uxtb	r1, r1
 2244 0008 0720     		movs	r0, #7
 2245              	.LVL205:
 2246 000a FFF7FEFF 		bl	nRF24_writeRegister
 2247              	.LVL206:
1103:Generated_Source\PSoC4/nRF24_NRF_FUNCS.c **** }
 2248              		.loc 1 1103 0
 2249              		@ sp needed
 2250 000e 10BD     		pop	{r4, pc}
 2251              		.cfi_endproc
 2252              	.LFE65:
 2253              		.size	nRF24_clearIRQFlag, .-nRF24_clearIRQFlag
 2254              		.section	.text.nRF24_getIRQFlag,"ax",%progbits
 2255              		.align	2
 2256              		.global	nRF24_getIRQFlag
 2257              		.code	16
 2258              		.thumb_func
 2259              		.type	nRF24_getIRQFlag, %function
 2260              	nRF24_getIRQFlag:
 2261              	.LFB66:
1104:Generated_Source\PSoC4/nRF24_NRF_FUNCS.c **** 
1105:Generated_Source\PSoC4/nRF24_NRF_FUNCS.c **** /**
1106:Generated_Source\PSoC4/nRF24_NRF_FUNCS.c ****  * This method is used to get if any of the IRQ "flag" bits on the STATUS
1107:Generated_Source\PSoC4/nRF24_NRF_FUNCS.c ****  * register is set to 1. This function returns 0 is none of the flag bits
1108:Generated_Source\PSoC4/nRF24_NRF_FUNCS.c ****  * is not set to 1.
1109:Generated_Source\PSoC4/nRF24_NRF_FUNCS.c ****  *
1110:Generated_Source\PSoC4/nRF24_NRF_FUNCS.c ****  * @return NrfIRQ: Asserted bit of the interrupt flags.
1111:Generated_Source\PSoC4/nRF24_NRF_FUNCS.c ****  */
1112:Generated_Source\PSoC4/nRF24_NRF_FUNCS.c **** NrfIRQ nRF24_getIRQFlag(void)
1113:Generated_Source\PSoC4/nRF24_NRF_FUNCS.c **** {
 2262              		.loc 1 1113 0
 2263              		.cfi_startproc
 2264              		@ args = 0, pretend = 0, frame = 0
 2265              		@ frame_needed = 0, uses_anonymous_args = 0
 2266 0000 10B5     		push	{r4, lr}
 2267              		.cfi_def_cfa_offset 8
 2268              		.cfi_offset 4, -8
 2269              		.cfi_offset 14, -4
1114:Generated_Source\PSoC4/nRF24_NRF_FUNCS.c ****     // Get the STATUS register
1115:Generated_Source\PSoC4/nRF24_NRF_FUNCS.c ****     uint8_t sts = nRF24_NOPCmd();
 2270              		.loc 1 1115 0
 2271 0002 FFF7FEFF 		bl	nRF24_NOPCmd
 2272              	.LVL207:
1116:Generated_Source\PSoC4/nRF24_NRF_FUNCS.c **** 
1117:Generated_Source\PSoC4/nRF24_NRF_FUNCS.c ****     // We only care if any of the bits 4, 5 and 6 are set, so we mask
1118:Generated_Source\PSoC4/nRF24_NRF_FUNCS.c ****     // the STATUS register with 0x0111_0000
1119:Generated_Source\PSoC4/nRF24_NRF_FUNCS.c ****     switch (sts & 0x70) {
 2273              		.loc 1 1119 0
ARM GAS  C:\Users\Xwx47\AppData\Local\Temp\ccidPk4n.s 			page 61


 2274 0006 7023     		movs	r3, #112
 2275 0008 1840     		ands	r0, r3
 2276              	.LVL208:
 2277 000a 2028     		cmp	r0, #32
 2278 000c 0AD0     		beq	.L127
 2279 000e 4028     		cmp	r0, #64
 2280 0010 02D0     		beq	.L125
 2281 0012 1028     		cmp	r0, #16
 2282 0014 04D1     		bne	.L128
 2283 0016 01E0     		b	.L126
 2284              	.L125:
1120:Generated_Source\PSoC4/nRF24_NRF_FUNCS.c ****     case NRF_STATUS_RX_DR_MASK:
1121:Generated_Source\PSoC4/nRF24_NRF_FUNCS.c ****         return NRF_RX_DR_IRQ;
 2285              		.loc 1 1121 0
 2286 0018 0620     		movs	r0, #6
 2287 001a 04E0     		b	.L124
 2288              	.L126:
1122:Generated_Source\PSoC4/nRF24_NRF_FUNCS.c ****         break;
1123:Generated_Source\PSoC4/nRF24_NRF_FUNCS.c ****     case NRF_STATUS_TX_DS_MASK:
1124:Generated_Source\PSoC4/nRF24_NRF_FUNCS.c ****         return NRF_TX_DS_IRQ;
1125:Generated_Source\PSoC4/nRF24_NRF_FUNCS.c ****         break;
1126:Generated_Source\PSoC4/nRF24_NRF_FUNCS.c ****     case NRF_STATUS_MAX_RT_MASK:
1127:Generated_Source\PSoC4/nRF24_NRF_FUNCS.c ****         return NRF_MAX_RT_IRQ;
 2289              		.loc 1 1127 0
 2290 001c 0420     		movs	r0, #4
 2291 001e 02E0     		b	.L124
 2292              	.L128:
1128:Generated_Source\PSoC4/nRF24_NRF_FUNCS.c ****         break;
1129:Generated_Source\PSoC4/nRF24_NRF_FUNCS.c ****     default:
1130:Generated_Source\PSoC4/nRF24_NRF_FUNCS.c ****         return 0;
 2293              		.loc 1 1130 0
 2294 0020 0020     		movs	r0, #0
 2295 0022 00E0     		b	.L124
 2296              	.L127:
1124:Generated_Source\PSoC4/nRF24_NRF_FUNCS.c ****         break;
 2297              		.loc 1 1124 0
 2298 0024 0520     		movs	r0, #5
 2299              	.L124:
1131:Generated_Source\PSoC4/nRF24_NRF_FUNCS.c ****         break;
1132:Generated_Source\PSoC4/nRF24_NRF_FUNCS.c ****     }
1133:Generated_Source\PSoC4/nRF24_NRF_FUNCS.c **** }
 2300              		.loc 1 1133 0
 2301              		@ sp needed
 2302 0026 10BD     		pop	{r4, pc}
 2303              		.cfi_endproc
 2304              	.LFE66:
 2305              		.size	nRF24_getIRQFlag, .-nRF24_getIRQFlag
 2306              		.text
 2307              	.Letext0:
 2308              		.file 2 "c:\\program files (x86)\\cypress\\psoc creator\\4.1\\psoc creator\\import\\gnu\\arm\\5.4.
 2309              		.file 3 "c:\\program files (x86)\\cypress\\psoc creator\\4.1\\psoc creator\\import\\gnu\\arm\\5.4.
 2310              		.file 4 "c:\\program files (x86)\\cypress\\psoc creator\\4.1\\psoc creator\\import\\gnu\\arm\\5.4.
 2311              		.file 5 "Generated_Source\\PSoC4\\nRF24_NRF_REGS.h"
 2312              		.file 6 "Generated_Source\\PSoC4\\nRF24_LL_SPI.h"
 2313              		.file 7 "Generated_Source\\PSoC4/CE.h"
 2314              		.file 8 "Generated_Source\\PSoC4/CyLib.h"
 2315              		.file 9 "Generated_Source\\PSoC4\\nRF24_NRF_COMMANDS.h"
ARM GAS  C:\Users\Xwx47\AppData\Local\Temp\ccidPk4n.s 			page 62


 2316              		.file 10 "Generated_Source\\PSoC4/SS.h"
 2317              		.file 11 "Generated_Source\\PSoC4/SPI.h"
 2318              		.section	.debug_info,"",%progbits
 2319              	.Ldebug_info0:
 2320 0000 4B160000 		.4byte	0x164b
 2321 0004 0400     		.2byte	0x4
 2322 0006 00000000 		.4byte	.Ldebug_abbrev0
 2323 000a 04       		.byte	0x4
 2324 000b 01       		.uleb128 0x1
 2325 000c D8030000 		.4byte	.LASF219
 2326 0010 0C       		.byte	0xc
 2327 0011 61070000 		.4byte	.LASF220
 2328 0015 10090000 		.4byte	.LASF221
 2329 0019 00000000 		.4byte	.Ldebug_ranges0+0
 2330 001d 00000000 		.4byte	0
 2331 0021 00000000 		.4byte	.Ldebug_line0
 2332 0025 02       		.uleb128 0x2
 2333 0026 01       		.byte	0x1
 2334 0027 06       		.byte	0x6
 2335 0028 2C0F0000 		.4byte	.LASF0
 2336 002c 03       		.uleb128 0x3
 2337 002d 190D0000 		.4byte	.LASF9
 2338 0031 02       		.byte	0x2
 2339 0032 1D       		.byte	0x1d
 2340 0033 37000000 		.4byte	0x37
 2341 0037 02       		.uleb128 0x2
 2342 0038 01       		.byte	0x1
 2343 0039 08       		.byte	0x8
 2344 003a 220E0000 		.4byte	.LASF1
 2345 003e 02       		.uleb128 0x2
 2346 003f 02       		.byte	0x2
 2347 0040 05       		.byte	0x5
 2348 0041 C80B0000 		.4byte	.LASF2
 2349 0045 02       		.uleb128 0x2
 2350 0046 02       		.byte	0x2
 2351 0047 07       		.byte	0x7
 2352 0048 380F0000 		.4byte	.LASF3
 2353 004c 02       		.uleb128 0x2
 2354 004d 04       		.byte	0x4
 2355 004e 05       		.byte	0x5
 2356 004f 080C0000 		.4byte	.LASF4
 2357 0053 02       		.uleb128 0x2
 2358 0054 04       		.byte	0x4
 2359 0055 07       		.byte	0x7
 2360 0056 AE0D0000 		.4byte	.LASF5
 2361 005a 02       		.uleb128 0x2
 2362 005b 08       		.byte	0x8
 2363 005c 05       		.byte	0x5
 2364 005d B5080000 		.4byte	.LASF6
 2365 0061 02       		.uleb128 0x2
 2366 0062 08       		.byte	0x8
 2367 0063 07       		.byte	0x7
 2368 0064 B3040000 		.4byte	.LASF7
 2369 0068 04       		.uleb128 0x4
 2370 0069 04       		.byte	0x4
 2371 006a 05       		.byte	0x5
 2372 006b 696E7400 		.ascii	"int\000"
ARM GAS  C:\Users\Xwx47\AppData\Local\Temp\ccidPk4n.s 			page 63


 2373 006f 02       		.uleb128 0x2
 2374 0070 04       		.byte	0x4
 2375 0071 07       		.byte	0x7
 2376 0072 61010000 		.4byte	.LASF8
 2377 0076 03       		.uleb128 0x3
 2378 0077 0F080000 		.4byte	.LASF10
 2379 007b 03       		.byte	0x3
 2380 007c 18       		.byte	0x18
 2381 007d 2C000000 		.4byte	0x2c
 2382 0081 02       		.uleb128 0x2
 2383 0082 04       		.byte	0x4
 2384 0083 04       		.byte	0x4
 2385 0084 94030000 		.4byte	.LASF11
 2386 0088 02       		.uleb128 0x2
 2387 0089 08       		.byte	0x8
 2388 008a 04       		.byte	0x4
 2389 008b CD0F0000 		.4byte	.LASF12
 2390 008f 02       		.uleb128 0x2
 2391 0090 01       		.byte	0x1
 2392 0091 08       		.byte	0x8
 2393 0092 4F070000 		.4byte	.LASF13
 2394 0096 03       		.uleb128 0x3
 2395 0097 5E060000 		.4byte	.LASF14
 2396 009b 04       		.byte	0x4
 2397 009c D8       		.byte	0xd8
 2398 009d 6F000000 		.4byte	0x6f
 2399 00a1 02       		.uleb128 0x2
 2400 00a2 08       		.byte	0x8
 2401 00a3 04       		.byte	0x4
 2402 00a4 260B0000 		.4byte	.LASF15
 2403 00a8 02       		.uleb128 0x2
 2404 00a9 04       		.byte	0x4
 2405 00aa 07       		.byte	0x7
 2406 00ab 970D0000 		.4byte	.LASF16
 2407 00af 05       		.uleb128 0x5
 2408 00b0 01       		.byte	0x1
 2409 00b1 37000000 		.4byte	0x37
 2410 00b5 05       		.byte	0x5
 2411 00b6 1F       		.byte	0x1f
 2412 00b7 58010000 		.4byte	0x158
 2413 00bb 06       		.uleb128 0x6
 2414 00bc 2E100000 		.4byte	.LASF17
 2415 00c0 00       		.byte	0
 2416 00c1 06       		.uleb128 0x6
 2417 00c2 A00D0000 		.4byte	.LASF18
 2418 00c6 01       		.byte	0x1
 2419 00c7 06       		.uleb128 0x6
 2420 00c8 F60B0000 		.4byte	.LASF19
 2421 00cc 02       		.byte	0x2
 2422 00cd 06       		.uleb128 0x6
 2423 00ce 430D0000 		.4byte	.LASF20
 2424 00d2 03       		.byte	0x3
 2425 00d3 06       		.uleb128 0x6
 2426 00d4 59020000 		.4byte	.LASF21
 2427 00d8 04       		.byte	0x4
 2428 00d9 06       		.uleb128 0x6
 2429 00da 94080000 		.4byte	.LASF22
ARM GAS  C:\Users\Xwx47\AppData\Local\Temp\ccidPk4n.s 			page 64


 2430 00de 05       		.byte	0x5
 2431 00df 06       		.uleb128 0x6
 2432 00e0 940B0000 		.4byte	.LASF23
 2433 00e4 06       		.byte	0x6
 2434 00e5 06       		.uleb128 0x6
 2435 00e6 22060000 		.4byte	.LASF24
 2436 00ea 07       		.byte	0x7
 2437 00eb 06       		.uleb128 0x6
 2438 00ec B20C0000 		.4byte	.LASF25
 2439 00f0 08       		.byte	0x8
 2440 00f1 06       		.uleb128 0x6
 2441 00f2 370D0000 		.4byte	.LASF26
 2442 00f6 09       		.byte	0x9
 2443 00f7 06       		.uleb128 0x6
 2444 00f8 43030000 		.4byte	.LASF27
 2445 00fc 0A       		.byte	0xa
 2446 00fd 06       		.uleb128 0x6
 2447 00fe 300E0000 		.4byte	.LASF28
 2448 0102 0B       		.byte	0xb
 2449 0103 06       		.uleb128 0x6
 2450 0104 A2080000 		.4byte	.LASF29
 2451 0108 0C       		.byte	0xc
 2452 0109 06       		.uleb128 0x6
 2453 010a 41020000 		.4byte	.LASF30
 2454 010e 0D       		.byte	0xd
 2455 010f 06       		.uleb128 0x6
 2456 0110 B4060000 		.4byte	.LASF31
 2457 0114 0E       		.byte	0xe
 2458 0115 06       		.uleb128 0x6
 2459 0116 C6070000 		.4byte	.LASF32
 2460 011a 0F       		.byte	0xf
 2461 011b 06       		.uleb128 0x6
 2462 011c C3080000 		.4byte	.LASF33
 2463 0120 10       		.byte	0x10
 2464 0121 06       		.uleb128 0x6
 2465 0122 E9090000 		.4byte	.LASF34
 2466 0126 11       		.byte	0x11
 2467 0127 06       		.uleb128 0x6
 2468 0128 83030000 		.4byte	.LASF35
 2469 012c 12       		.byte	0x12
 2470 012d 06       		.uleb128 0x6
 2471 012e A90E0000 		.4byte	.LASF36
 2472 0132 13       		.byte	0x13
 2473 0133 06       		.uleb128 0x6
 2474 0134 F7080000 		.4byte	.LASF37
 2475 0138 14       		.byte	0x14
 2476 0139 06       		.uleb128 0x6
 2477 013a CA020000 		.4byte	.LASF38
 2478 013e 15       		.byte	0x15
 2479 013f 06       		.uleb128 0x6
 2480 0140 F00D0000 		.4byte	.LASF39
 2481 0144 16       		.byte	0x16
 2482 0145 06       		.uleb128 0x6
 2483 0146 55000000 		.4byte	.LASF40
 2484 014a 17       		.byte	0x17
 2485 014b 06       		.uleb128 0x6
 2486 014c 07030000 		.4byte	.LASF41
ARM GAS  C:\Users\Xwx47\AppData\Local\Temp\ccidPk4n.s 			page 65


 2487 0150 1C       		.byte	0x1c
 2488 0151 06       		.uleb128 0x6
 2489 0152 73030000 		.4byte	.LASF42
 2490 0156 1D       		.byte	0x1d
 2491 0157 00       		.byte	0
 2492 0158 05       		.uleb128 0x5
 2493 0159 01       		.byte	0x1
 2494 015a 37000000 		.4byte	0x37
 2495 015e 05       		.byte	0x5
 2496 015f 4C       		.byte	0x4c
 2497 0160 89010000 		.4byte	0x189
 2498 0164 06       		.uleb128 0x6
 2499 0165 16050000 		.4byte	.LASF43
 2500 0169 00       		.byte	0
 2501 016a 06       		.uleb128 0x6
 2502 016b 25050000 		.4byte	.LASF44
 2503 016f 01       		.byte	0x1
 2504 0170 06       		.uleb128 0x6
 2505 0171 34050000 		.4byte	.LASF45
 2506 0175 02       		.byte	0x2
 2507 0176 06       		.uleb128 0x6
 2508 0177 43050000 		.4byte	.LASF46
 2509 017b 03       		.byte	0x3
 2510 017c 06       		.uleb128 0x6
 2511 017d 52050000 		.4byte	.LASF47
 2512 0181 04       		.byte	0x4
 2513 0182 06       		.uleb128 0x6
 2514 0183 61050000 		.4byte	.LASF48
 2515 0187 05       		.byte	0x5
 2516 0188 00       		.byte	0
 2517 0189 03       		.uleb128 0x3
 2518 018a D4010000 		.4byte	.LASF49
 2519 018e 05       		.byte	0x5
 2520 018f 53       		.byte	0x53
 2521 0190 58010000 		.4byte	0x158
 2522 0194 05       		.uleb128 0x5
 2523 0195 01       		.byte	0x1
 2524 0196 37000000 		.4byte	0x37
 2525 019a 05       		.byte	0x5
 2526 019b 56       		.byte	0x56
 2527 019c AD010000 		.4byte	0x1ad
 2528 01a0 06       		.uleb128 0x6
 2529 01a1 FA090000 		.4byte	.LASF50
 2530 01a5 00       		.byte	0
 2531 01a6 06       		.uleb128 0x6
 2532 01a7 A7070000 		.4byte	.LASF51
 2533 01ab 01       		.byte	0x1
 2534 01ac 00       		.byte	0
 2535 01ad 03       		.uleb128 0x3
 2536 01ae 08090000 		.4byte	.LASF52
 2537 01b2 05       		.byte	0x5
 2538 01b3 59       		.byte	0x59
 2539 01b4 94010000 		.4byte	0x194
 2540 01b8 05       		.uleb128 0x5
 2541 01b9 01       		.byte	0x1
 2542 01ba 37000000 		.4byte	0x37
 2543 01be 05       		.byte	0x5
ARM GAS  C:\Users\Xwx47\AppData\Local\Temp\ccidPk4n.s 			page 66


 2544 01bf 5B       		.byte	0x5b
 2545 01c0 D7010000 		.4byte	0x1d7
 2546 01c4 06       		.uleb128 0x6
 2547 01c5 07010000 		.4byte	.LASF53
 2548 01c9 04       		.byte	0x4
 2549 01ca 06       		.uleb128 0x6
 2550 01cb 2B0C0000 		.4byte	.LASF54
 2551 01cf 05       		.byte	0x5
 2552 01d0 06       		.uleb128 0x6
 2553 01d1 38080000 		.4byte	.LASF55
 2554 01d5 06       		.byte	0x6
 2555 01d6 00       		.byte	0
 2556 01d7 03       		.uleb128 0x3
 2557 01d8 56030000 		.4byte	.LASF56
 2558 01dc 05       		.byte	0x5
 2559 01dd 5F       		.byte	0x5f
 2560 01de B8010000 		.4byte	0x1b8
 2561 01e2 05       		.uleb128 0x5
 2562 01e3 01       		.byte	0x1
 2563 01e4 37000000 		.4byte	0x37
 2564 01e8 05       		.byte	0x5
 2565 01e9 62       		.byte	0x62
 2566 01ea 19020000 		.4byte	0x219
 2567 01ee 06       		.uleb128 0x6
 2568 01ef 6C0D0000 		.4byte	.LASF57
 2569 01f3 00       		.byte	0
 2570 01f4 06       		.uleb128 0x6
 2571 01f5 8C060000 		.4byte	.LASF58
 2572 01f9 01       		.byte	0x1
 2573 01fa 06       		.uleb128 0x6
 2574 01fb 7D100000 		.4byte	.LASF59
 2575 01ff 02       		.byte	0x2
 2576 0200 06       		.uleb128 0x6
 2577 0201 BB0F0000 		.4byte	.LASF60
 2578 0205 03       		.byte	0x3
 2579 0206 06       		.uleb128 0x6
 2580 0207 FE010000 		.4byte	.LASF61
 2581 020b 04       		.byte	0x4
 2582 020c 06       		.uleb128 0x6
 2583 020d F1000000 		.4byte	.LASF62
 2584 0211 05       		.byte	0x5
 2585 0212 06       		.uleb128 0x6
 2586 0213 030D0000 		.4byte	.LASF63
 2587 0217 06       		.byte	0x6
 2588 0218 00       		.byte	0
 2589 0219 05       		.uleb128 0x5
 2590 021a 01       		.byte	0x1
 2591 021b 37000000 		.4byte	0x37
 2592 021f 05       		.byte	0x5
 2593 0220 6D       		.byte	0x6d
 2594 0221 56020000 		.4byte	0x256
 2595 0225 06       		.uleb128 0x6
 2596 0226 43010000 		.4byte	.LASF64
 2597 022a 00       		.byte	0
 2598 022b 06       		.uleb128 0x6
 2599 022c D40F0000 		.4byte	.LASF65
 2600 0230 01       		.byte	0x1
ARM GAS  C:\Users\Xwx47\AppData\Local\Temp\ccidPk4n.s 			page 67


 2601 0231 06       		.uleb128 0x6
 2602 0232 E60F0000 		.4byte	.LASF66
 2603 0236 02       		.byte	0x2
 2604 0237 06       		.uleb128 0x6
 2605 0238 F80F0000 		.4byte	.LASF67
 2606 023c 03       		.byte	0x3
 2607 023d 06       		.uleb128 0x6
 2608 023e 0A100000 		.4byte	.LASF68
 2609 0242 04       		.byte	0x4
 2610 0243 06       		.uleb128 0x6
 2611 0244 1C100000 		.4byte	.LASF69
 2612 0248 05       		.byte	0x5
 2613 0249 06       		.uleb128 0x6
 2614 024a 93000000 		.4byte	.LASF70
 2615 024e 3F       		.byte	0x3f
 2616 024f 06       		.uleb128 0x6
 2617 0250 69080000 		.4byte	.LASF71
 2618 0254 00       		.byte	0
 2619 0255 00       		.byte	0
 2620 0256 05       		.uleb128 0x5
 2621 0257 01       		.byte	0x1
 2622 0258 37000000 		.4byte	0x37
 2623 025c 05       		.byte	0x5
 2624 025d 79       		.byte	0x79
 2625 025e 93020000 		.4byte	0x293
 2626 0262 06       		.uleb128 0x6
 2627 0263 420A0000 		.4byte	.LASF72
 2628 0267 00       		.byte	0
 2629 0268 06       		.uleb128 0x6
 2630 0269 570A0000 		.4byte	.LASF73
 2631 026d 01       		.byte	0x1
 2632 026e 06       		.uleb128 0x6
 2633 026f 6C0A0000 		.4byte	.LASF74
 2634 0273 02       		.byte	0x2
 2635 0274 06       		.uleb128 0x6
 2636 0275 810A0000 		.4byte	.LASF75
 2637 0279 03       		.byte	0x3
 2638 027a 06       		.uleb128 0x6
 2639 027b 960A0000 		.4byte	.LASF76
 2640 027f 04       		.byte	0x4
 2641 0280 06       		.uleb128 0x6
 2642 0281 AB0A0000 		.4byte	.LASF77
 2643 0285 05       		.byte	0x5
 2644 0286 06       		.uleb128 0x6
 2645 0287 0C060000 		.4byte	.LASF78
 2646 028b 3F       		.byte	0x3f
 2647 028c 06       		.uleb128 0x6
 2648 028d 38070000 		.4byte	.LASF79
 2649 0291 00       		.byte	0
 2650 0292 00       		.byte	0
 2651 0293 05       		.uleb128 0x5
 2652 0294 01       		.byte	0x1
 2653 0295 37000000 		.4byte	0x37
 2654 0299 05       		.byte	0x5
 2655 029a 85       		.byte	0x85
 2656 029b B2020000 		.4byte	0x2b2
 2657 029f 06       		.uleb128 0x6
ARM GAS  C:\Users\Xwx47\AppData\Local\Temp\ccidPk4n.s 			page 68


 2658 02a0 15020000 		.4byte	.LASF80
 2659 02a4 01       		.byte	0x1
 2660 02a5 06       		.uleb128 0x6
 2661 02a6 230D0000 		.4byte	.LASF81
 2662 02aa 02       		.byte	0x2
 2663 02ab 06       		.uleb128 0x6
 2664 02ac 11070000 		.4byte	.LASF82
 2665 02b0 03       		.byte	0x3
 2666 02b1 00       		.byte	0
 2667 02b2 03       		.uleb128 0x3
 2668 02b3 390C0000 		.4byte	.LASF83
 2669 02b7 05       		.byte	0x5
 2670 02b8 89       		.byte	0x89
 2671 02b9 93020000 		.4byte	0x293
 2672 02bd 05       		.uleb128 0x5
 2673 02be 01       		.byte	0x1
 2674 02bf 37000000 		.4byte	0x37
 2675 02c3 05       		.byte	0x5
 2676 02c4 8C       		.byte	0x8c
 2677 02c5 D0020000 		.4byte	0x2d0
 2678 02c9 06       		.uleb128 0x6
 2679 02ca 70050000 		.4byte	.LASF84
 2680 02ce 04       		.byte	0x4
 2681 02cf 00       		.byte	0
 2682 02d0 05       		.uleb128 0x5
 2683 02d1 01       		.byte	0x1
 2684 02d2 37000000 		.4byte	0x37
 2685 02d6 05       		.byte	0x5
 2686 02d7 B9       		.byte	0xb9
 2687 02d8 2B030000 		.4byte	0x32b
 2688 02dc 06       		.uleb128 0x6
 2689 02dd D20B0000 		.4byte	.LASF85
 2690 02e1 03       		.byte	0x3
 2691 02e2 06       		.uleb128 0x6
 2692 02e3 C0030000 		.4byte	.LASF86
 2693 02e7 03       		.byte	0x3
 2694 02e8 06       		.uleb128 0x6
 2695 02e9 DB0E0000 		.4byte	.LASF87
 2696 02ed 04       		.byte	0x4
 2697 02ee 06       		.uleb128 0x6
 2698 02ef 4B0B0000 		.4byte	.LASF88
 2699 02f3 05       		.byte	0x5
 2700 02f4 06       		.uleb128 0x6
 2701 02f5 C50C0000 		.4byte	.LASF89
 2702 02f9 07       		.byte	0x7
 2703 02fa 06       		.uleb128 0x6
 2704 02fb BD010000 		.4byte	.LASF90
 2705 02ff 20       		.byte	0x20
 2706 0300 06       		.uleb128 0x6
 2707 0301 A1090000 		.4byte	.LASF91
 2708 0305 00       		.byte	0
 2709 0306 06       		.uleb128 0x6
 2710 0307 29020000 		.4byte	.LASF92
 2711 030b 08       		.byte	0x8
 2712 030c 06       		.uleb128 0x6
 2713 030d 0E0E0000 		.4byte	.LASF93
 2714 0311 01       		.byte	0x1
ARM GAS  C:\Users\Xwx47\AppData\Local\Temp\ccidPk4n.s 			page 69


 2715 0312 06       		.uleb128 0x6
 2716 0313 76060000 		.4byte	.LASF94
 2717 0317 06       		.byte	0x6
 2718 0318 06       		.uleb128 0x6
 2719 0319 9E060000 		.4byte	.LASF95
 2720 031d 04       		.byte	0x4
 2721 031e 06       		.uleb128 0x6
 2722 031f B3020000 		.4byte	.LASF96
 2723 0323 02       		.byte	0x2
 2724 0324 06       		.uleb128 0x6
 2725 0325 DB020000 		.4byte	.LASF97
 2726 0329 00       		.byte	0
 2727 032a 00       		.byte	0
 2728 032b 05       		.uleb128 0x5
 2729 032c 01       		.byte	0x1
 2730 032d 37000000 		.4byte	0x37
 2731 0331 05       		.byte	0x5
 2732 0332 CA       		.byte	0xca
 2733 0333 50030000 		.4byte	0x350
 2734 0337 06       		.uleb128 0x6
 2735 0338 6E010000 		.4byte	.LASF98
 2736 033c 40       		.byte	0x40
 2737 033d 06       		.uleb128 0x6
 2738 033e 15030000 		.4byte	.LASF99
 2739 0342 20       		.byte	0x20
 2740 0343 06       		.uleb128 0x6
 2741 0344 69000000 		.4byte	.LASF100
 2742 0348 10       		.byte	0x10
 2743 0349 06       		.uleb128 0x6
 2744 034a 7D080000 		.4byte	.LASF101
 2745 034e 40       		.byte	0x40
 2746 034f 00       		.byte	0
 2747 0350 05       		.uleb128 0x5
 2748 0351 01       		.byte	0x1
 2749 0352 37000000 		.4byte	0x37
 2750 0356 05       		.byte	0x5
 2751 0357 E3       		.byte	0xe3
 2752 0358 6F030000 		.4byte	0x36f
 2753 035c 06       		.uleb128 0x6
 2754 035d CA040000 		.4byte	.LASF102
 2755 0361 F0       		.byte	0xf0
 2756 0362 06       		.uleb128 0x6
 2757 0363 DC0C0000 		.4byte	.LASF103
 2758 0367 04       		.byte	0x4
 2759 0368 06       		.uleb128 0x6
 2760 0369 780B0000 		.4byte	.LASF104
 2761 036d 0F       		.byte	0xf
 2762 036e 00       		.byte	0
 2763 036f 05       		.uleb128 0x5
 2764 0370 01       		.byte	0x1
 2765 0371 37000000 		.4byte	0x37
 2766 0375 05       		.byte	0x5
 2767 0376 EA       		.byte	0xea
 2768 0377 82030000 		.4byte	0x382
 2769 037b 06       		.uleb128 0x6
 2770 037c 46080000 		.4byte	.LASF105
 2771 0380 00       		.byte	0
ARM GAS  C:\Users\Xwx47\AppData\Local\Temp\ccidPk4n.s 			page 70


 2772 0381 00       		.byte	0
 2773 0382 05       		.uleb128 0x5
 2774 0383 01       		.byte	0x1
 2775 0384 37000000 		.4byte	0x37
 2776 0388 05       		.byte	0x5
 2777 0389 F4       		.byte	0xf4
 2778 038a AD030000 		.4byte	0x3ad
 2779 038e 06       		.uleb128 0x6
 2780 038f 320B0000 		.4byte	.LASF106
 2781 0393 00       		.byte	0
 2782 0394 06       		.uleb128 0x6
 2783 0395 A50B0000 		.4byte	.LASF107
 2784 0399 01       		.byte	0x1
 2785 039a 06       		.uleb128 0x6
 2786 039b A7030000 		.4byte	.LASF108
 2787 039f 04       		.byte	0x4
 2788 03a0 06       		.uleb128 0x6
 2789 03a1 D80D0000 		.4byte	.LASF109
 2790 03a5 05       		.byte	0x5
 2791 03a6 06       		.uleb128 0x6
 2792 03a7 3D100000 		.4byte	.LASF110
 2793 03ab 06       		.byte	0x6
 2794 03ac 00       		.byte	0
 2795 03ad 05       		.uleb128 0x5
 2796 03ae 01       		.byte	0x1
 2797 03af 37000000 		.4byte	0x37
 2798 03b3 05       		.byte	0x5
 2799 03b4 FD       		.byte	0xfd
 2800 03b5 DE030000 		.4byte	0x3de
 2801 03b9 06       		.uleb128 0x6
 2802 03ba AF100000 		.4byte	.LASF111
 2803 03be 00       		.byte	0
 2804 03bf 06       		.uleb128 0x6
 2805 03c0 C0100000 		.4byte	.LASF112
 2806 03c4 01       		.byte	0x1
 2807 03c5 06       		.uleb128 0x6
 2808 03c6 00000000 		.4byte	.LASF113
 2809 03ca 02       		.byte	0x2
 2810 03cb 06       		.uleb128 0x6
 2811 03cc 11000000 		.4byte	.LASF114
 2812 03d0 03       		.byte	0x3
 2813 03d1 06       		.uleb128 0x6
 2814 03d2 22000000 		.4byte	.LASF115
 2815 03d6 04       		.byte	0x4
 2816 03d7 06       		.uleb128 0x6
 2817 03d8 33000000 		.4byte	.LASF116
 2818 03dc 05       		.byte	0x5
 2819 03dd 00       		.byte	0
 2820 03de 07       		.uleb128 0x7
 2821 03df 01       		.byte	0x1
 2822 03e0 37000000 		.4byte	0x37
 2823 03e4 05       		.byte	0x5
 2824 03e5 0701     		.2byte	0x107
 2825 03e7 FE030000 		.4byte	0x3fe
 2826 03eb 06       		.uleb128 0x6
 2827 03ec E60A0000 		.4byte	.LASF117
 2828 03f0 00       		.byte	0
ARM GAS  C:\Users\Xwx47\AppData\Local\Temp\ccidPk4n.s 			page 71


 2829 03f1 06       		.uleb128 0x6
 2830 03f2 52080000 		.4byte	.LASF118
 2831 03f6 01       		.byte	0x1
 2832 03f7 06       		.uleb128 0x6
 2833 03f8 D30A0000 		.4byte	.LASF119
 2834 03fc 02       		.byte	0x2
 2835 03fd 00       		.byte	0
 2836 03fe 08       		.uleb128 0x8
 2837 03ff 750C0000 		.4byte	.LASF126
 2838 0403 01       		.byte	0x1
 2839 0404 4D       		.byte	0x4d
 2840 0405 00000000 		.4byte	.LFB2
 2841 0409 54000000 		.4byte	.LFE2-.LFB2
 2842 040d 01       		.uleb128 0x1
 2843 040e 9C       		.byte	0x9c
 2844 040f 02050000 		.4byte	0x502
 2845 0413 09       		.uleb128 0x9
 2846 0414 0A000000 		.4byte	.LVL0
 2847 0418 72150000 		.4byte	0x1572
 2848 041c 2B040000 		.4byte	0x42b
 2849 0420 0A       		.uleb128 0xa
 2850 0421 01       		.uleb128 0x1
 2851 0422 50       		.byte	0x50
 2852 0423 01       		.uleb128 0x1
 2853 0424 30       		.byte	0x30
 2854 0425 0A       		.uleb128 0xa
 2855 0426 01       		.uleb128 0x1
 2856 0427 51       		.byte	0x51
 2857 0428 01       		.uleb128 0x1
 2858 0429 3B       		.byte	0x3b
 2859 042a 00       		.byte	0
 2860 042b 09       		.uleb128 0x9
 2861 042c 12000000 		.4byte	.LVL1
 2862 0430 72150000 		.4byte	0x1572
 2863 0434 43040000 		.4byte	0x443
 2864 0438 0A       		.uleb128 0xa
 2865 0439 01       		.uleb128 0x1
 2866 043a 50       		.byte	0x50
 2867 043b 01       		.uleb128 0x1
 2868 043c 31       		.byte	0x31
 2869 043d 0A       		.uleb128 0xa
 2870 043e 01       		.uleb128 0x1
 2871 043f 51       		.byte	0x51
 2872 0440 01       		.uleb128 0x1
 2873 0441 30       		.byte	0x30
 2874 0442 00       		.byte	0
 2875 0443 09       		.uleb128 0x9
 2876 0444 1A000000 		.4byte	.LVL2
 2877 0448 72150000 		.4byte	0x1572
 2878 044c 5B040000 		.4byte	0x45b
 2879 0450 0A       		.uleb128 0xa
 2880 0451 01       		.uleb128 0x1
 2881 0452 50       		.byte	0x50
 2882 0453 01       		.uleb128 0x1
 2883 0454 32       		.byte	0x32
 2884 0455 0A       		.uleb128 0xa
 2885 0456 01       		.uleb128 0x1
ARM GAS  C:\Users\Xwx47\AppData\Local\Temp\ccidPk4n.s 			page 72


 2886 0457 51       		.byte	0x51
 2887 0458 01       		.uleb128 0x1
 2888 0459 31       		.byte	0x31
 2889 045a 00       		.byte	0
 2890 045b 09       		.uleb128 0x9
 2891 045c 22000000 		.4byte	.LVL3
 2892 0460 72150000 		.4byte	0x1572
 2893 0464 73040000 		.4byte	0x473
 2894 0468 0A       		.uleb128 0xa
 2895 0469 01       		.uleb128 0x1
 2896 046a 50       		.byte	0x50
 2897 046b 01       		.uleb128 0x1
 2898 046c 33       		.byte	0x33
 2899 046d 0A       		.uleb128 0xa
 2900 046e 01       		.uleb128 0x1
 2901 046f 51       		.byte	0x51
 2902 0470 01       		.uleb128 0x1
 2903 0471 33       		.byte	0x33
 2904 0472 00       		.byte	0
 2905 0473 09       		.uleb128 0x9
 2906 0474 2A000000 		.4byte	.LVL4
 2907 0478 72150000 		.4byte	0x1572
 2908 047c 8B040000 		.4byte	0x48b
 2909 0480 0A       		.uleb128 0xa
 2910 0481 01       		.uleb128 0x1
 2911 0482 50       		.byte	0x50
 2912 0483 01       		.uleb128 0x1
 2913 0484 34       		.byte	0x34
 2914 0485 0A       		.uleb128 0xa
 2915 0486 01       		.uleb128 0x1
 2916 0487 51       		.byte	0x51
 2917 0488 01       		.uleb128 0x1
 2918 0489 33       		.byte	0x33
 2919 048a 00       		.byte	0
 2920 048b 09       		.uleb128 0x9
 2921 048c 32000000 		.4byte	.LVL5
 2922 0490 72150000 		.4byte	0x1572
 2923 0494 A4040000 		.4byte	0x4a4
 2924 0498 0A       		.uleb128 0xa
 2925 0499 01       		.uleb128 0x1
 2926 049a 50       		.byte	0x50
 2927 049b 01       		.uleb128 0x1
 2928 049c 35       		.byte	0x35
 2929 049d 0A       		.uleb128 0xa
 2930 049e 01       		.uleb128 0x1
 2931 049f 51       		.byte	0x51
 2932 04a0 02       		.uleb128 0x2
 2933 04a1 08       		.byte	0x8
 2934 04a2 4B       		.byte	0x4b
 2935 04a3 00       		.byte	0
 2936 04a4 09       		.uleb128 0x9
 2937 04a5 3A000000 		.4byte	.LVL6
 2938 04a9 72150000 		.4byte	0x1572
 2939 04ad BD040000 		.4byte	0x4bd
 2940 04b1 0A       		.uleb128 0xa
 2941 04b2 01       		.uleb128 0x1
 2942 04b3 50       		.byte	0x50
ARM GAS  C:\Users\Xwx47\AppData\Local\Temp\ccidPk4n.s 			page 73


 2943 04b4 01       		.uleb128 0x1
 2944 04b5 36       		.byte	0x36
 2945 04b6 0A       		.uleb128 0xa
 2946 04b7 01       		.uleb128 0x1
 2947 04b8 51       		.byte	0x51
 2948 04b9 02       		.uleb128 0x2
 2949 04ba 08       		.byte	0x8
 2950 04bb 26       		.byte	0x26
 2951 04bc 00       		.byte	0
 2952 04bd 09       		.uleb128 0x9
 2953 04be 42000000 		.4byte	.LVL7
 2954 04c2 72150000 		.4byte	0x1572
 2955 04c6 D5040000 		.4byte	0x4d5
 2956 04ca 0A       		.uleb128 0xa
 2957 04cb 01       		.uleb128 0x1
 2958 04cc 50       		.byte	0x50
 2959 04cd 01       		.uleb128 0x1
 2960 04ce 4C       		.byte	0x4c
 2961 04cf 0A       		.uleb128 0xa
 2962 04d0 01       		.uleb128 0x1
 2963 04d1 51       		.byte	0x51
 2964 04d2 01       		.uleb128 0x1
 2965 04d3 30       		.byte	0x30
 2966 04d4 00       		.byte	0
 2967 04d5 09       		.uleb128 0x9
 2968 04d6 4A000000 		.4byte	.LVL8
 2969 04da 72150000 		.4byte	0x1572
 2970 04de ED040000 		.4byte	0x4ed
 2971 04e2 0A       		.uleb128 0xa
 2972 04e3 01       		.uleb128 0x1
 2973 04e4 50       		.byte	0x50
 2974 04e5 01       		.uleb128 0x1
 2975 04e6 4D       		.byte	0x4d
 2976 04e7 0A       		.uleb128 0xa
 2977 04e8 01       		.uleb128 0x1
 2978 04e9 51       		.byte	0x51
 2979 04ea 01       		.uleb128 0x1
 2980 04eb 30       		.byte	0x30
 2981 04ec 00       		.byte	0
 2982 04ed 0B       		.uleb128 0xb
 2983 04ee 52000000 		.4byte	.LVL9
 2984 04f2 72150000 		.4byte	0x1572
 2985 04f6 0A       		.uleb128 0xa
 2986 04f7 01       		.uleb128 0x1
 2987 04f8 50       		.byte	0x50
 2988 04f9 01       		.uleb128 0x1
 2989 04fa 41       		.byte	0x41
 2990 04fb 0A       		.uleb128 0xa
 2991 04fc 01       		.uleb128 0x1
 2992 04fd 51       		.byte	0x51
 2993 04fe 01       		.uleb128 0x1
 2994 04ff 31       		.byte	0x31
 2995 0500 00       		.byte	0
 2996 0501 00       		.byte	0
 2997 0502 0C       		.uleb128 0xc
 2998 0503 010E0000 		.4byte	.LASF120
 2999 0507 01       		.byte	0x1
ARM GAS  C:\Users\Xwx47\AppData\Local\Temp\ccidPk4n.s 			page 74


 3000 0508 97       		.byte	0x97
 3001 0509 00000000 		.4byte	.LFB3
 3002 050d 02000000 		.4byte	.LFE3-.LFB3
 3003 0511 01       		.uleb128 0x1
 3004 0512 9C       		.byte	0x9c
 3005 0513 0C       		.uleb128 0xc
 3006 0514 BD0B0000 		.4byte	.LASF121
 3007 0518 01       		.byte	0x1
 3008 0519 A5       		.byte	0xa5
 3009 051a 00000000 		.4byte	.LFB4
 3010 051e 02000000 		.4byte	.LFE4-.LFB4
 3011 0522 01       		.uleb128 0x1
 3012 0523 9C       		.byte	0x9c
 3013 0524 0C       		.uleb128 0xc
 3014 0525 55010000 		.4byte	.LASF122
 3015 0529 01       		.byte	0x1
 3016 052a B3       		.byte	0xb3
 3017 052b 00000000 		.4byte	.LFB5
 3018 052f 02000000 		.4byte	.LFE5-.LFB5
 3019 0533 01       		.uleb128 0x1
 3020 0534 9C       		.byte	0x9c
 3021 0535 0C       		.uleb128 0xc
 3022 0536 9A030000 		.4byte	.LASF123
 3023 053a 01       		.byte	0x1
 3024 053b C1       		.byte	0xc1
 3025 053c 00000000 		.4byte	.LFB6
 3026 0540 02000000 		.4byte	.LFE6-.LFB6
 3027 0544 01       		.uleb128 0x1
 3028 0545 9C       		.byte	0x9c
 3029 0546 0C       		.uleb128 0xc
 3030 0547 E50B0000 		.4byte	.LASF124
 3031 054b 01       		.byte	0x1
 3032 054c CF       		.byte	0xcf
 3033 054d 00000000 		.4byte	.LFB7
 3034 0551 02000000 		.4byte	.LFE7-.LFB7
 3035 0555 01       		.uleb128 0x1
 3036 0556 9C       		.byte	0x9c
 3037 0557 0C       		.uleb128 0xc
 3038 0558 84020000 		.4byte	.LASF125
 3039 055c 01       		.byte	0x1
 3040 055d DD       		.byte	0xdd
 3041 055e 00000000 		.4byte	.LFB8
 3042 0562 02000000 		.4byte	.LFE8-.LFB8
 3043 0566 01       		.uleb128 0x1
 3044 0567 9C       		.byte	0x9c
 3045 0568 08       		.uleb128 0x8
 3046 0569 9C040000 		.4byte	.LASF127
 3047 056d 01       		.byte	0x1
 3048 056e FE       		.byte	0xfe
 3049 056f 00000000 		.4byte	.LFB10
 3050 0573 0C000000 		.4byte	.LFE10-.LFB10
 3051 0577 01       		.uleb128 0x1
 3052 0578 9C       		.byte	0x9c
 3053 0579 92050000 		.4byte	0x592
 3054 057d 0B       		.uleb128 0xb
 3055 057e 0A000000 		.4byte	.LVL10
 3056 0582 7D150000 		.4byte	0x157d
ARM GAS  C:\Users\Xwx47\AppData\Local\Temp\ccidPk4n.s 			page 75


 3057 0586 0A       		.uleb128 0xa
 3058 0587 01       		.uleb128 0x1
 3059 0588 50       		.byte	0x50
 3060 0589 01       		.uleb128 0x1
 3061 058a 30       		.byte	0x30
 3062 058b 0A       		.uleb128 0xa
 3063 058c 01       		.uleb128 0x1
 3064 058d 51       		.byte	0x51
 3065 058e 01       		.uleb128 0x1
 3066 058f 31       		.byte	0x31
 3067 0590 00       		.byte	0
 3068 0591 00       		.byte	0
 3069 0592 0D       		.uleb128 0xd
 3070 0593 E1000000 		.4byte	.LASF128
 3071 0597 01       		.byte	0x1
 3072 0598 3501     		.2byte	0x135
 3073 059a 00000000 		.4byte	.LFB13
 3074 059e 0C000000 		.4byte	.LFE13-.LFB13
 3075 05a2 01       		.uleb128 0x1
 3076 05a3 9C       		.byte	0x9c
 3077 05a4 BD050000 		.4byte	0x5bd
 3078 05a8 0B       		.uleb128 0xb
 3079 05a9 0A000000 		.4byte	.LVL11
 3080 05ad 88150000 		.4byte	0x1588
 3081 05b1 0A       		.uleb128 0xa
 3082 05b2 01       		.uleb128 0x1
 3083 05b3 50       		.byte	0x50
 3084 05b4 01       		.uleb128 0x1
 3085 05b5 30       		.byte	0x30
 3086 05b6 0A       		.uleb128 0xa
 3087 05b7 01       		.uleb128 0x1
 3088 05b8 51       		.byte	0x51
 3089 05b9 01       		.uleb128 0x1
 3090 05ba 30       		.byte	0x30
 3091 05bb 00       		.byte	0
 3092 05bc 00       		.byte	0
 3093 05bd 0D       		.uleb128 0xd
 3094 05be 31060000 		.4byte	.LASF129
 3095 05c2 01       		.byte	0x1
 3096 05c3 4501     		.2byte	0x145
 3097 05c5 00000000 		.4byte	.LFB14
 3098 05c9 0C000000 		.4byte	.LFE14-.LFB14
 3099 05cd 01       		.uleb128 0x1
 3100 05ce 9C       		.byte	0x9c
 3101 05cf E8050000 		.4byte	0x5e8
 3102 05d3 0B       		.uleb128 0xb
 3103 05d4 0A000000 		.4byte	.LVL12
 3104 05d8 7D150000 		.4byte	0x157d
 3105 05dc 0A       		.uleb128 0xa
 3106 05dd 01       		.uleb128 0x1
 3107 05de 50       		.byte	0x50
 3108 05df 01       		.uleb128 0x1
 3109 05e0 30       		.byte	0x30
 3110 05e1 0A       		.uleb128 0xa
 3111 05e2 01       		.uleb128 0x1
 3112 05e3 51       		.byte	0x51
 3113 05e4 01       		.uleb128 0x1
ARM GAS  C:\Users\Xwx47\AppData\Local\Temp\ccidPk4n.s 			page 76


 3114 05e5 30       		.byte	0x30
 3115 05e6 00       		.byte	0
 3116 05e7 00       		.byte	0
 3117 05e8 08       		.uleb128 0x8
 3118 05e9 6A0B0000 		.4byte	.LASF130
 3119 05ed 01       		.byte	0x1
 3120 05ee EA       		.byte	0xea
 3121 05ef 00000000 		.4byte	.LFB9
 3122 05f3 12000000 		.4byte	.LFE9-.LFB9
 3123 05f7 01       		.uleb128 0x1
 3124 05f8 9C       		.byte	0x9c
 3125 05f9 1F060000 		.4byte	0x61f
 3126 05fd 0E       		.uleb128 0xe
 3127 05fe 54020000 		.4byte	.LASF132
 3128 0602 01       		.byte	0x1
 3129 0603 EA       		.byte	0xea
 3130 0604 1F060000 		.4byte	0x61f
 3131 0608 00000000 		.4byte	.LLST0
 3132 060c 0F       		.uleb128 0xf
 3133 060d 0A000000 		.4byte	.LVL14
 3134 0611 BD050000 		.4byte	0x5bd
 3135 0615 0F       		.uleb128 0xf
 3136 0616 10000000 		.4byte	.LVL16
 3137 061a 92050000 		.4byte	0x592
 3138 061e 00       		.byte	0
 3139 061f 10       		.uleb128 0x10
 3140 0620 AD010000 		.4byte	0x1ad
 3141 0624 0D       		.uleb128 0xd
 3142 0625 91010000 		.4byte	.LASF131
 3143 0629 01       		.byte	0x1
 3144 062a 5101     		.2byte	0x151
 3145 062c 00000000 		.4byte	.LFB15
 3146 0630 0C000000 		.4byte	.LFE15-.LFB15
 3147 0634 01       		.uleb128 0x1
 3148 0635 9C       		.byte	0x9c
 3149 0636 5A060000 		.4byte	0x65a
 3150 063a 11       		.uleb128 0x11
 3151 063b 9B050000 		.4byte	.LASF133
 3152 063f 01       		.byte	0x1
 3153 0640 5101     		.2byte	0x151
 3154 0642 5A060000 		.4byte	0x65a
 3155 0646 3A000000 		.4byte	.LLST1
 3156 064a 0B       		.uleb128 0xb
 3157 064b 0A000000 		.4byte	.LVL19
 3158 064f 88150000 		.4byte	0x1588
 3159 0653 0A       		.uleb128 0xa
 3160 0654 01       		.uleb128 0x1
 3161 0655 50       		.byte	0x50
 3162 0656 01       		.uleb128 0x1
 3163 0657 31       		.byte	0x31
 3164 0658 00       		.byte	0
 3165 0659 00       		.byte	0
 3166 065a 10       		.uleb128 0x10
 3167 065b 89010000 		.4byte	0x189
 3168 065f 0D       		.uleb128 0xd
 3169 0660 CC000000 		.4byte	.LASF134
 3170 0664 01       		.byte	0x1
ARM GAS  C:\Users\Xwx47\AppData\Local\Temp\ccidPk4n.s 			page 77


 3171 0665 5D01     		.2byte	0x15d
 3172 0667 00000000 		.4byte	.LFB16
 3173 066b 0C000000 		.4byte	.LFE16-.LFB16
 3174 066f 01       		.uleb128 0x1
 3175 0670 9C       		.byte	0x9c
 3176 0671 95060000 		.4byte	0x695
 3177 0675 11       		.uleb128 0x11
 3178 0676 9B050000 		.4byte	.LASF133
 3179 067a 01       		.byte	0x1
 3180 067b 5D01     		.2byte	0x15d
 3181 067d 5A060000 		.4byte	0x65a
 3182 0681 5B000000 		.4byte	.LLST2
 3183 0685 0B       		.uleb128 0xb
 3184 0686 0A000000 		.4byte	.LVL22
 3185 068a 7D150000 		.4byte	0x157d
 3186 068e 0A       		.uleb128 0xa
 3187 068f 01       		.uleb128 0x1
 3188 0690 50       		.byte	0x50
 3189 0691 01       		.uleb128 0x1
 3190 0692 31       		.byte	0x31
 3191 0693 00       		.byte	0
 3192 0694 00       		.byte	0
 3193 0695 0D       		.uleb128 0xd
 3194 0696 E1060000 		.4byte	.LASF135
 3195 069a 01       		.byte	0x1
 3196 069b 6901     		.2byte	0x169
 3197 069d 00000000 		.4byte	.LFB17
 3198 06a1 12000000 		.4byte	.LFE17-.LFB17
 3199 06a5 01       		.uleb128 0x1
 3200 06a6 9C       		.byte	0x9c
 3201 06a7 CB060000 		.4byte	0x6cb
 3202 06ab 11       		.uleb128 0x11
 3203 06ac 620B0000 		.4byte	.LASF136
 3204 06b0 01       		.byte	0x1
 3205 06b1 6901     		.2byte	0x169
 3206 06b3 76000000 		.4byte	0x76
 3207 06b7 7C000000 		.4byte	.LLST3
 3208 06bb 0B       		.uleb128 0xb
 3209 06bc 10000000 		.4byte	.LVL25
 3210 06c0 72150000 		.4byte	0x1572
 3211 06c4 0A       		.uleb128 0xa
 3212 06c5 01       		.uleb128 0x1
 3213 06c6 50       		.byte	0x50
 3214 06c7 01       		.uleb128 0x1
 3215 06c8 35       		.byte	0x35
 3216 06c9 00       		.byte	0
 3217 06ca 00       		.byte	0
 3218 06cb 0D       		.uleb128 0xd
 3219 06cc 98020000 		.4byte	.LASF137
 3220 06d0 01       		.byte	0x1
 3221 06d1 7A01     		.2byte	0x17a
 3222 06d3 00000000 		.4byte	.LFB18
 3223 06d7 0C000000 		.4byte	.LFE18-.LFB18
 3224 06db 01       		.uleb128 0x1
 3225 06dc 9C       		.byte	0x9c
 3226 06dd 01070000 		.4byte	0x701
 3227 06e1 11       		.uleb128 0x11
ARM GAS  C:\Users\Xwx47\AppData\Local\Temp\ccidPk4n.s 			page 78


 3228 06e2 F80C0000 		.4byte	.LASF138
 3229 06e6 01       		.byte	0x1
 3230 06e7 7B01     		.2byte	0x17b
 3231 06e9 01070000 		.4byte	0x701
 3232 06ed 9A000000 		.4byte	.LLST4
 3233 06f1 0B       		.uleb128 0xb
 3234 06f2 0A000000 		.4byte	.LVL28
 3235 06f6 72150000 		.4byte	0x1572
 3236 06fa 0A       		.uleb128 0xa
 3237 06fb 01       		.uleb128 0x1
 3238 06fc 50       		.byte	0x50
 3239 06fd 01       		.uleb128 0x1
 3240 06fe 33       		.byte	0x33
 3241 06ff 00       		.byte	0
 3242 0700 00       		.byte	0
 3243 0701 10       		.uleb128 0x10
 3244 0702 B2020000 		.4byte	0x2b2
 3245 0706 12       		.uleb128 0x12
 3246 0707 DC080000 		.4byte	.LASF159
 3247 070b 01       		.byte	0x1
 3248 070c 8701     		.2byte	0x187
 3249 070e 76000000 		.4byte	0x76
 3250 0712 00000000 		.4byte	.LFB19
 3251 0716 24000000 		.4byte	.LFE19-.LFB19
 3252 071a 01       		.uleb128 0x1
 3253 071b 9C       		.byte	0x9c
 3254 071c 40070000 		.4byte	0x740
 3255 0720 13       		.uleb128 0x13
 3256 0721 72656700 		.ascii	"reg\000"
 3257 0725 01       		.byte	0x1
 3258 0726 8901     		.2byte	0x189
 3259 0728 76000000 		.4byte	0x76
 3260 072c BB000000 		.4byte	.LLST5
 3261 0730 0B       		.uleb128 0xb
 3262 0731 08000000 		.4byte	.LVL29
 3263 0735 93150000 		.4byte	0x1593
 3264 0739 0A       		.uleb128 0xa
 3265 073a 01       		.uleb128 0x1
 3266 073b 50       		.byte	0x50
 3267 073c 01       		.uleb128 0x1
 3268 073d 33       		.byte	0x33
 3269 073e 00       		.byte	0
 3270 073f 00       		.byte	0
 3271 0740 0D       		.uleb128 0xd
 3272 0741 80000000 		.4byte	.LASF139
 3273 0745 01       		.byte	0x1
 3274 0746 A501     		.2byte	0x1a5
 3275 0748 00000000 		.4byte	.LFB20
 3276 074c 18000000 		.4byte	.LFE20-.LFB20
 3277 0750 01       		.uleb128 0x1
 3278 0751 9C       		.byte	0x9c
 3279 0752 8D070000 		.4byte	0x78d
 3280 0756 11       		.uleb128 0x11
 3281 0757 BA0E0000 		.4byte	.LASF140
 3282 075b 01       		.byte	0x1
 3283 075c A501     		.2byte	0x1a5
 3284 075e 8D070000 		.4byte	0x78d
ARM GAS  C:\Users\Xwx47\AppData\Local\Temp\ccidPk4n.s 			page 79


 3285 0762 FC000000 		.4byte	.LLST6
 3286 0766 11       		.uleb128 0x11
 3287 0767 060A0000 		.4byte	.LASF141
 3288 076b 01       		.byte	0x1
 3289 076c A501     		.2byte	0x1a5
 3290 076e 96000000 		.4byte	0x96
 3291 0772 28010000 		.4byte	.LLST7
 3292 0776 0B       		.uleb128 0xb
 3293 0777 16000000 		.4byte	.LVL41
 3294 077b 9E150000 		.4byte	0x159e
 3295 077f 0A       		.uleb128 0xa
 3296 0780 01       		.uleb128 0x1
 3297 0781 50       		.byte	0x50
 3298 0782 01       		.uleb128 0x1
 3299 0783 3A       		.byte	0x3a
 3300 0784 0A       		.uleb128 0xa
 3301 0785 01       		.uleb128 0x1
 3302 0786 51       		.byte	0x51
 3303 0787 03       		.uleb128 0x3
 3304 0788 F3       		.byte	0xf3
 3305 0789 01       		.uleb128 0x1
 3306 078a 50       		.byte	0x50
 3307 078b 00       		.byte	0
 3308 078c 00       		.byte	0
 3309 078d 14       		.uleb128 0x14
 3310 078e 04       		.byte	0x4
 3311 078f 93070000 		.4byte	0x793
 3312 0793 10       		.uleb128 0x10
 3313 0794 76000000 		.4byte	0x76
 3314 0798 0D       		.uleb128 0xd
 3315 0799 960E0000 		.4byte	.LASF142
 3316 079d 01       		.byte	0x1
 3317 079e BA01     		.2byte	0x1ba
 3318 07a0 00000000 		.4byte	.LFB21
 3319 07a4 16000000 		.4byte	.LFE21-.LFB21
 3320 07a8 01       		.uleb128 0x1
 3321 07a9 9C       		.byte	0x9c
 3322 07aa EC070000 		.4byte	0x7ec
 3323 07ae 11       		.uleb128 0x11
 3324 07af BA0E0000 		.4byte	.LASF140
 3325 07b3 01       		.byte	0x1
 3326 07b4 BA01     		.2byte	0x1ba
 3327 07b6 EC070000 		.4byte	0x7ec
 3328 07ba 51010000 		.4byte	.LLST8
 3329 07be 11       		.uleb128 0x11
 3330 07bf 060A0000 		.4byte	.LASF141
 3331 07c3 01       		.byte	0x1
 3332 07c4 BA01     		.2byte	0x1ba
 3333 07c6 96000000 		.4byte	0x96
 3334 07ca 7D010000 		.4byte	.LLST9
 3335 07ce 0B       		.uleb128 0xb
 3336 07cf 14000000 		.4byte	.LVL45
 3337 07d3 A9150000 		.4byte	0x15a9
 3338 07d7 0A       		.uleb128 0xa
 3339 07d8 01       		.uleb128 0x1
 3340 07d9 50       		.byte	0x50
 3341 07da 01       		.uleb128 0x1
ARM GAS  C:\Users\Xwx47\AppData\Local\Temp\ccidPk4n.s 			page 80


 3342 07db 3A       		.byte	0x3a
 3343 07dc 0A       		.uleb128 0xa
 3344 07dd 01       		.uleb128 0x1
 3345 07de 51       		.byte	0x51
 3346 07df 03       		.uleb128 0x3
 3347 07e0 F3       		.byte	0xf3
 3348 07e1 01       		.uleb128 0x1
 3349 07e2 50       		.byte	0x50
 3350 07e3 0A       		.uleb128 0xa
 3351 07e4 01       		.uleb128 0x1
 3352 07e5 52       		.byte	0x52
 3353 07e6 03       		.uleb128 0x3
 3354 07e7 F3       		.byte	0xf3
 3355 07e8 01       		.uleb128 0x1
 3356 07e9 51       		.byte	0x51
 3357 07ea 00       		.byte	0
 3358 07eb 00       		.byte	0
 3359 07ec 14       		.uleb128 0x14
 3360 07ed 04       		.byte	0x4
 3361 07ee 76000000 		.4byte	0x76
 3362 07f2 0D       		.uleb128 0xd
 3363 07f3 A5010000 		.4byte	.LASF143
 3364 07f7 01       		.byte	0x1
 3365 07f8 D101     		.2byte	0x1d1
 3366 07fa 00000000 		.4byte	.LFB22
 3367 07fe 18000000 		.4byte	.LFE22-.LFB22
 3368 0802 01       		.uleb128 0x1
 3369 0803 9C       		.byte	0x9c
 3370 0804 3F080000 		.4byte	0x83f
 3371 0808 11       		.uleb128 0x11
 3372 0809 BA0E0000 		.4byte	.LASF140
 3373 080d 01       		.byte	0x1
 3374 080e D101     		.2byte	0x1d1
 3375 0810 8D070000 		.4byte	0x78d
 3376 0814 A9010000 		.4byte	.LLST10
 3377 0818 11       		.uleb128 0x11
 3378 0819 060A0000 		.4byte	.LASF141
 3379 081d 01       		.byte	0x1
 3380 081e D101     		.2byte	0x1d1
 3381 0820 96000000 		.4byte	0x96
 3382 0824 D5010000 		.4byte	.LLST11
 3383 0828 0B       		.uleb128 0xb
 3384 0829 16000000 		.4byte	.LVL50
 3385 082d 9E150000 		.4byte	0x159e
 3386 0831 0A       		.uleb128 0xa
 3387 0832 01       		.uleb128 0x1
 3388 0833 50       		.byte	0x50
 3389 0834 01       		.uleb128 0x1
 3390 0835 3A       		.byte	0x3a
 3391 0836 0A       		.uleb128 0xa
 3392 0837 01       		.uleb128 0x1
 3393 0838 51       		.byte	0x51
 3394 0839 03       		.uleb128 0x3
 3395 083a F3       		.byte	0xf3
 3396 083b 01       		.uleb128 0x1
 3397 083c 50       		.byte	0x50
 3398 083d 00       		.byte	0
ARM GAS  C:\Users\Xwx47\AppData\Local\Temp\ccidPk4n.s 			page 81


 3399 083e 00       		.byte	0
 3400 083f 0D       		.uleb128 0xd
 3401 0840 6C020000 		.4byte	.LASF144
 3402 0844 01       		.byte	0x1
 3403 0845 E601     		.2byte	0x1e6
 3404 0847 00000000 		.4byte	.LFB23
 3405 084b 16000000 		.4byte	.LFE23-.LFB23
 3406 084f 01       		.uleb128 0x1
 3407 0850 9C       		.byte	0x9c
 3408 0851 93080000 		.4byte	0x893
 3409 0855 11       		.uleb128 0x11
 3410 0856 BA0E0000 		.4byte	.LASF140
 3411 085a 01       		.byte	0x1
 3412 085b E601     		.2byte	0x1e6
 3413 085d EC070000 		.4byte	0x7ec
 3414 0861 FE010000 		.4byte	.LLST12
 3415 0865 11       		.uleb128 0x11
 3416 0866 060A0000 		.4byte	.LASF141
 3417 086a 01       		.byte	0x1
 3418 086b E601     		.2byte	0x1e6
 3419 086d 96000000 		.4byte	0x96
 3420 0871 2A020000 		.4byte	.LLST13
 3421 0875 0B       		.uleb128 0xb
 3422 0876 14000000 		.4byte	.LVL54
 3423 087a A9150000 		.4byte	0x15a9
 3424 087e 0A       		.uleb128 0xa
 3425 087f 01       		.uleb128 0x1
 3426 0880 50       		.byte	0x50
 3427 0881 01       		.uleb128 0x1
 3428 0882 3A       		.byte	0x3a
 3429 0883 0A       		.uleb128 0xa
 3430 0884 01       		.uleb128 0x1
 3431 0885 51       		.byte	0x51
 3432 0886 03       		.uleb128 0x3
 3433 0887 F3       		.byte	0xf3
 3434 0888 01       		.uleb128 0x1
 3435 0889 50       		.byte	0x50
 3436 088a 0A       		.uleb128 0xa
 3437 088b 01       		.uleb128 0x1
 3438 088c 52       		.byte	0x52
 3439 088d 03       		.uleb128 0x3
 3440 088e F3       		.byte	0xf3
 3441 088f 01       		.uleb128 0x1
 3442 0890 51       		.byte	0x51
 3443 0891 00       		.byte	0
 3444 0892 00       		.byte	0
 3445 0893 0D       		.uleb128 0xd
 3446 0894 D1090000 		.4byte	.LASF145
 3447 0898 01       		.byte	0x1
 3448 0899 FD01     		.2byte	0x1fd
 3449 089b 00000000 		.4byte	.LFB24
 3450 089f 18000000 		.4byte	.LFE24-.LFB24
 3451 08a3 01       		.uleb128 0x1
 3452 08a4 9C       		.byte	0x9c
 3453 08a5 E0080000 		.4byte	0x8e0
 3454 08a9 11       		.uleb128 0x11
 3455 08aa BA0E0000 		.4byte	.LASF140
ARM GAS  C:\Users\Xwx47\AppData\Local\Temp\ccidPk4n.s 			page 82


 3456 08ae 01       		.byte	0x1
 3457 08af FD01     		.2byte	0x1fd
 3458 08b1 8D070000 		.4byte	0x78d
 3459 08b5 56020000 		.4byte	.LLST14
 3460 08b9 11       		.uleb128 0x11
 3461 08ba 060A0000 		.4byte	.LASF141
 3462 08be 01       		.byte	0x1
 3463 08bf FD01     		.2byte	0x1fd
 3464 08c1 96000000 		.4byte	0x96
 3465 08c5 82020000 		.4byte	.LLST15
 3466 08c9 0B       		.uleb128 0xb
 3467 08ca 16000000 		.4byte	.LVL59
 3468 08ce 9E150000 		.4byte	0x159e
 3469 08d2 0A       		.uleb128 0xa
 3470 08d3 01       		.uleb128 0x1
 3471 08d4 50       		.byte	0x50
 3472 08d5 01       		.uleb128 0x1
 3473 08d6 3B       		.byte	0x3b
 3474 08d7 0A       		.uleb128 0xa
 3475 08d8 01       		.uleb128 0x1
 3476 08d9 51       		.byte	0x51
 3477 08da 03       		.uleb128 0x3
 3478 08db F3       		.byte	0xf3
 3479 08dc 01       		.uleb128 0x1
 3480 08dd 50       		.byte	0x50
 3481 08de 00       		.byte	0
 3482 08df 00       		.byte	0
 3483 08e0 0D       		.uleb128 0xd
 3484 08e1 89090000 		.4byte	.LASF146
 3485 08e5 01       		.byte	0x1
 3486 08e6 1202     		.2byte	0x212
 3487 08e8 00000000 		.4byte	.LFB25
 3488 08ec 16000000 		.4byte	.LFE25-.LFB25
 3489 08f0 01       		.uleb128 0x1
 3490 08f1 9C       		.byte	0x9c
 3491 08f2 34090000 		.4byte	0x934
 3492 08f6 11       		.uleb128 0x11
 3493 08f7 BA0E0000 		.4byte	.LASF140
 3494 08fb 01       		.byte	0x1
 3495 08fc 1202     		.2byte	0x212
 3496 08fe EC070000 		.4byte	0x7ec
 3497 0902 AB020000 		.4byte	.LLST16
 3498 0906 11       		.uleb128 0x11
 3499 0907 060A0000 		.4byte	.LASF141
 3500 090b 01       		.byte	0x1
 3501 090c 1202     		.2byte	0x212
 3502 090e 96000000 		.4byte	0x96
 3503 0912 D7020000 		.4byte	.LLST17
 3504 0916 0B       		.uleb128 0xb
 3505 0917 14000000 		.4byte	.LVL63
 3506 091b A9150000 		.4byte	0x15a9
 3507 091f 0A       		.uleb128 0xa
 3508 0920 01       		.uleb128 0x1
 3509 0921 50       		.byte	0x50
 3510 0922 01       		.uleb128 0x1
 3511 0923 3B       		.byte	0x3b
 3512 0924 0A       		.uleb128 0xa
ARM GAS  C:\Users\Xwx47\AppData\Local\Temp\ccidPk4n.s 			page 83


 3513 0925 01       		.uleb128 0x1
 3514 0926 51       		.byte	0x51
 3515 0927 03       		.uleb128 0x3
 3516 0928 F3       		.byte	0xf3
 3517 0929 01       		.uleb128 0x1
 3518 092a 50       		.byte	0x50
 3519 092b 0A       		.uleb128 0xa
 3520 092c 01       		.uleb128 0x1
 3521 092d 52       		.byte	0x52
 3522 092e 03       		.uleb128 0x3
 3523 092f F3       		.byte	0xf3
 3524 0930 01       		.uleb128 0x1
 3525 0931 51       		.byte	0x51
 3526 0932 00       		.byte	0
 3527 0933 00       		.byte	0
 3528 0934 0D       		.uleb128 0xd
 3529 0935 7E0E0000 		.4byte	.LASF147
 3530 0939 01       		.byte	0x1
 3531 093a 2802     		.2byte	0x228
 3532 093c 00000000 		.4byte	.LFB26
 3533 0940 0C000000 		.4byte	.LFE26-.LFB26
 3534 0944 01       		.uleb128 0x1
 3535 0945 9C       		.byte	0x9c
 3536 0946 6A090000 		.4byte	0x96a
 3537 094a 11       		.uleb128 0x11
 3538 094b D3080000 		.4byte	.LASF148
 3539 094f 01       		.byte	0x1
 3540 0950 2802     		.2byte	0x228
 3541 0952 93070000 		.4byte	0x793
 3542 0956 03030000 		.4byte	.LLST18
 3543 095a 0B       		.uleb128 0xb
 3544 095b 0A000000 		.4byte	.LVL66
 3545 095f 72150000 		.4byte	0x1572
 3546 0963 0A       		.uleb128 0xa
 3547 0964 01       		.uleb128 0x1
 3548 0965 50       		.byte	0x50
 3549 0966 01       		.uleb128 0x1
 3550 0967 3C       		.byte	0x3c
 3551 0968 00       		.byte	0
 3552 0969 00       		.byte	0
 3553 096a 0D       		.uleb128 0xd
 3554 096b C00D0000 		.4byte	.LASF149
 3555 096f 01       		.byte	0x1
 3556 0970 3502     		.2byte	0x235
 3557 0972 00000000 		.4byte	.LFB27
 3558 0976 22000000 		.4byte	.LFE27-.LFB27
 3559 097a 01       		.uleb128 0x1
 3560 097b 9C       		.byte	0x9c
 3561 097c CF090000 		.4byte	0x9cf
 3562 0980 11       		.uleb128 0x11
 3563 0981 BA0E0000 		.4byte	.LASF140
 3564 0985 01       		.byte	0x1
 3565 0986 3502     		.2byte	0x235
 3566 0988 EC070000 		.4byte	0x7ec
 3567 098c 24030000 		.4byte	.LLST19
 3568 0990 11       		.uleb128 0x11
 3569 0991 060A0000 		.4byte	.LASF141
ARM GAS  C:\Users\Xwx47\AppData\Local\Temp\ccidPk4n.s 			page 84


 3570 0995 01       		.byte	0x1
 3571 0996 3502     		.2byte	0x235
 3572 0998 96000000 		.4byte	0x96
 3573 099c 5B030000 		.4byte	.LLST20
 3574 09a0 09       		.uleb128 0x9
 3575 09a1 16000000 		.4byte	.LVL70
 3576 09a5 A9150000 		.4byte	0x15a9
 3577 09a9 BF090000 		.4byte	0x9bf
 3578 09ad 0A       		.uleb128 0xa
 3579 09ae 01       		.uleb128 0x1
 3580 09af 50       		.byte	0x50
 3581 09b0 01       		.uleb128 0x1
 3582 09b1 3B       		.byte	0x3b
 3583 09b2 0A       		.uleb128 0xa
 3584 09b3 01       		.uleb128 0x1
 3585 09b4 51       		.byte	0x51
 3586 09b5 02       		.uleb128 0x2
 3587 09b6 75       		.byte	0x75
 3588 09b7 00       		.sleb128 0
 3589 09b8 0A       		.uleb128 0xa
 3590 09b9 01       		.uleb128 0x1
 3591 09ba 52       		.byte	0x52
 3592 09bb 02       		.uleb128 0x2
 3593 09bc 74       		.byte	0x74
 3594 09bd 00       		.sleb128 0
 3595 09be 00       		.byte	0
 3596 09bf 0B       		.uleb128 0xb
 3597 09c0 1E000000 		.4byte	.LVL72
 3598 09c4 93150000 		.4byte	0x1593
 3599 09c8 0A       		.uleb128 0xa
 3600 09c9 01       		.uleb128 0x1
 3601 09ca 50       		.byte	0x50
 3602 09cb 01       		.uleb128 0x1
 3603 09cc 3C       		.byte	0x3c
 3604 09cd 00       		.byte	0
 3605 09ce 00       		.byte	0
 3606 09cf 0D       		.uleb128 0xd
 3607 09d0 70040000 		.4byte	.LASF150
 3608 09d4 01       		.byte	0x1
 3609 09d5 4D02     		.2byte	0x24d
 3610 09d7 00000000 		.4byte	.LFB28
 3611 09db 0C000000 		.4byte	.LFE28-.LFB28
 3612 09df 01       		.uleb128 0x1
 3613 09e0 9C       		.byte	0x9c
 3614 09e1 050A0000 		.4byte	0xa05
 3615 09e5 11       		.uleb128 0x11
 3616 09e6 D3080000 		.4byte	.LASF148
 3617 09ea 01       		.byte	0x1
 3618 09eb 4D02     		.2byte	0x24d
 3619 09ed 93070000 		.4byte	0x793
 3620 09f1 96030000 		.4byte	.LLST21
 3621 09f5 0B       		.uleb128 0xb
 3622 09f6 0A000000 		.4byte	.LVL76
 3623 09fa 72150000 		.4byte	0x1572
 3624 09fe 0A       		.uleb128 0xa
 3625 09ff 01       		.uleb128 0x1
 3626 0a00 50       		.byte	0x50
ARM GAS  C:\Users\Xwx47\AppData\Local\Temp\ccidPk4n.s 			page 85


 3627 0a01 01       		.uleb128 0x1
 3628 0a02 3D       		.byte	0x3d
 3629 0a03 00       		.byte	0
 3630 0a04 00       		.byte	0
 3631 0a05 0D       		.uleb128 0xd
 3632 0a06 2B030000 		.4byte	.LASF151
 3633 0a0a 01       		.byte	0x1
 3634 0a0b 5A02     		.2byte	0x25a
 3635 0a0d 00000000 		.4byte	.LFB29
 3636 0a11 22000000 		.4byte	.LFE29-.LFB29
 3637 0a15 01       		.uleb128 0x1
 3638 0a16 9C       		.byte	0x9c
 3639 0a17 6A0A0000 		.4byte	0xa6a
 3640 0a1b 11       		.uleb128 0x11
 3641 0a1c BA0E0000 		.4byte	.LASF140
 3642 0a20 01       		.byte	0x1
 3643 0a21 5A02     		.2byte	0x25a
 3644 0a23 EC070000 		.4byte	0x7ec
 3645 0a27 B7030000 		.4byte	.LLST22
 3646 0a2b 11       		.uleb128 0x11
 3647 0a2c 060A0000 		.4byte	.LASF141
 3648 0a30 01       		.byte	0x1
 3649 0a31 5A02     		.2byte	0x25a
 3650 0a33 96000000 		.4byte	0x96
 3651 0a37 EE030000 		.4byte	.LLST23
 3652 0a3b 09       		.uleb128 0x9
 3653 0a3c 16000000 		.4byte	.LVL80
 3654 0a40 A9150000 		.4byte	0x15a9
 3655 0a44 5A0A0000 		.4byte	0xa5a
 3656 0a48 0A       		.uleb128 0xa
 3657 0a49 01       		.uleb128 0x1
 3658 0a4a 50       		.byte	0x50
 3659 0a4b 01       		.uleb128 0x1
 3660 0a4c 3B       		.byte	0x3b
 3661 0a4d 0A       		.uleb128 0xa
 3662 0a4e 01       		.uleb128 0x1
 3663 0a4f 51       		.byte	0x51
 3664 0a50 02       		.uleb128 0x2
 3665 0a51 75       		.byte	0x75
 3666 0a52 00       		.sleb128 0
 3667 0a53 0A       		.uleb128 0xa
 3668 0a54 01       		.uleb128 0x1
 3669 0a55 52       		.byte	0x52
 3670 0a56 02       		.uleb128 0x2
 3671 0a57 74       		.byte	0x74
 3672 0a58 00       		.sleb128 0
 3673 0a59 00       		.byte	0
 3674 0a5a 0B       		.uleb128 0xb
 3675 0a5b 1E000000 		.4byte	.LVL82
 3676 0a5f 93150000 		.4byte	0x1593
 3677 0a63 0A       		.uleb128 0xa
 3678 0a64 01       		.uleb128 0x1
 3679 0a65 50       		.byte	0x50
 3680 0a66 01       		.uleb128 0x1
 3681 0a67 3D       		.byte	0x3d
 3682 0a68 00       		.byte	0
 3683 0a69 00       		.byte	0
ARM GAS  C:\Users\Xwx47\AppData\Local\Temp\ccidPk4n.s 			page 86


 3684 0a6a 0D       		.uleb128 0xd
 3685 0a6b FD0A0000 		.4byte	.LASF152
 3686 0a6f 01       		.byte	0x1
 3687 0a70 7202     		.2byte	0x272
 3688 0a72 00000000 		.4byte	.LFB30
 3689 0a76 0C000000 		.4byte	.LFE30-.LFB30
 3690 0a7a 01       		.uleb128 0x1
 3691 0a7b 9C       		.byte	0x9c
 3692 0a7c A00A0000 		.4byte	0xaa0
 3693 0a80 11       		.uleb128 0x11
 3694 0a81 D3080000 		.4byte	.LASF148
 3695 0a85 01       		.byte	0x1
 3696 0a86 7202     		.2byte	0x272
 3697 0a88 93070000 		.4byte	0x793
 3698 0a8c 29040000 		.4byte	.LLST24
 3699 0a90 0B       		.uleb128 0xb
 3700 0a91 0A000000 		.4byte	.LVL86
 3701 0a95 72150000 		.4byte	0x1572
 3702 0a99 0A       		.uleb128 0xa
 3703 0a9a 01       		.uleb128 0x1
 3704 0a9b 50       		.byte	0x50
 3705 0a9c 01       		.uleb128 0x1
 3706 0a9d 3E       		.byte	0x3e
 3707 0a9e 00       		.byte	0
 3708 0a9f 00       		.byte	0
 3709 0aa0 0D       		.uleb128 0xd
 3710 0aa1 B9090000 		.4byte	.LASF153
 3711 0aa5 01       		.byte	0x1
 3712 0aa6 7F02     		.2byte	0x27f
 3713 0aa8 00000000 		.4byte	.LFB31
 3714 0aac 22000000 		.4byte	.LFE31-.LFB31
 3715 0ab0 01       		.uleb128 0x1
 3716 0ab1 9C       		.byte	0x9c
 3717 0ab2 050B0000 		.4byte	0xb05
 3718 0ab6 11       		.uleb128 0x11
 3719 0ab7 BA0E0000 		.4byte	.LASF140
 3720 0abb 01       		.byte	0x1
 3721 0abc 7F02     		.2byte	0x27f
 3722 0abe EC070000 		.4byte	0x7ec
 3723 0ac2 4A040000 		.4byte	.LLST25
 3724 0ac6 11       		.uleb128 0x11
 3725 0ac7 060A0000 		.4byte	.LASF141
 3726 0acb 01       		.byte	0x1
 3727 0acc 7F02     		.2byte	0x27f
 3728 0ace 96000000 		.4byte	0x96
 3729 0ad2 81040000 		.4byte	.LLST26
 3730 0ad6 09       		.uleb128 0x9
 3731 0ad7 16000000 		.4byte	.LVL90
 3732 0adb A9150000 		.4byte	0x15a9
 3733 0adf F50A0000 		.4byte	0xaf5
 3734 0ae3 0A       		.uleb128 0xa
 3735 0ae4 01       		.uleb128 0x1
 3736 0ae5 50       		.byte	0x50
 3737 0ae6 01       		.uleb128 0x1
 3738 0ae7 3B       		.byte	0x3b
 3739 0ae8 0A       		.uleb128 0xa
 3740 0ae9 01       		.uleb128 0x1
ARM GAS  C:\Users\Xwx47\AppData\Local\Temp\ccidPk4n.s 			page 87


 3741 0aea 51       		.byte	0x51
 3742 0aeb 02       		.uleb128 0x2
 3743 0aec 75       		.byte	0x75
 3744 0aed 00       		.sleb128 0
 3745 0aee 0A       		.uleb128 0xa
 3746 0aef 01       		.uleb128 0x1
 3747 0af0 52       		.byte	0x52
 3748 0af1 02       		.uleb128 0x2
 3749 0af2 74       		.byte	0x74
 3750 0af3 00       		.sleb128 0
 3751 0af4 00       		.byte	0
 3752 0af5 0B       		.uleb128 0xb
 3753 0af6 1E000000 		.4byte	.LVL92
 3754 0afa 93150000 		.4byte	0x1593
 3755 0afe 0A       		.uleb128 0xa
 3756 0aff 01       		.uleb128 0x1
 3757 0b00 50       		.byte	0x50
 3758 0b01 01       		.uleb128 0x1
 3759 0b02 3E       		.byte	0x3e
 3760 0b03 00       		.byte	0
 3761 0b04 00       		.byte	0
 3762 0b05 0D       		.uleb128 0xd
 3763 0b06 65100000 		.4byte	.LASF154
 3764 0b0a 01       		.byte	0x1
 3765 0b0b 9702     		.2byte	0x297
 3766 0b0d 00000000 		.4byte	.LFB32
 3767 0b11 0C000000 		.4byte	.LFE32-.LFB32
 3768 0b15 01       		.uleb128 0x1
 3769 0b16 9C       		.byte	0x9c
 3770 0b17 3B0B0000 		.4byte	0xb3b
 3771 0b1b 11       		.uleb128 0x11
 3772 0b1c D3080000 		.4byte	.LASF148
 3773 0b20 01       		.byte	0x1
 3774 0b21 9702     		.2byte	0x297
 3775 0b23 93070000 		.4byte	0x793
 3776 0b27 BC040000 		.4byte	.LLST27
 3777 0b2b 0B       		.uleb128 0xb
 3778 0b2c 0A000000 		.4byte	.LVL96
 3779 0b30 72150000 		.4byte	0x1572
 3780 0b34 0A       		.uleb128 0xa
 3781 0b35 01       		.uleb128 0x1
 3782 0b36 50       		.byte	0x50
 3783 0b37 01       		.uleb128 0x1
 3784 0b38 3F       		.byte	0x3f
 3785 0b39 00       		.byte	0
 3786 0b3a 00       		.byte	0
 3787 0b3b 0D       		.uleb128 0xd
 3788 0b3c 4B0F0000 		.4byte	.LASF155
 3789 0b40 01       		.byte	0x1
 3790 0b41 A402     		.2byte	0x2a4
 3791 0b43 00000000 		.4byte	.LFB33
 3792 0b47 22000000 		.4byte	.LFE33-.LFB33
 3793 0b4b 01       		.uleb128 0x1
 3794 0b4c 9C       		.byte	0x9c
 3795 0b4d A00B0000 		.4byte	0xba0
 3796 0b51 11       		.uleb128 0x11
 3797 0b52 BA0E0000 		.4byte	.LASF140
ARM GAS  C:\Users\Xwx47\AppData\Local\Temp\ccidPk4n.s 			page 88


 3798 0b56 01       		.byte	0x1
 3799 0b57 A402     		.2byte	0x2a4
 3800 0b59 EC070000 		.4byte	0x7ec
 3801 0b5d DD040000 		.4byte	.LLST28
 3802 0b61 11       		.uleb128 0x11
 3803 0b62 060A0000 		.4byte	.LASF141
 3804 0b66 01       		.byte	0x1
 3805 0b67 A402     		.2byte	0x2a4
 3806 0b69 96000000 		.4byte	0x96
 3807 0b6d 14050000 		.4byte	.LLST29
 3808 0b71 09       		.uleb128 0x9
 3809 0b72 16000000 		.4byte	.LVL100
 3810 0b76 A9150000 		.4byte	0x15a9
 3811 0b7a 900B0000 		.4byte	0xb90
 3812 0b7e 0A       		.uleb128 0xa
 3813 0b7f 01       		.uleb128 0x1
 3814 0b80 50       		.byte	0x50
 3815 0b81 01       		.uleb128 0x1
 3816 0b82 3B       		.byte	0x3b
 3817 0b83 0A       		.uleb128 0xa
 3818 0b84 01       		.uleb128 0x1
 3819 0b85 51       		.byte	0x51
 3820 0b86 02       		.uleb128 0x2
 3821 0b87 75       		.byte	0x75
 3822 0b88 00       		.sleb128 0
 3823 0b89 0A       		.uleb128 0xa
 3824 0b8a 01       		.uleb128 0x1
 3825 0b8b 52       		.byte	0x52
 3826 0b8c 02       		.uleb128 0x2
 3827 0b8d 74       		.byte	0x74
 3828 0b8e 00       		.sleb128 0
 3829 0b8f 00       		.byte	0
 3830 0b90 0B       		.uleb128 0xb
 3831 0b91 1E000000 		.4byte	.LVL102
 3832 0b95 93150000 		.4byte	0x1593
 3833 0b99 0A       		.uleb128 0xa
 3834 0b9a 01       		.uleb128 0x1
 3835 0b9b 50       		.byte	0x50
 3836 0b9c 01       		.uleb128 0x1
 3837 0b9d 3F       		.byte	0x3f
 3838 0b9e 00       		.byte	0
 3839 0b9f 00       		.byte	0
 3840 0ba0 0D       		.uleb128 0xd
 3841 0ba1 C00A0000 		.4byte	.LASF156
 3842 0ba5 01       		.byte	0x1
 3843 0ba6 BB02     		.2byte	0x2bb
 3844 0ba8 00000000 		.4byte	.LFB34
 3845 0bac 18000000 		.4byte	.LFE34-.LFB34
 3846 0bb0 01       		.uleb128 0x1
 3847 0bb1 9C       		.byte	0x9c
 3848 0bb2 ED0B0000 		.4byte	0xbed
 3849 0bb6 11       		.uleb128 0x11
 3850 0bb7 BA0E0000 		.4byte	.LASF140
 3851 0bbb 01       		.byte	0x1
 3852 0bbc BB02     		.2byte	0x2bb
 3853 0bbe 8D070000 		.4byte	0x78d
 3854 0bc2 4F050000 		.4byte	.LLST30
ARM GAS  C:\Users\Xwx47\AppData\Local\Temp\ccidPk4n.s 			page 89


 3855 0bc6 11       		.uleb128 0x11
 3856 0bc7 060A0000 		.4byte	.LASF141
 3857 0bcb 01       		.byte	0x1
 3858 0bcc BB02     		.2byte	0x2bb
 3859 0bce 96000000 		.4byte	0x96
 3860 0bd2 7B050000 		.4byte	.LLST31
 3861 0bd6 0B       		.uleb128 0xb
 3862 0bd7 16000000 		.4byte	.LVL108
 3863 0bdb 9E150000 		.4byte	0x159e
 3864 0bdf 0A       		.uleb128 0xa
 3865 0be0 01       		.uleb128 0x1
 3866 0be1 50       		.byte	0x50
 3867 0be2 01       		.uleb128 0x1
 3868 0be3 40       		.byte	0x40
 3869 0be4 0A       		.uleb128 0xa
 3870 0be5 01       		.uleb128 0x1
 3871 0be6 51       		.byte	0x51
 3872 0be7 03       		.uleb128 0x3
 3873 0be8 F3       		.byte	0xf3
 3874 0be9 01       		.uleb128 0x1
 3875 0bea 50       		.byte	0x50
 3876 0beb 00       		.byte	0
 3877 0bec 00       		.byte	0
 3878 0bed 0D       		.uleb128 0xd
 3879 0bee B3070000 		.4byte	.LASF157
 3880 0bf2 01       		.byte	0x1
 3881 0bf3 CE02     		.2byte	0x2ce
 3882 0bf5 00000000 		.4byte	.LFB35
 3883 0bf9 16000000 		.4byte	.LFE35-.LFB35
 3884 0bfd 01       		.uleb128 0x1
 3885 0bfe 9C       		.byte	0x9c
 3886 0bff 410C0000 		.4byte	0xc41
 3887 0c03 11       		.uleb128 0x11
 3888 0c04 BA0E0000 		.4byte	.LASF140
 3889 0c08 01       		.byte	0x1
 3890 0c09 CE02     		.2byte	0x2ce
 3891 0c0b EC070000 		.4byte	0x7ec
 3892 0c0f A4050000 		.4byte	.LLST32
 3893 0c13 11       		.uleb128 0x11
 3894 0c14 060A0000 		.4byte	.LASF141
 3895 0c18 01       		.byte	0x1
 3896 0c19 CE02     		.2byte	0x2ce
 3897 0c1b 410C0000 		.4byte	0xc41
 3898 0c1f D0050000 		.4byte	.LLST33
 3899 0c23 0B       		.uleb128 0xb
 3900 0c24 14000000 		.4byte	.LVL112
 3901 0c28 A9150000 		.4byte	0x15a9
 3902 0c2c 0A       		.uleb128 0xa
 3903 0c2d 01       		.uleb128 0x1
 3904 0c2e 50       		.byte	0x50
 3905 0c2f 01       		.uleb128 0x1
 3906 0c30 40       		.byte	0x40
 3907 0c31 0A       		.uleb128 0xa
 3908 0c32 01       		.uleb128 0x1
 3909 0c33 51       		.byte	0x51
 3910 0c34 03       		.uleb128 0x3
 3911 0c35 F3       		.byte	0xf3
ARM GAS  C:\Users\Xwx47\AppData\Local\Temp\ccidPk4n.s 			page 90


 3912 0c36 01       		.uleb128 0x1
 3913 0c37 50       		.byte	0x50
 3914 0c38 0A       		.uleb128 0xa
 3915 0c39 01       		.uleb128 0x1
 3916 0c3a 52       		.byte	0x52
 3917 0c3b 03       		.uleb128 0x3
 3918 0c3c F3       		.byte	0xf3
 3919 0c3d 01       		.uleb128 0x1
 3920 0c3e 51       		.byte	0x51
 3921 0c3f 00       		.byte	0
 3922 0c40 00       		.byte	0
 3923 0c41 10       		.uleb128 0x10
 3924 0c42 96000000 		.4byte	0x96
 3925 0c46 0D       		.uleb128 0xd
 3926 0c47 4E0C0000 		.4byte	.LASF158
 3927 0c4b 01       		.byte	0x1
 3928 0c4c E702     		.2byte	0x2e7
 3929 0c4e 00000000 		.4byte	.LFB36
 3930 0c52 48000000 		.4byte	.LFE36-.LFB36
 3931 0c56 01       		.uleb128 0x1
 3932 0c57 9C       		.byte	0x9c
 3933 0c58 EB0C0000 		.4byte	0xceb
 3934 0c5c 11       		.uleb128 0x11
 3935 0c5d 9B050000 		.4byte	.LASF133
 3936 0c61 01       		.byte	0x1
 3937 0c62 E702     		.2byte	0x2e7
 3938 0c64 5A060000 		.4byte	0x65a
 3939 0c68 FC050000 		.4byte	.LLST34
 3940 0c6c 11       		.uleb128 0x11
 3941 0c6d 060A0000 		.4byte	.LASF141
 3942 0c71 01       		.byte	0x1
 3943 0c72 E702     		.2byte	0x2e7
 3944 0c74 76000000 		.4byte	0x76
 3945 0c78 1D060000 		.4byte	.LLST35
 3946 0c7c 09       		.uleb128 0x9
 3947 0c7d 1A000000 		.4byte	.LVL116
 3948 0c81 72150000 		.4byte	0x1572
 3949 0c85 8F0C0000 		.4byte	0xc8f
 3950 0c89 0A       		.uleb128 0xa
 3951 0c8a 01       		.uleb128 0x1
 3952 0c8b 50       		.byte	0x50
 3953 0c8c 01       		.uleb128 0x1
 3954 0c8d 41       		.byte	0x41
 3955 0c8e 00       		.byte	0
 3956 0c8f 09       		.uleb128 0x9
 3957 0c90 22000000 		.4byte	.LVL118
 3958 0c94 72150000 		.4byte	0x1572
 3959 0c98 A20C0000 		.4byte	0xca2
 3960 0c9c 0A       		.uleb128 0xa
 3961 0c9d 01       		.uleb128 0x1
 3962 0c9e 50       		.byte	0x50
 3963 0c9f 01       		.uleb128 0x1
 3964 0ca0 42       		.byte	0x42
 3965 0ca1 00       		.byte	0
 3966 0ca2 09       		.uleb128 0x9
 3967 0ca3 2A000000 		.4byte	.LVL120
 3968 0ca7 72150000 		.4byte	0x1572
ARM GAS  C:\Users\Xwx47\AppData\Local\Temp\ccidPk4n.s 			page 91


 3969 0cab B50C0000 		.4byte	0xcb5
 3970 0caf 0A       		.uleb128 0xa
 3971 0cb0 01       		.uleb128 0x1
 3972 0cb1 50       		.byte	0x50
 3973 0cb2 01       		.uleb128 0x1
 3974 0cb3 43       		.byte	0x43
 3975 0cb4 00       		.byte	0
 3976 0cb5 09       		.uleb128 0x9
 3977 0cb6 32000000 		.4byte	.LVL122
 3978 0cba 72150000 		.4byte	0x1572
 3979 0cbe C80C0000 		.4byte	0xcc8
 3980 0cc2 0A       		.uleb128 0xa
 3981 0cc3 01       		.uleb128 0x1
 3982 0cc4 50       		.byte	0x50
 3983 0cc5 01       		.uleb128 0x1
 3984 0cc6 44       		.byte	0x44
 3985 0cc7 00       		.byte	0
 3986 0cc8 09       		.uleb128 0x9
 3987 0cc9 3A000000 		.4byte	.LVL124
 3988 0ccd 72150000 		.4byte	0x1572
 3989 0cd1 DB0C0000 		.4byte	0xcdb
 3990 0cd5 0A       		.uleb128 0xa
 3991 0cd6 01       		.uleb128 0x1
 3992 0cd7 50       		.byte	0x50
 3993 0cd8 01       		.uleb128 0x1
 3994 0cd9 45       		.byte	0x45
 3995 0cda 00       		.byte	0
 3996 0cdb 0B       		.uleb128 0xb
 3997 0cdc 42000000 		.4byte	.LVL126
 3998 0ce0 72150000 		.4byte	0x1572
 3999 0ce4 0A       		.uleb128 0xa
 4000 0ce5 01       		.uleb128 0x1
 4001 0ce6 50       		.byte	0x50
 4002 0ce7 01       		.uleb128 0x1
 4003 0ce8 46       		.byte	0x46
 4004 0ce9 00       		.byte	0
 4005 0cea 00       		.byte	0
 4006 0ceb 12       		.uleb128 0x12
 4007 0cec 6F0F0000 		.4byte	.LASF160
 4008 0cf0 01       		.byte	0x1
 4009 0cf1 0C03     		.2byte	0x30c
 4010 0cf3 76000000 		.4byte	0x76
 4011 0cf7 00000000 		.4byte	.LFB37
 4012 0cfb 48000000 		.4byte	.LFE37-.LFB37
 4013 0cff 01       		.uleb128 0x1
 4014 0d00 9C       		.byte	0x9c
 4015 0d01 840D0000 		.4byte	0xd84
 4016 0d05 11       		.uleb128 0x11
 4017 0d06 9B050000 		.4byte	.LASF133
 4018 0d0a 01       		.byte	0x1
 4019 0d0b 0C03     		.2byte	0x30c
 4020 0d0d 5A060000 		.4byte	0x65a
 4021 0d11 72060000 		.4byte	.LLST36
 4022 0d15 09       		.uleb128 0x9
 4023 0d16 14000000 		.4byte	.LVL129
 4024 0d1a 93150000 		.4byte	0x1593
 4025 0d1e 280D0000 		.4byte	0xd28
ARM GAS  C:\Users\Xwx47\AppData\Local\Temp\ccidPk4n.s 			page 92


 4026 0d22 0A       		.uleb128 0xa
 4027 0d23 01       		.uleb128 0x1
 4028 0d24 50       		.byte	0x50
 4029 0d25 01       		.uleb128 0x1
 4030 0d26 41       		.byte	0x41
 4031 0d27 00       		.byte	0
 4032 0d28 09       		.uleb128 0x9
 4033 0d29 1C000000 		.4byte	.LVL130
 4034 0d2d 93150000 		.4byte	0x1593
 4035 0d31 3B0D0000 		.4byte	0xd3b
 4036 0d35 0A       		.uleb128 0xa
 4037 0d36 01       		.uleb128 0x1
 4038 0d37 50       		.byte	0x50
 4039 0d38 01       		.uleb128 0x1
 4040 0d39 42       		.byte	0x42
 4041 0d3a 00       		.byte	0
 4042 0d3b 09       		.uleb128 0x9
 4043 0d3c 24000000 		.4byte	.LVL131
 4044 0d40 93150000 		.4byte	0x1593
 4045 0d44 4E0D0000 		.4byte	0xd4e
 4046 0d48 0A       		.uleb128 0xa
 4047 0d49 01       		.uleb128 0x1
 4048 0d4a 50       		.byte	0x50
 4049 0d4b 01       		.uleb128 0x1
 4050 0d4c 43       		.byte	0x43
 4051 0d4d 00       		.byte	0
 4052 0d4e 09       		.uleb128 0x9
 4053 0d4f 2C000000 		.4byte	.LVL132
 4054 0d53 93150000 		.4byte	0x1593
 4055 0d57 610D0000 		.4byte	0xd61
 4056 0d5b 0A       		.uleb128 0xa
 4057 0d5c 01       		.uleb128 0x1
 4058 0d5d 50       		.byte	0x50
 4059 0d5e 01       		.uleb128 0x1
 4060 0d5f 44       		.byte	0x44
 4061 0d60 00       		.byte	0
 4062 0d61 09       		.uleb128 0x9
 4063 0d62 34000000 		.4byte	.LVL133
 4064 0d66 93150000 		.4byte	0x1593
 4065 0d6a 740D0000 		.4byte	0xd74
 4066 0d6e 0A       		.uleb128 0xa
 4067 0d6f 01       		.uleb128 0x1
 4068 0d70 50       		.byte	0x50
 4069 0d71 01       		.uleb128 0x1
 4070 0d72 45       		.byte	0x45
 4071 0d73 00       		.byte	0
 4072 0d74 0B       		.uleb128 0xb
 4073 0d75 3C000000 		.4byte	.LVL134
 4074 0d79 93150000 		.4byte	0x1593
 4075 0d7d 0A       		.uleb128 0xa
 4076 0d7e 01       		.uleb128 0x1
 4077 0d7f 50       		.byte	0x50
 4078 0d80 01       		.uleb128 0x1
 4079 0d81 46       		.byte	0x46
 4080 0d82 00       		.byte	0
 4081 0d83 00       		.byte	0
 4082 0d84 0D       		.uleb128 0xd
ARM GAS  C:\Users\Xwx47\AppData\Local\Temp\ccidPk4n.s 			page 93


 4083 0d85 F1050000 		.4byte	.LASF161
 4084 0d89 01       		.byte	0x1
 4085 0d8a 3703     		.2byte	0x337
 4086 0d8c 00000000 		.4byte	.LFB39
 4087 0d90 26000000 		.4byte	.LFE39-.LFB39
 4088 0d94 01       		.uleb128 0x1
 4089 0d95 9C       		.byte	0x9c
 4090 0d96 090E0000 		.4byte	0xe09
 4091 0d9a 11       		.uleb128 0x11
 4092 0d9b 9B050000 		.4byte	.LASF133
 4093 0d9f 01       		.byte	0x1
 4094 0da0 3703     		.2byte	0x337
 4095 0da2 5A060000 		.4byte	0x65a
 4096 0da6 AC060000 		.4byte	.LLST37
 4097 0daa 09       		.uleb128 0x9
 4098 0dab 0C000000 		.4byte	.LVL139
 4099 0daf 88150000 		.4byte	0x1588
 4100 0db3 C30D0000 		.4byte	0xdc3
 4101 0db7 0A       		.uleb128 0xa
 4102 0db8 01       		.uleb128 0x1
 4103 0db9 50       		.byte	0x50
 4104 0dba 01       		.uleb128 0x1
 4105 0dbb 31       		.byte	0x31
 4106 0dbc 0A       		.uleb128 0xa
 4107 0dbd 01       		.uleb128 0x1
 4108 0dbe 51       		.byte	0x51
 4109 0dbf 02       		.uleb128 0x2
 4110 0dc0 74       		.byte	0x74
 4111 0dc1 00       		.sleb128 0
 4112 0dc2 00       		.byte	0
 4113 0dc3 09       		.uleb128 0x9
 4114 0dc4 14000000 		.4byte	.LVL140
 4115 0dc8 88150000 		.4byte	0x1588
 4116 0dcc DB0D0000 		.4byte	0xddb
 4117 0dd0 0A       		.uleb128 0xa
 4118 0dd1 01       		.uleb128 0x1
 4119 0dd2 50       		.byte	0x50
 4120 0dd3 01       		.uleb128 0x1
 4121 0dd4 4D       		.byte	0x4d
 4122 0dd5 0A       		.uleb128 0xa
 4123 0dd6 01       		.uleb128 0x1
 4124 0dd7 51       		.byte	0x51
 4125 0dd8 01       		.uleb128 0x1
 4126 0dd9 31       		.byte	0x31
 4127 0dda 00       		.byte	0
 4128 0ddb 09       		.uleb128 0x9
 4129 0ddc 1C000000 		.4byte	.LVL141
 4130 0de0 88150000 		.4byte	0x1588
 4131 0de4 F30D0000 		.4byte	0xdf3
 4132 0de8 0A       		.uleb128 0xa
 4133 0de9 01       		.uleb128 0x1
 4134 0dea 50       		.byte	0x50
 4135 0deb 01       		.uleb128 0x1
 4136 0dec 4D       		.byte	0x4d
 4137 0ded 0A       		.uleb128 0xa
 4138 0dee 01       		.uleb128 0x1
 4139 0def 51       		.byte	0x51
ARM GAS  C:\Users\Xwx47\AppData\Local\Temp\ccidPk4n.s 			page 94


 4140 0df0 01       		.uleb128 0x1
 4141 0df1 32       		.byte	0x32
 4142 0df2 00       		.byte	0
 4143 0df3 0B       		.uleb128 0xb
 4144 0df4 24000000 		.4byte	.LVL142
 4145 0df8 88150000 		.4byte	0x1588
 4146 0dfc 0A       		.uleb128 0xa
 4147 0dfd 01       		.uleb128 0x1
 4148 0dfe 50       		.byte	0x50
 4149 0dff 01       		.uleb128 0x1
 4150 0e00 4C       		.byte	0x4c
 4151 0e01 0A       		.uleb128 0xa
 4152 0e02 01       		.uleb128 0x1
 4153 0e03 51       		.byte	0x51
 4154 0e04 02       		.uleb128 0x2
 4155 0e05 74       		.byte	0x74
 4156 0e06 00       		.sleb128 0
 4157 0e07 00       		.byte	0
 4158 0e08 00       		.byte	0
 4159 0e09 0D       		.uleb128 0xd
 4160 0e0a DE070000 		.4byte	.LASF162
 4161 0e0e 01       		.byte	0x1
 4162 0e0f 4403     		.2byte	0x344
 4163 0e11 00000000 		.4byte	.LFB40
 4164 0e15 26000000 		.4byte	.LFE40-.LFB40
 4165 0e19 01       		.uleb128 0x1
 4166 0e1a 9C       		.byte	0x9c
 4167 0e1b 8E0E0000 		.4byte	0xe8e
 4168 0e1f 11       		.uleb128 0x11
 4169 0e20 9B050000 		.4byte	.LASF133
 4170 0e24 01       		.byte	0x1
 4171 0e25 4403     		.2byte	0x344
 4172 0e27 5A060000 		.4byte	0x65a
 4173 0e2b CD060000 		.4byte	.LLST38
 4174 0e2f 09       		.uleb128 0x9
 4175 0e30 0C000000 		.4byte	.LVL145
 4176 0e34 7D150000 		.4byte	0x157d
 4177 0e38 480E0000 		.4byte	0xe48
 4178 0e3c 0A       		.uleb128 0xa
 4179 0e3d 01       		.uleb128 0x1
 4180 0e3e 50       		.byte	0x50
 4181 0e3f 01       		.uleb128 0x1
 4182 0e40 31       		.byte	0x31
 4183 0e41 0A       		.uleb128 0xa
 4184 0e42 01       		.uleb128 0x1
 4185 0e43 51       		.byte	0x51
 4186 0e44 02       		.uleb128 0x2
 4187 0e45 74       		.byte	0x74
 4188 0e46 00       		.sleb128 0
 4189 0e47 00       		.byte	0
 4190 0e48 09       		.uleb128 0x9
 4191 0e49 14000000 		.4byte	.LVL146
 4192 0e4d 7D150000 		.4byte	0x157d
 4193 0e51 600E0000 		.4byte	0xe60
 4194 0e55 0A       		.uleb128 0xa
 4195 0e56 01       		.uleb128 0x1
 4196 0e57 50       		.byte	0x50
ARM GAS  C:\Users\Xwx47\AppData\Local\Temp\ccidPk4n.s 			page 95


 4197 0e58 01       		.uleb128 0x1
 4198 0e59 4D       		.byte	0x4d
 4199 0e5a 0A       		.uleb128 0xa
 4200 0e5b 01       		.uleb128 0x1
 4201 0e5c 51       		.byte	0x51
 4202 0e5d 01       		.uleb128 0x1
 4203 0e5e 31       		.byte	0x31
 4204 0e5f 00       		.byte	0
 4205 0e60 09       		.uleb128 0x9
 4206 0e61 1C000000 		.4byte	.LVL147
 4207 0e65 7D150000 		.4byte	0x157d
 4208 0e69 780E0000 		.4byte	0xe78
 4209 0e6d 0A       		.uleb128 0xa
 4210 0e6e 01       		.uleb128 0x1
 4211 0e6f 50       		.byte	0x50
 4212 0e70 01       		.uleb128 0x1
 4213 0e71 4D       		.byte	0x4d
 4214 0e72 0A       		.uleb128 0xa
 4215 0e73 01       		.uleb128 0x1
 4216 0e74 51       		.byte	0x51
 4217 0e75 01       		.uleb128 0x1
 4218 0e76 32       		.byte	0x32
 4219 0e77 00       		.byte	0
 4220 0e78 0B       		.uleb128 0xb
 4221 0e79 24000000 		.4byte	.LVL148
 4222 0e7d 7D150000 		.4byte	0x157d
 4223 0e81 0A       		.uleb128 0xa
 4224 0e82 01       		.uleb128 0x1
 4225 0e83 50       		.byte	0x50
 4226 0e84 01       		.uleb128 0x1
 4227 0e85 4C       		.byte	0x4c
 4228 0e86 0A       		.uleb128 0xa
 4229 0e87 01       		.uleb128 0x1
 4230 0e88 51       		.byte	0x51
 4231 0e89 02       		.uleb128 0x2
 4232 0e8a 74       		.byte	0x74
 4233 0e8b 00       		.sleb128 0
 4234 0e8c 00       		.byte	0
 4235 0e8d 00       		.byte	0
 4236 0e8e 0D       		.uleb128 0xd
 4237 0e8f 5D0E0000 		.4byte	.LASF163
 4238 0e93 01       		.byte	0x1
 4239 0e94 4F03     		.2byte	0x34f
 4240 0e96 00000000 		.4byte	.LFB41
 4241 0e9a 0C000000 		.4byte	.LFE41-.LFB41
 4242 0e9e 01       		.uleb128 0x1
 4243 0e9f 9C       		.byte	0x9c
 4244 0ea0 B90E0000 		.4byte	0xeb9
 4245 0ea4 0B       		.uleb128 0xb
 4246 0ea5 0A000000 		.4byte	.LVL149
 4247 0ea9 88150000 		.4byte	0x1588
 4248 0ead 0A       		.uleb128 0xa
 4249 0eae 01       		.uleb128 0x1
 4250 0eaf 50       		.byte	0x50
 4251 0eb0 01       		.uleb128 0x1
 4252 0eb1 4D       		.byte	0x4d
 4253 0eb2 0A       		.uleb128 0xa
ARM GAS  C:\Users\Xwx47\AppData\Local\Temp\ccidPk4n.s 			page 96


 4254 0eb3 01       		.uleb128 0x1
 4255 0eb4 51       		.byte	0x51
 4256 0eb5 01       		.uleb128 0x1
 4257 0eb6 32       		.byte	0x32
 4258 0eb7 00       		.byte	0
 4259 0eb8 00       		.byte	0
 4260 0eb9 0D       		.uleb128 0xd
 4261 0eba 8D100000 		.4byte	.LASF164
 4262 0ebe 01       		.byte	0x1
 4263 0ebf 5703     		.2byte	0x357
 4264 0ec1 00000000 		.4byte	.LFB42
 4265 0ec5 0C000000 		.4byte	.LFE42-.LFB42
 4266 0ec9 01       		.uleb128 0x1
 4267 0eca 9C       		.byte	0x9c
 4268 0ecb E40E0000 		.4byte	0xee4
 4269 0ecf 0B       		.uleb128 0xb
 4270 0ed0 0A000000 		.4byte	.LVL150
 4271 0ed4 7D150000 		.4byte	0x157d
 4272 0ed8 0A       		.uleb128 0xa
 4273 0ed9 01       		.uleb128 0x1
 4274 0eda 50       		.byte	0x50
 4275 0edb 01       		.uleb128 0x1
 4276 0edc 4D       		.byte	0x4d
 4277 0edd 0A       		.uleb128 0xa
 4278 0ede 01       		.uleb128 0x1
 4279 0edf 51       		.byte	0x51
 4280 0ee0 01       		.uleb128 0x1
 4281 0ee1 32       		.byte	0x32
 4282 0ee2 00       		.byte	0
 4283 0ee3 00       		.byte	0
 4284 0ee4 0D       		.uleb128 0xd
 4285 0ee5 970C0000 		.4byte	.LASF165
 4286 0ee9 01       		.byte	0x1
 4287 0eea 5F03     		.2byte	0x35f
 4288 0eec 00000000 		.4byte	.LFB43
 4289 0ef0 0C000000 		.4byte	.LFE43-.LFB43
 4290 0ef4 01       		.uleb128 0x1
 4291 0ef5 9C       		.byte	0x9c
 4292 0ef6 0F0F0000 		.4byte	0xf0f
 4293 0efa 0B       		.uleb128 0xb
 4294 0efb 0A000000 		.4byte	.LVL151
 4295 0eff 88150000 		.4byte	0x1588
 4296 0f03 0A       		.uleb128 0xa
 4297 0f04 01       		.uleb128 0x1
 4298 0f05 50       		.byte	0x50
 4299 0f06 01       		.uleb128 0x1
 4300 0f07 4D       		.byte	0x4d
 4301 0f08 0A       		.uleb128 0xa
 4302 0f09 01       		.uleb128 0x1
 4303 0f0a 51       		.byte	0x51
 4304 0f0b 01       		.uleb128 0x1
 4305 0f0c 31       		.byte	0x31
 4306 0f0d 00       		.byte	0
 4307 0f0e 00       		.byte	0
 4308 0f0f 0D       		.uleb128 0xd
 4309 0f10 BF0E0000 		.4byte	.LASF166
 4310 0f14 01       		.byte	0x1
ARM GAS  C:\Users\Xwx47\AppData\Local\Temp\ccidPk4n.s 			page 97


 4311 0f15 6703     		.2byte	0x367
 4312 0f17 00000000 		.4byte	.LFB44
 4313 0f1b 0C000000 		.4byte	.LFE44-.LFB44
 4314 0f1f 01       		.uleb128 0x1
 4315 0f20 9C       		.byte	0x9c
 4316 0f21 3A0F0000 		.4byte	0xf3a
 4317 0f25 0B       		.uleb128 0xb
 4318 0f26 0A000000 		.4byte	.LVL152
 4319 0f2a 7D150000 		.4byte	0x157d
 4320 0f2e 0A       		.uleb128 0xa
 4321 0f2f 01       		.uleb128 0x1
 4322 0f30 50       		.byte	0x50
 4323 0f31 01       		.uleb128 0x1
 4324 0f32 4D       		.byte	0x4d
 4325 0f33 0A       		.uleb128 0xa
 4326 0f34 01       		.uleb128 0x1
 4327 0f35 51       		.byte	0x51
 4328 0f36 01       		.uleb128 0x1
 4329 0f37 31       		.byte	0x31
 4330 0f38 00       		.byte	0
 4331 0f39 00       		.byte	0
 4332 0f3a 0D       		.uleb128 0xd
 4333 0f3b A0050000 		.4byte	.LASF167
 4334 0f3f 01       		.byte	0x1
 4335 0f40 6F03     		.2byte	0x36f
 4336 0f42 00000000 		.4byte	.LFB45
 4337 0f46 0C000000 		.4byte	.LFE45-.LFB45
 4338 0f4a 01       		.uleb128 0x1
 4339 0f4b 9C       		.byte	0x9c
 4340 0f4c 650F0000 		.4byte	0xf65
 4341 0f50 0B       		.uleb128 0xb
 4342 0f51 0A000000 		.4byte	.LVL153
 4343 0f55 88150000 		.4byte	0x1588
 4344 0f59 0A       		.uleb128 0xa
 4345 0f5a 01       		.uleb128 0x1
 4346 0f5b 50       		.byte	0x50
 4347 0f5c 01       		.uleb128 0x1
 4348 0f5d 4D       		.byte	0x4d
 4349 0f5e 0A       		.uleb128 0xa
 4350 0f5f 01       		.uleb128 0x1
 4351 0f60 51       		.byte	0x51
 4352 0f61 01       		.uleb128 0x1
 4353 0f62 30       		.byte	0x30
 4354 0f63 00       		.byte	0
 4355 0f64 00       		.byte	0
 4356 0f65 0D       		.uleb128 0xd
 4357 0f66 D0050000 		.4byte	.LASF168
 4358 0f6a 01       		.byte	0x1
 4359 0f6b 7703     		.2byte	0x377
 4360 0f6d 00000000 		.4byte	.LFB46
 4361 0f71 0C000000 		.4byte	.LFE46-.LFB46
 4362 0f75 01       		.uleb128 0x1
 4363 0f76 9C       		.byte	0x9c
 4364 0f77 900F0000 		.4byte	0xf90
 4365 0f7b 0B       		.uleb128 0xb
 4366 0f7c 0A000000 		.4byte	.LVL154
 4367 0f80 7D150000 		.4byte	0x157d
ARM GAS  C:\Users\Xwx47\AppData\Local\Temp\ccidPk4n.s 			page 98


 4368 0f84 0A       		.uleb128 0xa
 4369 0f85 01       		.uleb128 0x1
 4370 0f86 50       		.byte	0x50
 4371 0f87 01       		.uleb128 0x1
 4372 0f88 4D       		.byte	0x4d
 4373 0f89 0A       		.uleb128 0xa
 4374 0f8a 01       		.uleb128 0x1
 4375 0f8b 51       		.byte	0x51
 4376 0f8c 01       		.uleb128 0x1
 4377 0f8d 30       		.byte	0x30
 4378 0f8e 00       		.byte	0
 4379 0f8f 00       		.byte	0
 4380 0f90 0D       		.uleb128 0xd
 4381 0f91 CD060000 		.4byte	.LASF169
 4382 0f95 01       		.byte	0x1
 4383 0f96 8203     		.2byte	0x382
 4384 0f98 00000000 		.4byte	.LFB47
 4385 0f9c 16000000 		.4byte	.LFE47-.LFB47
 4386 0fa0 01       		.uleb128 0x1
 4387 0fa1 9C       		.byte	0x9c
 4388 0fa2 D90F0000 		.4byte	0xfd9
 4389 0fa6 11       		.uleb128 0x11
 4390 0fa7 DA060000 		.4byte	.LASF170
 4391 0fab 01       		.byte	0x1
 4392 0fac 8203     		.2byte	0x382
 4393 0fae E00F0000 		.4byte	0xfe0
 4394 0fb2 EE060000 		.4byte	.LLST39
 4395 0fb6 09       		.uleb128 0x9
 4396 0fb7 0C000000 		.4byte	.LVL157
 4397 0fbb B4150000 		.4byte	0x15b4
 4398 0fbf C90F0000 		.4byte	0xfc9
 4399 0fc3 0A       		.uleb128 0xa
 4400 0fc4 01       		.uleb128 0x1
 4401 0fc5 50       		.byte	0x50
 4402 0fc6 01       		.uleb128 0x1
 4403 0fc7 31       		.byte	0x31
 4404 0fc8 00       		.byte	0
 4405 0fc9 0B       		.uleb128 0xb
 4406 0fca 14000000 		.4byte	.LVL160
 4407 0fce B4150000 		.4byte	0x15b4
 4408 0fd2 0A       		.uleb128 0xa
 4409 0fd3 01       		.uleb128 0x1
 4410 0fd4 50       		.byte	0x50
 4411 0fd5 01       		.uleb128 0x1
 4412 0fd6 30       		.byte	0x30
 4413 0fd7 00       		.byte	0
 4414 0fd8 00       		.byte	0
 4415 0fd9 02       		.uleb128 0x2
 4416 0fda 01       		.byte	0x1
 4417 0fdb 02       		.byte	0x2
 4418 0fdc C7060000 		.4byte	.LASF171
 4419 0fe0 10       		.uleb128 0x10
 4420 0fe1 D90F0000 		.4byte	0xfd9
 4421 0fe5 0D       		.uleb128 0xd
 4422 0fe6 5D030000 		.4byte	.LASF172
 4423 0fea 01       		.byte	0x1
 4424 0feb 1101     		.2byte	0x111
ARM GAS  C:\Users\Xwx47\AppData\Local\Temp\ccidPk4n.s 			page 99


 4425 0fed 00000000 		.4byte	.LFB11
 4426 0ff1 12000000 		.4byte	.LFE11-.LFB11
 4427 0ff5 01       		.uleb128 0x1
 4428 0ff6 9C       		.byte	0x9c
 4429 0ff7 23100000 		.4byte	0x1023
 4430 0ffb 09       		.uleb128 0x9
 4431 0ffc 08000000 		.4byte	.LVL161
 4432 1000 900F0000 		.4byte	0xf90
 4433 1004 0E100000 		.4byte	0x100e
 4434 1008 0A       		.uleb128 0xa
 4435 1009 01       		.uleb128 0x1
 4436 100a 50       		.byte	0x50
 4437 100b 01       		.uleb128 0x1
 4438 100c 30       		.byte	0x30
 4439 100d 00       		.byte	0
 4440 100e 0B       		.uleb128 0xb
 4441 100f 10000000 		.4byte	.LVL162
 4442 1013 7D150000 		.4byte	0x157d
 4443 1017 0A       		.uleb128 0xa
 4444 1018 01       		.uleb128 0x1
 4445 1019 50       		.byte	0x50
 4446 101a 01       		.uleb128 0x1
 4447 101b 30       		.byte	0x30
 4448 101c 0A       		.uleb128 0xa
 4449 101d 01       		.uleb128 0x1
 4450 101e 51       		.byte	0x51
 4451 101f 01       		.uleb128 0x1
 4452 1020 31       		.byte	0x31
 4453 1021 00       		.byte	0
 4454 1022 00       		.byte	0
 4455 1023 0D       		.uleb128 0xd
 4456 1024 840F0000 		.4byte	.LASF173
 4457 1028 01       		.byte	0x1
 4458 1029 2401     		.2byte	0x124
 4459 102b 00000000 		.4byte	.LFB12
 4460 102f 12000000 		.4byte	.LFE12-.LFB12
 4461 1033 01       		.uleb128 0x1
 4462 1034 9C       		.byte	0x9c
 4463 1035 61100000 		.4byte	0x1061
 4464 1039 09       		.uleb128 0x9
 4465 103a 08000000 		.4byte	.LVL163
 4466 103e 900F0000 		.4byte	0xf90
 4467 1042 4C100000 		.4byte	0x104c
 4468 1046 0A       		.uleb128 0xa
 4469 1047 01       		.uleb128 0x1
 4470 1048 50       		.byte	0x50
 4471 1049 01       		.uleb128 0x1
 4472 104a 31       		.byte	0x31
 4473 104b 00       		.byte	0
 4474 104c 0B       		.uleb128 0xb
 4475 104d 10000000 		.4byte	.LVL164
 4476 1051 88150000 		.4byte	0x1588
 4477 1055 0A       		.uleb128 0xa
 4478 1056 01       		.uleb128 0x1
 4479 1057 50       		.byte	0x50
 4480 1058 01       		.uleb128 0x1
 4481 1059 30       		.byte	0x30
ARM GAS  C:\Users\Xwx47\AppData\Local\Temp\ccidPk4n.s 			page 100


 4482 105a 0A       		.uleb128 0xa
 4483 105b 01       		.uleb128 0x1
 4484 105c 51       		.byte	0x51
 4485 105d 01       		.uleb128 0x1
 4486 105e 31       		.byte	0x31
 4487 105f 00       		.byte	0
 4488 1060 00       		.byte	0
 4489 1061 0D       		.uleb128 0xd
 4490 1062 F2020000 		.4byte	.LASF174
 4491 1066 01       		.byte	0x1
 4492 1067 8D03     		.2byte	0x38d
 4493 1069 00000000 		.4byte	.LFB48
 4494 106d 0A000000 		.4byte	.LFE48-.LFB48
 4495 1071 01       		.uleb128 0x1
 4496 1072 9C       		.byte	0x9c
 4497 1073 87100000 		.4byte	0x1087
 4498 1077 0B       		.uleb128 0xb
 4499 1078 08000000 		.4byte	.LVL165
 4500 107c 900F0000 		.4byte	0xf90
 4501 1080 0A       		.uleb128 0xa
 4502 1081 01       		.uleb128 0x1
 4503 1082 50       		.byte	0x50
 4504 1083 01       		.uleb128 0x1
 4505 1084 31       		.byte	0x31
 4506 1085 00       		.byte	0
 4507 1086 00       		.byte	0
 4508 1087 0D       		.uleb128 0xd
 4509 1088 180F0000 		.4byte	.LASF175
 4510 108c 01       		.byte	0x1
 4511 108d 9603     		.2byte	0x396
 4512 108f 00000000 		.4byte	.LFB49
 4513 1093 0A000000 		.4byte	.LFE49-.LFB49
 4514 1097 01       		.uleb128 0x1
 4515 1098 9C       		.byte	0x9c
 4516 1099 AD100000 		.4byte	0x10ad
 4517 109d 0B       		.uleb128 0xb
 4518 109e 08000000 		.4byte	.LVL166
 4519 10a2 900F0000 		.4byte	0xf90
 4520 10a6 0A       		.uleb128 0xa
 4521 10a7 01       		.uleb128 0x1
 4522 10a8 50       		.byte	0x50
 4523 10a9 01       		.uleb128 0x1
 4524 10aa 30       		.byte	0x30
 4525 10ab 00       		.byte	0
 4526 10ac 00       		.byte	0
 4527 10ad 0D       		.uleb128 0xd
 4528 10ae 75090000 		.4byte	.LASF176
 4529 10b2 01       		.byte	0x1
 4530 10b3 9F03     		.2byte	0x39f
 4531 10b5 00000000 		.4byte	.LFB50
 4532 10b9 16000000 		.4byte	.LFE50-.LFB50
 4533 10bd 01       		.uleb128 0x1
 4534 10be 9C       		.byte	0x9c
 4535 10bf F9100000 		.4byte	0x10f9
 4536 10c3 09       		.uleb128 0x9
 4537 10c4 08000000 		.4byte	.LVL167
 4538 10c8 B4150000 		.4byte	0x15b4
ARM GAS  C:\Users\Xwx47\AppData\Local\Temp\ccidPk4n.s 			page 101


 4539 10cc D6100000 		.4byte	0x10d6
 4540 10d0 0A       		.uleb128 0xa
 4541 10d1 01       		.uleb128 0x1
 4542 10d2 50       		.byte	0x50
 4543 10d3 01       		.uleb128 0x1
 4544 10d4 31       		.byte	0x31
 4545 10d5 00       		.byte	0
 4546 10d6 09       		.uleb128 0x9
 4547 10d7 0E000000 		.4byte	.LVL168
 4548 10db BF150000 		.4byte	0x15bf
 4549 10df E9100000 		.4byte	0x10e9
 4550 10e3 0A       		.uleb128 0xa
 4551 10e4 01       		.uleb128 0x1
 4552 10e5 50       		.byte	0x50
 4553 10e6 01       		.uleb128 0x1
 4554 10e7 3F       		.byte	0x3f
 4555 10e8 00       		.byte	0
 4556 10e9 0B       		.uleb128 0xb
 4557 10ea 14000000 		.4byte	.LVL169
 4558 10ee B4150000 		.4byte	0x15b4
 4559 10f2 0A       		.uleb128 0xa
 4560 10f3 01       		.uleb128 0x1
 4561 10f4 50       		.byte	0x50
 4562 10f5 01       		.uleb128 0x1
 4563 10f6 30       		.byte	0x30
 4564 10f7 00       		.byte	0
 4565 10f8 00       		.byte	0
 4566 10f9 0D       		.uleb128 0xd
 4567 10fa A6000000 		.4byte	.LASF177
 4568 10fe 01       		.byte	0x1
 4569 10ff 2C03     		.2byte	0x32c
 4570 1101 00000000 		.4byte	.LFB38
 4571 1105 0C000000 		.4byte	.LFE38-.LFB38
 4572 1109 01       		.uleb128 0x1
 4573 110a 9C       		.byte	0x9c
 4574 110b 22110000 		.4byte	0x1122
 4575 110f 0F       		.uleb128 0xf
 4576 1110 06000000 		.4byte	.LVL170
 4577 1114 CA150000 		.4byte	0x15ca
 4578 1118 0F       		.uleb128 0xf
 4579 1119 0A000000 		.4byte	.LVL171
 4580 111d AD100000 		.4byte	0x10ad
 4581 1121 00       		.byte	0
 4582 1122 12       		.uleb128 0x12
 4583 1123 C0050000 		.4byte	.LASF178
 4584 1127 01       		.byte	0x1
 4585 1128 AD03     		.2byte	0x3ad
 4586 112a 76000000 		.4byte	0x76
 4587 112e 00000000 		.4byte	.LFB51
 4588 1132 08000000 		.4byte	.LFE51-.LFB51
 4589 1136 01       		.uleb128 0x1
 4590 1137 9C       		.byte	0x9c
 4591 1138 46110000 		.4byte	0x1146
 4592 113c 0F       		.uleb128 0xf
 4593 113d 06000000 		.4byte	.LVL172
 4594 1141 D5150000 		.4byte	0x15d5
 4595 1145 00       		.byte	0
ARM GAS  C:\Users\Xwx47\AppData\Local\Temp\ccidPk4n.s 			page 102


 4596 1146 12       		.uleb128 0x12
 4597 1147 E0010000 		.4byte	.LASF179
 4598 114b 01       		.byte	0x1
 4599 114c B603     		.2byte	0x3b6
 4600 114e 76000000 		.4byte	0x76
 4601 1152 00000000 		.4byte	.LFB52
 4602 1156 0E000000 		.4byte	.LFE52-.LFB52
 4603 115a 01       		.uleb128 0x1
 4604 115b 9C       		.byte	0x9c
 4605 115c 80110000 		.4byte	0x1180
 4606 1160 15       		.uleb128 0x15
 4607 1161 6A040000 		.4byte	.LASF180
 4608 1165 01       		.byte	0x1
 4609 1166 B803     		.2byte	0x3b8
 4610 1168 76000000 		.4byte	0x76
 4611 116c 28070000 		.4byte	.LLST40
 4612 1170 0B       		.uleb128 0xb
 4613 1171 08000000 		.4byte	.LVL173
 4614 1175 93150000 		.4byte	0x1593
 4615 1179 0A       		.uleb128 0xa
 4616 117a 01       		.uleb128 0x1
 4617 117b 50       		.byte	0x50
 4618 117c 01       		.uleb128 0x1
 4619 117d 38       		.byte	0x38
 4620 117e 00       		.byte	0
 4621 117f 00       		.byte	0
 4622 1180 12       		.uleb128 0x12
 4623 1181 140A0000 		.4byte	.LASF181
 4624 1185 01       		.byte	0x1
 4625 1186 C403     		.2byte	0x3c4
 4626 1188 76000000 		.4byte	0x76
 4627 118c 00000000 		.4byte	.LFB53
 4628 1190 0E000000 		.4byte	.LFE53-.LFB53
 4629 1194 01       		.uleb128 0x1
 4630 1195 9C       		.byte	0x9c
 4631 1196 BA110000 		.4byte	0x11ba
 4632 119a 15       		.uleb128 0x15
 4633 119b 630F0000 		.4byte	.LASF182
 4634 119f 01       		.byte	0x1
 4635 11a0 C603     		.2byte	0x3c6
 4636 11a2 76000000 		.4byte	0x76
 4637 11a6 3B070000 		.4byte	.LLST41
 4638 11aa 0B       		.uleb128 0xb
 4639 11ab 08000000 		.4byte	.LVL175
 4640 11af 93150000 		.4byte	0x1593
 4641 11b3 0A       		.uleb128 0xa
 4642 11b4 01       		.uleb128 0x1
 4643 11b5 50       		.byte	0x50
 4644 11b6 01       		.uleb128 0x1
 4645 11b7 38       		.byte	0x38
 4646 11b8 00       		.byte	0
 4647 11b9 00       		.byte	0
 4648 11ba 0D       		.uleb128 0xd
 4649 11bb 89050000 		.4byte	.LASF183
 4650 11bf 01       		.byte	0x1
 4651 11c0 D103     		.2byte	0x3d1
 4652 11c2 00000000 		.4byte	.LFB54
ARM GAS  C:\Users\Xwx47\AppData\Local\Temp\ccidPk4n.s 			page 103


 4653 11c6 08000000 		.4byte	.LFE54-.LFB54
 4654 11ca 01       		.uleb128 0x1
 4655 11cb 9C       		.byte	0x9c
 4656 11cc 09120000 		.4byte	0x1209
 4657 11d0 11       		.uleb128 0x11
 4658 11d1 D9070000 		.4byte	.LASF184
 4659 11d5 01       		.byte	0x1
 4660 11d6 D103     		.2byte	0x3d1
 4661 11d8 8D070000 		.4byte	0x78d
 4662 11dc 53070000 		.4byte	.LLST42
 4663 11e0 11       		.uleb128 0x11
 4664 11e1 060A0000 		.4byte	.LASF141
 4665 11e5 01       		.byte	0x1
 4666 11e6 D103     		.2byte	0x3d1
 4667 11e8 410C0000 		.4byte	0xc41
 4668 11ec 74070000 		.4byte	.LLST43
 4669 11f0 0B       		.uleb128 0xb
 4670 11f1 06000000 		.4byte	.LVL178
 4671 11f5 E0150000 		.4byte	0x15e0
 4672 11f9 0A       		.uleb128 0xa
 4673 11fa 01       		.uleb128 0x1
 4674 11fb 50       		.byte	0x50
 4675 11fc 03       		.uleb128 0x3
 4676 11fd F3       		.byte	0xf3
 4677 11fe 01       		.uleb128 0x1
 4678 11ff 50       		.byte	0x50
 4679 1200 0A       		.uleb128 0xa
 4680 1201 01       		.uleb128 0x1
 4681 1202 51       		.byte	0x51
 4682 1203 03       		.uleb128 0x3
 4683 1204 F3       		.byte	0xf3
 4684 1205 01       		.uleb128 0x1
 4685 1206 51       		.byte	0x51
 4686 1207 00       		.byte	0
 4687 1208 00       		.byte	0
 4688 1209 0D       		.uleb128 0xd
 4689 120a F10E0000 		.4byte	.LASF185
 4690 120e 01       		.byte	0x1
 4691 120f DC03     		.2byte	0x3dc
 4692 1211 00000000 		.4byte	.LFB55
 4693 1215 10000000 		.4byte	.LFE55-.LFB55
 4694 1219 01       		.uleb128 0x1
 4695 121a 9C       		.byte	0x9c
 4696 121b 65120000 		.4byte	0x1265
 4697 121f 11       		.uleb128 0x11
 4698 1220 D9070000 		.4byte	.LASF184
 4699 1224 01       		.byte	0x1
 4700 1225 DC03     		.2byte	0x3dc
 4701 1227 8D070000 		.4byte	0x78d
 4702 122b 95070000 		.4byte	.LLST44
 4703 122f 11       		.uleb128 0x11
 4704 1230 060A0000 		.4byte	.LASF141
 4705 1234 01       		.byte	0x1
 4706 1235 DC03     		.2byte	0x3dc
 4707 1237 410C0000 		.4byte	0xc41
 4708 123b B6070000 		.4byte	.LLST45
 4709 123f 09       		.uleb128 0x9
ARM GAS  C:\Users\Xwx47\AppData\Local\Temp\ccidPk4n.s 			page 104


 4710 1240 0A000000 		.4byte	.LVL180
 4711 1244 BA110000 		.4byte	0x11ba
 4712 1248 5B120000 		.4byte	0x125b
 4713 124c 0A       		.uleb128 0xa
 4714 124d 01       		.uleb128 0x1
 4715 124e 50       		.byte	0x50
 4716 124f 03       		.uleb128 0x3
 4717 1250 F3       		.byte	0xf3
 4718 1251 01       		.uleb128 0x1
 4719 1252 50       		.byte	0x50
 4720 1253 0A       		.uleb128 0xa
 4721 1254 01       		.uleb128 0x1
 4722 1255 51       		.byte	0x51
 4723 1256 03       		.uleb128 0x3
 4724 1257 F3       		.byte	0xf3
 4725 1258 01       		.uleb128 0x1
 4726 1259 51       		.byte	0x51
 4727 125a 00       		.byte	0
 4728 125b 0F       		.uleb128 0xf
 4729 125c 0E000000 		.4byte	.LVL181
 4730 1260 AD100000 		.4byte	0x10ad
 4731 1264 00       		.byte	0
 4732 1265 12       		.uleb128 0x12
 4733 1266 630C0000 		.4byte	.LASF186
 4734 126a 01       		.byte	0x1
 4735 126b EB03     		.2byte	0x3eb
 4736 126d D90F0000 		.4byte	0xfd9
 4737 1271 00000000 		.4byte	.LFB56
 4738 1275 0E000000 		.4byte	.LFE56-.LFB56
 4739 1279 01       		.uleb128 0x1
 4740 127a 9C       		.byte	0x9c
 4741 127b 89120000 		.4byte	0x1289
 4742 127f 0F       		.uleb128 0xf
 4743 1280 06000000 		.4byte	.LVL182
 4744 1284 22110000 		.4byte	0x1122
 4745 1288 00       		.byte	0
 4746 1289 0D       		.uleb128 0xd
 4747 128a 25070000 		.4byte	.LASF187
 4748 128e 01       		.byte	0x1
 4749 128f F603     		.2byte	0x3f6
 4750 1291 00000000 		.4byte	.LFB57
 4751 1295 08000000 		.4byte	.LFE57-.LFB57
 4752 1299 01       		.uleb128 0x1
 4753 129a 9C       		.byte	0x9c
 4754 129b D8120000 		.4byte	0x12d8
 4755 129f 11       		.uleb128 0x11
 4756 12a0 D9070000 		.4byte	.LASF184
 4757 12a4 01       		.byte	0x1
 4758 12a5 F603     		.2byte	0x3f6
 4759 12a7 EC070000 		.4byte	0x7ec
 4760 12ab D7070000 		.4byte	.LLST46
 4761 12af 11       		.uleb128 0x11
 4762 12b0 060A0000 		.4byte	.LASF141
 4763 12b4 01       		.byte	0x1
 4764 12b5 F603     		.2byte	0x3f6
 4765 12b7 410C0000 		.4byte	0xc41
 4766 12bb F8070000 		.4byte	.LLST47
ARM GAS  C:\Users\Xwx47\AppData\Local\Temp\ccidPk4n.s 			page 105


 4767 12bf 0B       		.uleb128 0xb
 4768 12c0 06000000 		.4byte	.LVL184
 4769 12c4 EB150000 		.4byte	0x15eb
 4770 12c8 0A       		.uleb128 0xa
 4771 12c9 01       		.uleb128 0x1
 4772 12ca 50       		.byte	0x50
 4773 12cb 03       		.uleb128 0x3
 4774 12cc F3       		.byte	0xf3
 4775 12cd 01       		.uleb128 0x1
 4776 12ce 50       		.byte	0x50
 4777 12cf 0A       		.uleb128 0xa
 4778 12d0 01       		.uleb128 0x1
 4779 12d1 51       		.byte	0x51
 4780 12d2 03       		.uleb128 0x3
 4781 12d3 F3       		.byte	0xf3
 4782 12d4 01       		.uleb128 0x1
 4783 12d5 51       		.byte	0x51
 4784 12d6 00       		.byte	0
 4785 12d7 00       		.byte	0
 4786 12d8 0D       		.uleb128 0xd
 4787 12d9 430E0000 		.4byte	.LASF188
 4788 12dd 01       		.byte	0x1
 4789 12de 0104     		.2byte	0x401
 4790 12e0 00000000 		.4byte	.LFB58
 4791 12e4 0C000000 		.4byte	.LFE58-.LFB58
 4792 12e8 01       		.uleb128 0x1
 4793 12e9 9C       		.byte	0x9c
 4794 12ea 34130000 		.4byte	0x1334
 4795 12ee 11       		.uleb128 0x11
 4796 12ef D9070000 		.4byte	.LASF184
 4797 12f3 01       		.byte	0x1
 4798 12f4 0104     		.2byte	0x401
 4799 12f6 8D070000 		.4byte	0x78d
 4800 12fa 19080000 		.4byte	.LLST48
 4801 12fe 11       		.uleb128 0x11
 4802 12ff 060A0000 		.4byte	.LASF141
 4803 1303 01       		.byte	0x1
 4804 1304 0104     		.2byte	0x401
 4805 1306 410C0000 		.4byte	0xc41
 4806 130a 3A080000 		.4byte	.LLST49
 4807 130e 09       		.uleb128 0x9
 4808 130f 06000000 		.4byte	.LVL186
 4809 1313 F6150000 		.4byte	0x15f6
 4810 1317 2A130000 		.4byte	0x132a
 4811 131b 0A       		.uleb128 0xa
 4812 131c 01       		.uleb128 0x1
 4813 131d 50       		.byte	0x50
 4814 131e 03       		.uleb128 0x3
 4815 131f F3       		.byte	0xf3
 4816 1320 01       		.uleb128 0x1
 4817 1321 50       		.byte	0x50
 4818 1322 0A       		.uleb128 0xa
 4819 1323 01       		.uleb128 0x1
 4820 1324 51       		.byte	0x51
 4821 1325 03       		.uleb128 0x3
 4822 1326 F3       		.byte	0xf3
 4823 1327 01       		.uleb128 0x1
ARM GAS  C:\Users\Xwx47\AppData\Local\Temp\ccidPk4n.s 			page 106


 4824 1328 51       		.byte	0x51
 4825 1329 00       		.byte	0
 4826 132a 0F       		.uleb128 0xf
 4827 132b 0A000000 		.4byte	.LVL187
 4828 132f AD100000 		.4byte	0x10ad
 4829 1333 00       		.byte	0
 4830 1334 0D       		.uleb128 0xd
 4831 1335 FA070000 		.4byte	.LASF189
 4832 1339 01       		.byte	0x1
 4833 133a 0E04     		.2byte	0x40e
 4834 133c 00000000 		.4byte	.LFB59
 4835 1340 08000000 		.4byte	.LFE59-.LFB59
 4836 1344 01       		.uleb128 0x1
 4837 1345 9C       		.byte	0x9c
 4838 1346 93130000 		.4byte	0x1393
 4839 134a 11       		.uleb128 0x11
 4840 134b 9B050000 		.4byte	.LASF133
 4841 134f 01       		.byte	0x1
 4842 1350 0E04     		.2byte	0x40e
 4843 1352 5A060000 		.4byte	0x65a
 4844 1356 5B080000 		.4byte	.LLST50
 4845 135a 11       		.uleb128 0x11
 4846 135b D9070000 		.4byte	.LASF184
 4847 135f 01       		.byte	0x1
 4848 1360 0E04     		.2byte	0x40e
 4849 1362 8D070000 		.4byte	0x78d
 4850 1366 7C080000 		.4byte	.LLST51
 4851 136a 11       		.uleb128 0x11
 4852 136b 060A0000 		.4byte	.LASF141
 4853 136f 01       		.byte	0x1
 4854 1370 0F04     		.2byte	0x40f
 4855 1372 410C0000 		.4byte	0xc41
 4856 1376 9D080000 		.4byte	.LLST52
 4857 137a 0B       		.uleb128 0xb
 4858 137b 06000000 		.4byte	.LVL189
 4859 137f 01160000 		.4byte	0x1601
 4860 1383 0A       		.uleb128 0xa
 4861 1384 01       		.uleb128 0x1
 4862 1385 51       		.byte	0x51
 4863 1386 03       		.uleb128 0x3
 4864 1387 F3       		.byte	0xf3
 4865 1388 01       		.uleb128 0x1
 4866 1389 51       		.byte	0x51
 4867 138a 0A       		.uleb128 0xa
 4868 138b 01       		.uleb128 0x1
 4869 138c 52       		.byte	0x52
 4870 138d 03       		.uleb128 0x3
 4871 138e F3       		.byte	0xf3
 4872 138f 01       		.uleb128 0x1
 4873 1390 52       		.byte	0x52
 4874 1391 00       		.byte	0
 4875 1392 00       		.byte	0
 4876 1393 12       		.uleb128 0x12
 4877 1394 41060000 		.4byte	.LASF190
 4878 1398 01       		.byte	0x1
 4879 1399 1904     		.2byte	0x419
 4880 139b 76000000 		.4byte	0x76
ARM GAS  C:\Users\Xwx47\AppData\Local\Temp\ccidPk4n.s 			page 107


 4881 139f 00000000 		.4byte	.LFB60
 4882 13a3 10000000 		.4byte	.LFE60-.LFB60
 4883 13a7 01       		.uleb128 0x1
 4884 13a8 9C       		.byte	0x9c
 4885 13a9 CD130000 		.4byte	0x13cd
 4886 13ad 15       		.uleb128 0x15
 4887 13ae 9B050000 		.4byte	.LASF133
 4888 13b2 01       		.byte	0x1
 4889 13b3 1B04     		.2byte	0x41b
 4890 13b5 76000000 		.4byte	0x76
 4891 13b9 BE080000 		.4byte	.LLST53
 4892 13bd 0B       		.uleb128 0xb
 4893 13be 08000000 		.4byte	.LVL190
 4894 13c2 93150000 		.4byte	0x1593
 4895 13c6 0A       		.uleb128 0xa
 4896 13c7 01       		.uleb128 0x1
 4897 13c8 50       		.byte	0x50
 4898 13c9 01       		.uleb128 0x1
 4899 13ca 37       		.byte	0x37
 4900 13cb 00       		.byte	0
 4901 13cc 00       		.byte	0
 4902 13cd 12       		.uleb128 0x12
 4903 13ce 9B0F0000 		.4byte	.LASF191
 4904 13d2 01       		.byte	0x1
 4905 13d3 2404     		.2byte	0x424
 4906 13d5 76000000 		.4byte	0x76
 4907 13d9 00000000 		.4byte	.LFB61
 4908 13dd 0C000000 		.4byte	.LFE61-.LFB61
 4909 13e1 01       		.uleb128 0x1
 4910 13e2 9C       		.byte	0x9c
 4911 13e3 FC130000 		.4byte	0x13fc
 4912 13e7 0B       		.uleb128 0xb
 4913 13e8 0A000000 		.4byte	.LVL192
 4914 13ec 0C160000 		.4byte	0x160c
 4915 13f0 0A       		.uleb128 0xa
 4916 13f1 01       		.uleb128 0x1
 4917 13f2 50       		.byte	0x50
 4918 13f3 01       		.uleb128 0x1
 4919 13f4 39       		.byte	0x39
 4920 13f5 0A       		.uleb128 0xa
 4921 13f6 01       		.uleb128 0x1
 4922 13f7 51       		.byte	0x51
 4923 13f8 01       		.uleb128 0x1
 4924 13f9 30       		.byte	0x30
 4925 13fa 00       		.byte	0
 4926 13fb 00       		.byte	0
 4927 13fc 12       		.uleb128 0x12
 4928 13fd 03050000 		.4byte	.LASF192
 4929 1401 01       		.byte	0x1
 4930 1402 2D04     		.2byte	0x42d
 4931 1404 D90F0000 		.4byte	0xfd9
 4932 1408 00000000 		.4byte	.LFB62
 4933 140c 0C000000 		.4byte	.LFE62-.LFB62
 4934 1410 01       		.uleb128 0x1
 4935 1411 9C       		.byte	0x9c
 4936 1412 2B140000 		.4byte	0x142b
 4937 1416 0B       		.uleb128 0xb
ARM GAS  C:\Users\Xwx47\AppData\Local\Temp\ccidPk4n.s 			page 108


 4938 1417 0A000000 		.4byte	.LVL193
 4939 141b 0C160000 		.4byte	0x160c
 4940 141f 0A       		.uleb128 0xa
 4941 1420 01       		.uleb128 0x1
 4942 1421 50       		.byte	0x50
 4943 1422 01       		.uleb128 0x1
 4944 1423 47       		.byte	0x47
 4945 1424 0A       		.uleb128 0xa
 4946 1425 01       		.uleb128 0x1
 4947 1426 51       		.byte	0x51
 4948 1427 01       		.uleb128 0x1
 4949 1428 35       		.byte	0x35
 4950 1429 00       		.byte	0
 4951 142a 00       		.byte	0
 4952 142b 12       		.uleb128 0x12
 4953 142c 040F0000 		.4byte	.LASF193
 4954 1430 01       		.byte	0x1
 4955 1431 3604     		.2byte	0x436
 4956 1433 D90F0000 		.4byte	0xfd9
 4957 1437 00000000 		.4byte	.LFB63
 4958 143b 0C000000 		.4byte	.LFE63-.LFB63
 4959 143f 01       		.uleb128 0x1
 4960 1440 9C       		.byte	0x9c
 4961 1441 5A140000 		.4byte	0x145a
 4962 1445 0B       		.uleb128 0xb
 4963 1446 0A000000 		.4byte	.LVL194
 4964 144a 0C160000 		.4byte	0x160c
 4965 144e 0A       		.uleb128 0xa
 4966 144f 01       		.uleb128 0x1
 4967 1450 50       		.byte	0x50
 4968 1451 01       		.uleb128 0x1
 4969 1452 47       		.byte	0x47
 4970 1453 0A       		.uleb128 0xa
 4971 1454 01       		.uleb128 0x1
 4972 1455 51       		.byte	0x51
 4973 1456 01       		.uleb128 0x1
 4974 1457 30       		.byte	0x30
 4975 1458 00       		.byte	0
 4976 1459 00       		.byte	0
 4977 145a 0D       		.uleb128 0xd
 4978 145b 17080000 		.4byte	.LASF194
 4979 145f 01       		.byte	0x1
 4980 1460 4004     		.2byte	0x440
 4981 1462 00000000 		.4byte	.LFB64
 4982 1466 0C000000 		.4byte	.LFE64-.LFB64
 4983 146a 01       		.uleb128 0x1
 4984 146b 9C       		.byte	0x9c
 4985 146c 86140000 		.4byte	0x1486
 4986 1470 0B       		.uleb128 0xb
 4987 1471 0A000000 		.4byte	.LVL195
 4988 1475 72150000 		.4byte	0x1572
 4989 1479 0A       		.uleb128 0xa
 4990 147a 01       		.uleb128 0x1
 4991 147b 50       		.byte	0x50
 4992 147c 01       		.uleb128 0x1
 4993 147d 37       		.byte	0x37
 4994 147e 0A       		.uleb128 0xa
ARM GAS  C:\Users\Xwx47\AppData\Local\Temp\ccidPk4n.s 			page 109


 4995 147f 01       		.uleb128 0x1
 4996 1480 51       		.byte	0x51
 4997 1481 02       		.uleb128 0x2
 4998 1482 08       		.byte	0x8
 4999 1483 70       		.byte	0x70
 5000 1484 00       		.byte	0
 5001 1485 00       		.byte	0
 5002 1486 08       		.uleb128 0x8
 5003 1487 05070000 		.4byte	.LASF195
 5004 148b 01       		.byte	0x1
 5005 148c 31       		.byte	0x31
 5006 148d 00000000 		.4byte	.LFB1
 5007 1491 2A000000 		.4byte	.LFE1-.LFB1
 5008 1495 01       		.uleb128 0x1
 5009 1496 9C       		.byte	0x9c
 5010 1497 03150000 		.4byte	0x1503
 5011 149b 09       		.uleb128 0x9
 5012 149c 08000000 		.4byte	.LVL196
 5013 14a0 17160000 		.4byte	0x1617
 5014 14a4 AF140000 		.4byte	0x14af
 5015 14a8 0A       		.uleb128 0xa
 5016 14a9 01       		.uleb128 0x1
 5017 14aa 50       		.byte	0x50
 5018 14ab 02       		.uleb128 0x2
 5019 14ac 08       		.byte	0x8
 5020 14ad 64       		.byte	0x64
 5021 14ae 00       		.byte	0
 5022 14af 09       		.uleb128 0x9
 5023 14b0 0E000000 		.4byte	.LVL197
 5024 14b4 B4150000 		.4byte	0x15b4
 5025 14b8 C2140000 		.4byte	0x14c2
 5026 14bc 0A       		.uleb128 0xa
 5027 14bd 01       		.uleb128 0x1
 5028 14be 50       		.byte	0x50
 5029 14bf 01       		.uleb128 0x1
 5030 14c0 30       		.byte	0x30
 5031 14c1 00       		.byte	0
 5032 14c2 09       		.uleb128 0x9
 5033 14c3 14000000 		.4byte	.LVL198
 5034 14c7 22160000 		.4byte	0x1622
 5035 14cb D5140000 		.4byte	0x14d5
 5036 14cf 0A       		.uleb128 0xa
 5037 14d0 01       		.uleb128 0x1
 5038 14d1 50       		.byte	0x50
 5039 14d2 01       		.uleb128 0x1
 5040 14d3 31       		.byte	0x31
 5041 14d4 00       		.byte	0
 5042 14d5 0F       		.uleb128 0xf
 5043 14d6 18000000 		.4byte	.LVL199
 5044 14da 2D160000 		.4byte	0x162d
 5045 14de 0F       		.uleb128 0xf
 5046 14df 1C000000 		.4byte	.LVL200
 5047 14e3 FE030000 		.4byte	0x3fe
 5048 14e7 0F       		.uleb128 0xf
 5049 14e8 20000000 		.4byte	.LVL201
 5050 14ec 5A140000 		.4byte	0x145a
 5051 14f0 0F       		.uleb128 0xf
ARM GAS  C:\Users\Xwx47\AppData\Local\Temp\ccidPk4n.s 			page 110


 5052 14f1 24000000 		.4byte	.LVL202
 5053 14f5 38160000 		.4byte	0x1638
 5054 14f9 0F       		.uleb128 0xf
 5055 14fa 28000000 		.4byte	.LVL203
 5056 14fe 43160000 		.4byte	0x1643
 5057 1502 00       		.byte	0
 5058 1503 0D       		.uleb128 0xd
 5059 1504 F0040000 		.4byte	.LASF196
 5060 1508 01       		.byte	0x1
 5061 1509 4C04     		.2byte	0x44c
 5062 150b 00000000 		.4byte	.LFB65
 5063 150f 10000000 		.4byte	.LFE65-.LFB65
 5064 1513 01       		.uleb128 0x1
 5065 1514 9C       		.byte	0x9c
 5066 1515 39150000 		.4byte	0x1539
 5067 1519 11       		.uleb128 0x11
 5068 151a 44000000 		.4byte	.LASF197
 5069 151e 01       		.byte	0x1
 5070 151f 4C04     		.2byte	0x44c
 5071 1521 39150000 		.4byte	0x1539
 5072 1525 D1080000 		.4byte	.LLST54
 5073 1529 0B       		.uleb128 0xb
 5074 152a 0E000000 		.4byte	.LVL206
 5075 152e 72150000 		.4byte	0x1572
 5076 1532 0A       		.uleb128 0xa
 5077 1533 01       		.uleb128 0x1
 5078 1534 50       		.byte	0x50
 5079 1535 01       		.uleb128 0x1
 5080 1536 37       		.byte	0x37
 5081 1537 00       		.byte	0
 5082 1538 00       		.byte	0
 5083 1539 10       		.uleb128 0x10
 5084 153a D7010000 		.4byte	0x1d7
 5085 153e 12       		.uleb128 0x12
 5086 153f 32010000 		.4byte	.LASF198
 5087 1543 01       		.byte	0x1
 5088 1544 5804     		.2byte	0x458
 5089 1546 D7010000 		.4byte	0x1d7
 5090 154a 00000000 		.4byte	.LFB66
 5091 154e 28000000 		.4byte	.LFE66-.LFB66
 5092 1552 01       		.uleb128 0x1
 5093 1553 9C       		.byte	0x9c
 5094 1554 72150000 		.4byte	0x1572
 5095 1558 13       		.uleb128 0x13
 5096 1559 73747300 		.ascii	"sts\000"
 5097 155d 01       		.byte	0x1
 5098 155e 5B04     		.2byte	0x45b
 5099 1560 76000000 		.4byte	0x76
 5100 1564 F2080000 		.4byte	.LLST55
 5101 1568 0F       		.uleb128 0xf
 5102 1569 06000000 		.4byte	.LVL207
 5103 156d D5150000 		.4byte	0x15d5
 5104 1571 00       		.byte	0
 5105 1572 16       		.uleb128 0x16
 5106 1573 2E0A0000 		.4byte	.LASF199
 5107 1577 2E0A0000 		.4byte	.LASF199
 5108 157b 06       		.byte	0x6
ARM GAS  C:\Users\Xwx47\AppData\Local\Temp\ccidPk4n.s 			page 111


 5109 157c 28       		.byte	0x28
 5110 157d 16       		.uleb128 0x16
 5111 157e 56100000 		.4byte	.LASF200
 5112 1582 56100000 		.4byte	.LASF200
 5113 1586 06       		.byte	0x6
 5114 1587 2C       		.byte	0x2c
 5115 1588 16       		.uleb128 0x16
 5116 1589 54070000 		.4byte	.LASF201
 5117 158d 54070000 		.4byte	.LASF201
 5118 1591 06       		.byte	0x6
 5119 1592 2D       		.byte	0x2d
 5120 1593 16       		.uleb128 0x16
 5121 1594 F2060000 		.4byte	.LASF202
 5122 1598 F2060000 		.4byte	.LASF202
 5123 159c 06       		.byte	0x6
 5124 159d 26       		.byte	0x26
 5125 159e 16       		.uleb128 0x16
 5126 159f 540D0000 		.4byte	.LASF203
 5127 15a3 540D0000 		.4byte	.LASF203
 5128 15a7 06       		.byte	0x6
 5129 15a8 29       		.byte	0x29
 5130 15a9 16       		.uleb128 0x16
 5131 15aa 800C0000 		.4byte	.LASF204
 5132 15ae 800C0000 		.4byte	.LASF204
 5133 15b2 06       		.byte	0x6
 5134 15b3 27       		.byte	0x27
 5135 15b4 16       		.uleb128 0x16
 5136 15b5 0B0A0000 		.4byte	.LASF205
 5137 15b9 0B0A0000 		.4byte	.LASF205
 5138 15bd 07       		.byte	0x7
 5139 15be 33       		.byte	0x33
 5140 15bf 16       		.uleb128 0x16
 5141 15c0 88040000 		.4byte	.LASF206
 5142 15c4 88040000 		.4byte	.LASF206
 5143 15c8 08       		.byte	0x8
 5144 15c9 DA       		.byte	0xda
 5145 15ca 16       		.uleb128 0x16
 5146 15cb 16010000 		.4byte	.LASF207
 5147 15cf 16010000 		.4byte	.LASF207
 5148 15d3 09       		.byte	0x9
 5149 15d4 26       		.byte	0x26
 5150 15d5 16       		.uleb128 0x16
 5151 15d6 84010000 		.4byte	.LASF208
 5152 15da 84010000 		.4byte	.LASF208
 5153 15de 09       		.byte	0x9
 5154 15df 2F       		.byte	0x2f
 5155 15e0 16       		.uleb128 0x16
 5156 15e1 7F0D0000 		.4byte	.LASF209
 5157 15e5 7F0D0000 		.4byte	.LASF209
 5158 15e9 09       		.byte	0x9
 5159 15ea 28       		.byte	0x28
 5160 15eb 16       		.uleb128 0x16
 5161 15ec 5A090000 		.4byte	.LASF210
 5162 15f0 5A090000 		.4byte	.LASF210
 5163 15f4 09       		.byte	0x9
 5164 15f5 27       		.byte	0x27
 5165 15f6 16       		.uleb128 0x16
ARM GAS  C:\Users\Xwx47\AppData\Local\Temp\ccidPk4n.s 			page 112


 5166 15f7 110C0000 		.4byte	.LASF211
 5167 15fb 110C0000 		.4byte	.LASF211
 5168 15ff 09       		.byte	0x9
 5169 1600 2E       		.byte	0x2e
 5170 1601 16       		.uleb128 0x16
 5171 1602 8A070000 		.4byte	.LASF212
 5172 1606 8A070000 		.4byte	.LASF212
 5173 160a 09       		.byte	0x9
 5174 160b 2C       		.byte	0x2c
 5175 160c 16       		.uleb128 0x16
 5176 160d 2A080000 		.4byte	.LASF213
 5177 1611 2A080000 		.4byte	.LASF213
 5178 1615 06       		.byte	0x6
 5179 1616 2A       		.byte	0x2a
 5180 1617 16       		.uleb128 0x16
 5181 1618 4D000000 		.4byte	.LASF214
 5182 161c 4D000000 		.4byte	.LASF214
 5183 1620 08       		.byte	0x8
 5184 1621 D9       		.byte	0xd9
 5185 1622 16       		.uleb128 0x16
 5186 1623 E7040000 		.4byte	.LASF215
 5187 1627 E7040000 		.4byte	.LASF215
 5188 162b 0A       		.byte	0xa
 5189 162c 33       		.byte	0x33
 5190 162d 16       		.uleb128 0x16
 5191 162e 92040000 		.4byte	.LASF216
 5192 1632 92040000 		.4byte	.LASF216
 5193 1636 0B       		.byte	0xb
 5194 1637 6E       		.byte	0x6e
 5195 1638 16       		.uleb128 0x16
 5196 1639 65060000 		.4byte	.LASF217
 5197 163d 65060000 		.4byte	.LASF217
 5198 1641 09       		.byte	0x9
 5199 1642 29       		.byte	0x29
 5200 1643 16       		.uleb128 0x16
 5201 1644 150B0000 		.4byte	.LASF218
 5202 1648 150B0000 		.4byte	.LASF218
 5203 164c 09       		.byte	0x9
 5204 164d 2A       		.byte	0x2a
 5205 164e 00       		.byte	0
 5206              		.section	.debug_abbrev,"",%progbits
 5207              	.Ldebug_abbrev0:
 5208 0000 01       		.uleb128 0x1
 5209 0001 11       		.uleb128 0x11
 5210 0002 01       		.byte	0x1
 5211 0003 25       		.uleb128 0x25
 5212 0004 0E       		.uleb128 0xe
 5213 0005 13       		.uleb128 0x13
 5214 0006 0B       		.uleb128 0xb
 5215 0007 03       		.uleb128 0x3
 5216 0008 0E       		.uleb128 0xe
 5217 0009 1B       		.uleb128 0x1b
 5218 000a 0E       		.uleb128 0xe
 5219 000b 55       		.uleb128 0x55
 5220 000c 17       		.uleb128 0x17
 5221 000d 11       		.uleb128 0x11
 5222 000e 01       		.uleb128 0x1
ARM GAS  C:\Users\Xwx47\AppData\Local\Temp\ccidPk4n.s 			page 113


 5223 000f 10       		.uleb128 0x10
 5224 0010 17       		.uleb128 0x17
 5225 0011 00       		.byte	0
 5226 0012 00       		.byte	0
 5227 0013 02       		.uleb128 0x2
 5228 0014 24       		.uleb128 0x24
 5229 0015 00       		.byte	0
 5230 0016 0B       		.uleb128 0xb
 5231 0017 0B       		.uleb128 0xb
 5232 0018 3E       		.uleb128 0x3e
 5233 0019 0B       		.uleb128 0xb
 5234 001a 03       		.uleb128 0x3
 5235 001b 0E       		.uleb128 0xe
 5236 001c 00       		.byte	0
 5237 001d 00       		.byte	0
 5238 001e 03       		.uleb128 0x3
 5239 001f 16       		.uleb128 0x16
 5240 0020 00       		.byte	0
 5241 0021 03       		.uleb128 0x3
 5242 0022 0E       		.uleb128 0xe
 5243 0023 3A       		.uleb128 0x3a
 5244 0024 0B       		.uleb128 0xb
 5245 0025 3B       		.uleb128 0x3b
 5246 0026 0B       		.uleb128 0xb
 5247 0027 49       		.uleb128 0x49
 5248 0028 13       		.uleb128 0x13
 5249 0029 00       		.byte	0
 5250 002a 00       		.byte	0
 5251 002b 04       		.uleb128 0x4
 5252 002c 24       		.uleb128 0x24
 5253 002d 00       		.byte	0
 5254 002e 0B       		.uleb128 0xb
 5255 002f 0B       		.uleb128 0xb
 5256 0030 3E       		.uleb128 0x3e
 5257 0031 0B       		.uleb128 0xb
 5258 0032 03       		.uleb128 0x3
 5259 0033 08       		.uleb128 0x8
 5260 0034 00       		.byte	0
 5261 0035 00       		.byte	0
 5262 0036 05       		.uleb128 0x5
 5263 0037 04       		.uleb128 0x4
 5264 0038 01       		.byte	0x1
 5265 0039 0B       		.uleb128 0xb
 5266 003a 0B       		.uleb128 0xb
 5267 003b 49       		.uleb128 0x49
 5268 003c 13       		.uleb128 0x13
 5269 003d 3A       		.uleb128 0x3a
 5270 003e 0B       		.uleb128 0xb
 5271 003f 3B       		.uleb128 0x3b
 5272 0040 0B       		.uleb128 0xb
 5273 0041 01       		.uleb128 0x1
 5274 0042 13       		.uleb128 0x13
 5275 0043 00       		.byte	0
 5276 0044 00       		.byte	0
 5277 0045 06       		.uleb128 0x6
 5278 0046 28       		.uleb128 0x28
 5279 0047 00       		.byte	0
ARM GAS  C:\Users\Xwx47\AppData\Local\Temp\ccidPk4n.s 			page 114


 5280 0048 03       		.uleb128 0x3
 5281 0049 0E       		.uleb128 0xe
 5282 004a 1C       		.uleb128 0x1c
 5283 004b 0B       		.uleb128 0xb
 5284 004c 00       		.byte	0
 5285 004d 00       		.byte	0
 5286 004e 07       		.uleb128 0x7
 5287 004f 04       		.uleb128 0x4
 5288 0050 01       		.byte	0x1
 5289 0051 0B       		.uleb128 0xb
 5290 0052 0B       		.uleb128 0xb
 5291 0053 49       		.uleb128 0x49
 5292 0054 13       		.uleb128 0x13
 5293 0055 3A       		.uleb128 0x3a
 5294 0056 0B       		.uleb128 0xb
 5295 0057 3B       		.uleb128 0x3b
 5296 0058 05       		.uleb128 0x5
 5297 0059 01       		.uleb128 0x1
 5298 005a 13       		.uleb128 0x13
 5299 005b 00       		.byte	0
 5300 005c 00       		.byte	0
 5301 005d 08       		.uleb128 0x8
 5302 005e 2E       		.uleb128 0x2e
 5303 005f 01       		.byte	0x1
 5304 0060 3F       		.uleb128 0x3f
 5305 0061 19       		.uleb128 0x19
 5306 0062 03       		.uleb128 0x3
 5307 0063 0E       		.uleb128 0xe
 5308 0064 3A       		.uleb128 0x3a
 5309 0065 0B       		.uleb128 0xb
 5310 0066 3B       		.uleb128 0x3b
 5311 0067 0B       		.uleb128 0xb
 5312 0068 27       		.uleb128 0x27
 5313 0069 19       		.uleb128 0x19
 5314 006a 11       		.uleb128 0x11
 5315 006b 01       		.uleb128 0x1
 5316 006c 12       		.uleb128 0x12
 5317 006d 06       		.uleb128 0x6
 5318 006e 40       		.uleb128 0x40
 5319 006f 18       		.uleb128 0x18
 5320 0070 9742     		.uleb128 0x2117
 5321 0072 19       		.uleb128 0x19
 5322 0073 01       		.uleb128 0x1
 5323 0074 13       		.uleb128 0x13
 5324 0075 00       		.byte	0
 5325 0076 00       		.byte	0
 5326 0077 09       		.uleb128 0x9
 5327 0078 898201   		.uleb128 0x4109
 5328 007b 01       		.byte	0x1
 5329 007c 11       		.uleb128 0x11
 5330 007d 01       		.uleb128 0x1
 5331 007e 31       		.uleb128 0x31
 5332 007f 13       		.uleb128 0x13
 5333 0080 01       		.uleb128 0x1
 5334 0081 13       		.uleb128 0x13
 5335 0082 00       		.byte	0
 5336 0083 00       		.byte	0
ARM GAS  C:\Users\Xwx47\AppData\Local\Temp\ccidPk4n.s 			page 115


 5337 0084 0A       		.uleb128 0xa
 5338 0085 8A8201   		.uleb128 0x410a
 5339 0088 00       		.byte	0
 5340 0089 02       		.uleb128 0x2
 5341 008a 18       		.uleb128 0x18
 5342 008b 9142     		.uleb128 0x2111
 5343 008d 18       		.uleb128 0x18
 5344 008e 00       		.byte	0
 5345 008f 00       		.byte	0
 5346 0090 0B       		.uleb128 0xb
 5347 0091 898201   		.uleb128 0x4109
 5348 0094 01       		.byte	0x1
 5349 0095 11       		.uleb128 0x11
 5350 0096 01       		.uleb128 0x1
 5351 0097 31       		.uleb128 0x31
 5352 0098 13       		.uleb128 0x13
 5353 0099 00       		.byte	0
 5354 009a 00       		.byte	0
 5355 009b 0C       		.uleb128 0xc
 5356 009c 2E       		.uleb128 0x2e
 5357 009d 00       		.byte	0
 5358 009e 3F       		.uleb128 0x3f
 5359 009f 19       		.uleb128 0x19
 5360 00a0 03       		.uleb128 0x3
 5361 00a1 0E       		.uleb128 0xe
 5362 00a2 3A       		.uleb128 0x3a
 5363 00a3 0B       		.uleb128 0xb
 5364 00a4 3B       		.uleb128 0x3b
 5365 00a5 0B       		.uleb128 0xb
 5366 00a6 27       		.uleb128 0x27
 5367 00a7 19       		.uleb128 0x19
 5368 00a8 11       		.uleb128 0x11
 5369 00a9 01       		.uleb128 0x1
 5370 00aa 12       		.uleb128 0x12
 5371 00ab 06       		.uleb128 0x6
 5372 00ac 40       		.uleb128 0x40
 5373 00ad 18       		.uleb128 0x18
 5374 00ae 9742     		.uleb128 0x2117
 5375 00b0 19       		.uleb128 0x19
 5376 00b1 00       		.byte	0
 5377 00b2 00       		.byte	0
 5378 00b3 0D       		.uleb128 0xd
 5379 00b4 2E       		.uleb128 0x2e
 5380 00b5 01       		.byte	0x1
 5381 00b6 3F       		.uleb128 0x3f
 5382 00b7 19       		.uleb128 0x19
 5383 00b8 03       		.uleb128 0x3
 5384 00b9 0E       		.uleb128 0xe
 5385 00ba 3A       		.uleb128 0x3a
 5386 00bb 0B       		.uleb128 0xb
 5387 00bc 3B       		.uleb128 0x3b
 5388 00bd 05       		.uleb128 0x5
 5389 00be 27       		.uleb128 0x27
 5390 00bf 19       		.uleb128 0x19
 5391 00c0 11       		.uleb128 0x11
 5392 00c1 01       		.uleb128 0x1
 5393 00c2 12       		.uleb128 0x12
ARM GAS  C:\Users\Xwx47\AppData\Local\Temp\ccidPk4n.s 			page 116


 5394 00c3 06       		.uleb128 0x6
 5395 00c4 40       		.uleb128 0x40
 5396 00c5 18       		.uleb128 0x18
 5397 00c6 9742     		.uleb128 0x2117
 5398 00c8 19       		.uleb128 0x19
 5399 00c9 01       		.uleb128 0x1
 5400 00ca 13       		.uleb128 0x13
 5401 00cb 00       		.byte	0
 5402 00cc 00       		.byte	0
 5403 00cd 0E       		.uleb128 0xe
 5404 00ce 05       		.uleb128 0x5
 5405 00cf 00       		.byte	0
 5406 00d0 03       		.uleb128 0x3
 5407 00d1 0E       		.uleb128 0xe
 5408 00d2 3A       		.uleb128 0x3a
 5409 00d3 0B       		.uleb128 0xb
 5410 00d4 3B       		.uleb128 0x3b
 5411 00d5 0B       		.uleb128 0xb
 5412 00d6 49       		.uleb128 0x49
 5413 00d7 13       		.uleb128 0x13
 5414 00d8 02       		.uleb128 0x2
 5415 00d9 17       		.uleb128 0x17
 5416 00da 00       		.byte	0
 5417 00db 00       		.byte	0
 5418 00dc 0F       		.uleb128 0xf
 5419 00dd 898201   		.uleb128 0x4109
 5420 00e0 00       		.byte	0
 5421 00e1 11       		.uleb128 0x11
 5422 00e2 01       		.uleb128 0x1
 5423 00e3 31       		.uleb128 0x31
 5424 00e4 13       		.uleb128 0x13
 5425 00e5 00       		.byte	0
 5426 00e6 00       		.byte	0
 5427 00e7 10       		.uleb128 0x10
 5428 00e8 26       		.uleb128 0x26
 5429 00e9 00       		.byte	0
 5430 00ea 49       		.uleb128 0x49
 5431 00eb 13       		.uleb128 0x13
 5432 00ec 00       		.byte	0
 5433 00ed 00       		.byte	0
 5434 00ee 11       		.uleb128 0x11
 5435 00ef 05       		.uleb128 0x5
 5436 00f0 00       		.byte	0
 5437 00f1 03       		.uleb128 0x3
 5438 00f2 0E       		.uleb128 0xe
 5439 00f3 3A       		.uleb128 0x3a
 5440 00f4 0B       		.uleb128 0xb
 5441 00f5 3B       		.uleb128 0x3b
 5442 00f6 05       		.uleb128 0x5
 5443 00f7 49       		.uleb128 0x49
 5444 00f8 13       		.uleb128 0x13
 5445 00f9 02       		.uleb128 0x2
 5446 00fa 17       		.uleb128 0x17
 5447 00fb 00       		.byte	0
 5448 00fc 00       		.byte	0
 5449 00fd 12       		.uleb128 0x12
 5450 00fe 2E       		.uleb128 0x2e
ARM GAS  C:\Users\Xwx47\AppData\Local\Temp\ccidPk4n.s 			page 117


 5451 00ff 01       		.byte	0x1
 5452 0100 3F       		.uleb128 0x3f
 5453 0101 19       		.uleb128 0x19
 5454 0102 03       		.uleb128 0x3
 5455 0103 0E       		.uleb128 0xe
 5456 0104 3A       		.uleb128 0x3a
 5457 0105 0B       		.uleb128 0xb
 5458 0106 3B       		.uleb128 0x3b
 5459 0107 05       		.uleb128 0x5
 5460 0108 27       		.uleb128 0x27
 5461 0109 19       		.uleb128 0x19
 5462 010a 49       		.uleb128 0x49
 5463 010b 13       		.uleb128 0x13
 5464 010c 11       		.uleb128 0x11
 5465 010d 01       		.uleb128 0x1
 5466 010e 12       		.uleb128 0x12
 5467 010f 06       		.uleb128 0x6
 5468 0110 40       		.uleb128 0x40
 5469 0111 18       		.uleb128 0x18
 5470 0112 9742     		.uleb128 0x2117
 5471 0114 19       		.uleb128 0x19
 5472 0115 01       		.uleb128 0x1
 5473 0116 13       		.uleb128 0x13
 5474 0117 00       		.byte	0
 5475 0118 00       		.byte	0
 5476 0119 13       		.uleb128 0x13
 5477 011a 34       		.uleb128 0x34
 5478 011b 00       		.byte	0
 5479 011c 03       		.uleb128 0x3
 5480 011d 08       		.uleb128 0x8
 5481 011e 3A       		.uleb128 0x3a
 5482 011f 0B       		.uleb128 0xb
 5483 0120 3B       		.uleb128 0x3b
 5484 0121 05       		.uleb128 0x5
 5485 0122 49       		.uleb128 0x49
 5486 0123 13       		.uleb128 0x13
 5487 0124 02       		.uleb128 0x2
 5488 0125 17       		.uleb128 0x17
 5489 0126 00       		.byte	0
 5490 0127 00       		.byte	0
 5491 0128 14       		.uleb128 0x14
 5492 0129 0F       		.uleb128 0xf
 5493 012a 00       		.byte	0
 5494 012b 0B       		.uleb128 0xb
 5495 012c 0B       		.uleb128 0xb
 5496 012d 49       		.uleb128 0x49
 5497 012e 13       		.uleb128 0x13
 5498 012f 00       		.byte	0
 5499 0130 00       		.byte	0
 5500 0131 15       		.uleb128 0x15
 5501 0132 34       		.uleb128 0x34
 5502 0133 00       		.byte	0
 5503 0134 03       		.uleb128 0x3
 5504 0135 0E       		.uleb128 0xe
 5505 0136 3A       		.uleb128 0x3a
 5506 0137 0B       		.uleb128 0xb
 5507 0138 3B       		.uleb128 0x3b
ARM GAS  C:\Users\Xwx47\AppData\Local\Temp\ccidPk4n.s 			page 118


 5508 0139 05       		.uleb128 0x5
 5509 013a 49       		.uleb128 0x49
 5510 013b 13       		.uleb128 0x13
 5511 013c 02       		.uleb128 0x2
 5512 013d 17       		.uleb128 0x17
 5513 013e 00       		.byte	0
 5514 013f 00       		.byte	0
 5515 0140 16       		.uleb128 0x16
 5516 0141 2E       		.uleb128 0x2e
 5517 0142 00       		.byte	0
 5518 0143 3F       		.uleb128 0x3f
 5519 0144 19       		.uleb128 0x19
 5520 0145 3C       		.uleb128 0x3c
 5521 0146 19       		.uleb128 0x19
 5522 0147 6E       		.uleb128 0x6e
 5523 0148 0E       		.uleb128 0xe
 5524 0149 03       		.uleb128 0x3
 5525 014a 0E       		.uleb128 0xe
 5526 014b 3A       		.uleb128 0x3a
 5527 014c 0B       		.uleb128 0xb
 5528 014d 3B       		.uleb128 0x3b
 5529 014e 0B       		.uleb128 0xb
 5530 014f 00       		.byte	0
 5531 0150 00       		.byte	0
 5532 0151 00       		.byte	0
 5533              		.section	.debug_loc,"",%progbits
 5534              	.Ldebug_loc0:
 5535              	.LLST0:
 5536 0000 00000000 		.4byte	.LVL13
 5537 0004 09000000 		.4byte	.LVL14-1
 5538 0008 0100     		.2byte	0x1
 5539 000a 50       		.byte	0x50
 5540 000b 09000000 		.4byte	.LVL14-1
 5541 000f 0C000000 		.4byte	.LVL15
 5542 0013 0400     		.2byte	0x4
 5543 0015 F3       		.byte	0xf3
 5544 0016 01       		.uleb128 0x1
 5545 0017 50       		.byte	0x50
 5546 0018 9F       		.byte	0x9f
 5547 0019 0C000000 		.4byte	.LVL15
 5548 001d 0F000000 		.4byte	.LVL16-1
 5549 0021 0100     		.2byte	0x1
 5550 0023 50       		.byte	0x50
 5551 0024 0F000000 		.4byte	.LVL16-1
 5552 0028 12000000 		.4byte	.LFE9
 5553 002c 0400     		.2byte	0x4
 5554 002e F3       		.byte	0xf3
 5555 002f 01       		.uleb128 0x1
 5556 0030 50       		.byte	0x50
 5557 0031 9F       		.byte	0x9f
 5558 0032 00000000 		.4byte	0
 5559 0036 00000000 		.4byte	0
 5560              	.LLST1:
 5561 003a 00000000 		.4byte	.LVL17
 5562 003e 06000000 		.4byte	.LVL18
 5563 0042 0100     		.2byte	0x1
 5564 0044 50       		.byte	0x50
ARM GAS  C:\Users\Xwx47\AppData\Local\Temp\ccidPk4n.s 			page 119


 5565 0045 06000000 		.4byte	.LVL18
 5566 0049 0C000000 		.4byte	.LFE15
 5567 004d 0400     		.2byte	0x4
 5568 004f F3       		.byte	0xf3
 5569 0050 01       		.uleb128 0x1
 5570 0051 50       		.byte	0x50
 5571 0052 9F       		.byte	0x9f
 5572 0053 00000000 		.4byte	0
 5573 0057 00000000 		.4byte	0
 5574              	.LLST2:
 5575 005b 00000000 		.4byte	.LVL20
 5576 005f 06000000 		.4byte	.LVL21
 5577 0063 0100     		.2byte	0x1
 5578 0065 50       		.byte	0x50
 5579 0066 06000000 		.4byte	.LVL21
 5580 006a 0C000000 		.4byte	.LFE16
 5581 006e 0400     		.2byte	0x4
 5582 0070 F3       		.byte	0xf3
 5583 0071 01       		.uleb128 0x1
 5584 0072 50       		.byte	0x50
 5585 0073 9F       		.byte	0x9f
 5586 0074 00000000 		.4byte	0
 5587 0078 00000000 		.4byte	0
 5588              	.LLST3:
 5589 007c 00000000 		.4byte	.LVL23
 5590 0080 0A000000 		.4byte	.LVL24
 5591 0084 0100     		.2byte	0x1
 5592 0086 50       		.byte	0x50
 5593 0087 0A000000 		.4byte	.LVL24
 5594 008b 0F000000 		.4byte	.LVL25-1
 5595 008f 0100     		.2byte	0x1
 5596 0091 51       		.byte	0x51
 5597 0092 00000000 		.4byte	0
 5598 0096 00000000 		.4byte	0
 5599              	.LLST4:
 5600 009a 00000000 		.4byte	.LVL26
 5601 009e 06000000 		.4byte	.LVL27
 5602 00a2 0100     		.2byte	0x1
 5603 00a4 50       		.byte	0x50
 5604 00a5 06000000 		.4byte	.LVL27
 5605 00a9 0C000000 		.4byte	.LFE18
 5606 00ad 0400     		.2byte	0x4
 5607 00af F3       		.byte	0xf3
 5608 00b0 01       		.uleb128 0x1
 5609 00b1 50       		.byte	0x50
 5610 00b2 9F       		.byte	0x9f
 5611 00b3 00000000 		.4byte	0
 5612 00b7 00000000 		.4byte	0
 5613              	.LLST5:
 5614 00bb 08000000 		.4byte	.LVL29
 5615 00bf 16000000 		.4byte	.LVL30
 5616 00c3 0100     		.2byte	0x1
 5617 00c5 50       		.byte	0x50
 5618 00c6 16000000 		.4byte	.LVL30
 5619 00ca 18000000 		.4byte	.LVL31
 5620 00ce 0300     		.2byte	0x3
 5621 00d0 70       		.byte	0x70
ARM GAS  C:\Users\Xwx47\AppData\Local\Temp\ccidPk4n.s 			page 120


 5622 00d1 7E       		.sleb128 -2
 5623 00d2 9F       		.byte	0x9f
 5624 00d3 18000000 		.4byte	.LVL31
 5625 00d7 1A000000 		.4byte	.LVL32
 5626 00db 0100     		.2byte	0x1
 5627 00dd 50       		.byte	0x50
 5628 00de 1C000000 		.4byte	.LVL33
 5629 00e2 1E000000 		.4byte	.LVL34
 5630 00e6 0100     		.2byte	0x1
 5631 00e8 50       		.byte	0x50
 5632 00e9 20000000 		.4byte	.LVL35
 5633 00ed 22000000 		.4byte	.LVL36
 5634 00f1 0100     		.2byte	0x1
 5635 00f3 50       		.byte	0x50
 5636 00f4 00000000 		.4byte	0
 5637 00f8 00000000 		.4byte	0
 5638              	.LLST6:
 5639 00fc 00000000 		.4byte	.LVL37
 5640 0100 12000000 		.4byte	.LVL40
 5641 0104 0100     		.2byte	0x1
 5642 0106 50       		.byte	0x50
 5643 0107 12000000 		.4byte	.LVL40
 5644 010b 15000000 		.4byte	.LVL41-1
 5645 010f 0100     		.2byte	0x1
 5646 0111 51       		.byte	0x51
 5647 0112 15000000 		.4byte	.LVL41-1
 5648 0116 18000000 		.4byte	.LFE20
 5649 011a 0400     		.2byte	0x4
 5650 011c F3       		.byte	0xf3
 5651 011d 01       		.uleb128 0x1
 5652 011e 50       		.byte	0x50
 5653 011f 9F       		.byte	0x9f
 5654 0120 00000000 		.4byte	0
 5655 0124 00000000 		.4byte	0
 5656              	.LLST7:
 5657 0128 00000000 		.4byte	.LVL37
 5658 012c 0C000000 		.4byte	.LVL38
 5659 0130 0100     		.2byte	0x1
 5660 0132 51       		.byte	0x51
 5661 0133 0C000000 		.4byte	.LVL38
 5662 0137 10000000 		.4byte	.LVL39
 5663 013b 0100     		.2byte	0x1
 5664 013d 51       		.byte	0x51
 5665 013e 10000000 		.4byte	.LVL39
 5666 0142 15000000 		.4byte	.LVL41-1
 5667 0146 0100     		.2byte	0x1
 5668 0148 52       		.byte	0x52
 5669 0149 00000000 		.4byte	0
 5670 014d 00000000 		.4byte	0
 5671              	.LLST8:
 5672 0151 00000000 		.4byte	.LVL42
 5673 0155 10000000 		.4byte	.LVL44
 5674 0159 0100     		.2byte	0x1
 5675 015b 50       		.byte	0x50
 5676 015c 10000000 		.4byte	.LVL44
 5677 0160 13000000 		.4byte	.LVL45-1
 5678 0164 0100     		.2byte	0x1
ARM GAS  C:\Users\Xwx47\AppData\Local\Temp\ccidPk4n.s 			page 121


 5679 0166 51       		.byte	0x51
 5680 0167 13000000 		.4byte	.LVL45-1
 5681 016b 16000000 		.4byte	.LFE21
 5682 016f 0400     		.2byte	0x4
 5683 0171 F3       		.byte	0xf3
 5684 0172 01       		.uleb128 0x1
 5685 0173 50       		.byte	0x50
 5686 0174 9F       		.byte	0x9f
 5687 0175 00000000 		.4byte	0
 5688 0179 00000000 		.4byte	0
 5689              	.LLST9:
 5690 017d 00000000 		.4byte	.LVL42
 5691 0181 0E000000 		.4byte	.LVL43
 5692 0185 0100     		.2byte	0x1
 5693 0187 51       		.byte	0x51
 5694 0188 0E000000 		.4byte	.LVL43
 5695 018c 13000000 		.4byte	.LVL45-1
 5696 0190 0100     		.2byte	0x1
 5697 0192 52       		.byte	0x52
 5698 0193 13000000 		.4byte	.LVL45-1
 5699 0197 16000000 		.4byte	.LFE21
 5700 019b 0400     		.2byte	0x4
 5701 019d F3       		.byte	0xf3
 5702 019e 01       		.uleb128 0x1
 5703 019f 51       		.byte	0x51
 5704 01a0 9F       		.byte	0x9f
 5705 01a1 00000000 		.4byte	0
 5706 01a5 00000000 		.4byte	0
 5707              	.LLST10:
 5708 01a9 00000000 		.4byte	.LVL46
 5709 01ad 12000000 		.4byte	.LVL49
 5710 01b1 0100     		.2byte	0x1
 5711 01b3 50       		.byte	0x50
 5712 01b4 12000000 		.4byte	.LVL49
 5713 01b8 15000000 		.4byte	.LVL50-1
 5714 01bc 0100     		.2byte	0x1
 5715 01be 51       		.byte	0x51
 5716 01bf 15000000 		.4byte	.LVL50-1
 5717 01c3 18000000 		.4byte	.LFE22
 5718 01c7 0400     		.2byte	0x4
 5719 01c9 F3       		.byte	0xf3
 5720 01ca 01       		.uleb128 0x1
 5721 01cb 50       		.byte	0x50
 5722 01cc 9F       		.byte	0x9f
 5723 01cd 00000000 		.4byte	0
 5724 01d1 00000000 		.4byte	0
 5725              	.LLST11:
 5726 01d5 00000000 		.4byte	.LVL46
 5727 01d9 0C000000 		.4byte	.LVL47
 5728 01dd 0100     		.2byte	0x1
 5729 01df 51       		.byte	0x51
 5730 01e0 0C000000 		.4byte	.LVL47
 5731 01e4 10000000 		.4byte	.LVL48
 5732 01e8 0100     		.2byte	0x1
 5733 01ea 51       		.byte	0x51
 5734 01eb 10000000 		.4byte	.LVL48
 5735 01ef 15000000 		.4byte	.LVL50-1
ARM GAS  C:\Users\Xwx47\AppData\Local\Temp\ccidPk4n.s 			page 122


 5736 01f3 0100     		.2byte	0x1
 5737 01f5 52       		.byte	0x52
 5738 01f6 00000000 		.4byte	0
 5739 01fa 00000000 		.4byte	0
 5740              	.LLST12:
 5741 01fe 00000000 		.4byte	.LVL51
 5742 0202 10000000 		.4byte	.LVL53
 5743 0206 0100     		.2byte	0x1
 5744 0208 50       		.byte	0x50
 5745 0209 10000000 		.4byte	.LVL53
 5746 020d 13000000 		.4byte	.LVL54-1
 5747 0211 0100     		.2byte	0x1
 5748 0213 51       		.byte	0x51
 5749 0214 13000000 		.4byte	.LVL54-1
 5750 0218 16000000 		.4byte	.LFE23
 5751 021c 0400     		.2byte	0x4
 5752 021e F3       		.byte	0xf3
 5753 021f 01       		.uleb128 0x1
 5754 0220 50       		.byte	0x50
 5755 0221 9F       		.byte	0x9f
 5756 0222 00000000 		.4byte	0
 5757 0226 00000000 		.4byte	0
 5758              	.LLST13:
 5759 022a 00000000 		.4byte	.LVL51
 5760 022e 0E000000 		.4byte	.LVL52
 5761 0232 0100     		.2byte	0x1
 5762 0234 51       		.byte	0x51
 5763 0235 0E000000 		.4byte	.LVL52
 5764 0239 13000000 		.4byte	.LVL54-1
 5765 023d 0100     		.2byte	0x1
 5766 023f 52       		.byte	0x52
 5767 0240 13000000 		.4byte	.LVL54-1
 5768 0244 16000000 		.4byte	.LFE23
 5769 0248 0400     		.2byte	0x4
 5770 024a F3       		.byte	0xf3
 5771 024b 01       		.uleb128 0x1
 5772 024c 51       		.byte	0x51
 5773 024d 9F       		.byte	0x9f
 5774 024e 00000000 		.4byte	0
 5775 0252 00000000 		.4byte	0
 5776              	.LLST14:
 5777 0256 00000000 		.4byte	.LVL55
 5778 025a 12000000 		.4byte	.LVL58
 5779 025e 0100     		.2byte	0x1
 5780 0260 50       		.byte	0x50
 5781 0261 12000000 		.4byte	.LVL58
 5782 0265 15000000 		.4byte	.LVL59-1
 5783 0269 0100     		.2byte	0x1
 5784 026b 51       		.byte	0x51
 5785 026c 15000000 		.4byte	.LVL59-1
 5786 0270 18000000 		.4byte	.LFE24
 5787 0274 0400     		.2byte	0x4
 5788 0276 F3       		.byte	0xf3
 5789 0277 01       		.uleb128 0x1
 5790 0278 50       		.byte	0x50
 5791 0279 9F       		.byte	0x9f
 5792 027a 00000000 		.4byte	0
ARM GAS  C:\Users\Xwx47\AppData\Local\Temp\ccidPk4n.s 			page 123


 5793 027e 00000000 		.4byte	0
 5794              	.LLST15:
 5795 0282 00000000 		.4byte	.LVL55
 5796 0286 0C000000 		.4byte	.LVL56
 5797 028a 0100     		.2byte	0x1
 5798 028c 51       		.byte	0x51
 5799 028d 0C000000 		.4byte	.LVL56
 5800 0291 10000000 		.4byte	.LVL57
 5801 0295 0100     		.2byte	0x1
 5802 0297 51       		.byte	0x51
 5803 0298 10000000 		.4byte	.LVL57
 5804 029c 15000000 		.4byte	.LVL59-1
 5805 02a0 0100     		.2byte	0x1
 5806 02a2 52       		.byte	0x52
 5807 02a3 00000000 		.4byte	0
 5808 02a7 00000000 		.4byte	0
 5809              	.LLST16:
 5810 02ab 00000000 		.4byte	.LVL60
 5811 02af 10000000 		.4byte	.LVL62
 5812 02b3 0100     		.2byte	0x1
 5813 02b5 50       		.byte	0x50
 5814 02b6 10000000 		.4byte	.LVL62
 5815 02ba 13000000 		.4byte	.LVL63-1
 5816 02be 0100     		.2byte	0x1
 5817 02c0 51       		.byte	0x51
 5818 02c1 13000000 		.4byte	.LVL63-1
 5819 02c5 16000000 		.4byte	.LFE25
 5820 02c9 0400     		.2byte	0x4
 5821 02cb F3       		.byte	0xf3
 5822 02cc 01       		.uleb128 0x1
 5823 02cd 50       		.byte	0x50
 5824 02ce 9F       		.byte	0x9f
 5825 02cf 00000000 		.4byte	0
 5826 02d3 00000000 		.4byte	0
 5827              	.LLST17:
 5828 02d7 00000000 		.4byte	.LVL60
 5829 02db 0E000000 		.4byte	.LVL61
 5830 02df 0100     		.2byte	0x1
 5831 02e1 51       		.byte	0x51
 5832 02e2 0E000000 		.4byte	.LVL61
 5833 02e6 13000000 		.4byte	.LVL63-1
 5834 02ea 0100     		.2byte	0x1
 5835 02ec 52       		.byte	0x52
 5836 02ed 13000000 		.4byte	.LVL63-1
 5837 02f1 16000000 		.4byte	.LFE25
 5838 02f5 0400     		.2byte	0x4
 5839 02f7 F3       		.byte	0xf3
 5840 02f8 01       		.uleb128 0x1
 5841 02f9 51       		.byte	0x51
 5842 02fa 9F       		.byte	0x9f
 5843 02fb 00000000 		.4byte	0
 5844 02ff 00000000 		.4byte	0
 5845              	.LLST18:
 5846 0303 00000000 		.4byte	.LVL64
 5847 0307 06000000 		.4byte	.LVL65
 5848 030b 0100     		.2byte	0x1
 5849 030d 50       		.byte	0x50
ARM GAS  C:\Users\Xwx47\AppData\Local\Temp\ccidPk4n.s 			page 124


 5850 030e 06000000 		.4byte	.LVL65
 5851 0312 0C000000 		.4byte	.LFE26
 5852 0316 0400     		.2byte	0x4
 5853 0318 F3       		.byte	0xf3
 5854 0319 01       		.uleb128 0x1
 5855 031a 50       		.byte	0x50
 5856 031b 9F       		.byte	0x9f
 5857 031c 00000000 		.4byte	0
 5858 0320 00000000 		.4byte	0
 5859              	.LLST19:
 5860 0324 00000000 		.4byte	.LVL67
 5861 0328 12000000 		.4byte	.LVL69
 5862 032c 0100     		.2byte	0x1
 5863 032e 50       		.byte	0x50
 5864 032f 12000000 		.4byte	.LVL69
 5865 0333 15000000 		.4byte	.LVL70-1
 5866 0337 0100     		.2byte	0x1
 5867 0339 51       		.byte	0x51
 5868 033a 15000000 		.4byte	.LVL70-1
 5869 033e 20000000 		.4byte	.LVL73
 5870 0342 0100     		.2byte	0x1
 5871 0344 55       		.byte	0x55
 5872 0345 20000000 		.4byte	.LVL73
 5873 0349 22000000 		.4byte	.LFE27
 5874 034d 0400     		.2byte	0x4
 5875 034f F3       		.byte	0xf3
 5876 0350 01       		.uleb128 0x1
 5877 0351 50       		.byte	0x50
 5878 0352 9F       		.byte	0x9f
 5879 0353 00000000 		.4byte	0
 5880 0357 00000000 		.4byte	0
 5881              	.LLST20:
 5882 035b 00000000 		.4byte	.LVL67
 5883 035f 10000000 		.4byte	.LVL68
 5884 0363 0100     		.2byte	0x1
 5885 0365 51       		.byte	0x51
 5886 0366 10000000 		.4byte	.LVL68
 5887 036a 15000000 		.4byte	.LVL70-1
 5888 036e 0300     		.2byte	0x3
 5889 0370 72       		.byte	0x72
 5890 0371 01       		.sleb128 1
 5891 0372 9F       		.byte	0x9f
 5892 0373 15000000 		.4byte	.LVL70-1
 5893 0377 18000000 		.4byte	.LVL71
 5894 037b 0300     		.2byte	0x3
 5895 037d 74       		.byte	0x74
 5896 037e 01       		.sleb128 1
 5897 037f 9F       		.byte	0x9f
 5898 0380 18000000 		.4byte	.LVL71
 5899 0384 22000000 		.4byte	.LFE27
 5900 0388 0400     		.2byte	0x4
 5901 038a F3       		.byte	0xf3
 5902 038b 01       		.uleb128 0x1
 5903 038c 51       		.byte	0x51
 5904 038d 9F       		.byte	0x9f
 5905 038e 00000000 		.4byte	0
 5906 0392 00000000 		.4byte	0
ARM GAS  C:\Users\Xwx47\AppData\Local\Temp\ccidPk4n.s 			page 125


 5907              	.LLST21:
 5908 0396 00000000 		.4byte	.LVL74
 5909 039a 06000000 		.4byte	.LVL75
 5910 039e 0100     		.2byte	0x1
 5911 03a0 50       		.byte	0x50
 5912 03a1 06000000 		.4byte	.LVL75
 5913 03a5 0C000000 		.4byte	.LFE28
 5914 03a9 0400     		.2byte	0x4
 5915 03ab F3       		.byte	0xf3
 5916 03ac 01       		.uleb128 0x1
 5917 03ad 50       		.byte	0x50
 5918 03ae 9F       		.byte	0x9f
 5919 03af 00000000 		.4byte	0
 5920 03b3 00000000 		.4byte	0
 5921              	.LLST22:
 5922 03b7 00000000 		.4byte	.LVL77
 5923 03bb 12000000 		.4byte	.LVL79
 5924 03bf 0100     		.2byte	0x1
 5925 03c1 50       		.byte	0x50
 5926 03c2 12000000 		.4byte	.LVL79
 5927 03c6 15000000 		.4byte	.LVL80-1
 5928 03ca 0100     		.2byte	0x1
 5929 03cc 51       		.byte	0x51
 5930 03cd 15000000 		.4byte	.LVL80-1
 5931 03d1 20000000 		.4byte	.LVL83
 5932 03d5 0100     		.2byte	0x1
 5933 03d7 55       		.byte	0x55
 5934 03d8 20000000 		.4byte	.LVL83
 5935 03dc 22000000 		.4byte	.LFE29
 5936 03e0 0400     		.2byte	0x4
 5937 03e2 F3       		.byte	0xf3
 5938 03e3 01       		.uleb128 0x1
 5939 03e4 50       		.byte	0x50
 5940 03e5 9F       		.byte	0x9f
 5941 03e6 00000000 		.4byte	0
 5942 03ea 00000000 		.4byte	0
 5943              	.LLST23:
 5944 03ee 00000000 		.4byte	.LVL77
 5945 03f2 10000000 		.4byte	.LVL78
 5946 03f6 0100     		.2byte	0x1
 5947 03f8 51       		.byte	0x51
 5948 03f9 10000000 		.4byte	.LVL78
 5949 03fd 15000000 		.4byte	.LVL80-1
 5950 0401 0300     		.2byte	0x3
 5951 0403 72       		.byte	0x72
 5952 0404 01       		.sleb128 1
 5953 0405 9F       		.byte	0x9f
 5954 0406 15000000 		.4byte	.LVL80-1
 5955 040a 18000000 		.4byte	.LVL81
 5956 040e 0300     		.2byte	0x3
 5957 0410 74       		.byte	0x74
 5958 0411 01       		.sleb128 1
 5959 0412 9F       		.byte	0x9f
 5960 0413 18000000 		.4byte	.LVL81
 5961 0417 22000000 		.4byte	.LFE29
 5962 041b 0400     		.2byte	0x4
 5963 041d F3       		.byte	0xf3
ARM GAS  C:\Users\Xwx47\AppData\Local\Temp\ccidPk4n.s 			page 126


 5964 041e 01       		.uleb128 0x1
 5965 041f 51       		.byte	0x51
 5966 0420 9F       		.byte	0x9f
 5967 0421 00000000 		.4byte	0
 5968 0425 00000000 		.4byte	0
 5969              	.LLST24:
 5970 0429 00000000 		.4byte	.LVL84
 5971 042d 06000000 		.4byte	.LVL85
 5972 0431 0100     		.2byte	0x1
 5973 0433 50       		.byte	0x50
 5974 0434 06000000 		.4byte	.LVL85
 5975 0438 0C000000 		.4byte	.LFE30
 5976 043c 0400     		.2byte	0x4
 5977 043e F3       		.byte	0xf3
 5978 043f 01       		.uleb128 0x1
 5979 0440 50       		.byte	0x50
 5980 0441 9F       		.byte	0x9f
 5981 0442 00000000 		.4byte	0
 5982 0446 00000000 		.4byte	0
 5983              	.LLST25:
 5984 044a 00000000 		.4byte	.LVL87
 5985 044e 12000000 		.4byte	.LVL89
 5986 0452 0100     		.2byte	0x1
 5987 0454 50       		.byte	0x50
 5988 0455 12000000 		.4byte	.LVL89
 5989 0459 15000000 		.4byte	.LVL90-1
 5990 045d 0100     		.2byte	0x1
 5991 045f 51       		.byte	0x51
 5992 0460 15000000 		.4byte	.LVL90-1
 5993 0464 20000000 		.4byte	.LVL93
 5994 0468 0100     		.2byte	0x1
 5995 046a 55       		.byte	0x55
 5996 046b 20000000 		.4byte	.LVL93
 5997 046f 22000000 		.4byte	.LFE31
 5998 0473 0400     		.2byte	0x4
 5999 0475 F3       		.byte	0xf3
 6000 0476 01       		.uleb128 0x1
 6001 0477 50       		.byte	0x50
 6002 0478 9F       		.byte	0x9f
 6003 0479 00000000 		.4byte	0
 6004 047d 00000000 		.4byte	0
 6005              	.LLST26:
 6006 0481 00000000 		.4byte	.LVL87
 6007 0485 10000000 		.4byte	.LVL88
 6008 0489 0100     		.2byte	0x1
 6009 048b 51       		.byte	0x51
 6010 048c 10000000 		.4byte	.LVL88
 6011 0490 15000000 		.4byte	.LVL90-1
 6012 0494 0300     		.2byte	0x3
 6013 0496 72       		.byte	0x72
 6014 0497 01       		.sleb128 1
 6015 0498 9F       		.byte	0x9f
 6016 0499 15000000 		.4byte	.LVL90-1
 6017 049d 18000000 		.4byte	.LVL91
 6018 04a1 0300     		.2byte	0x3
 6019 04a3 74       		.byte	0x74
 6020 04a4 01       		.sleb128 1
ARM GAS  C:\Users\Xwx47\AppData\Local\Temp\ccidPk4n.s 			page 127


 6021 04a5 9F       		.byte	0x9f
 6022 04a6 18000000 		.4byte	.LVL91
 6023 04aa 22000000 		.4byte	.LFE31
 6024 04ae 0400     		.2byte	0x4
 6025 04b0 F3       		.byte	0xf3
 6026 04b1 01       		.uleb128 0x1
 6027 04b2 51       		.byte	0x51
 6028 04b3 9F       		.byte	0x9f
 6029 04b4 00000000 		.4byte	0
 6030 04b8 00000000 		.4byte	0
 6031              	.LLST27:
 6032 04bc 00000000 		.4byte	.LVL94
 6033 04c0 06000000 		.4byte	.LVL95
 6034 04c4 0100     		.2byte	0x1
 6035 04c6 50       		.byte	0x50
 6036 04c7 06000000 		.4byte	.LVL95
 6037 04cb 0C000000 		.4byte	.LFE32
 6038 04cf 0400     		.2byte	0x4
 6039 04d1 F3       		.byte	0xf3
 6040 04d2 01       		.uleb128 0x1
 6041 04d3 50       		.byte	0x50
 6042 04d4 9F       		.byte	0x9f
 6043 04d5 00000000 		.4byte	0
 6044 04d9 00000000 		.4byte	0
 6045              	.LLST28:
 6046 04dd 00000000 		.4byte	.LVL97
 6047 04e1 12000000 		.4byte	.LVL99
 6048 04e5 0100     		.2byte	0x1
 6049 04e7 50       		.byte	0x50
 6050 04e8 12000000 		.4byte	.LVL99
 6051 04ec 15000000 		.4byte	.LVL100-1
 6052 04f0 0100     		.2byte	0x1
 6053 04f2 51       		.byte	0x51
 6054 04f3 15000000 		.4byte	.LVL100-1
 6055 04f7 20000000 		.4byte	.LVL103
 6056 04fb 0100     		.2byte	0x1
 6057 04fd 55       		.byte	0x55
 6058 04fe 20000000 		.4byte	.LVL103
 6059 0502 22000000 		.4byte	.LFE33
 6060 0506 0400     		.2byte	0x4
 6061 0508 F3       		.byte	0xf3
 6062 0509 01       		.uleb128 0x1
 6063 050a 50       		.byte	0x50
 6064 050b 9F       		.byte	0x9f
 6065 050c 00000000 		.4byte	0
 6066 0510 00000000 		.4byte	0
 6067              	.LLST29:
 6068 0514 00000000 		.4byte	.LVL97
 6069 0518 10000000 		.4byte	.LVL98
 6070 051c 0100     		.2byte	0x1
 6071 051e 51       		.byte	0x51
 6072 051f 10000000 		.4byte	.LVL98
 6073 0523 15000000 		.4byte	.LVL100-1
 6074 0527 0300     		.2byte	0x3
 6075 0529 72       		.byte	0x72
 6076 052a 01       		.sleb128 1
 6077 052b 9F       		.byte	0x9f
ARM GAS  C:\Users\Xwx47\AppData\Local\Temp\ccidPk4n.s 			page 128


 6078 052c 15000000 		.4byte	.LVL100-1
 6079 0530 18000000 		.4byte	.LVL101
 6080 0534 0300     		.2byte	0x3
 6081 0536 74       		.byte	0x74
 6082 0537 01       		.sleb128 1
 6083 0538 9F       		.byte	0x9f
 6084 0539 18000000 		.4byte	.LVL101
 6085 053d 22000000 		.4byte	.LFE33
 6086 0541 0400     		.2byte	0x4
 6087 0543 F3       		.byte	0xf3
 6088 0544 01       		.uleb128 0x1
 6089 0545 51       		.byte	0x51
 6090 0546 9F       		.byte	0x9f
 6091 0547 00000000 		.4byte	0
 6092 054b 00000000 		.4byte	0
 6093              	.LLST30:
 6094 054f 00000000 		.4byte	.LVL104
 6095 0553 12000000 		.4byte	.LVL107
 6096 0557 0100     		.2byte	0x1
 6097 0559 50       		.byte	0x50
 6098 055a 12000000 		.4byte	.LVL107
 6099 055e 15000000 		.4byte	.LVL108-1
 6100 0562 0100     		.2byte	0x1
 6101 0564 51       		.byte	0x51
 6102 0565 15000000 		.4byte	.LVL108-1
 6103 0569 18000000 		.4byte	.LFE34
 6104 056d 0400     		.2byte	0x4
 6105 056f F3       		.byte	0xf3
 6106 0570 01       		.uleb128 0x1
 6107 0571 50       		.byte	0x50
 6108 0572 9F       		.byte	0x9f
 6109 0573 00000000 		.4byte	0
 6110 0577 00000000 		.4byte	0
 6111              	.LLST31:
 6112 057b 00000000 		.4byte	.LVL104
 6113 057f 0C000000 		.4byte	.LVL105
 6114 0583 0100     		.2byte	0x1
 6115 0585 51       		.byte	0x51
 6116 0586 0C000000 		.4byte	.LVL105
 6117 058a 10000000 		.4byte	.LVL106
 6118 058e 0100     		.2byte	0x1
 6119 0590 51       		.byte	0x51
 6120 0591 10000000 		.4byte	.LVL106
 6121 0595 15000000 		.4byte	.LVL108-1
 6122 0599 0100     		.2byte	0x1
 6123 059b 52       		.byte	0x52
 6124 059c 00000000 		.4byte	0
 6125 05a0 00000000 		.4byte	0
 6126              	.LLST32:
 6127 05a4 00000000 		.4byte	.LVL109
 6128 05a8 10000000 		.4byte	.LVL111
 6129 05ac 0100     		.2byte	0x1
 6130 05ae 50       		.byte	0x50
 6131 05af 10000000 		.4byte	.LVL111
 6132 05b3 13000000 		.4byte	.LVL112-1
 6133 05b7 0100     		.2byte	0x1
 6134 05b9 51       		.byte	0x51
ARM GAS  C:\Users\Xwx47\AppData\Local\Temp\ccidPk4n.s 			page 129


 6135 05ba 13000000 		.4byte	.LVL112-1
 6136 05be 16000000 		.4byte	.LFE35
 6137 05c2 0400     		.2byte	0x4
 6138 05c4 F3       		.byte	0xf3
 6139 05c5 01       		.uleb128 0x1
 6140 05c6 50       		.byte	0x50
 6141 05c7 9F       		.byte	0x9f
 6142 05c8 00000000 		.4byte	0
 6143 05cc 00000000 		.4byte	0
 6144              	.LLST33:
 6145 05d0 00000000 		.4byte	.LVL109
 6146 05d4 0E000000 		.4byte	.LVL110
 6147 05d8 0100     		.2byte	0x1
 6148 05da 51       		.byte	0x51
 6149 05db 0E000000 		.4byte	.LVL110
 6150 05df 13000000 		.4byte	.LVL112-1
 6151 05e3 0100     		.2byte	0x1
 6152 05e5 52       		.byte	0x52
 6153 05e6 13000000 		.4byte	.LVL112-1
 6154 05ea 16000000 		.4byte	.LFE35
 6155 05ee 0400     		.2byte	0x4
 6156 05f0 F3       		.byte	0xf3
 6157 05f1 01       		.uleb128 0x1
 6158 05f2 51       		.byte	0x51
 6159 05f3 9F       		.byte	0x9f
 6160 05f4 00000000 		.4byte	0
 6161 05f8 00000000 		.4byte	0
 6162              	.LLST34:
 6163 05fc 00000000 		.4byte	.LVL113
 6164 0600 0E000000 		.4byte	.LVL115
 6165 0604 0100     		.2byte	0x1
 6166 0606 50       		.byte	0x50
 6167 0607 0E000000 		.4byte	.LVL115
 6168 060b 48000000 		.4byte	.LFE36
 6169 060f 0400     		.2byte	0x4
 6170 0611 F3       		.byte	0xf3
 6171 0612 01       		.uleb128 0x1
 6172 0613 50       		.byte	0x50
 6173 0614 9F       		.byte	0x9f
 6174 0615 00000000 		.4byte	0
 6175 0619 00000000 		.4byte	0
 6176              	.LLST35:
 6177 061d 00000000 		.4byte	.LVL113
 6178 0621 08000000 		.4byte	.LVL114
 6179 0625 0100     		.2byte	0x1
 6180 0627 51       		.byte	0x51
 6181 0628 08000000 		.4byte	.LVL114
 6182 062c 19000000 		.4byte	.LVL116-1
 6183 0630 0100     		.2byte	0x1
 6184 0632 51       		.byte	0x51
 6185 0633 1C000000 		.4byte	.LVL117
 6186 0637 21000000 		.4byte	.LVL118-1
 6187 063b 0100     		.2byte	0x1
 6188 063d 51       		.byte	0x51
 6189 063e 24000000 		.4byte	.LVL119
 6190 0642 29000000 		.4byte	.LVL120-1
 6191 0646 0100     		.2byte	0x1
ARM GAS  C:\Users\Xwx47\AppData\Local\Temp\ccidPk4n.s 			page 130


 6192 0648 51       		.byte	0x51
 6193 0649 2C000000 		.4byte	.LVL121
 6194 064d 31000000 		.4byte	.LVL122-1
 6195 0651 0100     		.2byte	0x1
 6196 0653 51       		.byte	0x51
 6197 0654 34000000 		.4byte	.LVL123
 6198 0658 39000000 		.4byte	.LVL124-1
 6199 065c 0100     		.2byte	0x1
 6200 065e 51       		.byte	0x51
 6201 065f 3C000000 		.4byte	.LVL125
 6202 0663 41000000 		.4byte	.LVL126-1
 6203 0667 0100     		.2byte	0x1
 6204 0669 51       		.byte	0x51
 6205 066a 00000000 		.4byte	0
 6206 066e 00000000 		.4byte	0
 6207              	.LLST36:
 6208 0672 00000000 		.4byte	.LVL127
 6209 0676 08000000 		.4byte	.LVL128
 6210 067a 0100     		.2byte	0x1
 6211 067c 50       		.byte	0x50
 6212 067d 08000000 		.4byte	.LVL128
 6213 0681 3E000000 		.4byte	.LVL135
 6214 0685 0400     		.2byte	0x4
 6215 0687 F3       		.byte	0xf3
 6216 0688 01       		.uleb128 0x1
 6217 0689 50       		.byte	0x50
 6218 068a 9F       		.byte	0x9f
 6219 068b 3E000000 		.4byte	.LVL135
 6220 068f 40000000 		.4byte	.LVL136
 6221 0693 0100     		.2byte	0x1
 6222 0695 50       		.byte	0x50
 6223 0696 40000000 		.4byte	.LVL136
 6224 069a 48000000 		.4byte	.LFE37
 6225 069e 0400     		.2byte	0x4
 6226 06a0 F3       		.byte	0xf3
 6227 06a1 01       		.uleb128 0x1
 6228 06a2 50       		.byte	0x50
 6229 06a3 9F       		.byte	0x9f
 6230 06a4 00000000 		.4byte	0
 6231 06a8 00000000 		.4byte	0
 6232              	.LLST37:
 6233 06ac 00000000 		.4byte	.LVL137
 6234 06b0 08000000 		.4byte	.LVL138
 6235 06b4 0100     		.2byte	0x1
 6236 06b6 50       		.byte	0x50
 6237 06b7 08000000 		.4byte	.LVL138
 6238 06bb 26000000 		.4byte	.LFE39
 6239 06bf 0400     		.2byte	0x4
 6240 06c1 F3       		.byte	0xf3
 6241 06c2 01       		.uleb128 0x1
 6242 06c3 50       		.byte	0x50
 6243 06c4 9F       		.byte	0x9f
 6244 06c5 00000000 		.4byte	0
 6245 06c9 00000000 		.4byte	0
 6246              	.LLST38:
 6247 06cd 00000000 		.4byte	.LVL143
 6248 06d1 08000000 		.4byte	.LVL144
ARM GAS  C:\Users\Xwx47\AppData\Local\Temp\ccidPk4n.s 			page 131


 6249 06d5 0100     		.2byte	0x1
 6250 06d7 50       		.byte	0x50
 6251 06d8 08000000 		.4byte	.LVL144
 6252 06dc 26000000 		.4byte	.LFE40
 6253 06e0 0400     		.2byte	0x4
 6254 06e2 F3       		.byte	0xf3
 6255 06e3 01       		.uleb128 0x1
 6256 06e4 50       		.byte	0x50
 6257 06e5 9F       		.byte	0x9f
 6258 06e6 00000000 		.4byte	0
 6259 06ea 00000000 		.4byte	0
 6260              	.LLST39:
 6261 06ee 00000000 		.4byte	.LVL155
 6262 06f2 08000000 		.4byte	.LVL156
 6263 06f6 0100     		.2byte	0x1
 6264 06f8 50       		.byte	0x50
 6265 06f9 08000000 		.4byte	.LVL156
 6266 06fd 0E000000 		.4byte	.LVL158
 6267 0701 0400     		.2byte	0x4
 6268 0703 F3       		.byte	0xf3
 6269 0704 01       		.uleb128 0x1
 6270 0705 50       		.byte	0x50
 6271 0706 9F       		.byte	0x9f
 6272 0707 0E000000 		.4byte	.LVL158
 6273 070b 10000000 		.4byte	.LVL159
 6274 070f 0100     		.2byte	0x1
 6275 0711 50       		.byte	0x50
 6276 0712 10000000 		.4byte	.LVL159
 6277 0716 16000000 		.4byte	.LFE47
 6278 071a 0400     		.2byte	0x4
 6279 071c F3       		.byte	0xf3
 6280 071d 01       		.uleb128 0x1
 6281 071e 50       		.byte	0x50
 6282 071f 9F       		.byte	0x9f
 6283 0720 00000000 		.4byte	0
 6284 0724 00000000 		.4byte	0
 6285              	.LLST40:
 6286 0728 08000000 		.4byte	.LVL173
 6287 072c 0C000000 		.4byte	.LVL174
 6288 0730 0100     		.2byte	0x1
 6289 0732 50       		.byte	0x50
 6290 0733 00000000 		.4byte	0
 6291 0737 00000000 		.4byte	0
 6292              	.LLST41:
 6293 073b 08000000 		.4byte	.LVL175
 6294 073f 0A000000 		.4byte	.LVL176
 6295 0743 0600     		.2byte	0x6
 6296 0745 70       		.byte	0x70
 6297 0746 00       		.sleb128 0
 6298 0747 09       		.byte	0x9
 6299 0748 F0       		.byte	0xf0
 6300 0749 1A       		.byte	0x1a
 6301 074a 9F       		.byte	0x9f
 6302 074b 00000000 		.4byte	0
 6303 074f 00000000 		.4byte	0
 6304              	.LLST42:
 6305 0753 00000000 		.4byte	.LVL177
ARM GAS  C:\Users\Xwx47\AppData\Local\Temp\ccidPk4n.s 			page 132


 6306 0757 05000000 		.4byte	.LVL178-1
 6307 075b 0100     		.2byte	0x1
 6308 075d 50       		.byte	0x50
 6309 075e 05000000 		.4byte	.LVL178-1
 6310 0762 08000000 		.4byte	.LFE54
 6311 0766 0400     		.2byte	0x4
 6312 0768 F3       		.byte	0xf3
 6313 0769 01       		.uleb128 0x1
 6314 076a 50       		.byte	0x50
 6315 076b 9F       		.byte	0x9f
 6316 076c 00000000 		.4byte	0
 6317 0770 00000000 		.4byte	0
 6318              	.LLST43:
 6319 0774 00000000 		.4byte	.LVL177
 6320 0778 05000000 		.4byte	.LVL178-1
 6321 077c 0100     		.2byte	0x1
 6322 077e 51       		.byte	0x51
 6323 077f 05000000 		.4byte	.LVL178-1
 6324 0783 08000000 		.4byte	.LFE54
 6325 0787 0400     		.2byte	0x4
 6326 0789 F3       		.byte	0xf3
 6327 078a 01       		.uleb128 0x1
 6328 078b 51       		.byte	0x51
 6329 078c 9F       		.byte	0x9f
 6330 078d 00000000 		.4byte	0
 6331 0791 00000000 		.4byte	0
 6332              	.LLST44:
 6333 0795 00000000 		.4byte	.LVL179
 6334 0799 09000000 		.4byte	.LVL180-1
 6335 079d 0100     		.2byte	0x1
 6336 079f 50       		.byte	0x50
 6337 07a0 09000000 		.4byte	.LVL180-1
 6338 07a4 10000000 		.4byte	.LFE55
 6339 07a8 0400     		.2byte	0x4
 6340 07aa F3       		.byte	0xf3
 6341 07ab 01       		.uleb128 0x1
 6342 07ac 50       		.byte	0x50
 6343 07ad 9F       		.byte	0x9f
 6344 07ae 00000000 		.4byte	0
 6345 07b2 00000000 		.4byte	0
 6346              	.LLST45:
 6347 07b6 00000000 		.4byte	.LVL179
 6348 07ba 09000000 		.4byte	.LVL180-1
 6349 07be 0100     		.2byte	0x1
 6350 07c0 51       		.byte	0x51
 6351 07c1 09000000 		.4byte	.LVL180-1
 6352 07c5 10000000 		.4byte	.LFE55
 6353 07c9 0400     		.2byte	0x4
 6354 07cb F3       		.byte	0xf3
 6355 07cc 01       		.uleb128 0x1
 6356 07cd 51       		.byte	0x51
 6357 07ce 9F       		.byte	0x9f
 6358 07cf 00000000 		.4byte	0
 6359 07d3 00000000 		.4byte	0
 6360              	.LLST46:
 6361 07d7 00000000 		.4byte	.LVL183
 6362 07db 05000000 		.4byte	.LVL184-1
ARM GAS  C:\Users\Xwx47\AppData\Local\Temp\ccidPk4n.s 			page 133


 6363 07df 0100     		.2byte	0x1
 6364 07e1 50       		.byte	0x50
 6365 07e2 05000000 		.4byte	.LVL184-1
 6366 07e6 08000000 		.4byte	.LFE57
 6367 07ea 0400     		.2byte	0x4
 6368 07ec F3       		.byte	0xf3
 6369 07ed 01       		.uleb128 0x1
 6370 07ee 50       		.byte	0x50
 6371 07ef 9F       		.byte	0x9f
 6372 07f0 00000000 		.4byte	0
 6373 07f4 00000000 		.4byte	0
 6374              	.LLST47:
 6375 07f8 00000000 		.4byte	.LVL183
 6376 07fc 05000000 		.4byte	.LVL184-1
 6377 0800 0100     		.2byte	0x1
 6378 0802 51       		.byte	0x51
 6379 0803 05000000 		.4byte	.LVL184-1
 6380 0807 08000000 		.4byte	.LFE57
 6381 080b 0400     		.2byte	0x4
 6382 080d F3       		.byte	0xf3
 6383 080e 01       		.uleb128 0x1
 6384 080f 51       		.byte	0x51
 6385 0810 9F       		.byte	0x9f
 6386 0811 00000000 		.4byte	0
 6387 0815 00000000 		.4byte	0
 6388              	.LLST48:
 6389 0819 00000000 		.4byte	.LVL185
 6390 081d 05000000 		.4byte	.LVL186-1
 6391 0821 0100     		.2byte	0x1
 6392 0823 50       		.byte	0x50
 6393 0824 05000000 		.4byte	.LVL186-1
 6394 0828 0C000000 		.4byte	.LFE58
 6395 082c 0400     		.2byte	0x4
 6396 082e F3       		.byte	0xf3
 6397 082f 01       		.uleb128 0x1
 6398 0830 50       		.byte	0x50
 6399 0831 9F       		.byte	0x9f
 6400 0832 00000000 		.4byte	0
 6401 0836 00000000 		.4byte	0
 6402              	.LLST49:
 6403 083a 00000000 		.4byte	.LVL185
 6404 083e 05000000 		.4byte	.LVL186-1
 6405 0842 0100     		.2byte	0x1
 6406 0844 51       		.byte	0x51
 6407 0845 05000000 		.4byte	.LVL186-1
 6408 0849 0C000000 		.4byte	.LFE58
 6409 084d 0400     		.2byte	0x4
 6410 084f F3       		.byte	0xf3
 6411 0850 01       		.uleb128 0x1
 6412 0851 51       		.byte	0x51
 6413 0852 9F       		.byte	0x9f
 6414 0853 00000000 		.4byte	0
 6415 0857 00000000 		.4byte	0
 6416              	.LLST50:
 6417 085b 00000000 		.4byte	.LVL188
 6418 085f 05000000 		.4byte	.LVL189-1
 6419 0863 0100     		.2byte	0x1
ARM GAS  C:\Users\Xwx47\AppData\Local\Temp\ccidPk4n.s 			page 134


 6420 0865 50       		.byte	0x50
 6421 0866 05000000 		.4byte	.LVL189-1
 6422 086a 08000000 		.4byte	.LFE59
 6423 086e 0400     		.2byte	0x4
 6424 0870 F3       		.byte	0xf3
 6425 0871 01       		.uleb128 0x1
 6426 0872 50       		.byte	0x50
 6427 0873 9F       		.byte	0x9f
 6428 0874 00000000 		.4byte	0
 6429 0878 00000000 		.4byte	0
 6430              	.LLST51:
 6431 087c 00000000 		.4byte	.LVL188
 6432 0880 05000000 		.4byte	.LVL189-1
 6433 0884 0100     		.2byte	0x1
 6434 0886 51       		.byte	0x51
 6435 0887 05000000 		.4byte	.LVL189-1
 6436 088b 08000000 		.4byte	.LFE59
 6437 088f 0400     		.2byte	0x4
 6438 0891 F3       		.byte	0xf3
 6439 0892 01       		.uleb128 0x1
 6440 0893 51       		.byte	0x51
 6441 0894 9F       		.byte	0x9f
 6442 0895 00000000 		.4byte	0
 6443 0899 00000000 		.4byte	0
 6444              	.LLST52:
 6445 089d 00000000 		.4byte	.LVL188
 6446 08a1 05000000 		.4byte	.LVL189-1
 6447 08a5 0100     		.2byte	0x1
 6448 08a7 52       		.byte	0x52
 6449 08a8 05000000 		.4byte	.LVL189-1
 6450 08ac 08000000 		.4byte	.LFE59
 6451 08b0 0400     		.2byte	0x4
 6452 08b2 F3       		.byte	0xf3
 6453 08b3 01       		.uleb128 0x1
 6454 08b4 52       		.byte	0x52
 6455 08b5 9F       		.byte	0x9f
 6456 08b6 00000000 		.4byte	0
 6457 08ba 00000000 		.4byte	0
 6458              	.LLST53:
 6459 08be 08000000 		.4byte	.LVL190
 6460 08c2 0A000000 		.4byte	.LVL191
 6461 08c6 0100     		.2byte	0x1
 6462 08c8 50       		.byte	0x50
 6463 08c9 00000000 		.4byte	0
 6464 08cd 00000000 		.4byte	0
 6465              	.LLST54:
 6466 08d1 00000000 		.4byte	.LVL204
 6467 08d5 0A000000 		.4byte	.LVL205
 6468 08d9 0100     		.2byte	0x1
 6469 08db 50       		.byte	0x50
 6470 08dc 0A000000 		.4byte	.LVL205
 6471 08e0 10000000 		.4byte	.LFE65
 6472 08e4 0400     		.2byte	0x4
 6473 08e6 F3       		.byte	0xf3
 6474 08e7 01       		.uleb128 0x1
 6475 08e8 50       		.byte	0x50
 6476 08e9 9F       		.byte	0x9f
ARM GAS  C:\Users\Xwx47\AppData\Local\Temp\ccidPk4n.s 			page 135


 6477 08ea 00000000 		.4byte	0
 6478 08ee 00000000 		.4byte	0
 6479              	.LLST55:
 6480 08f2 06000000 		.4byte	.LVL207
 6481 08f6 0A000000 		.4byte	.LVL208
 6482 08fa 0100     		.2byte	0x1
 6483 08fc 50       		.byte	0x50
 6484 08fd 00000000 		.4byte	0
 6485 0901 00000000 		.4byte	0
 6486              		.section	.debug_aranges,"",%progbits
 6487 0000 24020000 		.4byte	0x224
 6488 0004 0200     		.2byte	0x2
 6489 0006 00000000 		.4byte	.Ldebug_info0
 6490 000a 04       		.byte	0x4
 6491 000b 00       		.byte	0
 6492 000c 0000     		.2byte	0
 6493 000e 0000     		.2byte	0
 6494 0010 00000000 		.4byte	.LFB2
 6495 0014 54000000 		.4byte	.LFE2-.LFB2
 6496 0018 00000000 		.4byte	.LFB3
 6497 001c 02000000 		.4byte	.LFE3-.LFB3
 6498 0020 00000000 		.4byte	.LFB4
 6499 0024 02000000 		.4byte	.LFE4-.LFB4
 6500 0028 00000000 		.4byte	.LFB5
 6501 002c 02000000 		.4byte	.LFE5-.LFB5
 6502 0030 00000000 		.4byte	.LFB6
 6503 0034 02000000 		.4byte	.LFE6-.LFB6
 6504 0038 00000000 		.4byte	.LFB7
 6505 003c 02000000 		.4byte	.LFE7-.LFB7
 6506 0040 00000000 		.4byte	.LFB8
 6507 0044 02000000 		.4byte	.LFE8-.LFB8
 6508 0048 00000000 		.4byte	.LFB10
 6509 004c 0C000000 		.4byte	.LFE10-.LFB10
 6510 0050 00000000 		.4byte	.LFB13
 6511 0054 0C000000 		.4byte	.LFE13-.LFB13
 6512 0058 00000000 		.4byte	.LFB14
 6513 005c 0C000000 		.4byte	.LFE14-.LFB14
 6514 0060 00000000 		.4byte	.LFB9
 6515 0064 12000000 		.4byte	.LFE9-.LFB9
 6516 0068 00000000 		.4byte	.LFB15
 6517 006c 0C000000 		.4byte	.LFE15-.LFB15
 6518 0070 00000000 		.4byte	.LFB16
 6519 0074 0C000000 		.4byte	.LFE16-.LFB16
 6520 0078 00000000 		.4byte	.LFB17
 6521 007c 12000000 		.4byte	.LFE17-.LFB17
 6522 0080 00000000 		.4byte	.LFB18
 6523 0084 0C000000 		.4byte	.LFE18-.LFB18
 6524 0088 00000000 		.4byte	.LFB19
 6525 008c 24000000 		.4byte	.LFE19-.LFB19
 6526 0090 00000000 		.4byte	.LFB20
 6527 0094 18000000 		.4byte	.LFE20-.LFB20
 6528 0098 00000000 		.4byte	.LFB21
 6529 009c 16000000 		.4byte	.LFE21-.LFB21
 6530 00a0 00000000 		.4byte	.LFB22
 6531 00a4 18000000 		.4byte	.LFE22-.LFB22
 6532 00a8 00000000 		.4byte	.LFB23
 6533 00ac 16000000 		.4byte	.LFE23-.LFB23
ARM GAS  C:\Users\Xwx47\AppData\Local\Temp\ccidPk4n.s 			page 136


 6534 00b0 00000000 		.4byte	.LFB24
 6535 00b4 18000000 		.4byte	.LFE24-.LFB24
 6536 00b8 00000000 		.4byte	.LFB25
 6537 00bc 16000000 		.4byte	.LFE25-.LFB25
 6538 00c0 00000000 		.4byte	.LFB26
 6539 00c4 0C000000 		.4byte	.LFE26-.LFB26
 6540 00c8 00000000 		.4byte	.LFB27
 6541 00cc 22000000 		.4byte	.LFE27-.LFB27
 6542 00d0 00000000 		.4byte	.LFB28
 6543 00d4 0C000000 		.4byte	.LFE28-.LFB28
 6544 00d8 00000000 		.4byte	.LFB29
 6545 00dc 22000000 		.4byte	.LFE29-.LFB29
 6546 00e0 00000000 		.4byte	.LFB30
 6547 00e4 0C000000 		.4byte	.LFE30-.LFB30
 6548 00e8 00000000 		.4byte	.LFB31
 6549 00ec 22000000 		.4byte	.LFE31-.LFB31
 6550 00f0 00000000 		.4byte	.LFB32
 6551 00f4 0C000000 		.4byte	.LFE32-.LFB32
 6552 00f8 00000000 		.4byte	.LFB33
 6553 00fc 22000000 		.4byte	.LFE33-.LFB33
 6554 0100 00000000 		.4byte	.LFB34
 6555 0104 18000000 		.4byte	.LFE34-.LFB34
 6556 0108 00000000 		.4byte	.LFB35
 6557 010c 16000000 		.4byte	.LFE35-.LFB35
 6558 0110 00000000 		.4byte	.LFB36
 6559 0114 48000000 		.4byte	.LFE36-.LFB36
 6560 0118 00000000 		.4byte	.LFB37
 6561 011c 48000000 		.4byte	.LFE37-.LFB37
 6562 0120 00000000 		.4byte	.LFB39
 6563 0124 26000000 		.4byte	.LFE39-.LFB39
 6564 0128 00000000 		.4byte	.LFB40
 6565 012c 26000000 		.4byte	.LFE40-.LFB40
 6566 0130 00000000 		.4byte	.LFB41
 6567 0134 0C000000 		.4byte	.LFE41-.LFB41
 6568 0138 00000000 		.4byte	.LFB42
 6569 013c 0C000000 		.4byte	.LFE42-.LFB42
 6570 0140 00000000 		.4byte	.LFB43
 6571 0144 0C000000 		.4byte	.LFE43-.LFB43
 6572 0148 00000000 		.4byte	.LFB44
 6573 014c 0C000000 		.4byte	.LFE44-.LFB44
 6574 0150 00000000 		.4byte	.LFB45
 6575 0154 0C000000 		.4byte	.LFE45-.LFB45
 6576 0158 00000000 		.4byte	.LFB46
 6577 015c 0C000000 		.4byte	.LFE46-.LFB46
 6578 0160 00000000 		.4byte	.LFB47
 6579 0164 16000000 		.4byte	.LFE47-.LFB47
 6580 0168 00000000 		.4byte	.LFB11
 6581 016c 12000000 		.4byte	.LFE11-.LFB11
 6582 0170 00000000 		.4byte	.LFB12
 6583 0174 12000000 		.4byte	.LFE12-.LFB12
 6584 0178 00000000 		.4byte	.LFB48
 6585 017c 0A000000 		.4byte	.LFE48-.LFB48
 6586 0180 00000000 		.4byte	.LFB49
 6587 0184 0A000000 		.4byte	.LFE49-.LFB49
 6588 0188 00000000 		.4byte	.LFB50
 6589 018c 16000000 		.4byte	.LFE50-.LFB50
 6590 0190 00000000 		.4byte	.LFB38
ARM GAS  C:\Users\Xwx47\AppData\Local\Temp\ccidPk4n.s 			page 137


 6591 0194 0C000000 		.4byte	.LFE38-.LFB38
 6592 0198 00000000 		.4byte	.LFB51
 6593 019c 08000000 		.4byte	.LFE51-.LFB51
 6594 01a0 00000000 		.4byte	.LFB52
 6595 01a4 0E000000 		.4byte	.LFE52-.LFB52
 6596 01a8 00000000 		.4byte	.LFB53
 6597 01ac 0E000000 		.4byte	.LFE53-.LFB53
 6598 01b0 00000000 		.4byte	.LFB54
 6599 01b4 08000000 		.4byte	.LFE54-.LFB54
 6600 01b8 00000000 		.4byte	.LFB55
 6601 01bc 10000000 		.4byte	.LFE55-.LFB55
 6602 01c0 00000000 		.4byte	.LFB56
 6603 01c4 0E000000 		.4byte	.LFE56-.LFB56
 6604 01c8 00000000 		.4byte	.LFB57
 6605 01cc 08000000 		.4byte	.LFE57-.LFB57
 6606 01d0 00000000 		.4byte	.LFB58
 6607 01d4 0C000000 		.4byte	.LFE58-.LFB58
 6608 01d8 00000000 		.4byte	.LFB59
 6609 01dc 08000000 		.4byte	.LFE59-.LFB59
 6610 01e0 00000000 		.4byte	.LFB60
 6611 01e4 10000000 		.4byte	.LFE60-.LFB60
 6612 01e8 00000000 		.4byte	.LFB61
 6613 01ec 0C000000 		.4byte	.LFE61-.LFB61
 6614 01f0 00000000 		.4byte	.LFB62
 6615 01f4 0C000000 		.4byte	.LFE62-.LFB62
 6616 01f8 00000000 		.4byte	.LFB63
 6617 01fc 0C000000 		.4byte	.LFE63-.LFB63
 6618 0200 00000000 		.4byte	.LFB64
 6619 0204 0C000000 		.4byte	.LFE64-.LFB64
 6620 0208 00000000 		.4byte	.LFB1
 6621 020c 2A000000 		.4byte	.LFE1-.LFB1
 6622 0210 00000000 		.4byte	.LFB65
 6623 0214 10000000 		.4byte	.LFE65-.LFB65
 6624 0218 00000000 		.4byte	.LFB66
 6625 021c 28000000 		.4byte	.LFE66-.LFB66
 6626 0220 00000000 		.4byte	0
 6627 0224 00000000 		.4byte	0
 6628              		.section	.debug_ranges,"",%progbits
 6629              	.Ldebug_ranges0:
 6630 0000 00000000 		.4byte	.LFB2
 6631 0004 54000000 		.4byte	.LFE2
 6632 0008 00000000 		.4byte	.LFB3
 6633 000c 02000000 		.4byte	.LFE3
 6634 0010 00000000 		.4byte	.LFB4
 6635 0014 02000000 		.4byte	.LFE4
 6636 0018 00000000 		.4byte	.LFB5
 6637 001c 02000000 		.4byte	.LFE5
 6638 0020 00000000 		.4byte	.LFB6
 6639 0024 02000000 		.4byte	.LFE6
 6640 0028 00000000 		.4byte	.LFB7
 6641 002c 02000000 		.4byte	.LFE7
 6642 0030 00000000 		.4byte	.LFB8
 6643 0034 02000000 		.4byte	.LFE8
 6644 0038 00000000 		.4byte	.LFB10
 6645 003c 0C000000 		.4byte	.LFE10
 6646 0040 00000000 		.4byte	.LFB13
 6647 0044 0C000000 		.4byte	.LFE13
ARM GAS  C:\Users\Xwx47\AppData\Local\Temp\ccidPk4n.s 			page 138


 6648 0048 00000000 		.4byte	.LFB14
 6649 004c 0C000000 		.4byte	.LFE14
 6650 0050 00000000 		.4byte	.LFB9
 6651 0054 12000000 		.4byte	.LFE9
 6652 0058 00000000 		.4byte	.LFB15
 6653 005c 0C000000 		.4byte	.LFE15
 6654 0060 00000000 		.4byte	.LFB16
 6655 0064 0C000000 		.4byte	.LFE16
 6656 0068 00000000 		.4byte	.LFB17
 6657 006c 12000000 		.4byte	.LFE17
 6658 0070 00000000 		.4byte	.LFB18
 6659 0074 0C000000 		.4byte	.LFE18
 6660 0078 00000000 		.4byte	.LFB19
 6661 007c 24000000 		.4byte	.LFE19
 6662 0080 00000000 		.4byte	.LFB20
 6663 0084 18000000 		.4byte	.LFE20
 6664 0088 00000000 		.4byte	.LFB21
 6665 008c 16000000 		.4byte	.LFE21
 6666 0090 00000000 		.4byte	.LFB22
 6667 0094 18000000 		.4byte	.LFE22
 6668 0098 00000000 		.4byte	.LFB23
 6669 009c 16000000 		.4byte	.LFE23
 6670 00a0 00000000 		.4byte	.LFB24
 6671 00a4 18000000 		.4byte	.LFE24
 6672 00a8 00000000 		.4byte	.LFB25
 6673 00ac 16000000 		.4byte	.LFE25
 6674 00b0 00000000 		.4byte	.LFB26
 6675 00b4 0C000000 		.4byte	.LFE26
 6676 00b8 00000000 		.4byte	.LFB27
 6677 00bc 22000000 		.4byte	.LFE27
 6678 00c0 00000000 		.4byte	.LFB28
 6679 00c4 0C000000 		.4byte	.LFE28
 6680 00c8 00000000 		.4byte	.LFB29
 6681 00cc 22000000 		.4byte	.LFE29
 6682 00d0 00000000 		.4byte	.LFB30
 6683 00d4 0C000000 		.4byte	.LFE30
 6684 00d8 00000000 		.4byte	.LFB31
 6685 00dc 22000000 		.4byte	.LFE31
 6686 00e0 00000000 		.4byte	.LFB32
 6687 00e4 0C000000 		.4byte	.LFE32
 6688 00e8 00000000 		.4byte	.LFB33
 6689 00ec 22000000 		.4byte	.LFE33
 6690 00f0 00000000 		.4byte	.LFB34
 6691 00f4 18000000 		.4byte	.LFE34
 6692 00f8 00000000 		.4byte	.LFB35
 6693 00fc 16000000 		.4byte	.LFE35
 6694 0100 00000000 		.4byte	.LFB36
 6695 0104 48000000 		.4byte	.LFE36
 6696 0108 00000000 		.4byte	.LFB37
 6697 010c 48000000 		.4byte	.LFE37
 6698 0110 00000000 		.4byte	.LFB39
 6699 0114 26000000 		.4byte	.LFE39
 6700 0118 00000000 		.4byte	.LFB40
 6701 011c 26000000 		.4byte	.LFE40
 6702 0120 00000000 		.4byte	.LFB41
 6703 0124 0C000000 		.4byte	.LFE41
 6704 0128 00000000 		.4byte	.LFB42
ARM GAS  C:\Users\Xwx47\AppData\Local\Temp\ccidPk4n.s 			page 139


 6705 012c 0C000000 		.4byte	.LFE42
 6706 0130 00000000 		.4byte	.LFB43
 6707 0134 0C000000 		.4byte	.LFE43
 6708 0138 00000000 		.4byte	.LFB44
 6709 013c 0C000000 		.4byte	.LFE44
 6710 0140 00000000 		.4byte	.LFB45
 6711 0144 0C000000 		.4byte	.LFE45
 6712 0148 00000000 		.4byte	.LFB46
 6713 014c 0C000000 		.4byte	.LFE46
 6714 0150 00000000 		.4byte	.LFB47
 6715 0154 16000000 		.4byte	.LFE47
 6716 0158 00000000 		.4byte	.LFB11
 6717 015c 12000000 		.4byte	.LFE11
 6718 0160 00000000 		.4byte	.LFB12
 6719 0164 12000000 		.4byte	.LFE12
 6720 0168 00000000 		.4byte	.LFB48
 6721 016c 0A000000 		.4byte	.LFE48
 6722 0170 00000000 		.4byte	.LFB49
 6723 0174 0A000000 		.4byte	.LFE49
 6724 0178 00000000 		.4byte	.LFB50
 6725 017c 16000000 		.4byte	.LFE50
 6726 0180 00000000 		.4byte	.LFB38
 6727 0184 0C000000 		.4byte	.LFE38
 6728 0188 00000000 		.4byte	.LFB51
 6729 018c 08000000 		.4byte	.LFE51
 6730 0190 00000000 		.4byte	.LFB52
 6731 0194 0E000000 		.4byte	.LFE52
 6732 0198 00000000 		.4byte	.LFB53
 6733 019c 0E000000 		.4byte	.LFE53
 6734 01a0 00000000 		.4byte	.LFB54
 6735 01a4 08000000 		.4byte	.LFE54
 6736 01a8 00000000 		.4byte	.LFB55
 6737 01ac 10000000 		.4byte	.LFE55
 6738 01b0 00000000 		.4byte	.LFB56
 6739 01b4 0E000000 		.4byte	.LFE56
 6740 01b8 00000000 		.4byte	.LFB57
 6741 01bc 08000000 		.4byte	.LFE57
 6742 01c0 00000000 		.4byte	.LFB58
 6743 01c4 0C000000 		.4byte	.LFE58
 6744 01c8 00000000 		.4byte	.LFB59
 6745 01cc 08000000 		.4byte	.LFE59
 6746 01d0 00000000 		.4byte	.LFB60
 6747 01d4 10000000 		.4byte	.LFE60
 6748 01d8 00000000 		.4byte	.LFB61
 6749 01dc 0C000000 		.4byte	.LFE61
 6750 01e0 00000000 		.4byte	.LFB62
 6751 01e4 0C000000 		.4byte	.LFE62
 6752 01e8 00000000 		.4byte	.LFB63
 6753 01ec 0C000000 		.4byte	.LFE63
 6754 01f0 00000000 		.4byte	.LFB64
 6755 01f4 0C000000 		.4byte	.LFE64
 6756 01f8 00000000 		.4byte	.LFB1
 6757 01fc 2A000000 		.4byte	.LFE1
 6758 0200 00000000 		.4byte	.LFB65
 6759 0204 10000000 		.4byte	.LFE65
 6760 0208 00000000 		.4byte	.LFB66
 6761 020c 28000000 		.4byte	.LFE66
ARM GAS  C:\Users\Xwx47\AppData\Local\Temp\ccidPk4n.s 			page 140


 6762 0210 00000000 		.4byte	0
 6763 0214 00000000 		.4byte	0
 6764              		.section	.debug_line,"",%progbits
 6765              	.Ldebug_line0:
 6766 0000 3F070000 		.section	.debug_str,"MS",%progbits,1
 6766      02002002 
 6766      00000201 
 6766      FB0E0D00 
 6766      01010101 
 6767              	.LASF113:
 6768 0000 4E52465F 		.ascii	"NRF_DYNPD_DPL_P2\000"
 6768      44594E50 
 6768      445F4450 
 6768      4C5F5032 
 6768      00
 6769              	.LASF114:
 6770 0011 4E52465F 		.ascii	"NRF_DYNPD_DPL_P3\000"
 6770      44594E50 
 6770      445F4450 
 6770      4C5F5033 
 6770      00
 6771              	.LASF115:
 6772 0022 4E52465F 		.ascii	"NRF_DYNPD_DPL_P4\000"
 6772      44594E50 
 6772      445F4450 
 6772      4C5F5034 
 6772      00
 6773              	.LASF116:
 6774 0033 4E52465F 		.ascii	"NRF_DYNPD_DPL_P5\000"
 6774      44594E50 
 6774      445F4450 
 6774      4C5F5035 
 6774      00
 6775              	.LASF197:
 6776 0044 6972715F 		.ascii	"irq_flag\000"
 6776      666C6167 
 6776      00
 6777              	.LASF214:
 6778 004d 43794465 		.ascii	"CyDelay\000"
 6778      6C617900 
 6779              	.LASF40:
 6780 0055 4E52465F 		.ascii	"NRF_FIFO_STATUS_REG\000"
 6780      4649464F 
 6780      5F535441 
 6780      5455535F 
 6780      52454700 
 6781              	.LASF100:
 6782 0069 4E52465F 		.ascii	"NRF_STATUS_MAX_RT_MASK\000"
 6782      53544154 
 6782      55535F4D 
 6782      41585F52 
 6782      545F4D41 
 6783              	.LASF139:
 6784 0080 6E524632 		.ascii	"nRF24_setRxAddress\000"
 6784      345F7365 
 6784      74527841 
 6784      64647265 
ARM GAS  C:\Users\Xwx47\AppData\Local\Temp\ccidPk4n.s 			page 141


 6784      737300
 6785              	.LASF70:
 6786 0093 4E52465F 		.ascii	"NRF_EN_AA_ENAA_ALL\000"
 6786      454E5F41 
 6786      415F454E 
 6786      41415F41 
 6786      4C4C00
 6787              	.LASF177:
 6788 00a6 6E524632 		.ascii	"nRF24_PTX_reuseLastTransmittedPayload\000"
 6788      345F5054 
 6788      585F7265 
 6788      7573654C 
 6788      61737454 
 6789              	.LASF134:
 6790 00cc 6E524632 		.ascii	"nRF24_disableAutoACK\000"
 6790      345F6469 
 6790      7361626C 
 6790      65417574 
 6790      6F41434B 
 6791              	.LASF128:
 6792 00e1 6E524632 		.ascii	"nRF24_setRxMode\000"
 6792      345F7365 
 6792      7452784D 
 6792      6F646500 
 6793              	.LASF62:
 6794 00f1 4E52465F 		.ascii	"NRF_CONFIG_MASK_TX_DS\000"
 6794      434F4E46 
 6794      49475F4D 
 6794      41534B5F 
 6794      54585F44 
 6795              	.LASF53:
 6796 0107 4E52465F 		.ascii	"NRF_MAX_RT_IRQ\000"
 6796      4D41585F 
 6796      52545F49 
 6796      525100
 6797              	.LASF207:
 6798 0116 6E524632 		.ascii	"nRF24_PTX_ReuseTxPayloadCmd\000"
 6798      345F5054 
 6798      585F5265 
 6798      75736554 
 6798      78506179 
 6799              	.LASF198:
 6800 0132 6E524632 		.ascii	"nRF24_getIRQFlag\000"
 6800      345F6765 
 6800      74495251 
 6800      466C6167 
 6800      00
 6801              	.LASF64:
 6802 0143 4E52465F 		.ascii	"NRF_EN_AA_ENAA_P0\000"
 6802      454E5F41 
 6802      415F454E 
 6802      41415F50 
 6802      3000
 6803              	.LASF122:
 6804 0155 6E524632 		.ascii	"nRF24_sleep\000"
 6804      345F736C 
 6804      65657000 
ARM GAS  C:\Users\Xwx47\AppData\Local\Temp\ccidPk4n.s 			page 142


 6805              	.LASF8:
 6806 0161 756E7369 		.ascii	"unsigned int\000"
 6806      676E6564 
 6806      20696E74 
 6806      00
 6807              	.LASF98:
 6808 016e 4E52465F 		.ascii	"NRF_STATUS_RX_DR_MASK\000"
 6808      53544154 
 6808      55535F52 
 6808      585F4452 
 6808      5F4D4153 
 6809              	.LASF208:
 6810 0184 6E524632 		.ascii	"nRF24_NOPCmd\000"
 6810      345F4E4F 
 6810      50436D64 
 6810      00
 6811              	.LASF131:
 6812 0191 6E524632 		.ascii	"nRF24_enableAutoACK\000"
 6812      345F656E 
 6812      61626C65 
 6812      4175746F 
 6812      41434B00 
 6813              	.LASF143:
 6814 01a5 6E524632 		.ascii	"nRF24_setRxPipe0Address\000"
 6814      345F7365 
 6814      74527850 
 6814      69706530 
 6814      41646472 
 6815              	.LASF90:
 6816 01bd 4E52465F 		.ascii	"NRF_RF_SETUP_RF_DR_250\000"
 6816      52465F53 
 6816      45545550 
 6816      5F52465F 
 6816      44525F32 
 6817              	.LASF49:
 6818 01d4 4E726644 		.ascii	"NrfDataPipe\000"
 6818      61746150 
 6818      69706500 
 6819              	.LASF179:
 6820 01e0 6E524632 		.ascii	"nRF24_getRetransmissionsCount\000"
 6820      345F6765 
 6820      74526574 
 6820      72616E73 
 6820      6D697373 
 6821              	.LASF61:
 6822 01fe 4E52465F 		.ascii	"NRF_CONFIG_MASK_MAX_RT\000"
 6822      434F4E46 
 6822      49475F4D 
 6822      41534B5F 
 6822      4D41585F 
 6823              	.LASF80:
 6824 0215 4E52465F 		.ascii	"NRF_SETUP_AW_3BYTES\000"
 6824      53455455 
 6824      505F4157 
 6824      5F334259 
 6824      54455300 
 6825              	.LASF92:
ARM GAS  C:\Users\Xwx47\AppData\Local\Temp\ccidPk4n.s 			page 143


 6826 0229 4E52465F 		.ascii	"NRF_RF_SETUP_RF_DR_2000\000"
 6826      52465F53 
 6826      45545550 
 6826      5F52465F 
 6826      44525F32 
 6827              	.LASF30:
 6828 0241 4E52465F 		.ascii	"NRF_RX_ADDR_P3_REG\000"
 6828      52585F41 
 6828      4444525F 
 6828      50335F52 
 6828      454700
 6829              	.LASF132:
 6830 0254 6D6F6465 		.ascii	"mode\000"
 6830      00
 6831              	.LASF21:
 6832 0259 4E52465F 		.ascii	"NRF_SETUP_RETR_REG\000"
 6832      53455455 
 6832      505F5245 
 6832      54525F52 
 6832      454700
 6833              	.LASF144:
 6834 026c 6E524632 		.ascii	"nRF24_getRxPipe0Address\000"
 6834      345F6765 
 6834      74527850 
 6834      69706530 
 6834      41646472 
 6835              	.LASF125:
 6836 0284 6E524632 		.ascii	"nRF24_restoreConfig\000"
 6836      345F7265 
 6836      73746F72 
 6836      65436F6E 
 6836      66696700 
 6837              	.LASF137:
 6838 0298 6E524632 		.ascii	"nRF24_setPipesAddressWidth\000"
 6838      345F7365 
 6838      74506970 
 6838      65734164 
 6838      64726573 
 6839              	.LASF96:
 6840 02b3 4E52465F 		.ascii	"NRF_RF_SETUP_RF_PWR_12\000"
 6840      52465F53 
 6840      45545550 
 6840      5F52465F 
 6840      5057525F 
 6841              	.LASF38:
 6842 02ca 4E52465F 		.ascii	"NRF_RX_PW_P4_REG\000"
 6842      52585F50 
 6842      575F5034 
 6842      5F524547 
 6842      00
 6843              	.LASF97:
 6844 02db 4E52465F 		.ascii	"NRF_RF_SETUP_RF_PWR_18\000"
 6844      52465F53 
 6844      45545550 
 6844      5F52465F 
 6844      5057525F 
 6845              	.LASF174:
ARM GAS  C:\Users\Xwx47\AppData\Local\Temp\ccidPk4n.s 			page 144


 6846 02f2 6E524632 		.ascii	"nRF24_startListening\000"
 6846      345F7374 
 6846      6172744C 
 6846      69737465 
 6846      6E696E67 
 6847              	.LASF41:
 6848 0307 4E52465F 		.ascii	"NRF_DYNPD_REG\000"
 6848      44594E50 
 6848      445F5245 
 6848      4700
 6849              	.LASF99:
 6850 0315 4E52465F 		.ascii	"NRF_STATUS_TX_DS_MASK\000"
 6850      53544154 
 6850      55535F54 
 6850      585F4453 
 6850      5F4D4153 
 6851              	.LASF151:
 6852 032b 6E524632 		.ascii	"nRF24_getRxPipe3Address\000"
 6852      345F6765 
 6852      74527850 
 6852      69706533 
 6852      41646472 
 6853              	.LASF27:
 6854 0343 4E52465F 		.ascii	"NRF_RX_ADDR_P0_REG\000"
 6854      52585F41 
 6854      4444525F 
 6854      50305F52 
 6854      454700
 6855              	.LASF56:
 6856 0356 4E726649 		.ascii	"NrfIRQ\000"
 6856      525100
 6857              	.LASF172:
 6858 035d 6E524632 		.ascii	"nRF24_setStandbyIMode\000"
 6858      345F7365 
 6858      74537461 
 6858      6E646279 
 6858      494D6F64 
 6859              	.LASF42:
 6860 0373 4E52465F 		.ascii	"NRF_FEATURE_REG\000"
 6860      46454154 
 6860      5552455F 
 6860      52454700 
 6861              	.LASF35:
 6862 0383 4E52465F 		.ascii	"NRF_RX_PW_P1_REG\000"
 6862      52585F50 
 6862      575F5031 
 6862      5F524547 
 6862      00
 6863              	.LASF11:
 6864 0394 666C6F61 		.ascii	"float\000"
 6864      7400
 6865              	.LASF123:
 6866 039a 6E524632 		.ascii	"nRF24_wakeup\000"
 6866      345F7761 
 6866      6B657570 
 6866      00
 6867              	.LASF108:
ARM GAS  C:\Users\Xwx47\AppData\Local\Temp\ccidPk4n.s 			page 145


 6868 03a7 4E52465F 		.ascii	"NRF_FIFO_STATUS_TX_EMPTY\000"
 6868      4649464F 
 6868      5F535441 
 6868      5455535F 
 6868      54585F45 
 6869              	.LASF86:
 6870 03c0 4E52465F 		.ascii	"NRF_RF_SETUP_RF_DR_HIGH\000"
 6870      52465F53 
 6870      45545550 
 6870      5F52465F 
 6870      44525F48 
 6871              	.LASF219:
 6872 03d8 474E5520 		.ascii	"GNU C11 5.4.1 20160609 (release) [ARM/embedded-5-br"
 6872      43313120 
 6872      352E342E 
 6872      31203230 
 6872      31363036 
 6873 040b 616E6368 		.ascii	"anch revision 237715] -mcpu=cortex-m0plus -mthumb -"
 6873      20726576 
 6873      6973696F 
 6873      6E203233 
 6873      37373135 
 6874 043e 67202D4F 		.ascii	"g -Og -ffunction-sections -ffat-lto-objects\000"
 6874      67202D66 
 6874      66756E63 
 6874      74696F6E 
 6874      2D736563 
 6875              	.LASF180:
 6876 046a 636F756E 		.ascii	"count\000"
 6876      7400
 6877              	.LASF150:
 6878 0470 6E524632 		.ascii	"nRF24_setRxPipe3Address\000"
 6878      345F7365 
 6878      74527850 
 6878      69706533 
 6878      41646472 
 6879              	.LASF206:
 6880 0488 43794465 		.ascii	"CyDelayUs\000"
 6880      6C617955 
 6880      7300
 6881              	.LASF216:
 6882 0492 5350495F 		.ascii	"SPI_Start\000"
 6882      53746172 
 6882      7400
 6883              	.LASF127:
 6884 049c 6E524632 		.ascii	"nRF24_setPowerDownMode\000"
 6884      345F7365 
 6884      74506F77 
 6884      6572446F 
 6884      776E4D6F 
 6885              	.LASF7:
 6886 04b3 6C6F6E67 		.ascii	"long long unsigned int\000"
 6886      206C6F6E 
 6886      6720756E 
 6886      7369676E 
 6886      65642069 
 6887              	.LASF102:
ARM GAS  C:\Users\Xwx47\AppData\Local\Temp\ccidPk4n.s 			page 146


 6888 04ca 4E52465F 		.ascii	"NRF_OBSERVE_TX_PLOS_CNT_MASK\000"
 6888      4F425345 
 6888      5256455F 
 6888      54585F50 
 6888      4C4F535F 
 6889              	.LASF215:
 6890 04e7 53535F57 		.ascii	"SS_Write\000"
 6890      72697465 
 6890      00
 6891              	.LASF196:
 6892 04f0 6E524632 		.ascii	"nRF24_clearIRQFlag\000"
 6892      345F636C 
 6892      65617249 
 6892      5251466C 
 6892      616700
 6893              	.LASF192:
 6894 0503 6E524632 		.ascii	"nRF24_isTXFIFOFull\000"
 6894      345F6973 
 6894      54584649 
 6894      464F4675 
 6894      6C6C00
 6895              	.LASF43:
 6896 0516 4E52465F 		.ascii	"NRF_DATA_PIPE0\000"
 6896      44415441 
 6896      5F504950 
 6896      453000
 6897              	.LASF44:
 6898 0525 4E52465F 		.ascii	"NRF_DATA_PIPE1\000"
 6898      44415441 
 6898      5F504950 
 6898      453100
 6899              	.LASF45:
 6900 0534 4E52465F 		.ascii	"NRF_DATA_PIPE2\000"
 6900      44415441 
 6900      5F504950 
 6900      453200
 6901              	.LASF46:
 6902 0543 4E52465F 		.ascii	"NRF_DATA_PIPE3\000"
 6902      44415441 
 6902      5F504950 
 6902      453300
 6903              	.LASF47:
 6904 0552 4E52465F 		.ascii	"NRF_DATA_PIPE4\000"
 6904      44415441 
 6904      5F504950 
 6904      453400
 6905              	.LASF48:
 6906 0561 4E52465F 		.ascii	"NRF_DATA_PIPE5\000"
 6906      44415441 
 6906      5F504950 
 6906      453500
 6907              	.LASF84:
 6908 0570 4E52465F 		.ascii	"NRF_SETUP_RETR_ARD_SHIFT\000"
 6908      53455455 
 6908      505F5245 
 6908      54525F41 
 6908      52445F53 
ARM GAS  C:\Users\Xwx47\AppData\Local\Temp\ccidPk4n.s 			page 147


 6909              	.LASF183:
 6910 0589 6E524632 		.ascii	"nRF24_putInTXFIFO\000"
 6910      345F7075 
 6910      74496E54 
 6910      58464946 
 6910      4F00
 6911              	.LASF133:
 6912 059b 70697065 		.ascii	"pipe\000"
 6912      00
 6913              	.LASF167:
 6914 05a0 6E524632 		.ascii	"nRF24_enablePayloadWithNoACKCmd\000"
 6914      345F656E 
 6914      61626C65 
 6914      5061796C 
 6914      6F616457 
 6915              	.LASF178:
 6916 05c0 6E524632 		.ascii	"nRF24_getStatus\000"
 6916      345F6765 
 6916      74537461 
 6916      74757300 
 6917              	.LASF168:
 6918 05d0 6E524632 		.ascii	"nRF24_disablePayloadWithNoACKCmd\000"
 6918      345F6469 
 6918      7361626C 
 6918      65506179 
 6918      6C6F6164 
 6919              	.LASF161:
 6920 05f1 6E524632 		.ascii	"nRF24_enableDynamicPayload\000"
 6920      345F656E 
 6920      61626C65 
 6920      44796E61 
 6920      6D696350 
 6921              	.LASF78:
 6922 060c 4E52465F 		.ascii	"NRF_EN_RXADDR_ERX_ALL\000"
 6922      454E5F52 
 6922      58414444 
 6922      525F4552 
 6922      585F414C 
 6923              	.LASF24:
 6924 0622 4E52465F 		.ascii	"NRF_STATUS_REG\000"
 6924      53544154 
 6924      55535F52 
 6924      454700
 6925              	.LASF129:
 6926 0631 6E524632 		.ascii	"nRF24_setTxMode\000"
 6926      345F7365 
 6926      7454784D 
 6926      6F646500 
 6927              	.LASF190:
 6928 0641 6E524632 		.ascii	"nRF24_getDataPipeWithPayload\000"
 6928      345F6765 
 6928      74446174 
 6928      61506970 
 6928      65576974 
 6929              	.LASF14:
 6930 065e 73697A65 		.ascii	"size_t\000"
 6930      5F7400
ARM GAS  C:\Users\Xwx47\AppData\Local\Temp\ccidPk4n.s 			page 148


 6931              	.LASF217:
 6932 0665 6E524632 		.ascii	"nRF24_FlushRxCmd\000"
 6932      345F466C 
 6932      75736852 
 6932      78436D64 
 6932      00
 6933              	.LASF94:
 6934 0676 4E52465F 		.ascii	"NRF_RF_SETUP_RF_PWR_0\000"
 6934      52465F53 
 6934      45545550 
 6934      5F52465F 
 6934      5057525F 
 6935              	.LASF58:
 6936 068c 4E52465F 		.ascii	"NRF_CONFIG_PWR_UP\000"
 6936      434F4E46 
 6936      49475F50 
 6936      57525F55 
 6936      5000
 6937              	.LASF95:
 6938 069e 4E52465F 		.ascii	"NRF_RF_SETUP_RF_PWR_6\000"
 6938      52465F53 
 6938      45545550 
 6938      5F52465F 
 6938      5057525F 
 6939              	.LASF31:
 6940 06b4 4E52465F 		.ascii	"NRF_RX_ADDR_P4_REG\000"
 6940      52585F41 
 6940      4444525F 
 6940      50345F52 
 6940      454700
 6941              	.LASF171:
 6942 06c7 5F426F6F 		.ascii	"_Bool\000"
 6942      6C00
 6943              	.LASF169:
 6944 06cd 6E524632 		.ascii	"nRF24_listen\000"
 6944      345F6C69 
 6944      7374656E 
 6944      00
 6945              	.LASF170:
 6946 06da 6C697374 		.ascii	"listen\000"
 6946      656E00
 6947              	.LASF135:
 6948 06e1 6E524632 		.ascii	"nRF24_setChannel\000"
 6948      345F7365 
 6948      74436861 
 6948      6E6E656C 
 6948      00
 6949              	.LASF202:
 6950 06f2 6E524632 		.ascii	"nRF24_readRegister\000"
 6950      345F7265 
 6950      61645265 
 6950      67697374 
 6950      657200
 6951              	.LASF195:
 6952 0705 6E524632 		.ascii	"nRF24_start\000"
 6952      345F7374 
 6952      61727400 
ARM GAS  C:\Users\Xwx47\AppData\Local\Temp\ccidPk4n.s 			page 149


 6953              	.LASF82:
 6954 0711 4E52465F 		.ascii	"NRF_SETUP_AW_5BYTES\000"
 6954      53455455 
 6954      505F4157 
 6954      5F354259 
 6954      54455300 
 6955              	.LASF187:
 6956 0725 6E524632 		.ascii	"nRF24_getRxPayload\000"
 6956      345F6765 
 6956      74527850 
 6956      61796C6F 
 6956      616400
 6957              	.LASF79:
 6958 0738 4E52465F 		.ascii	"NRF_EN_RXADDR_ERX_NONE\000"
 6958      454E5F52 
 6958      58414444 
 6958      525F4552 
 6958      585F4E4F 
 6959              	.LASF13:
 6960 074f 63686172 		.ascii	"char\000"
 6960      00
 6961              	.LASF201:
 6962 0754 6E524632 		.ascii	"nRF24_setBit\000"
 6962      345F7365 
 6962      74426974 
 6962      00
 6963              	.LASF220:
 6964 0761 47656E65 		.ascii	"Generated_Source\\PSoC4\\nRF24_NRF_FUNCS.c\000"
 6964      72617465 
 6964      645F536F 
 6964      75726365 
 6964      5C50536F 
 6965              	.LASF212:
 6966 078a 6E524632 		.ascii	"nRF24_PRX_WriteACKPayloadCmd\000"
 6966      345F5052 
 6966      585F5772 
 6966      69746541 
 6966      434B5061 
 6967              	.LASF51:
 6968 07a7 4E52465F 		.ascii	"NRF_MODE_RX\000"
 6968      4D4F4445 
 6968      5F525800 
 6969              	.LASF157:
 6970 07b3 6E524632 		.ascii	"nRF24_getTxAddress\000"
 6970      345F6765 
 6970      74547841 
 6970      64647265 
 6970      737300
 6971              	.LASF32:
 6972 07c6 4E52465F 		.ascii	"NRF_RX_ADDR_P5_REG\000"
 6972      52585F41 
 6972      4444525F 
 6972      50355F52 
 6972      454700
 6973              	.LASF184:
 6974 07d9 64617461 		.ascii	"data\000"
 6974      00
ARM GAS  C:\Users\Xwx47\AppData\Local\Temp\ccidPk4n.s 			page 150


 6975              	.LASF162:
 6976 07de 6E524632 		.ascii	"nRF24_disableDynamicPayload\000"
 6976      345F6469 
 6976      7361626C 
 6976      6544796E 
 6976      616D6963 
 6977              	.LASF189:
 6978 07fa 6E524632 		.ascii	"nRF24_rxWritePayload\000"
 6978      345F7278 
 6978      57726974 
 6978      65506179 
 6978      6C6F6164 
 6979              	.LASF10:
 6980 080f 75696E74 		.ascii	"uint8_t\000"
 6980      385F7400 
 6981              	.LASF194:
 6982 0817 6E524632 		.ascii	"nRF24_clearAllIRQs\000"
 6982      345F636C 
 6982      65617241 
 6982      6C6C4952 
 6982      517300
 6983              	.LASF213:
 6984 082a 6E524632 		.ascii	"nRF24_readBit\000"
 6984      345F7265 
 6984      61644269 
 6984      7400
 6985              	.LASF55:
 6986 0838 4E52465F 		.ascii	"NRF_RX_DR_IRQ\000"
 6986      52585F44 
 6986      525F4952 
 6986      5100
 6987              	.LASF105:
 6988 0846 4E52465F 		.ascii	"NRF_RPD_RPD\000"
 6988      5250445F 
 6988      52504400 
 6989              	.LASF118:
 6990 0852 4E52465F 		.ascii	"NRF_FEATURE_EN_ACK_PAY\000"
 6990      46454154 
 6990      5552455F 
 6990      454E5F41 
 6990      434B5F50 
 6991              	.LASF71:
 6992 0869 4E52465F 		.ascii	"NRF_EN_AA_ENAA_NONE\000"
 6992      454E5F41 
 6992      415F454E 
 6992      41415F4E 
 6992      4F4E4500 
 6993              	.LASF101:
 6994 087d 4E52465F 		.ascii	"NRF_STATUS_DATA_IS_RDY\000"
 6994      53544154 
 6994      55535F44 
 6994      4154415F 
 6994      49535F52 
 6995              	.LASF22:
 6996 0894 4E52465F 		.ascii	"NRF_RF_CH_REG\000"
 6996      52465F43 
 6996      485F5245 
ARM GAS  C:\Users\Xwx47\AppData\Local\Temp\ccidPk4n.s 			page 151


 6996      4700
 6997              	.LASF29:
 6998 08a2 4E52465F 		.ascii	"NRF_RX_ADDR_P2_REG\000"
 6998      52585F41 
 6998      4444525F 
 6998      50325F52 
 6998      454700
 6999              	.LASF6:
 7000 08b5 6C6F6E67 		.ascii	"long long int\000"
 7000      206C6F6E 
 7000      6720696E 
 7000      7400
 7001              	.LASF33:
 7002 08c3 4E52465F 		.ascii	"NRF_TX_ADDR_REG\000"
 7002      54585F41 
 7002      4444525F 
 7002      52454700 
 7003              	.LASF148:
 7004 08d3 61646472 		.ascii	"addr_lsb\000"
 7004      5F6C7362 
 7004      00
 7005              	.LASF159:
 7006 08dc 6E524632 		.ascii	"nRF24_getPipesAddressWidth\000"
 7006      345F6765 
 7006      74506970 
 7006      65734164 
 7006      64726573 
 7007              	.LASF37:
 7008 08f7 4E52465F 		.ascii	"NRF_RX_PW_P3_REG\000"
 7008      52585F50 
 7008      575F5033 
 7008      5F524547 
 7008      00
 7009              	.LASF52:
 7010 0908 4E72664D 		.ascii	"NrfMode\000"
 7010      6F646500 
 7011              	.LASF221:
 7012 0910 433A5C55 		.ascii	"C:\\Users\\Xwx47\\Documents\\Creator\\nRF24_Example"
 7012      73657273 
 7012      5C587778 
 7012      34375C44 
 7012      6F63756D 
 7013 093e 5F50726F 		.ascii	"_Projects\\00_Basic_Rx.cydsn\000"
 7013      6A656374 
 7013      735C3030 
 7013      5F426173 
 7013      69635F52 
 7014              	.LASF210:
 7015 095a 6E524632 		.ascii	"nRF24_PRX_ReadRXPayloadCmd\000"
 7015      345F5052 
 7015      585F5265 
 7015      61645258 
 7015      5061796C 
 7016              	.LASF176:
 7017 0975 6E524632 		.ascii	"nRF24_transmitPulse\000"
 7017      345F7472 
 7017      616E736D 
ARM GAS  C:\Users\Xwx47\AppData\Local\Temp\ccidPk4n.s 			page 152


 7017      69745075 
 7017      6C736500 
 7018              	.LASF146:
 7019 0989 6E524632 		.ascii	"nRF24_getRxPipe1Address\000"
 7019      345F6765 
 7019      74527850 
 7019      69706531 
 7019      41646472 
 7020              	.LASF91:
 7021 09a1 4E52465F 		.ascii	"NRF_RF_SETUP_RF_DR_1000\000"
 7021      52465F53 
 7021      45545550 
 7021      5F52465F 
 7021      44525F31 
 7022              	.LASF153:
 7023 09b9 6E524632 		.ascii	"nRF24_getRxPipe4Address\000"
 7023      345F6765 
 7023      74527850 
 7023      69706534 
 7023      41646472 
 7024              	.LASF145:
 7025 09d1 6E524632 		.ascii	"nRF24_setRxPipe1Address\000"
 7025      345F7365 
 7025      74527850 
 7025      69706531 
 7025      41646472 
 7026              	.LASF34:
 7027 09e9 4E52465F 		.ascii	"NRF_RX_PW_P0_REG\000"
 7027      52585F50 
 7027      575F5030 
 7027      5F524547 
 7027      00
 7028              	.LASF50:
 7029 09fa 4E52465F 		.ascii	"NRF_MODE_TX\000"
 7029      4D4F4445 
 7029      5F545800 
 7030              	.LASF141:
 7031 0a06 73697A65 		.ascii	"size\000"
 7031      00
 7032              	.LASF205:
 7033 0a0b 43455F57 		.ascii	"CE_Write\000"
 7033      72697465 
 7033      00
 7034              	.LASF181:
 7035 0a14 6E524632 		.ascii	"nRF24_getLostPacketsCount\000"
 7035      345F6765 
 7035      744C6F73 
 7035      74506163 
 7035      6B657473 
 7036              	.LASF199:
 7037 0a2e 6E524632 		.ascii	"nRF24_writeRegister\000"
 7037      345F7772 
 7037      69746552 
 7037      65676973 
 7037      74657200 
 7038              	.LASF72:
 7039 0a42 4E52465F 		.ascii	"NRF_EN_RXADDR_ERX_P0\000"
ARM GAS  C:\Users\Xwx47\AppData\Local\Temp\ccidPk4n.s 			page 153


 7039      454E5F52 
 7039      58414444 
 7039      525F4552 
 7039      585F5030 
 7040              	.LASF73:
 7041 0a57 4E52465F 		.ascii	"NRF_EN_RXADDR_ERX_P1\000"
 7041      454E5F52 
 7041      58414444 
 7041      525F4552 
 7041      585F5031 
 7042              	.LASF74:
 7043 0a6c 4E52465F 		.ascii	"NRF_EN_RXADDR_ERX_P2\000"
 7043      454E5F52 
 7043      58414444 
 7043      525F4552 
 7043      585F5032 
 7044              	.LASF75:
 7045 0a81 4E52465F 		.ascii	"NRF_EN_RXADDR_ERX_P3\000"
 7045      454E5F52 
 7045      58414444 
 7045      525F4552 
 7045      585F5033 
 7046              	.LASF76:
 7047 0a96 4E52465F 		.ascii	"NRF_EN_RXADDR_ERX_P4\000"
 7047      454E5F52 
 7047      58414444 
 7047      525F4552 
 7047      585F5034 
 7048              	.LASF77:
 7049 0aab 4E52465F 		.ascii	"NRF_EN_RXADDR_ERX_P5\000"
 7049      454E5F52 
 7049      58414444 
 7049      525F4552 
 7049      585F5035 
 7050              	.LASF156:
 7051 0ac0 6E524632 		.ascii	"nRF24_setTxAddress\000"
 7051      345F7365 
 7051      74547841 
 7051      64647265 
 7051      737300
 7052              	.LASF119:
 7053 0ad3 4E52465F 		.ascii	"NRF_FEATURE_EN_DPL\000"
 7053      46454154 
 7053      5552455F 
 7053      454E5F44 
 7053      504C00
 7054              	.LASF117:
 7055 0ae6 4E52465F 		.ascii	"NRF_FEATURE_EN_DYN_ACK\000"
 7055      46454154 
 7055      5552455F 
 7055      454E5F44 
 7055      594E5F41 
 7056              	.LASF152:
 7057 0afd 6E524632 		.ascii	"nRF24_setRxPipe4Address\000"
 7057      345F7365 
 7057      74527850 
 7057      69706534 
ARM GAS  C:\Users\Xwx47\AppData\Local\Temp\ccidPk4n.s 			page 154


 7057      41646472 
 7058              	.LASF218:
 7059 0b15 6E524632 		.ascii	"nRF24_FlushTxCmd\000"
 7059      345F466C 
 7059      75736854 
 7059      78436D64 
 7059      00
 7060              	.LASF15:
 7061 0b26 6C6F6E67 		.ascii	"long double\000"
 7061      20646F75 
 7061      626C6500 
 7062              	.LASF106:
 7063 0b32 4E52465F 		.ascii	"NRF_FIFO_STATUS_RX_EMPTY\000"
 7063      4649464F 
 7063      5F535441 
 7063      5455535F 
 7063      52585F45 
 7064              	.LASF88:
 7065 0b4b 4E52465F 		.ascii	"NRF_RF_SETUP_RF_DR_LOW\000"
 7065      52465F53 
 7065      45545550 
 7065      5F52465F 
 7065      44525F4C 
 7066              	.LASF136:
 7067 0b62 6368616E 		.ascii	"channel\000"
 7067      6E656C00 
 7068              	.LASF130:
 7069 0b6a 6E524632 		.ascii	"nRF24_setMode\000"
 7069      345F7365 
 7069      744D6F64 
 7069      6500
 7070              	.LASF104:
 7071 0b78 4E52465F 		.ascii	"NRF_OBSERVE_TX_ARC_CNT_MASK\000"
 7071      4F425345 
 7071      5256455F 
 7071      54585F41 
 7071      52435F43 
 7072              	.LASF23:
 7073 0b94 4E52465F 		.ascii	"NRF_RF_SETUP_REG\000"
 7073      52465F53 
 7073      45545550 
 7073      5F524547 
 7073      00
 7074              	.LASF107:
 7075 0ba5 4E52465F 		.ascii	"NRF_FIFO_STATUS_RX_FULL\000"
 7075      4649464F 
 7075      5F535441 
 7075      5455535F 
 7075      52585F46 
 7076              	.LASF121:
 7077 0bbd 6E524632 		.ascii	"nRF24_stop\000"
 7077      345F7374 
 7077      6F7000
 7078              	.LASF2:
 7079 0bc8 73686F72 		.ascii	"short int\000"
 7079      7420696E 
 7079      7400
ARM GAS  C:\Users\Xwx47\AppData\Local\Temp\ccidPk4n.s 			page 155


 7080              	.LASF85:
 7081 0bd2 4E52465F 		.ascii	"NRF_RF_SETUP_RF_DR\000"
 7081      52465F53 
 7081      45545550 
 7081      5F52465F 
 7081      445200
 7082              	.LASF124:
 7083 0be5 6E524632 		.ascii	"nRF24_saveConfig\000"
 7083      345F7361 
 7083      7665436F 
 7083      6E666967 
 7083      00
 7084              	.LASF19:
 7085 0bf6 4E52465F 		.ascii	"NRF_EN_RXADDR_REG\000"
 7085      454E5F52 
 7085      58414444 
 7085      525F5245 
 7085      4700
 7086              	.LASF4:
 7087 0c08 6C6F6E67 		.ascii	"long int\000"
 7087      20696E74 
 7087      00
 7088              	.LASF211:
 7089 0c11 6E524632 		.ascii	"nRF24_PTX_NoACKPayloadCmd\000"
 7089      345F5054 
 7089      585F4E6F 
 7089      41434B50 
 7089      61796C6F 
 7090              	.LASF54:
 7091 0c2b 4E52465F 		.ascii	"NRF_TX_DS_IRQ\000"
 7091      54585F44 
 7091      535F4952 
 7091      5100
 7092              	.LASF83:
 7093 0c39 4E726653 		.ascii	"NrfSetupAddressWidth\000"
 7093      65747570 
 7093      41646472 
 7093      65737357 
 7093      69647468 
 7094              	.LASF158:
 7095 0c4e 6E524632 		.ascii	"nRF24_setPayloadSize\000"
 7095      345F7365 
 7095      74506179 
 7095      6C6F6164 
 7095      53697A65 
 7096              	.LASF186:
 7097 0c63 6E524632 		.ascii	"nRF24_isDataReady\000"
 7097      345F6973 
 7097      44617461 
 7097      52656164 
 7097      7900
 7098              	.LASF126:
 7099 0c75 6E524632 		.ascii	"nRF24_init\000"
 7099      345F696E 
 7099      697400
 7100              	.LASF204:
 7101 0c80 6E524632 		.ascii	"nRF24_readLongRegister\000"
ARM GAS  C:\Users\Xwx47\AppData\Local\Temp\ccidPk4n.s 			page 156


 7101      345F7265 
 7101      61644C6F 
 7101      6E675265 
 7101      67697374 
 7102              	.LASF165:
 7103 0c97 6E524632 		.ascii	"nRF24_enablePayloadWithACK\000"
 7103      345F656E 
 7103      61626C65 
 7103      5061796C 
 7103      6F616457 
 7104              	.LASF25:
 7105 0cb2 4E52465F 		.ascii	"NRF_OBSERVE_TX_REG\000"
 7105      4F425345 
 7105      5256455F 
 7105      54585F52 
 7105      454700
 7106              	.LASF89:
 7107 0cc5 4E52465F 		.ascii	"NRF_RF_SETUP_CONT_WAVE\000"
 7107      52465F53 
 7107      45545550 
 7107      5F434F4E 
 7107      545F5741 
 7108              	.LASF103:
 7109 0cdc 4E52465F 		.ascii	"NRF_OBSERVE_TX_PLOS_CNT_POS\000"
 7109      4F425345 
 7109      5256455F 
 7109      54585F50 
 7109      4C4F535F 
 7110              	.LASF138:
 7111 0cf8 61646472 		.ascii	"addr_width\000"
 7111      5F776964 
 7111      746800
 7112              	.LASF63:
 7113 0d03 4E52465F 		.ascii	"NRF_CONFIG_MASK_RX_DR\000"
 7113      434F4E46 
 7113      49475F4D 
 7113      41534B5F 
 7113      52585F44 
 7114              	.LASF9:
 7115 0d19 5F5F7569 		.ascii	"__uint8_t\000"
 7115      6E74385F 
 7115      7400
 7116              	.LASF81:
 7117 0d23 4E52465F 		.ascii	"NRF_SETUP_AW_4BYTES\000"
 7117      53455455 
 7117      505F4157 
 7117      5F344259 
 7117      54455300 
 7118              	.LASF26:
 7119 0d37 4E52465F 		.ascii	"NRF_RPD_REG\000"
 7119      5250445F 
 7119      52454700 
 7120              	.LASF20:
 7121 0d43 4E52465F 		.ascii	"NRF_SETUP_AW_REG\000"
 7121      53455455 
 7121      505F4157 
 7121      5F524547 
ARM GAS  C:\Users\Xwx47\AppData\Local\Temp\ccidPk4n.s 			page 157


 7121      00
 7122              	.LASF203:
 7123 0d54 6E524632 		.ascii	"nRF24_writeLongRegister\000"
 7123      345F7772 
 7123      6974654C 
 7123      6F6E6752 
 7123      65676973 
 7124              	.LASF57:
 7125 0d6c 4E52465F 		.ascii	"NRF_CONFIG_PRIM_RX\000"
 7125      434F4E46 
 7125      49475F50 
 7125      52494D5F 
 7125      525800
 7126              	.LASF209:
 7127 0d7f 6E524632 		.ascii	"nRF24_WriteTXPayloadCmd\000"
 7127      345F5772 
 7127      69746554 
 7127      58506179 
 7127      6C6F6164 
 7128              	.LASF16:
 7129 0d97 73697A65 		.ascii	"sizetype\000"
 7129      74797065 
 7129      00
 7130              	.LASF18:
 7131 0da0 4E52465F 		.ascii	"NRF_EN_AA_REG\000"
 7131      454E5F41 
 7131      415F5245 
 7131      4700
 7132              	.LASF5:
 7133 0dae 6C6F6E67 		.ascii	"long unsigned int\000"
 7133      20756E73 
 7133      69676E65 
 7133      6420696E 
 7133      7400
 7134              	.LASF149:
 7135 0dc0 6E524632 		.ascii	"nRF24_getRxPipe2Address\000"
 7135      345F6765 
 7135      74527850 
 7135      69706532 
 7135      41646472 
 7136              	.LASF109:
 7137 0dd8 4E52465F 		.ascii	"NRF_FIFO_STATUS_TX_FULL\000"
 7137      4649464F 
 7137      5F535441 
 7137      5455535F 
 7137      54585F46 
 7138              	.LASF39:
 7139 0df0 4E52465F 		.ascii	"NRF_RX_PW_P5_REG\000"
 7139      52585F50 
 7139      575F5035 
 7139      5F524547 
 7139      00
 7140              	.LASF120:
 7141 0e01 6E524632 		.ascii	"nRF24_enable\000"
 7141      345F656E 
 7141      61626C65 
 7141      00
ARM GAS  C:\Users\Xwx47\AppData\Local\Temp\ccidPk4n.s 			page 158


 7142              	.LASF93:
 7143 0e0e 4E52465F 		.ascii	"NRF_RF_SETUP_RF_PWR\000"
 7143      52465F53 
 7143      45545550 
 7143      5F52465F 
 7143      50575200 
 7144              	.LASF1:
 7145 0e22 756E7369 		.ascii	"unsigned char\000"
 7145      676E6564 
 7145      20636861 
 7145      7200
 7146              	.LASF28:
 7147 0e30 4E52465F 		.ascii	"NRF_RX_ADDR_P1_REG\000"
 7147      52585F41 
 7147      4444525F 
 7147      50315F52 
 7147      454700
 7148              	.LASF188:
 7149 0e43 6E524632 		.ascii	"nRF24_txTransmitWaitNoACK\000"
 7149      345F7478 
 7149      5472616E 
 7149      736D6974 
 7149      57616974 
 7150              	.LASF163:
 7151 0e5d 6E524632 		.ascii	"nRF24_enableDynamicPayloadLength\000"
 7151      345F656E 
 7151      61626C65 
 7151      44796E61 
 7151      6D696350 
 7152              	.LASF147:
 7153 0e7e 6E524632 		.ascii	"nRF24_setRxPipe2Address\000"
 7153      345F7365 
 7153      74527850 
 7153      69706532 
 7153      41646472 
 7154              	.LASF142:
 7155 0e96 6E524632 		.ascii	"nRF24_getRxAddress\000"
 7155      345F6765 
 7155      74527841 
 7155      64647265 
 7155      737300
 7156              	.LASF36:
 7157 0ea9 4E52465F 		.ascii	"NRF_RX_PW_P2_REG\000"
 7157      52585F50 
 7157      575F5032 
 7157      5F524547 
 7157      00
 7158              	.LASF140:
 7159 0eba 61646472 		.ascii	"addr\000"
 7159      00
 7160              	.LASF166:
 7161 0ebf 6E524632 		.ascii	"nRF24_disablePayloadWithACK\000"
 7161      345F6469 
 7161      7361626C 
 7161      65506179 
 7161      6C6F6164 
 7162              	.LASF87:
ARM GAS  C:\Users\Xwx47\AppData\Local\Temp\ccidPk4n.s 			page 159


 7163 0edb 4E52465F 		.ascii	"NRF_RF_SETUP_PLL_LOCK\000"
 7163      52465F53 
 7163      45545550 
 7163      5F504C4C 
 7163      5F4C4F43 
 7164              	.LASF185:
 7165 0ef1 6E524632 		.ascii	"nRF24_PTX_Transmit\000"
 7165      345F5054 
 7165      585F5472 
 7165      616E736D 
 7165      697400
 7166              	.LASF193:
 7167 0f04 6E524632 		.ascii	"nRF24_isRXFIFOEmpty\000"
 7167      345F6973 
 7167      52584649 
 7167      464F456D 
 7167      70747900 
 7168              	.LASF175:
 7169 0f18 6E524632 		.ascii	"nRF24_stopListening\000"
 7169      345F7374 
 7169      6F704C69 
 7169      7374656E 
 7169      696E6700 
 7170              	.LASF0:
 7171 0f2c 7369676E 		.ascii	"signed char\000"
 7171      65642063 
 7171      68617200 
 7172              	.LASF3:
 7173 0f38 73686F72 		.ascii	"short unsigned int\000"
 7173      7420756E 
 7173      7369676E 
 7173      65642069 
 7173      6E7400
 7174              	.LASF155:
 7175 0f4b 6E524632 		.ascii	"nRF24_getRxPipe5Address\000"
 7175      345F6765 
 7175      74527850 
 7175      69706535 
 7175      41646472 
 7176              	.LASF182:
 7177 0f63 6C6F7374 		.ascii	"lostPackets\000"
 7177      5061636B 
 7177      65747300 
 7178              	.LASF160:
 7179 0f6f 6E524632 		.ascii	"nRF24_getPayloadSize\000"
 7179      345F6765 
 7179      74506179 
 7179      6C6F6164 
 7179      53697A65 
 7180              	.LASF173:
 7181 0f84 6E524632 		.ascii	"nRF24_setStandbyIIMode\000"
 7181      345F7365 
 7181      74537461 
 7181      6E646279 
 7181      49494D6F 
 7182              	.LASF191:
 7183 0f9b 6E524632 		.ascii	"nRF24_PRX_receivedPowerDetector\000"
ARM GAS  C:\Users\Xwx47\AppData\Local\Temp\ccidPk4n.s 			page 160


 7183      345F5052 
 7183      585F7265 
 7183      63656976 
 7183      6564506F 
 7184              	.LASF60:
 7185 0fbb 4E52465F 		.ascii	"NRF_CONFIG_EN_CRC\000"
 7185      434F4E46 
 7185      49475F45 
 7185      4E5F4352 
 7185      4300
 7186              	.LASF12:
 7187 0fcd 646F7562 		.ascii	"double\000"
 7187      6C6500
 7188              	.LASF65:
 7189 0fd4 4E52465F 		.ascii	"NRF_EN_AA_ENAA_P1\000"
 7189      454E5F41 
 7189      415F454E 
 7189      41415F50 
 7189      3100
 7190              	.LASF66:
 7191 0fe6 4E52465F 		.ascii	"NRF_EN_AA_ENAA_P2\000"
 7191      454E5F41 
 7191      415F454E 
 7191      41415F50 
 7191      3200
 7192              	.LASF67:
 7193 0ff8 4E52465F 		.ascii	"NRF_EN_AA_ENAA_P3\000"
 7193      454E5F41 
 7193      415F454E 
 7193      41415F50 
 7193      3300
 7194              	.LASF68:
 7195 100a 4E52465F 		.ascii	"NRF_EN_AA_ENAA_P4\000"
 7195      454E5F41 
 7195      415F454E 
 7195      41415F50 
 7195      3400
 7196              	.LASF69:
 7197 101c 4E52465F 		.ascii	"NRF_EN_AA_ENAA_P5\000"
 7197      454E5F41 
 7197      415F454E 
 7197      41415F50 
 7197      3500
 7198              	.LASF17:
 7199 102e 4E52465F 		.ascii	"NRF_CONFIG_REG\000"
 7199      434F4E46 
 7199      49475F52 
 7199      454700
 7200              	.LASF110:
 7201 103d 4E52465F 		.ascii	"NRF_FIFO_STATUS_TX_REUSE\000"
 7201      4649464F 
 7201      5F535441 
 7201      5455535F 
 7201      54585F52 
 7202              	.LASF200:
 7203 1056 6E524632 		.ascii	"nRF24_clearBit\000"
 7203      345F636C 
ARM GAS  C:\Users\Xwx47\AppData\Local\Temp\ccidPk4n.s 			page 161


 7203      65617242 
 7203      697400
 7204              	.LASF154:
 7205 1065 6E524632 		.ascii	"nRF24_setRxPipe5Address\000"
 7205      345F7365 
 7205      74527850 
 7205      69706535 
 7205      41646472 
 7206              	.LASF59:
 7207 107d 4E52465F 		.ascii	"NRF_CONFIG_CRCO\000"
 7207      434F4E46 
 7207      49475F43 
 7207      52434F00 
 7208              	.LASF164:
 7209 108d 6E524632 		.ascii	"nRF24_disableDynamicPayloadLength\000"
 7209      345F6469 
 7209      7361626C 
 7209      6544796E 
 7209      616D6963 
 7210              	.LASF111:
 7211 10af 4E52465F 		.ascii	"NRF_DYNPD_DPL_P0\000"
 7211      44594E50 
 7211      445F4450 
 7211      4C5F5030 
 7211      00
 7212              	.LASF112:
 7213 10c0 4E52465F 		.ascii	"NRF_DYNPD_DPL_P1\000"
 7213      44594E50 
 7213      445F4450 
 7213      4C5F5031 
 7213      00
 7214              		.ident	"GCC: (GNU Tools for ARM Embedded Processors) 5.4.1 20160609 (release) [ARM/embedded-5-bran
