ARM GAS  C:\Users\Xwx47\AppData\Local\Temp\cc6J2i3F.s 			page 1


   1              		.syntax unified
   2              		.cpu cortex-m0plus
   3              		.fpu softvfp
   4              		.eabi_attribute 20, 1
   5              		.eabi_attribute 21, 1
   6              		.eabi_attribute 23, 3
   7              		.eabi_attribute 24, 1
   8              		.eabi_attribute 25, 1
   9              		.eabi_attribute 26, 1
  10              		.eabi_attribute 30, 1
  11              		.eabi_attribute 34, 0
  12              		.eabi_attribute 18, 4
  13              		.thumb
  14              		.syntax unified
  15              		.file	"nRF24_NRF_FUNCS.c"
  16              		.text
  17              	.Ltext0:
  18              		.cfi_sections	.debug_frame
  19              		.section	.text.nRF24_init,"ax",%progbits
  20              		.align	2
  21              		.global	nRF24_init
  22              		.code	16
  23              		.thumb_func
  24              		.type	nRF24_init, %function
  25              	nRF24_init:
  26              	.LFB2:
  27              		.file 1 "Generated_Source\\PSoC4\\nRF24_NRF_FUNCS.c"
   1:Generated_Source\PSoC4/nRF24_NRF_FUNCS.c **** /****************************************************************************
   2:Generated_Source\PSoC4/nRF24_NRF_FUNCS.c **** * This file is part of the nRF24 Custom Component for PSoC Devices.
   3:Generated_Source\PSoC4/nRF24_NRF_FUNCS.c **** *
   4:Generated_Source\PSoC4/nRF24_NRF_FUNCS.c **** * Copyright (C) 2017 Carlos Diaz <carlos.santiago.diaz@gmail.com>
   5:Generated_Source\PSoC4/nRF24_NRF_FUNCS.c **** *
   6:Generated_Source\PSoC4/nRF24_NRF_FUNCS.c **** * Permission to use, copy, modify, and/or distribute this software for any
   7:Generated_Source\PSoC4/nRF24_NRF_FUNCS.c **** * purpose with or without fee is hereby granted, provided that the above
   8:Generated_Source\PSoC4/nRF24_NRF_FUNCS.c **** * copyright notice and this permission notice appear in all copies.
   9:Generated_Source\PSoC4/nRF24_NRF_FUNCS.c **** *
  10:Generated_Source\PSoC4/nRF24_NRF_FUNCS.c **** * THE SOFTWARE IS PROVIDED "AS IS" AND THE AUTHOR DISCLAIMS ALL WARRANTIES
  11:Generated_Source\PSoC4/nRF24_NRF_FUNCS.c **** * WITH REGARD TO THIS SOFTWARE INCLUDING ALL IMPLIED WARRANTIES OF
  12:Generated_Source\PSoC4/nRF24_NRF_FUNCS.c **** * MERCHANTABILITY AND FITNESS. IN NO EVENT SHALL THE AUTHOR BE LIABLE FOR
  13:Generated_Source\PSoC4/nRF24_NRF_FUNCS.c **** * ANY SPECIAL, DIRECT, INDIRECT, OR CONSEQUENTIAL DAMAGES OR ANY DAMAGES
  14:Generated_Source\PSoC4/nRF24_NRF_FUNCS.c **** * WHATSOEVER RESULTING FROM LOSS OF USE, DATA OR PROFITS, WHETHER IN AN
  15:Generated_Source\PSoC4/nRF24_NRF_FUNCS.c **** * ACTION OF CONTRACT, NEGLIGENCE OR OTHER TORTIOUS ACTION, ARISING OUT OF
  16:Generated_Source\PSoC4/nRF24_NRF_FUNCS.c **** * OR IN CONNECTION WITH THE USE OR PERFORMANCE OF THIS SOFTWARE.
  17:Generated_Source\PSoC4/nRF24_NRF_FUNCS.c **** ****************************************************************************/
  18:Generated_Source\PSoC4/nRF24_NRF_FUNCS.c **** 
  19:Generated_Source\PSoC4/nRF24_NRF_FUNCS.c **** /**
  20:Generated_Source\PSoC4/nRF24_NRF_FUNCS.c **** * @file nRF24_NRF_FUNCS.c
  21:Generated_Source\PSoC4/nRF24_NRF_FUNCS.c **** *
  22:Generated_Source\PSoC4/nRF24_NRF_FUNCS.c **** * @brief This file define all the functions available to the user.
  23:Generated_Source\PSoC4/nRF24_NRF_FUNCS.c **** */
  24:Generated_Source\PSoC4/nRF24_NRF_FUNCS.c **** 
  25:Generated_Source\PSoC4/nRF24_NRF_FUNCS.c **** #include <CE.h>
  26:Generated_Source\PSoC4/nRF24_NRF_FUNCS.c **** #include <SPI.h>
  27:Generated_Source\PSoC4/nRF24_NRF_FUNCS.c **** #include <SS.h>
  28:Generated_Source\PSoC4/nRF24_NRF_FUNCS.c **** 
  29:Generated_Source\PSoC4/nRF24_NRF_FUNCS.c **** #if defined(CY_SCB_SPI_H)
  30:Generated_Source\PSoC4/nRF24_NRF_FUNCS.c **** #include <SPI_SPI_UART.h>
ARM GAS  C:\Users\Xwx47\AppData\Local\Temp\cc6J2i3F.s 			page 2


  31:Generated_Source\PSoC4/nRF24_NRF_FUNCS.c **** #endif
  32:Generated_Source\PSoC4/nRF24_NRF_FUNCS.c **** 
  33:Generated_Source\PSoC4/nRF24_NRF_FUNCS.c **** #include "nRF24_LL_SPI.h"
  34:Generated_Source\PSoC4/nRF24_NRF_FUNCS.c **** #include "nRF24_NRF_COMMANDS.h"
  35:Generated_Source\PSoC4/nRF24_NRF_FUNCS.c **** #include "nRF24_NRF_CONFIG.h"
  36:Generated_Source\PSoC4/nRF24_NRF_FUNCS.c **** #include "nRF24_NRF_FUNCS.h"
  37:Generated_Source\PSoC4/nRF24_NRF_FUNCS.c **** #include "nRF24_NRF_REGS.h"
  38:Generated_Source\PSoC4/nRF24_NRF_FUNCS.c **** 
  39:Generated_Source\PSoC4/nRF24_NRF_FUNCS.c **** #define nRF24_VERSION_MAJOR  1
  40:Generated_Source\PSoC4/nRF24_NRF_FUNCS.c **** #define nRF24_VERSION_MINOR  4
  41:Generated_Source\PSoC4/nRF24_NRF_FUNCS.c **** #define nRF24_VERSION        1.4
  42:Generated_Source\PSoC4/nRF24_NRF_FUNCS.c **** 
  43:Generated_Source\PSoC4/nRF24_NRF_FUNCS.c **** // nRF24 Power-on-reset delay
  44:Generated_Source\PSoC4/nRF24_NRF_FUNCS.c **** #define nRF24_POR_DELAY 100
  45:Generated_Source\PSoC4/nRF24_NRF_FUNCS.c **** 
  46:Generated_Source\PSoC4/nRF24_NRF_FUNCS.c **** /**
  47:Generated_Source\PSoC4/nRF24_NRF_FUNCS.c ****  * @brief Configure the radio and clear IRQs, TX and RX FIFOs.
  48:Generated_Source\PSoC4/nRF24_NRF_FUNCS.c ****  */
  49:Generated_Source\PSoC4/nRF24_NRF_FUNCS.c **** void nRF24_start(void)
  50:Generated_Source\PSoC4/nRF24_NRF_FUNCS.c **** {
  51:Generated_Source\PSoC4/nRF24_NRF_FUNCS.c ****     // Recommended delay to start using the nRF24
  52:Generated_Source\PSoC4/nRF24_NRF_FUNCS.c ****     CyDelay(nRF24_POR_DELAY);
  53:Generated_Source\PSoC4/nRF24_NRF_FUNCS.c ****     
  54:Generated_Source\PSoC4/nRF24_NRF_FUNCS.c ****     // Now the radio is in Power Down mode
  55:Generated_Source\PSoC4/nRF24_NRF_FUNCS.c ****     
  56:Generated_Source\PSoC4/nRF24_NRF_FUNCS.c ****     // Set SS to logic 1, CE to logic 0 and Start the SPI
  57:Generated_Source\PSoC4/nRF24_NRF_FUNCS.c ****     CE_Write(0);
  58:Generated_Source\PSoC4/nRF24_NRF_FUNCS.c ****     SS_Write(1);
  59:Generated_Source\PSoC4/nRF24_NRF_FUNCS.c ****     SPI_Start();
  60:Generated_Source\PSoC4/nRF24_NRF_FUNCS.c **** 
  61:Generated_Source\PSoC4/nRF24_NRF_FUNCS.c ****     // Flush both nRF24 FIFOs
  62:Generated_Source\PSoC4/nRF24_NRF_FUNCS.c ****     nRF24_flushRxCmd();
  63:Generated_Source\PSoC4/nRF24_NRF_FUNCS.c ****     nRF24_flushTxCmd();
  64:Generated_Source\PSoC4/nRF24_NRF_FUNCS.c ****     // Clear IRQ flags
  65:Generated_Source\PSoC4/nRF24_NRF_FUNCS.c ****     nRF24_clearAllIRQs();
  66:Generated_Source\PSoC4/nRF24_NRF_FUNCS.c ****     
  67:Generated_Source\PSoC4/nRF24_NRF_FUNCS.c ****     // Configure the nRF24 with the data from the customizer
  68:Generated_Source\PSoC4/nRF24_NRF_FUNCS.c ****     nRF24_init();
  69:Generated_Source\PSoC4/nRF24_NRF_FUNCS.c ****     
  70:Generated_Source\PSoC4/nRF24_NRF_FUNCS.c ****     // After PWR_UP = 1 the radio is in Standby-I mode, 130us of delay for settling
  71:Generated_Source\PSoC4/nRF24_NRF_FUNCS.c ****     CyDelayUs(150);
  72:Generated_Source\PSoC4/nRF24_NRF_FUNCS.c **** }
  73:Generated_Source\PSoC4/nRF24_NRF_FUNCS.c **** 
  74:Generated_Source\PSoC4/nRF24_NRF_FUNCS.c **** /**
  75:Generated_Source\PSoC4/nRF24_NRF_FUNCS.c ****  * Write data from the customizer to the nRF radio.
  76:Generated_Source\PSoC4/nRF24_NRF_FUNCS.c ****  */
  77:Generated_Source\PSoC4/nRF24_NRF_FUNCS.c **** void nRF24_init(void)
  78:Generated_Source\PSoC4/nRF24_NRF_FUNCS.c **** {
  28              		.loc 1 78 0
  29              		.cfi_startproc
  30              		@ args = 0, pretend = 0, frame = 0
  31              		@ frame_needed = 0, uses_anonymous_args = 0
  32 0000 10B5     		push	{r4, lr}
  33              		.cfi_def_cfa_offset 8
  34              		.cfi_offset 4, -8
  35              		.cfi_offset 14, -4
  79:Generated_Source\PSoC4/nRF24_NRF_FUNCS.c ****     nRF24_writeRegister(NRF_EN_AA_REG,
ARM GAS  C:\Users\Xwx47\AppData\Local\Temp\cc6J2i3F.s 			page 3


  36              		.loc 1 79 0
  37 0002 0121     		movs	r1, #1
  38 0004 0120     		movs	r0, #1
  39 0006 FFF7FEFF 		bl	nRF24_writeRegister
  40              	.LVL0:
  80:Generated_Source\PSoC4/nRF24_NRF_FUNCS.c ****         (0 << NRF_EN_AA_ENAA_P5) | (0 << NRF_EN_AA_ENAA_P4) |
  81:Generated_Source\PSoC4/nRF24_NRF_FUNCS.c ****         (0 << NRF_EN_AA_ENAA_P3) | (0 << NRF_EN_AA_ENAA_P2) |
  82:Generated_Source\PSoC4/nRF24_NRF_FUNCS.c ****         (0 << NRF_EN_AA_ENAA_P1) | (1 << NRF_EN_AA_ENAA_P0));
  83:Generated_Source\PSoC4/nRF24_NRF_FUNCS.c ****     nRF24_writeRegister(NRF_EN_RXADDR_REG,
  41              		.loc 1 83 0
  42 000a 0121     		movs	r1, #1
  43 000c 0220     		movs	r0, #2
  44 000e FFF7FEFF 		bl	nRF24_writeRegister
  45              	.LVL1:
  84:Generated_Source\PSoC4/nRF24_NRF_FUNCS.c ****         (0 << NRF_EN_RXADDR_ERX_P5) | (0 << NRF_EN_RXADDR_ERX_P4) |
  85:Generated_Source\PSoC4/nRF24_NRF_FUNCS.c ****         (0 << NRF_EN_RXADDR_ERX_P3) | (0 << NRF_EN_RXADDR_ERX_P2) |
  86:Generated_Source\PSoC4/nRF24_NRF_FUNCS.c ****         (0 << NRF_EN_RXADDR_ERX_P1) | (1 << NRF_EN_RXADDR_ERX_P0));
  87:Generated_Source\PSoC4/nRF24_NRF_FUNCS.c ****     nRF24_writeRegister(NRF_SETUP_AW_REG, 3);
  46              		.loc 1 87 0
  47 0012 0321     		movs	r1, #3
  48 0014 0320     		movs	r0, #3
  49 0016 FFF7FEFF 		bl	nRF24_writeRegister
  50              	.LVL2:
  88:Generated_Source\PSoC4/nRF24_NRF_FUNCS.c ****     nRF24_writeRegister(NRF_SETUP_RETR_REG,
  51              		.loc 1 88 0
  52 001a 0321     		movs	r1, #3
  53 001c 0420     		movs	r0, #4
  54 001e FFF7FEFF 		bl	nRF24_writeRegister
  55              	.LVL3:
  89:Generated_Source\PSoC4/nRF24_NRF_FUNCS.c ****         (0 << NRF_SETUP_RETR_ARD) | (3 << NRF_SETUP_RETR_ARC));
  90:Generated_Source\PSoC4/nRF24_NRF_FUNCS.c ****     nRF24_writeRegister(NRF_RF_CH_REG, 75);
  56              		.loc 1 90 0
  57 0022 4B21     		movs	r1, #75
  58 0024 0520     		movs	r0, #5
  59 0026 FFF7FEFF 		bl	nRF24_writeRegister
  60              	.LVL4:
  91:Generated_Source\PSoC4/nRF24_NRF_FUNCS.c ****     nRF24_writeRegister(NRF_RF_SETUP_REG,
  61              		.loc 1 91 0
  62 002a 2621     		movs	r1, #38
  63 002c 0620     		movs	r0, #6
  64 002e FFF7FEFF 		bl	nRF24_writeRegister
  65              	.LVL5:
  92:Generated_Source\PSoC4/nRF24_NRF_FUNCS.c ****         (0 << NRF_RF_SETUP_CONT_WAVE) | (4 << NRF_RF_SETUP_RF_DR) |
  93:Generated_Source\PSoC4/nRF24_NRF_FUNCS.c ****         (3 << NRF_RF_SETUP_RF_PWR));
  94:Generated_Source\PSoC4/nRF24_NRF_FUNCS.c ****     nRF24_writeRegister(NRF_DYNPD_REG,
  66              		.loc 1 94 0
  67 0032 0021     		movs	r1, #0
  68 0034 1C20     		movs	r0, #28
  69 0036 FFF7FEFF 		bl	nRF24_writeRegister
  70              	.LVL6:
  95:Generated_Source\PSoC4/nRF24_NRF_FUNCS.c ****         (0 << NRF_DYNPD_DPL_P5) | (0 << NRF_DYNPD_DPL_P4) |
  96:Generated_Source\PSoC4/nRF24_NRF_FUNCS.c ****         (0 << NRF_DYNPD_DPL_P3) | (0 << NRF_DYNPD_DPL_P2) |
  97:Generated_Source\PSoC4/nRF24_NRF_FUNCS.c ****         (0 << NRF_DYNPD_DPL_P1) | (0 << NRF_DYNPD_DPL_P0));
  98:Generated_Source\PSoC4/nRF24_NRF_FUNCS.c ****     nRF24_writeRegister(NRF_FEATURE_REG,
  71              		.loc 1 98 0
  72 003a 0021     		movs	r1, #0
  73 003c 1D20     		movs	r0, #29
ARM GAS  C:\Users\Xwx47\AppData\Local\Temp\cc6J2i3F.s 			page 4


  74 003e FFF7FEFF 		bl	nRF24_writeRegister
  75              	.LVL7:
  99:Generated_Source\PSoC4/nRF24_NRF_FUNCS.c ****         (0 << NRF_FEATURE_EN_DPL) | (0 << NRF_FEATURE_EN_ACK_PAY) |
 100:Generated_Source\PSoC4/nRF24_NRF_FUNCS.c ****         (0 << NRF_FEATURE_EN_DYN_ACK));
 101:Generated_Source\PSoC4/nRF24_NRF_FUNCS.c **** 
 102:Generated_Source\PSoC4/nRF24_NRF_FUNCS.c **** // Configuring data pipes
 103:Generated_Source\PSoC4/nRF24_NRF_FUNCS.c **** #if (ENABLE_PIPE0 == 1)
 104:Generated_Source\PSoC4/nRF24_NRF_FUNCS.c ****     // Set data pipe 0 bytes in rx payload
 105:Generated_Source\PSoC4/nRF24_NRF_FUNCS.c ****     nRF24_writeRegister(NRF_RX_PW_P0_REG, 1);
  76              		.loc 1 105 0
  77 0042 0121     		movs	r1, #1
  78 0044 1120     		movs	r0, #17
  79 0046 FFF7FEFF 		bl	nRF24_writeRegister
  80              	.LVL8:
 106:Generated_Source\PSoC4/nRF24_NRF_FUNCS.c **** #endif
 107:Generated_Source\PSoC4/nRF24_NRF_FUNCS.c **** #if (ENABLE_PIPE1 == 1)
 108:Generated_Source\PSoC4/nRF24_NRF_FUNCS.c ****     // Set data pipe 1 bytes in rx payload
 109:Generated_Source\PSoC4/nRF24_NRF_FUNCS.c ****     nRF24_writeRegister(NRF_RX_PW_P1_REG, 0);
 110:Generated_Source\PSoC4/nRF24_NRF_FUNCS.c **** #endif
 111:Generated_Source\PSoC4/nRF24_NRF_FUNCS.c **** #if (ENABLE_PIPE2 == 1)
 112:Generated_Source\PSoC4/nRF24_NRF_FUNCS.c ****     // Set data pipe 2 address (LSB)
 113:Generated_Source\PSoC4/nRF24_NRF_FUNCS.c ****     nRF24_writeRegister(NRF_RX_ADDR_P2_REG, 195);
 114:Generated_Source\PSoC4/nRF24_NRF_FUNCS.c ****     // Set data pipe 2 bytes in rx payload
 115:Generated_Source\PSoC4/nRF24_NRF_FUNCS.c ****     nRF24_writeRegister(NRF_RX_PW_P2_REG, 0);
 116:Generated_Source\PSoC4/nRF24_NRF_FUNCS.c **** #endif
 117:Generated_Source\PSoC4/nRF24_NRF_FUNCS.c **** #if (ENABLE_PIPE3 == 1)
 118:Generated_Source\PSoC4/nRF24_NRF_FUNCS.c ****     // Set data pipe 3 address (LSB)
 119:Generated_Source\PSoC4/nRF24_NRF_FUNCS.c ****     nRF24_writeRegister(NRF_RX_ADDR_P3_REG, );
 120:Generated_Source\PSoC4/nRF24_NRF_FUNCS.c ****     // Set data pipe 3 bytes in rx payload
 121:Generated_Source\PSoC4/nRF24_NRF_FUNCS.c ****     nRF24_writeRegister(NRF_RX_PW_P3_REG, 0);
 122:Generated_Source\PSoC4/nRF24_NRF_FUNCS.c **** #endif
 123:Generated_Source\PSoC4/nRF24_NRF_FUNCS.c **** #if (ENABLE_PIPE4 == 1)
 124:Generated_Source\PSoC4/nRF24_NRF_FUNCS.c ****     // Set data pipe 4 address (LSB)
 125:Generated_Source\PSoC4/nRF24_NRF_FUNCS.c ****     nRF24_writeRegister(NRF_RX_ADDR_P4_REG, );
 126:Generated_Source\PSoC4/nRF24_NRF_FUNCS.c ****     // Set data pipe 4 bytes in rx payload
 127:Generated_Source\PSoC4/nRF24_NRF_FUNCS.c ****     nRF24_writeRegister(NRF_RX_PW_P4_REG, 0);
 128:Generated_Source\PSoC4/nRF24_NRF_FUNCS.c **** #endif
 129:Generated_Source\PSoC4/nRF24_NRF_FUNCS.c **** #if (ENABLE_PIPE5 == 1)
 130:Generated_Source\PSoC4/nRF24_NRF_FUNCS.c ****     // Set data pipe 5 address (LSB)
 131:Generated_Source\PSoC4/nRF24_NRF_FUNCS.c ****     nRF24_writeRegister(NRF_RX_ADDR_P5_REG, );
 132:Generated_Source\PSoC4/nRF24_NRF_FUNCS.c ****     // Set data pipe 5 bytes in rx payload
 133:Generated_Source\PSoC4/nRF24_NRF_FUNCS.c ****     nRF24_writeRegister(NRF_RX_PW_P5_REG, 0);
 134:Generated_Source\PSoC4/nRF24_NRF_FUNCS.c **** #endif
 135:Generated_Source\PSoC4/nRF24_NRF_FUNCS.c **** 
 136:Generated_Source\PSoC4/nRF24_NRF_FUNCS.c ****     nRF24_writeRegister( NRF_CONFIG_REG,
  81              		.loc 1 136 0
  82 004a 3B21     		movs	r1, #59
  83 004c 0020     		movs	r0, #0
  84 004e FFF7FEFF 		bl	nRF24_writeRegister
  85              	.LVL9:
 137:Generated_Source\PSoC4/nRF24_NRF_FUNCS.c ****         (0 << NRF_CONFIG_MASK_RX_DR) | (1 << NRF_CONFIG_MASK_TX_DS) |
 138:Generated_Source\PSoC4/nRF24_NRF_FUNCS.c ****         (1 << NRF_CONFIG_MASK_MAX_RT) | (1 << NRF_CONFIG_EN_CRC) |
 139:Generated_Source\PSoC4/nRF24_NRF_FUNCS.c ****         (0 << NRF_CONFIG_CRCO) | (1<< NRF_CONFIG_PWR_UP) |
 140:Generated_Source\PSoC4/nRF24_NRF_FUNCS.c ****         (1 << NRF_CONFIG_PRIM_RX));
 141:Generated_Source\PSoC4/nRF24_NRF_FUNCS.c **** }
  86              		.loc 1 141 0
  87              		@ sp needed
ARM GAS  C:\Users\Xwx47\AppData\Local\Temp\cc6J2i3F.s 			page 5


  88 0052 10BD     		pop	{r4, pc}
  89              		.cfi_endproc
  90              	.LFE2:
  91              		.size	nRF24_init, .-nRF24_init
  92              		.section	.text.nRF24_enable,"ax",%progbits
  93              		.align	2
  94              		.global	nRF24_enable
  95              		.code	16
  96              		.thumb_func
  97              		.type	nRF24_enable, %function
  98              	nRF24_enable:
  99              	.LFB3:
 142:Generated_Source\PSoC4/nRF24_NRF_FUNCS.c **** 
 143:Generated_Source\PSoC4/nRF24_NRF_FUNCS.c **** /**
 144:Generated_Source\PSoC4/nRF24_NRF_FUNCS.c ****  * Enable the nRF24 radio.
 145:Generated_Source\PSoC4/nRF24_NRF_FUNCS.c ****  *
 146:Generated_Source\PSoC4/nRF24_NRF_FUNCS.c ****  * @todo Implement this function
 147:Generated_Source\PSoC4/nRF24_NRF_FUNCS.c ****  */
 148:Generated_Source\PSoC4/nRF24_NRF_FUNCS.c **** void nRF24_enable(void)
 149:Generated_Source\PSoC4/nRF24_NRF_FUNCS.c **** {
 100              		.loc 1 149 0
 101              		.cfi_startproc
 102              		@ args = 0, pretend = 0, frame = 0
 103              		@ frame_needed = 0, uses_anonymous_args = 0
 104              		@ link register save eliminated.
 150:Generated_Source\PSoC4/nRF24_NRF_FUNCS.c **** }
 105              		.loc 1 150 0
 106              		@ sp needed
 107 0000 7047     		bx	lr
 108              		.cfi_endproc
 109              	.LFE3:
 110              		.size	nRF24_enable, .-nRF24_enable
 111 0002 C046     		.section	.text.nRF24_stop,"ax",%progbits
 112              		.align	2
 113              		.global	nRF24_stop
 114              		.code	16
 115              		.thumb_func
 116              		.type	nRF24_stop, %function
 117              	nRF24_stop:
 118              	.LFB4:
 151:Generated_Source\PSoC4/nRF24_NRF_FUNCS.c **** 
 152:Generated_Source\PSoC4/nRF24_NRF_FUNCS.c **** /**
 153:Generated_Source\PSoC4/nRF24_NRF_FUNCS.c ****  * Stop the nRF24 radio.
 154:Generated_Source\PSoC4/nRF24_NRF_FUNCS.c ****  *
 155:Generated_Source\PSoC4/nRF24_NRF_FUNCS.c ****  * @todo Implement this function
 156:Generated_Source\PSoC4/nRF24_NRF_FUNCS.c ****  */
 157:Generated_Source\PSoC4/nRF24_NRF_FUNCS.c **** void nRF24_stop(void)
 158:Generated_Source\PSoC4/nRF24_NRF_FUNCS.c **** {
 119              		.loc 1 158 0
 120              		.cfi_startproc
 121              		@ args = 0, pretend = 0, frame = 0
 122              		@ frame_needed = 0, uses_anonymous_args = 0
 123              		@ link register save eliminated.
 159:Generated_Source\PSoC4/nRF24_NRF_FUNCS.c **** }
 124              		.loc 1 159 0
 125              		@ sp needed
 126 0000 7047     		bx	lr
ARM GAS  C:\Users\Xwx47\AppData\Local\Temp\cc6J2i3F.s 			page 6


 127              		.cfi_endproc
 128              	.LFE4:
 129              		.size	nRF24_stop, .-nRF24_stop
 130 0002 C046     		.section	.text.nRF24_sleep,"ax",%progbits
 131              		.align	2
 132              		.global	nRF24_sleep
 133              		.code	16
 134              		.thumb_func
 135              		.type	nRF24_sleep, %function
 136              	nRF24_sleep:
 137              	.LFB5:
 160:Generated_Source\PSoC4/nRF24_NRF_FUNCS.c **** 
 161:Generated_Source\PSoC4/nRF24_NRF_FUNCS.c **** /**
 162:Generated_Source\PSoC4/nRF24_NRF_FUNCS.c ****  * Put the nRF24 radio on Sleep mode.
 163:Generated_Source\PSoC4/nRF24_NRF_FUNCS.c ****  *
 164:Generated_Source\PSoC4/nRF24_NRF_FUNCS.c ****  * @todo Implement this function.
 165:Generated_Source\PSoC4/nRF24_NRF_FUNCS.c ****  */
 166:Generated_Source\PSoC4/nRF24_NRF_FUNCS.c **** void nRF24_sleep(void)
 167:Generated_Source\PSoC4/nRF24_NRF_FUNCS.c **** {
 138              		.loc 1 167 0
 139              		.cfi_startproc
 140              		@ args = 0, pretend = 0, frame = 0
 141              		@ frame_needed = 0, uses_anonymous_args = 0
 142              		@ link register save eliminated.
 168:Generated_Source\PSoC4/nRF24_NRF_FUNCS.c **** }
 143              		.loc 1 168 0
 144              		@ sp needed
 145 0000 7047     		bx	lr
 146              		.cfi_endproc
 147              	.LFE5:
 148              		.size	nRF24_sleep, .-nRF24_sleep
 149 0002 C046     		.section	.text.nRF24_wakeup,"ax",%progbits
 150              		.align	2
 151              		.global	nRF24_wakeup
 152              		.code	16
 153              		.thumb_func
 154              		.type	nRF24_wakeup, %function
 155              	nRF24_wakeup:
 156              	.LFB6:
 169:Generated_Source\PSoC4/nRF24_NRF_FUNCS.c **** 
 170:Generated_Source\PSoC4/nRF24_NRF_FUNCS.c **** /**
 171:Generated_Source\PSoC4/nRF24_NRF_FUNCS.c ****  * Wakeup the nRF24 radio, and restore the configuration.
 172:Generated_Source\PSoC4/nRF24_NRF_FUNCS.c ****  *
 173:Generated_Source\PSoC4/nRF24_NRF_FUNCS.c ****  * @todo Implement this function.
 174:Generated_Source\PSoC4/nRF24_NRF_FUNCS.c ****  */
 175:Generated_Source\PSoC4/nRF24_NRF_FUNCS.c **** void nRF24_wakeup(void)
 176:Generated_Source\PSoC4/nRF24_NRF_FUNCS.c **** {
 157              		.loc 1 176 0
 158              		.cfi_startproc
 159              		@ args = 0, pretend = 0, frame = 0
 160              		@ frame_needed = 0, uses_anonymous_args = 0
 161              		@ link register save eliminated.
 177:Generated_Source\PSoC4/nRF24_NRF_FUNCS.c **** }
 162              		.loc 1 177 0
 163              		@ sp needed
 164 0000 7047     		bx	lr
 165              		.cfi_endproc
ARM GAS  C:\Users\Xwx47\AppData\Local\Temp\cc6J2i3F.s 			page 7


 166              	.LFE6:
 167              		.size	nRF24_wakeup, .-nRF24_wakeup
 168 0002 C046     		.section	.text.nRF24_saveConfig,"ax",%progbits
 169              		.align	2
 170              		.global	nRF24_saveConfig
 171              		.code	16
 172              		.thumb_func
 173              		.type	nRF24_saveConfig, %function
 174              	nRF24_saveConfig:
 175              	.LFB7:
 178:Generated_Source\PSoC4/nRF24_NRF_FUNCS.c **** 
 179:Generated_Source\PSoC4/nRF24_NRF_FUNCS.c **** /**
 180:Generated_Source\PSoC4/nRF24_NRF_FUNCS.c ****  * Save the nRF24 radio configuration.
 181:Generated_Source\PSoC4/nRF24_NRF_FUNCS.c ****  *
 182:Generated_Source\PSoC4/nRF24_NRF_FUNCS.c ****  * @todo Implement this function.
 183:Generated_Source\PSoC4/nRF24_NRF_FUNCS.c ****  */
 184:Generated_Source\PSoC4/nRF24_NRF_FUNCS.c **** void nRF24_saveConfig(void)
 185:Generated_Source\PSoC4/nRF24_NRF_FUNCS.c **** {
 176              		.loc 1 185 0
 177              		.cfi_startproc
 178              		@ args = 0, pretend = 0, frame = 0
 179              		@ frame_needed = 0, uses_anonymous_args = 0
 180              		@ link register save eliminated.
 186:Generated_Source\PSoC4/nRF24_NRF_FUNCS.c **** }
 181              		.loc 1 186 0
 182              		@ sp needed
 183 0000 7047     		bx	lr
 184              		.cfi_endproc
 185              	.LFE7:
 186              		.size	nRF24_saveConfig, .-nRF24_saveConfig
 187 0002 C046     		.section	.text.nRF24_restoreConfig,"ax",%progbits
 188              		.align	2
 189              		.global	nRF24_restoreConfig
 190              		.code	16
 191              		.thumb_func
 192              		.type	nRF24_restoreConfig, %function
 193              	nRF24_restoreConfig:
 194              	.LFB8:
 187:Generated_Source\PSoC4/nRF24_NRF_FUNCS.c **** 
 188:Generated_Source\PSoC4/nRF24_NRF_FUNCS.c **** /**
 189:Generated_Source\PSoC4/nRF24_NRF_FUNCS.c ****  * Restore the nRF24 radio configuration.
 190:Generated_Source\PSoC4/nRF24_NRF_FUNCS.c ****  *
 191:Generated_Source\PSoC4/nRF24_NRF_FUNCS.c ****  * @todo Implement this function.
 192:Generated_Source\PSoC4/nRF24_NRF_FUNCS.c ****  */
 193:Generated_Source\PSoC4/nRF24_NRF_FUNCS.c **** void nRF24_restoreConfig(void)
 194:Generated_Source\PSoC4/nRF24_NRF_FUNCS.c **** {
 195              		.loc 1 194 0
 196              		.cfi_startproc
 197              		@ args = 0, pretend = 0, frame = 0
 198              		@ frame_needed = 0, uses_anonymous_args = 0
 199              		@ link register save eliminated.
 195:Generated_Source\PSoC4/nRF24_NRF_FUNCS.c **** }
 200              		.loc 1 195 0
 201              		@ sp needed
 202 0000 7047     		bx	lr
 203              		.cfi_endproc
 204              	.LFE8:
ARM GAS  C:\Users\Xwx47\AppData\Local\Temp\cc6J2i3F.s 			page 8


 205              		.size	nRF24_restoreConfig, .-nRF24_restoreConfig
 206 0002 C046     		.section	.text.nRF24_setPowerDownMode,"ax",%progbits
 207              		.align	2
 208              		.global	nRF24_setPowerDownMode
 209              		.code	16
 210              		.thumb_func
 211              		.type	nRF24_setPowerDownMode, %function
 212              	nRF24_setPowerDownMode:
 213              	.LFB10:
 196:Generated_Source\PSoC4/nRF24_NRF_FUNCS.c **** 
 197:Generated_Source\PSoC4/nRF24_NRF_FUNCS.c **** /**
 198:Generated_Source\PSoC4/nRF24_NRF_FUNCS.c ****  * Configure the radio as Receiver or Transmitter.
 199:Generated_Source\PSoC4/nRF24_NRF_FUNCS.c ****  *
 200:Generated_Source\PSoC4/nRF24_NRF_FUNCS.c ****  * @param const NrfMode mode: The radio can be configured as Receiver (PRX)
 201:Generated_Source\PSoC4/nRF24_NRF_FUNCS.c ****  * or Transmitter (PTX).
 202:Generated_Source\PSoC4/nRF24_NRF_FUNCS.c ****  */
 203:Generated_Source\PSoC4/nRF24_NRF_FUNCS.c **** void nRF24_setMode(const NrfMode mode)
 204:Generated_Source\PSoC4/nRF24_NRF_FUNCS.c **** {
 205:Generated_Source\PSoC4/nRF24_NRF_FUNCS.c ****     mode ? nRF24_setRxMode() : nRF24_setTxMode();
 206:Generated_Source\PSoC4/nRF24_NRF_FUNCS.c **** }
 207:Generated_Source\PSoC4/nRF24_NRF_FUNCS.c **** 
 208:Generated_Source\PSoC4/nRF24_NRF_FUNCS.c **** /**
 209:Generated_Source\PSoC4/nRF24_NRF_FUNCS.c ****  * @brief Set radio in Power Down Mode.
 210:Generated_Source\PSoC4/nRF24_NRF_FUNCS.c ****  *
 211:Generated_Source\PSoC4/nRF24_NRF_FUNCS.c ****  * In power down mode nRF24 is disabled using minimal current consumption.
 212:Generated_Source\PSoC4/nRF24_NRF_FUNCS.c ****  * All register values available are maintained and the SPI is kept active,
 213:Generated_Source\PSoC4/nRF24_NRF_FUNCS.c ****  * enabling change of configuration and the uploading/downloading of data
 214:Generated_Source\PSoC4/nRF24_NRF_FUNCS.c ****  * registers.
 215:Generated_Source\PSoC4/nRF24_NRF_FUNCS.c ****  * Power down mode is entered by setting the PWR_UP bit in the CONFIG register
 216:Generated_Source\PSoC4/nRF24_NRF_FUNCS.c ****  * low.
 217:Generated_Source\PSoC4/nRF24_NRF_FUNCS.c ****  */
 218:Generated_Source\PSoC4/nRF24_NRF_FUNCS.c **** void nRF24_setPowerDownMode(void)
 219:Generated_Source\PSoC4/nRF24_NRF_FUNCS.c **** {
 214              		.loc 1 219 0
 215              		.cfi_startproc
 216              		@ args = 0, pretend = 0, frame = 0
 217              		@ frame_needed = 0, uses_anonymous_args = 0
 218 0000 10B5     		push	{r4, lr}
 219              		.cfi_def_cfa_offset 8
 220              		.cfi_offset 4, -8
 221              		.cfi_offset 14, -4
 220:Generated_Source\PSoC4/nRF24_NRF_FUNCS.c ****     nRF24_clearBit(NRF_CONFIG_REG, NRF_CONFIG_PWR_UP);
 222              		.loc 1 220 0
 223 0002 0121     		movs	r1, #1
 224 0004 0020     		movs	r0, #0
 225 0006 FFF7FEFF 		bl	nRF24_clearBit
 226              	.LVL10:
 221:Generated_Source\PSoC4/nRF24_NRF_FUNCS.c **** }
 227              		.loc 1 221 0
 228              		@ sp needed
 229 000a 10BD     		pop	{r4, pc}
 230              		.cfi_endproc
 231              	.LFE10:
 232              		.size	nRF24_setPowerDownMode, .-nRF24_setPowerDownMode
 233              		.section	.text.nRF24_setRxMode,"ax",%progbits
 234              		.align	2
 235              		.global	nRF24_setRxMode
ARM GAS  C:\Users\Xwx47\AppData\Local\Temp\cc6J2i3F.s 			page 9


 236              		.code	16
 237              		.thumb_func
 238              		.type	nRF24_setRxMode, %function
 239              	nRF24_setRxMode:
 240              	.LFB13:
 222:Generated_Source\PSoC4/nRF24_NRF_FUNCS.c **** 
 223:Generated_Source\PSoC4/nRF24_NRF_FUNCS.c **** /**
 224:Generated_Source\PSoC4/nRF24_NRF_FUNCS.c ****  * @brief Set the radio in Standby I Mode.
 225:Generated_Source\PSoC4/nRF24_NRF_FUNCS.c ****  *
 226:Generated_Source\PSoC4/nRF24_NRF_FUNCS.c ****  * By setting the PWR_UP bit in the CONFIG register to 1, the device enters
 227:Generated_Source\PSoC4/nRF24_NRF_FUNCS.c ****  * standby-I mode. Standby-I mode is used to minimize average current
 228:Generated_Source\PSoC4/nRF24_NRF_FUNCS.c ****  * consumption while maintaining short start up times.
 229:Generated_Source\PSoC4/nRF24_NRF_FUNCS.c ****  * In this mode only part of the crystal oscillator is active. Change to
 230:Generated_Source\PSoC4/nRF24_NRF_FUNCS.c ****  * active modes only happens if CE is set high and when CE is set low,
 231:Generated_Source\PSoC4/nRF24_NRF_FUNCS.c ****  * the nRF24 returns to standby-I mode from both the TX and RX modes.
 232:Generated_Source\PSoC4/nRF24_NRF_FUNCS.c ****  */
 233:Generated_Source\PSoC4/nRF24_NRF_FUNCS.c **** void nRF24_setStandbyIMode(void)
 234:Generated_Source\PSoC4/nRF24_NRF_FUNCS.c **** {
 235:Generated_Source\PSoC4/nRF24_NRF_FUNCS.c ****     nRF24_listen(false);
 236:Generated_Source\PSoC4/nRF24_NRF_FUNCS.c ****     nRF24_clearBit(NRF_CONFIG_REG, NRF_CONFIG_PWR_UP);
 237:Generated_Source\PSoC4/nRF24_NRF_FUNCS.c **** }
 238:Generated_Source\PSoC4/nRF24_NRF_FUNCS.c **** 
 239:Generated_Source\PSoC4/nRF24_NRF_FUNCS.c **** /**
 240:Generated_Source\PSoC4/nRF24_NRF_FUNCS.c ****  * @brief Set the radio in Standby II Mode.
 241:Generated_Source\PSoC4/nRF24_NRF_FUNCS.c ****  *
 242:Generated_Source\PSoC4/nRF24_NRF_FUNCS.c ****  * In standby-II mode extra clock buffers are active and more current is used
 243:Generated_Source\PSoC4/nRF24_NRF_FUNCS.c ****  * compared to standby-I mode. nRF24 enters standby-II mode if CE is held high
 244:Generated_Source\PSoC4/nRF24_NRF_FUNCS.c ****  * on a TX device with an empty TX FIFO.
 245:Generated_Source\PSoC4/nRF24_NRF_FUNCS.c ****  * If a new packet is uploaded to the TX FIFO, the PLL immediately starts and
 246:Generated_Source\PSoC4/nRF24_NRF_FUNCS.c ****  * the packet is transmitted after the normal PLL settling  delay (130us).
 247:Generated_Source\PSoC4/nRF24_NRF_FUNCS.c ****  */
 248:Generated_Source\PSoC4/nRF24_NRF_FUNCS.c **** void nRF24_setStandbyIIMode(void)
 249:Generated_Source\PSoC4/nRF24_NRF_FUNCS.c **** {
 250:Generated_Source\PSoC4/nRF24_NRF_FUNCS.c ****     nRF24_listen(true);
 251:Generated_Source\PSoC4/nRF24_NRF_FUNCS.c ****     nRF24_setBit(NRF_CONFIG_REG, NRF_CONFIG_PWR_UP);
 252:Generated_Source\PSoC4/nRF24_NRF_FUNCS.c **** }
 253:Generated_Source\PSoC4/nRF24_NRF_FUNCS.c **** 
 254:Generated_Source\PSoC4/nRF24_NRF_FUNCS.c **** /**
 255:Generated_Source\PSoC4/nRF24_NRF_FUNCS.c ****  * @brief Set the radio in Receiver (Rx) Mode.
 256:Generated_Source\PSoC4/nRF24_NRF_FUNCS.c ****  *
 257:Generated_Source\PSoC4/nRF24_NRF_FUNCS.c ****  * RX mode is an active mode where the nRF24 radio is used as receiver. To
 258:Generated_Source\PSoC4/nRF24_NRF_FUNCS.c ****  * enter this mode, the nRF24 must have the PWR_UP bit, PRIM_RX bit and the CE
 259:Generated_Source\PSoC4/nRF24_NRF_FUNCS.c ****  * pin set high.
 260:Generated_Source\PSoC4/nRF24_NRF_FUNCS.c ****  */
 261:Generated_Source\PSoC4/nRF24_NRF_FUNCS.c **** void nRF24_setRxMode(void)
 262:Generated_Source\PSoC4/nRF24_NRF_FUNCS.c **** {
 241              		.loc 1 262 0
 242              		.cfi_startproc
 243              		@ args = 0, pretend = 0, frame = 0
 244              		@ frame_needed = 0, uses_anonymous_args = 0
 245 0000 10B5     		push	{r4, lr}
 246              		.cfi_def_cfa_offset 8
 247              		.cfi_offset 4, -8
 248              		.cfi_offset 14, -4
 263:Generated_Source\PSoC4/nRF24_NRF_FUNCS.c ****     nRF24_setBit(NRF_CONFIG_REG, NRF_CONFIG_PRIM_RX);
 249              		.loc 1 263 0
 250 0002 0021     		movs	r1, #0
ARM GAS  C:\Users\Xwx47\AppData\Local\Temp\cc6J2i3F.s 			page 10


 251 0004 0020     		movs	r0, #0
 252 0006 FFF7FEFF 		bl	nRF24_setBit
 253              	.LVL11:
 264:Generated_Source\PSoC4/nRF24_NRF_FUNCS.c **** }
 254              		.loc 1 264 0
 255              		@ sp needed
 256 000a 10BD     		pop	{r4, pc}
 257              		.cfi_endproc
 258              	.LFE13:
 259              		.size	nRF24_setRxMode, .-nRF24_setRxMode
 260              		.section	.text.nRF24_setTxMode,"ax",%progbits
 261              		.align	2
 262              		.global	nRF24_setTxMode
 263              		.code	16
 264              		.thumb_func
 265              		.type	nRF24_setTxMode, %function
 266              	nRF24_setTxMode:
 267              	.LFB14:
 265:Generated_Source\PSoC4/nRF24_NRF_FUNCS.c **** 
 266:Generated_Source\PSoC4/nRF24_NRF_FUNCS.c **** /**
 267:Generated_Source\PSoC4/nRF24_NRF_FUNCS.c ****  * @brief Set the radio in Transmitted (Tx) Mode.
 268:Generated_Source\PSoC4/nRF24_NRF_FUNCS.c ****  *
 269:Generated_Source\PSoC4/nRF24_NRF_FUNCS.c ****  * TX mode is an active mode for transmitting packets. To enter this mode,
 270:Generated_Source\PSoC4/nRF24_NRF_FUNCS.c ****  * the nRF24 must have the PWR_UP bit set high, PRIM_RX bit set low, a payload
 271:Generated_Source\PSoC4/nRF24_NRF_FUNCS.c ****  * in the TX FIFO and a high pulse on the CE for more than 10us.
 272:Generated_Source\PSoC4/nRF24_NRF_FUNCS.c ****  */
 273:Generated_Source\PSoC4/nRF24_NRF_FUNCS.c **** void nRF24_setTxMode(void)
 274:Generated_Source\PSoC4/nRF24_NRF_FUNCS.c **** {
 268              		.loc 1 274 0
 269              		.cfi_startproc
 270              		@ args = 0, pretend = 0, frame = 0
 271              		@ frame_needed = 0, uses_anonymous_args = 0
 272 0000 10B5     		push	{r4, lr}
 273              		.cfi_def_cfa_offset 8
 274              		.cfi_offset 4, -8
 275              		.cfi_offset 14, -4
 275:Generated_Source\PSoC4/nRF24_NRF_FUNCS.c ****     nRF24_clearBit(NRF_CONFIG_REG, NRF_CONFIG_PRIM_RX);
 276              		.loc 1 275 0
 277 0002 0021     		movs	r1, #0
 278 0004 0020     		movs	r0, #0
 279 0006 FFF7FEFF 		bl	nRF24_clearBit
 280              	.LVL12:
 276:Generated_Source\PSoC4/nRF24_NRF_FUNCS.c **** }
 281              		.loc 1 276 0
 282              		@ sp needed
 283 000a 10BD     		pop	{r4, pc}
 284              		.cfi_endproc
 285              	.LFE14:
 286              		.size	nRF24_setTxMode, .-nRF24_setTxMode
 287              		.section	.text.nRF24_setMode,"ax",%progbits
 288              		.align	2
 289              		.global	nRF24_setMode
 290              		.code	16
 291              		.thumb_func
 292              		.type	nRF24_setMode, %function
 293              	nRF24_setMode:
 294              	.LFB9:
ARM GAS  C:\Users\Xwx47\AppData\Local\Temp\cc6J2i3F.s 			page 11


 204:Generated_Source\PSoC4/nRF24_NRF_FUNCS.c ****     mode ? nRF24_setRxMode() : nRF24_setTxMode();
 295              		.loc 1 204 0
 296              		.cfi_startproc
 297              		@ args = 0, pretend = 0, frame = 0
 298              		@ frame_needed = 0, uses_anonymous_args = 0
 299              	.LVL13:
 300 0000 10B5     		push	{r4, lr}
 301              		.cfi_def_cfa_offset 8
 302              		.cfi_offset 4, -8
 303              		.cfi_offset 14, -4
 205:Generated_Source\PSoC4/nRF24_NRF_FUNCS.c **** }
 304              		.loc 1 205 0
 305 0002 0028     		cmp	r0, #0
 306 0004 02D0     		beq	.L12
 205:Generated_Source\PSoC4/nRF24_NRF_FUNCS.c **** }
 307              		.loc 1 205 0 is_stmt 0 discriminator 1
 308 0006 FFF7FEFF 		bl	nRF24_setRxMode
 309              	.LVL14:
 310 000a 01E0     		b	.L11
 311              	.LVL15:
 312              	.L12:
 205:Generated_Source\PSoC4/nRF24_NRF_FUNCS.c **** }
 313              		.loc 1 205 0 discriminator 2
 314 000c FFF7FEFF 		bl	nRF24_setTxMode
 315              	.LVL16:
 316              	.L11:
 206:Generated_Source\PSoC4/nRF24_NRF_FUNCS.c **** 
 317              		.loc 1 206 0 is_stmt 1
 318              		@ sp needed
 319 0010 10BD     		pop	{r4, pc}
 320              		.cfi_endproc
 321              	.LFE9:
 322              		.size	nRF24_setMode, .-nRF24_setMode
 323 0012 C046     		.section	.text.nRF24_enableAutoACK,"ax",%progbits
 324              		.align	2
 325              		.global	nRF24_enableAutoACK
 326              		.code	16
 327              		.thumb_func
 328              		.type	nRF24_enableAutoACK, %function
 329              	nRF24_enableAutoACK:
 330              	.LFB15:
 277:Generated_Source\PSoC4/nRF24_NRF_FUNCS.c **** 
 278:Generated_Source\PSoC4/nRF24_NRF_FUNCS.c **** /**
 279:Generated_Source\PSoC4/nRF24_NRF_FUNCS.c ****  * @brief Enable AutoACK in the given pipe.
 280:Generated_Source\PSoC4/nRF24_NRF_FUNCS.c ****  *
 281:Generated_Source\PSoC4/nRF24_NRF_FUNCS.c ****  * @param pipe: Enable AutoACK in the given pipe.
 282:Generated_Source\PSoC4/nRF24_NRF_FUNCS.c ****  */
 283:Generated_Source\PSoC4/nRF24_NRF_FUNCS.c **** void nRF24_enableAutoACK(const NrfDataPipe pipe)
 284:Generated_Source\PSoC4/nRF24_NRF_FUNCS.c **** {
 331              		.loc 1 284 0
 332              		.cfi_startproc
 333              		@ args = 0, pretend = 0, frame = 0
 334              		@ frame_needed = 0, uses_anonymous_args = 0
 335              	.LVL17:
 336 0000 10B5     		push	{r4, lr}
 337              		.cfi_def_cfa_offset 8
 338              		.cfi_offset 4, -8
ARM GAS  C:\Users\Xwx47\AppData\Local\Temp\cc6J2i3F.s 			page 12


 339              		.cfi_offset 14, -4
 340 0002 0100     		movs	r1, r0
 285:Generated_Source\PSoC4/nRF24_NRF_FUNCS.c ****     nRF24_setBit(NRF_EN_AA_REG, pipe);
 341              		.loc 1 285 0
 342 0004 0120     		movs	r0, #1
 343              	.LVL18:
 344 0006 FFF7FEFF 		bl	nRF24_setBit
 345              	.LVL19:
 286:Generated_Source\PSoC4/nRF24_NRF_FUNCS.c **** }
 346              		.loc 1 286 0
 347              		@ sp needed
 348 000a 10BD     		pop	{r4, pc}
 349              		.cfi_endproc
 350              	.LFE15:
 351              		.size	nRF24_enableAutoACK, .-nRF24_enableAutoACK
 352              		.section	.text.nRF24_disableAutoACK,"ax",%progbits
 353              		.align	2
 354              		.global	nRF24_disableAutoACK
 355              		.code	16
 356              		.thumb_func
 357              		.type	nRF24_disableAutoACK, %function
 358              	nRF24_disableAutoACK:
 359              	.LFB16:
 287:Generated_Source\PSoC4/nRF24_NRF_FUNCS.c **** 
 288:Generated_Source\PSoC4/nRF24_NRF_FUNCS.c **** /**
 289:Generated_Source\PSoC4/nRF24_NRF_FUNCS.c ****  * @brief Disable AutoACK in the given pipe.
 290:Generated_Source\PSoC4/nRF24_NRF_FUNCS.c ****  *
 291:Generated_Source\PSoC4/nRF24_NRF_FUNCS.c ****  * @param pipe: Disable AutoACK in the given pipe.
 292:Generated_Source\PSoC4/nRF24_NRF_FUNCS.c ****  */
 293:Generated_Source\PSoC4/nRF24_NRF_FUNCS.c **** void nRF24_disableAutoACK(const NrfDataPipe pipe)
 294:Generated_Source\PSoC4/nRF24_NRF_FUNCS.c **** {
 360              		.loc 1 294 0
 361              		.cfi_startproc
 362              		@ args = 0, pretend = 0, frame = 0
 363              		@ frame_needed = 0, uses_anonymous_args = 0
 364              	.LVL20:
 365 0000 10B5     		push	{r4, lr}
 366              		.cfi_def_cfa_offset 8
 367              		.cfi_offset 4, -8
 368              		.cfi_offset 14, -4
 369 0002 0100     		movs	r1, r0
 295:Generated_Source\PSoC4/nRF24_NRF_FUNCS.c ****     nRF24_clearBit(NRF_EN_AA_REG, pipe);
 370              		.loc 1 295 0
 371 0004 0120     		movs	r0, #1
 372              	.LVL21:
 373 0006 FFF7FEFF 		bl	nRF24_clearBit
 374              	.LVL22:
 296:Generated_Source\PSoC4/nRF24_NRF_FUNCS.c **** }
 375              		.loc 1 296 0
 376              		@ sp needed
 377 000a 10BD     		pop	{r4, pc}
 378              		.cfi_endproc
 379              	.LFE16:
 380              		.size	nRF24_disableAutoACK, .-nRF24_disableAutoACK
 381              		.section	.text.nRF24_setChannel,"ax",%progbits
 382              		.align	2
 383              		.global	nRF24_setChannel
ARM GAS  C:\Users\Xwx47\AppData\Local\Temp\cc6J2i3F.s 			page 13


 384              		.code	16
 385              		.thumb_func
 386              		.type	nRF24_setChannel, %function
 387              	nRF24_setChannel:
 388              	.LFB17:
 297:Generated_Source\PSoC4/nRF24_NRF_FUNCS.c **** 
 298:Generated_Source\PSoC4/nRF24_NRF_FUNCS.c **** /**
 299:Generated_Source\PSoC4/nRF24_NRF_FUNCS.c ****  * @brief Set the channel where the radio will work.
 300:Generated_Source\PSoC4/nRF24_NRF_FUNCS.c ****  *
 301:Generated_Source\PSoC4/nRF24_NRF_FUNCS.c ****  * @param uint8_t channel: Channel where the radio will work.
 302:Generated_Source\PSoC4/nRF24_NRF_FUNCS.c ****  */
 303:Generated_Source\PSoC4/nRF24_NRF_FUNCS.c **** void nRF24_setChannel(uint8_t channel)
 304:Generated_Source\PSoC4/nRF24_NRF_FUNCS.c **** {
 389              		.loc 1 304 0
 390              		.cfi_startproc
 391              		@ args = 0, pretend = 0, frame = 0
 392              		@ frame_needed = 0, uses_anonymous_args = 0
 393              	.LVL23:
 394 0000 10B5     		push	{r4, lr}
 395              		.cfi_def_cfa_offset 8
 396              		.cfi_offset 4, -8
 397              		.cfi_offset 14, -4
 398 0002 0100     		movs	r1, r0
 305:Generated_Source\PSoC4/nRF24_NRF_FUNCS.c ****     // There's only 125 channels available
 306:Generated_Source\PSoC4/nRF24_NRF_FUNCS.c ****     if (125 < channel) {
 399              		.loc 1 306 0
 400 0004 7D28     		cmp	r0, #125
 401 0006 00D9     		bls	.L17
 307:Generated_Source\PSoC4/nRF24_NRF_FUNCS.c ****         channel = 125;
 402              		.loc 1 307 0
 403 0008 7D21     		movs	r1, #125
 404              	.L17:
 405              	.LVL24:
 308:Generated_Source\PSoC4/nRF24_NRF_FUNCS.c ****     }
 309:Generated_Source\PSoC4/nRF24_NRF_FUNCS.c **** 
 310:Generated_Source\PSoC4/nRF24_NRF_FUNCS.c ****     nRF24_writeRegister(NRF_RF_CH_REG, channel);
 406              		.loc 1 310 0
 407 000a 0520     		movs	r0, #5
 408 000c FFF7FEFF 		bl	nRF24_writeRegister
 409              	.LVL25:
 311:Generated_Source\PSoC4/nRF24_NRF_FUNCS.c **** }
 410              		.loc 1 311 0
 411              		@ sp needed
 412 0010 10BD     		pop	{r4, pc}
 413              		.cfi_endproc
 414              	.LFE17:
 415              		.size	nRF24_setChannel, .-nRF24_setChannel
 416 0012 C046     		.section	.text.nRF24_setAddressWidth,"ax",%progbits
 417              		.align	2
 418              		.global	nRF24_setAddressWidth
 419              		.code	16
 420              		.thumb_func
 421              		.type	nRF24_setAddressWidth, %function
 422              	nRF24_setAddressWidth:
 423              	.LFB18:
 312:Generated_Source\PSoC4/nRF24_NRF_FUNCS.c **** 
 313:Generated_Source\PSoC4/nRF24_NRF_FUNCS.c **** /**
ARM GAS  C:\Users\Xwx47\AppData\Local\Temp\cc6J2i3F.s 			page 14


 314:Generated_Source\PSoC4/nRF24_NRF_FUNCS.c ****  * @brief Set the data pipes address width.
 315:Generated_Source\PSoC4/nRF24_NRF_FUNCS.c ****  *
 316:Generated_Source\PSoC4/nRF24_NRF_FUNCS.c ****  * @param const NrfSetupAddressWidth addr_width:
 317:Generated_Source\PSoC4/nRF24_NRF_FUNCS.c ****  */
 318:Generated_Source\PSoC4/nRF24_NRF_FUNCS.c **** void nRF24_setAddressWidth(const NrfSetupAddressWidth addr_width)
 319:Generated_Source\PSoC4/nRF24_NRF_FUNCS.c **** {
 424              		.loc 1 319 0
 425              		.cfi_startproc
 426              		@ args = 0, pretend = 0, frame = 0
 427              		@ frame_needed = 0, uses_anonymous_args = 0
 428              	.LVL26:
 429 0000 10B5     		push	{r4, lr}
 430              		.cfi_def_cfa_offset 8
 431              		.cfi_offset 4, -8
 432              		.cfi_offset 14, -4
 433 0002 0100     		movs	r1, r0
 320:Generated_Source\PSoC4/nRF24_NRF_FUNCS.c ****     nRF24_writeRegister(NRF_SETUP_AW_REG, (uint8_t)addr_width);
 434              		.loc 1 320 0
 435 0004 0320     		movs	r0, #3
 436              	.LVL27:
 437 0006 FFF7FEFF 		bl	nRF24_writeRegister
 438              	.LVL28:
 321:Generated_Source\PSoC4/nRF24_NRF_FUNCS.c **** }
 439              		.loc 1 321 0
 440              		@ sp needed
 441 000a 10BD     		pop	{r4, pc}
 442              		.cfi_endproc
 443              	.LFE18:
 444              		.size	nRF24_setAddressWidth, .-nRF24_setAddressWidth
 445              		.section	.text.nRF24_getAddressWidth,"ax",%progbits
 446              		.align	2
 447              		.global	nRF24_getAddressWidth
 448              		.code	16
 449              		.thumb_func
 450              		.type	nRF24_getAddressWidth, %function
 451              	nRF24_getAddressWidth:
 452              	.LFB19:
 322:Generated_Source\PSoC4/nRF24_NRF_FUNCS.c **** 
 323:Generated_Source\PSoC4/nRF24_NRF_FUNCS.c **** /**
 324:Generated_Source\PSoC4/nRF24_NRF_FUNCS.c ****  * @brief Get the data pipes address width.
 325:Generated_Source\PSoC4/nRF24_NRF_FUNCS.c ****  *
 326:Generated_Source\PSoC4/nRF24_NRF_FUNCS.c ****  * @return uint8_t: Address width in bytes.
 327:Generated_Source\PSoC4/nRF24_NRF_FUNCS.c ****  */
 328:Generated_Source\PSoC4/nRF24_NRF_FUNCS.c **** uint8_t nRF24_getAddressWidth(void)
 329:Generated_Source\PSoC4/nRF24_NRF_FUNCS.c **** {
 453              		.loc 1 329 0
 454              		.cfi_startproc
 455              		@ args = 0, pretend = 0, frame = 0
 456              		@ frame_needed = 0, uses_anonymous_args = 0
 457 0000 10B5     		push	{r4, lr}
 458              		.cfi_def_cfa_offset 8
 459              		.cfi_offset 4, -8
 460              		.cfi_offset 14, -4
 461              	.LVL29:
 330:Generated_Source\PSoC4/nRF24_NRF_FUNCS.c ****     uint8_t addr_width = 0;
 331:Generated_Source\PSoC4/nRF24_NRF_FUNCS.c ****     uint8_t reg = nRF24_readRegister(NRF_SETUP_AW_REG);
 462              		.loc 1 331 0
ARM GAS  C:\Users\Xwx47\AppData\Local\Temp\cc6J2i3F.s 			page 15


 463 0002 0320     		movs	r0, #3
 464 0004 FFF7FEFF 		bl	nRF24_readRegister
 465              	.LVL30:
 332:Generated_Source\PSoC4/nRF24_NRF_FUNCS.c **** 
 333:Generated_Source\PSoC4/nRF24_NRF_FUNCS.c ****     switch (reg) {
 466              		.loc 1 333 0
 467 0008 0228     		cmp	r0, #2
 468 000a 05D0     		beq	.L22
 469 000c 0328     		cmp	r0, #3
 470 000e 05D0     		beq	.L23
 471 0010 0128     		cmp	r0, #1
 472 0012 05D0     		beq	.L25
 330:Generated_Source\PSoC4/nRF24_NRF_FUNCS.c ****     uint8_t addr_width = 0;
 473              		.loc 1 330 0
 474 0014 0020     		movs	r0, #0
 475              	.LVL31:
 476 0016 04E0     		b	.L24
 477              	.LVL32:
 478              	.L22:
 334:Generated_Source\PSoC4/nRF24_NRF_FUNCS.c ****     case NRF_SETUP_AW_3BYTES:
 335:Generated_Source\PSoC4/nRF24_NRF_FUNCS.c ****         addr_width = 3;
 336:Generated_Source\PSoC4/nRF24_NRF_FUNCS.c ****         break;
 337:Generated_Source\PSoC4/nRF24_NRF_FUNCS.c ****     case NRF_SETUP_AW_4BYTES:
 338:Generated_Source\PSoC4/nRF24_NRF_FUNCS.c ****         addr_width = 4;
 479              		.loc 1 338 0
 480 0018 0420     		movs	r0, #4
 481              	.LVL33:
 339:Generated_Source\PSoC4/nRF24_NRF_FUNCS.c ****         break;
 482              		.loc 1 339 0
 483 001a 02E0     		b	.L24
 484              	.LVL34:
 485              	.L23:
 340:Generated_Source\PSoC4/nRF24_NRF_FUNCS.c ****     case NRF_SETUP_AW_5BYTES:
 341:Generated_Source\PSoC4/nRF24_NRF_FUNCS.c ****         addr_width = 5;
 486              		.loc 1 341 0
 487 001c 0520     		movs	r0, #5
 488              	.LVL35:
 342:Generated_Source\PSoC4/nRF24_NRF_FUNCS.c ****         break;
 489              		.loc 1 342 0
 490 001e 00E0     		b	.L24
 491              	.LVL36:
 492              	.L25:
 335:Generated_Source\PSoC4/nRF24_NRF_FUNCS.c ****         break;
 493              		.loc 1 335 0
 494 0020 0320     		movs	r0, #3
 495              	.LVL37:
 496              	.L24:
 343:Generated_Source\PSoC4/nRF24_NRF_FUNCS.c ****     default:
 344:Generated_Source\PSoC4/nRF24_NRF_FUNCS.c ****         break;
 345:Generated_Source\PSoC4/nRF24_NRF_FUNCS.c ****     }
 346:Generated_Source\PSoC4/nRF24_NRF_FUNCS.c ****     
 347:Generated_Source\PSoC4/nRF24_NRF_FUNCS.c ****     return addr_width;
 348:Generated_Source\PSoC4/nRF24_NRF_FUNCS.c **** }
 497              		.loc 1 348 0
 498              		@ sp needed
 499 0022 10BD     		pop	{r4, pc}
 500              		.cfi_endproc
ARM GAS  C:\Users\Xwx47\AppData\Local\Temp\cc6J2i3F.s 			page 16


 501              	.LFE19:
 502              		.size	nRF24_getAddressWidth, .-nRF24_getAddressWidth
 503              		.section	.text.nRF24_setRxPipe0Address,"ax",%progbits
 504              		.align	2
 505              		.global	nRF24_setRxPipe0Address
 506              		.code	16
 507              		.thumb_func
 508              		.type	nRF24_setRxPipe0Address, %function
 509              	nRF24_setRxPipe0Address:
 510              	.LFB20:
 349:Generated_Source\PSoC4/nRF24_NRF_FUNCS.c **** 
 350:Generated_Source\PSoC4/nRF24_NRF_FUNCS.c **** /**
 351:Generated_Source\PSoC4/nRF24_NRF_FUNCS.c ****  * @brief Set the address of the RX Pipe 0 in the radio.
 352:Generated_Source\PSoC4/nRF24_NRF_FUNCS.c ****  *
 353:Generated_Source\PSoC4/nRF24_NRF_FUNCS.c ****  * This function configure the address of the Rx Pipe 0 of the radio.
 354:Generated_Source\PSoC4/nRF24_NRF_FUNCS.c ****  *
 355:Generated_Source\PSoC4/nRF24_NRF_FUNCS.c ****  * @param const uint8_t* addr:
 356:Generated_Source\PSoC4/nRF24_NRF_FUNCS.c ****  * @param size_t size:
 357:Generated_Source\PSoC4/nRF24_NRF_FUNCS.c ****  */
 358:Generated_Source\PSoC4/nRF24_NRF_FUNCS.c **** void nRF24_setRxPipe0Address(const uint8_t* addr, size_t size)
 359:Generated_Source\PSoC4/nRF24_NRF_FUNCS.c **** {
 511              		.loc 1 359 0
 512              		.cfi_startproc
 513              		@ args = 0, pretend = 0, frame = 0
 514              		@ frame_needed = 0, uses_anonymous_args = 0
 515              	.LVL38:
 516 0000 10B5     		push	{r4, lr}
 517              		.cfi_def_cfa_offset 8
 518              		.cfi_offset 4, -8
 519              		.cfi_offset 14, -4
 360:Generated_Source\PSoC4/nRF24_NRF_FUNCS.c ****     if (NULL == addr) {
 520              		.loc 1 360 0
 521 0002 0028     		cmp	r0, #0
 522 0004 07D0     		beq	.L26
 361:Generated_Source\PSoC4/nRF24_NRF_FUNCS.c ****         return;
 362:Generated_Source\PSoC4/nRF24_NRF_FUNCS.c ****     }
 363:Generated_Source\PSoC4/nRF24_NRF_FUNCS.c **** 
 364:Generated_Source\PSoC4/nRF24_NRF_FUNCS.c ****     // 5 bytes is the maximum address width, here we are limiting the
 365:Generated_Source\PSoC4/nRF24_NRF_FUNCS.c ****     // size of the address to 5 bytes but the radio can be configured
 366:Generated_Source\PSoC4/nRF24_NRF_FUNCS.c ****     // with 3, 4 or 5 bytes.
 367:Generated_Source\PSoC4/nRF24_NRF_FUNCS.c ****     // Add a way to get the address width from the radio configuration?
 368:Generated_Source\PSoC4/nRF24_NRF_FUNCS.c ****     if (5 < size) {
 523              		.loc 1 368 0
 524 0006 0529     		cmp	r1, #5
 525 0008 00D9     		bls	.L28
 369:Generated_Source\PSoC4/nRF24_NRF_FUNCS.c ****         size = 5;
 526              		.loc 1 369 0
 527 000a 0521     		movs	r1, #5
 528              	.LVL39:
 529              	.L28:
 370:Generated_Source\PSoC4/nRF24_NRF_FUNCS.c ****     }
 371:Generated_Source\PSoC4/nRF24_NRF_FUNCS.c ****     
 372:Generated_Source\PSoC4/nRF24_NRF_FUNCS.c ****     nRF24_writeLongRegister(NRF_RX_ADDR_P0_REG, addr, size);
 530              		.loc 1 372 0
 531 000c 0A00     		movs	r2, r1
 532 000e 0100     		movs	r1, r0
 533              	.LVL40:
ARM GAS  C:\Users\Xwx47\AppData\Local\Temp\cc6J2i3F.s 			page 17


 534 0010 0A20     		movs	r0, #10
 535              	.LVL41:
 536 0012 FFF7FEFF 		bl	nRF24_writeLongRegister
 537              	.LVL42:
 538              	.L26:
 373:Generated_Source\PSoC4/nRF24_NRF_FUNCS.c **** }
 539              		.loc 1 373 0
 540              		@ sp needed
 541 0016 10BD     		pop	{r4, pc}
 542              		.cfi_endproc
 543              	.LFE20:
 544              		.size	nRF24_setRxPipe0Address, .-nRF24_setRxPipe0Address
 545              		.section	.text.nRF24_getRxPipe0Address,"ax",%progbits
 546              		.align	2
 547              		.global	nRF24_getRxPipe0Address
 548              		.code	16
 549              		.thumb_func
 550              		.type	nRF24_getRxPipe0Address, %function
 551              	nRF24_getRxPipe0Address:
 552              	.LFB21:
 374:Generated_Source\PSoC4/nRF24_NRF_FUNCS.c **** 
 375:Generated_Source\PSoC4/nRF24_NRF_FUNCS.c **** /**
 376:Generated_Source\PSoC4/nRF24_NRF_FUNCS.c ****  * @brief Get the address of the RX Pipe 0 in the radio.
 377:Generated_Source\PSoC4/nRF24_NRF_FUNCS.c ****  *
 378:Generated_Source\PSoC4/nRF24_NRF_FUNCS.c ****  * @param uint8_t* addr:
 379:Generated_Source\PSoC4/nRF24_NRF_FUNCS.c ****  * @param size_t size:
 380:Generated_Source\PSoC4/nRF24_NRF_FUNCS.c ****  */
 381:Generated_Source\PSoC4/nRF24_NRF_FUNCS.c **** void nRF24_getRxPipe0Address(uint8_t* addr, size_t size)
 382:Generated_Source\PSoC4/nRF24_NRF_FUNCS.c **** {
 553              		.loc 1 382 0
 554              		.cfi_startproc
 555              		@ args = 0, pretend = 0, frame = 0
 556              		@ frame_needed = 0, uses_anonymous_args = 0
 557              	.LVL43:
 558 0000 10B5     		push	{r4, lr}
 559              		.cfi_def_cfa_offset 8
 560              		.cfi_offset 4, -8
 561              		.cfi_offset 14, -4
 383:Generated_Source\PSoC4/nRF24_NRF_FUNCS.c ****     if (NULL == addr) {
 562              		.loc 1 383 0
 563 0002 0028     		cmp	r0, #0
 564 0004 06D0     		beq	.L30
 384:Generated_Source\PSoC4/nRF24_NRF_FUNCS.c ****         return;
 385:Generated_Source\PSoC4/nRF24_NRF_FUNCS.c ****     }
 386:Generated_Source\PSoC4/nRF24_NRF_FUNCS.c **** 
 387:Generated_Source\PSoC4/nRF24_NRF_FUNCS.c ****     if (5 < size) {
 565              		.loc 1 387 0
 566 0006 0529     		cmp	r1, #5
 567 0008 04D8     		bhi	.L30
 388:Generated_Source\PSoC4/nRF24_NRF_FUNCS.c ****         return;
 389:Generated_Source\PSoC4/nRF24_NRF_FUNCS.c ****     }
 390:Generated_Source\PSoC4/nRF24_NRF_FUNCS.c ****     
 391:Generated_Source\PSoC4/nRF24_NRF_FUNCS.c ****     nRF24_readLongRegister(NRF_RX_ADDR_P0_REG, addr, size);
 568              		.loc 1 391 0
 569 000a 0A00     		movs	r2, r1
 570 000c 0100     		movs	r1, r0
 571              	.LVL44:
ARM GAS  C:\Users\Xwx47\AppData\Local\Temp\cc6J2i3F.s 			page 18


 572 000e 0A20     		movs	r0, #10
 573              	.LVL45:
 574 0010 FFF7FEFF 		bl	nRF24_readLongRegister
 575              	.LVL46:
 576              	.L30:
 392:Generated_Source\PSoC4/nRF24_NRF_FUNCS.c **** }
 577              		.loc 1 392 0
 578              		@ sp needed
 579 0014 10BD     		pop	{r4, pc}
 580              		.cfi_endproc
 581              	.LFE21:
 582              		.size	nRF24_getRxPipe0Address, .-nRF24_getRxPipe0Address
 583 0016 C046     		.section	.text.nRF24_setRxPipe1Address,"ax",%progbits
 584              		.align	2
 585              		.global	nRF24_setRxPipe1Address
 586              		.code	16
 587              		.thumb_func
 588              		.type	nRF24_setRxPipe1Address, %function
 589              	nRF24_setRxPipe1Address:
 590              	.LFB22:
 393:Generated_Source\PSoC4/nRF24_NRF_FUNCS.c **** 
 394:Generated_Source\PSoC4/nRF24_NRF_FUNCS.c **** /**
 395:Generated_Source\PSoC4/nRF24_NRF_FUNCS.c ****  * @brief Set the address of the RX Pipe 1 in the radio.
 396:Generated_Source\PSoC4/nRF24_NRF_FUNCS.c ****  *
 397:Generated_Source\PSoC4/nRF24_NRF_FUNCS.c ****  * This function configure the address of the Rx Pipe 1 of the radio.
 398:Generated_Source\PSoC4/nRF24_NRF_FUNCS.c ****  *
 399:Generated_Source\PSoC4/nRF24_NRF_FUNCS.c ****  * @param const uint8_t* addr:
 400:Generated_Source\PSoC4/nRF24_NRF_FUNCS.c ****  * @param size_t size:
 401:Generated_Source\PSoC4/nRF24_NRF_FUNCS.c ****  */
 402:Generated_Source\PSoC4/nRF24_NRF_FUNCS.c **** void nRF24_setRxPipe1Address(const uint8_t* addr, size_t size)
 403:Generated_Source\PSoC4/nRF24_NRF_FUNCS.c **** {
 591              		.loc 1 403 0
 592              		.cfi_startproc
 593              		@ args = 0, pretend = 0, frame = 0
 594              		@ frame_needed = 0, uses_anonymous_args = 0
 595              	.LVL47:
 596 0000 10B5     		push	{r4, lr}
 597              		.cfi_def_cfa_offset 8
 598              		.cfi_offset 4, -8
 599              		.cfi_offset 14, -4
 404:Generated_Source\PSoC4/nRF24_NRF_FUNCS.c ****     if (NULL == addr) {
 600              		.loc 1 404 0
 601 0002 0028     		cmp	r0, #0
 602 0004 07D0     		beq	.L32
 405:Generated_Source\PSoC4/nRF24_NRF_FUNCS.c ****         return;
 406:Generated_Source\PSoC4/nRF24_NRF_FUNCS.c ****     }
 407:Generated_Source\PSoC4/nRF24_NRF_FUNCS.c **** 
 408:Generated_Source\PSoC4/nRF24_NRF_FUNCS.c ****     if (5 < size) {
 603              		.loc 1 408 0
 604 0006 0529     		cmp	r1, #5
 605 0008 00D9     		bls	.L34
 409:Generated_Source\PSoC4/nRF24_NRF_FUNCS.c ****         size = 5;
 606              		.loc 1 409 0
 607 000a 0521     		movs	r1, #5
 608              	.LVL48:
 609              	.L34:
 410:Generated_Source\PSoC4/nRF24_NRF_FUNCS.c ****     }
ARM GAS  C:\Users\Xwx47\AppData\Local\Temp\cc6J2i3F.s 			page 19


 411:Generated_Source\PSoC4/nRF24_NRF_FUNCS.c ****     
 412:Generated_Source\PSoC4/nRF24_NRF_FUNCS.c ****     nRF24_writeLongRegister(NRF_RX_ADDR_P1_REG, addr, size);
 610              		.loc 1 412 0
 611 000c 0A00     		movs	r2, r1
 612 000e 0100     		movs	r1, r0
 613              	.LVL49:
 614 0010 0B20     		movs	r0, #11
 615              	.LVL50:
 616 0012 FFF7FEFF 		bl	nRF24_writeLongRegister
 617              	.LVL51:
 618              	.L32:
 413:Generated_Source\PSoC4/nRF24_NRF_FUNCS.c **** }
 619              		.loc 1 413 0
 620              		@ sp needed
 621 0016 10BD     		pop	{r4, pc}
 622              		.cfi_endproc
 623              	.LFE22:
 624              		.size	nRF24_setRxPipe1Address, .-nRF24_setRxPipe1Address
 625              		.section	.text.nRF24_getRxPipe1Address,"ax",%progbits
 626              		.align	2
 627              		.global	nRF24_getRxPipe1Address
 628              		.code	16
 629              		.thumb_func
 630              		.type	nRF24_getRxPipe1Address, %function
 631              	nRF24_getRxPipe1Address:
 632              	.LFB23:
 414:Generated_Source\PSoC4/nRF24_NRF_FUNCS.c **** 
 415:Generated_Source\PSoC4/nRF24_NRF_FUNCS.c **** /**
 416:Generated_Source\PSoC4/nRF24_NRF_FUNCS.c ****  * @brief Get the address of the RX Pipe 1 in the radio.
 417:Generated_Source\PSoC4/nRF24_NRF_FUNCS.c ****  *
 418:Generated_Source\PSoC4/nRF24_NRF_FUNCS.c ****  * @param uint8_t* addr:
 419:Generated_Source\PSoC4/nRF24_NRF_FUNCS.c ****  * @param size_t size:
 420:Generated_Source\PSoC4/nRF24_NRF_FUNCS.c ****  */
 421:Generated_Source\PSoC4/nRF24_NRF_FUNCS.c **** void nRF24_getRxPipe1Address(uint8_t* addr, size_t size)
 422:Generated_Source\PSoC4/nRF24_NRF_FUNCS.c **** {
 633              		.loc 1 422 0
 634              		.cfi_startproc
 635              		@ args = 0, pretend = 0, frame = 0
 636              		@ frame_needed = 0, uses_anonymous_args = 0
 637              	.LVL52:
 638 0000 10B5     		push	{r4, lr}
 639              		.cfi_def_cfa_offset 8
 640              		.cfi_offset 4, -8
 641              		.cfi_offset 14, -4
 423:Generated_Source\PSoC4/nRF24_NRF_FUNCS.c ****     if (NULL == addr) {
 642              		.loc 1 423 0
 643 0002 0028     		cmp	r0, #0
 644 0004 06D0     		beq	.L36
 424:Generated_Source\PSoC4/nRF24_NRF_FUNCS.c ****         return;
 425:Generated_Source\PSoC4/nRF24_NRF_FUNCS.c ****     }
 426:Generated_Source\PSoC4/nRF24_NRF_FUNCS.c **** 
 427:Generated_Source\PSoC4/nRF24_NRF_FUNCS.c ****     if (5 < size) {
 645              		.loc 1 427 0
 646 0006 0529     		cmp	r1, #5
 647 0008 04D8     		bhi	.L36
 428:Generated_Source\PSoC4/nRF24_NRF_FUNCS.c ****         return;
 429:Generated_Source\PSoC4/nRF24_NRF_FUNCS.c ****     }
ARM GAS  C:\Users\Xwx47\AppData\Local\Temp\cc6J2i3F.s 			page 20


 430:Generated_Source\PSoC4/nRF24_NRF_FUNCS.c ****     
 431:Generated_Source\PSoC4/nRF24_NRF_FUNCS.c ****     nRF24_readLongRegister(NRF_RX_ADDR_P1_REG, addr, size);
 648              		.loc 1 431 0
 649 000a 0A00     		movs	r2, r1
 650 000c 0100     		movs	r1, r0
 651              	.LVL53:
 652 000e 0B20     		movs	r0, #11
 653              	.LVL54:
 654 0010 FFF7FEFF 		bl	nRF24_readLongRegister
 655              	.LVL55:
 656              	.L36:
 432:Generated_Source\PSoC4/nRF24_NRF_FUNCS.c **** }
 657              		.loc 1 432 0
 658              		@ sp needed
 659 0014 10BD     		pop	{r4, pc}
 660              		.cfi_endproc
 661              	.LFE23:
 662              		.size	nRF24_getRxPipe1Address, .-nRF24_getRxPipe1Address
 663 0016 C046     		.section	.text.nRF24_setRxPipe2Address,"ax",%progbits
 664              		.align	2
 665              		.global	nRF24_setRxPipe2Address
 666              		.code	16
 667              		.thumb_func
 668              		.type	nRF24_setRxPipe2Address, %function
 669              	nRF24_setRxPipe2Address:
 670              	.LFB24:
 433:Generated_Source\PSoC4/nRF24_NRF_FUNCS.c **** 
 434:Generated_Source\PSoC4/nRF24_NRF_FUNCS.c **** /**
 435:Generated_Source\PSoC4/nRF24_NRF_FUNCS.c ****  * Set the address of the least significant byte of the Rx Pipe 2 in the radio.
 436:Generated_Source\PSoC4/nRF24_NRF_FUNCS.c ****  *
 437:Generated_Source\PSoC4/nRF24_NRF_FUNCS.c ****  * @param const uint8_t addr_lsb:
 438:Generated_Source\PSoC4/nRF24_NRF_FUNCS.c ****  */
 439:Generated_Source\PSoC4/nRF24_NRF_FUNCS.c **** void nRF24_setRxPipe2Address(const uint8_t addr_lsb)
 440:Generated_Source\PSoC4/nRF24_NRF_FUNCS.c **** {
 671              		.loc 1 440 0
 672              		.cfi_startproc
 673              		@ args = 0, pretend = 0, frame = 0
 674              		@ frame_needed = 0, uses_anonymous_args = 0
 675              	.LVL56:
 676 0000 10B5     		push	{r4, lr}
 677              		.cfi_def_cfa_offset 8
 678              		.cfi_offset 4, -8
 679              		.cfi_offset 14, -4
 680 0002 0100     		movs	r1, r0
 441:Generated_Source\PSoC4/nRF24_NRF_FUNCS.c ****     nRF24_writeRegister(NRF_RX_ADDR_P2_REG, addr_lsb);
 681              		.loc 1 441 0
 682 0004 0C20     		movs	r0, #12
 683              	.LVL57:
 684 0006 FFF7FEFF 		bl	nRF24_writeRegister
 685              	.LVL58:
 442:Generated_Source\PSoC4/nRF24_NRF_FUNCS.c **** }
 686              		.loc 1 442 0
 687              		@ sp needed
 688 000a 10BD     		pop	{r4, pc}
 689              		.cfi_endproc
 690              	.LFE24:
 691              		.size	nRF24_setRxPipe2Address, .-nRF24_setRxPipe2Address
ARM GAS  C:\Users\Xwx47\AppData\Local\Temp\cc6J2i3F.s 			page 21


 692              		.section	.text.nRF24_getRxPipe2Address,"ax",%progbits
 693              		.align	2
 694              		.global	nRF24_getRxPipe2Address
 695              		.code	16
 696              		.thumb_func
 697              		.type	nRF24_getRxPipe2Address, %function
 698              	nRF24_getRxPipe2Address:
 699              	.LFB25:
 443:Generated_Source\PSoC4/nRF24_NRF_FUNCS.c **** 
 444:Generated_Source\PSoC4/nRF24_NRF_FUNCS.c **** /**
 445:Generated_Source\PSoC4/nRF24_NRF_FUNCS.c ****  * Get the address of the Rx Pipe 2.
 446:Generated_Source\PSoC4/nRF24_NRF_FUNCS.c ****  *
 447:Generated_Source\PSoC4/nRF24_NRF_FUNCS.c ****  * @param uint8_t* addr:
 448:Generated_Source\PSoC4/nRF24_NRF_FUNCS.c ****  * @param size_t size:
 449:Generated_Source\PSoC4/nRF24_NRF_FUNCS.c ****  */
 450:Generated_Source\PSoC4/nRF24_NRF_FUNCS.c **** void nRF24_getRxPipe2Address(uint8_t* addr, size_t size)
 451:Generated_Source\PSoC4/nRF24_NRF_FUNCS.c **** {
 700              		.loc 1 451 0
 701              		.cfi_startproc
 702              		@ args = 0, pretend = 0, frame = 0
 703              		@ frame_needed = 0, uses_anonymous_args = 0
 704              	.LVL59:
 705 0000 70B5     		push	{r4, r5, r6, lr}
 706              		.cfi_def_cfa_offset 16
 707              		.cfi_offset 4, -16
 708              		.cfi_offset 5, -12
 709              		.cfi_offset 6, -8
 710              		.cfi_offset 14, -4
 711 0002 051E     		subs	r5, r0, #0
 452:Generated_Source\PSoC4/nRF24_NRF_FUNCS.c ****     if (NULL == addr) {
 712              		.loc 1 452 0
 713 0004 0CD0     		beq	.L39
 453:Generated_Source\PSoC4/nRF24_NRF_FUNCS.c ****         return;
 454:Generated_Source\PSoC4/nRF24_NRF_FUNCS.c ****     }
 455:Generated_Source\PSoC4/nRF24_NRF_FUNCS.c **** 
 456:Generated_Source\PSoC4/nRF24_NRF_FUNCS.c ****     if (5 < size) {
 714              		.loc 1 456 0
 715 0006 0529     		cmp	r1, #5
 716 0008 0AD8     		bhi	.L39
 457:Generated_Source\PSoC4/nRF24_NRF_FUNCS.c ****         return;
 458:Generated_Source\PSoC4/nRF24_NRF_FUNCS.c ****     }
 459:Generated_Source\PSoC4/nRF24_NRF_FUNCS.c ****     
 460:Generated_Source\PSoC4/nRF24_NRF_FUNCS.c ****     // The pipe2 address is the same as the pipe1 address except the LSB
 461:Generated_Source\PSoC4/nRF24_NRF_FUNCS.c ****     nRF24_readLongRegister(NRF_RX_ADDR_P1_REG, addr, size - 1);
 717              		.loc 1 461 0
 718 000a 4C1E     		subs	r4, r1, #1
 719 000c 2200     		movs	r2, r4
 720 000e 0100     		movs	r1, r0
 721              	.LVL60:
 722 0010 0B20     		movs	r0, #11
 723              	.LVL61:
 724 0012 FFF7FEFF 		bl	nRF24_readLongRegister
 725              	.LVL62:
 462:Generated_Source\PSoC4/nRF24_NRF_FUNCS.c ****     addr[size - 1] = nRF24_readRegister(NRF_RX_ADDR_P2_REG);
 726              		.loc 1 462 0
 727 0016 2C19     		adds	r4, r5, r4
 728              	.LVL63:
ARM GAS  C:\Users\Xwx47\AppData\Local\Temp\cc6J2i3F.s 			page 22


 729 0018 0C20     		movs	r0, #12
 730 001a FFF7FEFF 		bl	nRF24_readRegister
 731              	.LVL64:
 732 001e 2070     		strb	r0, [r4]
 733              	.L39:
 463:Generated_Source\PSoC4/nRF24_NRF_FUNCS.c **** }
 734              		.loc 1 463 0
 735              		@ sp needed
 736              	.LVL65:
 737 0020 70BD     		pop	{r4, r5, r6, pc}
 738              		.cfi_endproc
 739              	.LFE25:
 740              		.size	nRF24_getRxPipe2Address, .-nRF24_getRxPipe2Address
 741 0022 C046     		.section	.text.nRF24_setRxPipe3Address,"ax",%progbits
 742              		.align	2
 743              		.global	nRF24_setRxPipe3Address
 744              		.code	16
 745              		.thumb_func
 746              		.type	nRF24_setRxPipe3Address, %function
 747              	nRF24_setRxPipe3Address:
 748              	.LFB26:
 464:Generated_Source\PSoC4/nRF24_NRF_FUNCS.c **** 
 465:Generated_Source\PSoC4/nRF24_NRF_FUNCS.c **** /**
 466:Generated_Source\PSoC4/nRF24_NRF_FUNCS.c ****  * Set the address of the least significant byte of the Rx Pipe 3 in the radio.
 467:Generated_Source\PSoC4/nRF24_NRF_FUNCS.c ****  *
 468:Generated_Source\PSoC4/nRF24_NRF_FUNCS.c ****  * @param const uint8_t addr_lsb:
 469:Generated_Source\PSoC4/nRF24_NRF_FUNCS.c ****  */
 470:Generated_Source\PSoC4/nRF24_NRF_FUNCS.c **** void nRF24_setRxPipe3Address(const uint8_t addr_lsb)
 471:Generated_Source\PSoC4/nRF24_NRF_FUNCS.c **** {
 749              		.loc 1 471 0
 750              		.cfi_startproc
 751              		@ args = 0, pretend = 0, frame = 0
 752              		@ frame_needed = 0, uses_anonymous_args = 0
 753              	.LVL66:
 754 0000 10B5     		push	{r4, lr}
 755              		.cfi_def_cfa_offset 8
 756              		.cfi_offset 4, -8
 757              		.cfi_offset 14, -4
 758 0002 0100     		movs	r1, r0
 472:Generated_Source\PSoC4/nRF24_NRF_FUNCS.c ****     nRF24_writeRegister(NRF_RX_ADDR_P3_REG, addr_lsb);
 759              		.loc 1 472 0
 760 0004 0D20     		movs	r0, #13
 761              	.LVL67:
 762 0006 FFF7FEFF 		bl	nRF24_writeRegister
 763              	.LVL68:
 473:Generated_Source\PSoC4/nRF24_NRF_FUNCS.c **** }
 764              		.loc 1 473 0
 765              		@ sp needed
 766 000a 10BD     		pop	{r4, pc}
 767              		.cfi_endproc
 768              	.LFE26:
 769              		.size	nRF24_setRxPipe3Address, .-nRF24_setRxPipe3Address
 770              		.section	.text.nRF24_getRxPipe3Address,"ax",%progbits
 771              		.align	2
 772              		.global	nRF24_getRxPipe3Address
 773              		.code	16
 774              		.thumb_func
ARM GAS  C:\Users\Xwx47\AppData\Local\Temp\cc6J2i3F.s 			page 23


 775              		.type	nRF24_getRxPipe3Address, %function
 776              	nRF24_getRxPipe3Address:
 777              	.LFB27:
 474:Generated_Source\PSoC4/nRF24_NRF_FUNCS.c **** 
 475:Generated_Source\PSoC4/nRF24_NRF_FUNCS.c **** /**
 476:Generated_Source\PSoC4/nRF24_NRF_FUNCS.c ****  * Get the address of the Rx Pipe 3.
 477:Generated_Source\PSoC4/nRF24_NRF_FUNCS.c ****  *
 478:Generated_Source\PSoC4/nRF24_NRF_FUNCS.c ****  * @param uint8_t* addr:
 479:Generated_Source\PSoC4/nRF24_NRF_FUNCS.c ****  * @param size_t size:
 480:Generated_Source\PSoC4/nRF24_NRF_FUNCS.c ****  */
 481:Generated_Source\PSoC4/nRF24_NRF_FUNCS.c **** void nRF24_getRxPipe3Address(uint8_t* addr, size_t size)
 482:Generated_Source\PSoC4/nRF24_NRF_FUNCS.c **** {
 778              		.loc 1 482 0
 779              		.cfi_startproc
 780              		@ args = 0, pretend = 0, frame = 0
 781              		@ frame_needed = 0, uses_anonymous_args = 0
 782              	.LVL69:
 783 0000 70B5     		push	{r4, r5, r6, lr}
 784              		.cfi_def_cfa_offset 16
 785              		.cfi_offset 4, -16
 786              		.cfi_offset 5, -12
 787              		.cfi_offset 6, -8
 788              		.cfi_offset 14, -4
 789 0002 051E     		subs	r5, r0, #0
 483:Generated_Source\PSoC4/nRF24_NRF_FUNCS.c ****     if (NULL == addr) {
 790              		.loc 1 483 0
 791 0004 0CD0     		beq	.L42
 484:Generated_Source\PSoC4/nRF24_NRF_FUNCS.c ****         return;
 485:Generated_Source\PSoC4/nRF24_NRF_FUNCS.c ****     }
 486:Generated_Source\PSoC4/nRF24_NRF_FUNCS.c **** 
 487:Generated_Source\PSoC4/nRF24_NRF_FUNCS.c ****     if (5 < size) {
 792              		.loc 1 487 0
 793 0006 0529     		cmp	r1, #5
 794 0008 0AD8     		bhi	.L42
 488:Generated_Source\PSoC4/nRF24_NRF_FUNCS.c ****         return;
 489:Generated_Source\PSoC4/nRF24_NRF_FUNCS.c ****     }
 490:Generated_Source\PSoC4/nRF24_NRF_FUNCS.c ****     
 491:Generated_Source\PSoC4/nRF24_NRF_FUNCS.c ****     // The pipe3 address is the same as the pipe1 address except the LSB
 492:Generated_Source\PSoC4/nRF24_NRF_FUNCS.c ****     nRF24_readLongRegister(NRF_RX_ADDR_P1_REG, addr, size - 1);
 795              		.loc 1 492 0
 796 000a 4C1E     		subs	r4, r1, #1
 797 000c 2200     		movs	r2, r4
 798 000e 0100     		movs	r1, r0
 799              	.LVL70:
 800 0010 0B20     		movs	r0, #11
 801              	.LVL71:
 802 0012 FFF7FEFF 		bl	nRF24_readLongRegister
 803              	.LVL72:
 493:Generated_Source\PSoC4/nRF24_NRF_FUNCS.c ****     addr[size - 1] = nRF24_readRegister(NRF_RX_ADDR_P3_REG);
 804              		.loc 1 493 0
 805 0016 2C19     		adds	r4, r5, r4
 806              	.LVL73:
 807 0018 0D20     		movs	r0, #13
 808 001a FFF7FEFF 		bl	nRF24_readRegister
 809              	.LVL74:
 810 001e 2070     		strb	r0, [r4]
 811              	.L42:
ARM GAS  C:\Users\Xwx47\AppData\Local\Temp\cc6J2i3F.s 			page 24


 494:Generated_Source\PSoC4/nRF24_NRF_FUNCS.c **** }
 812              		.loc 1 494 0
 813              		@ sp needed
 814              	.LVL75:
 815 0020 70BD     		pop	{r4, r5, r6, pc}
 816              		.cfi_endproc
 817              	.LFE27:
 818              		.size	nRF24_getRxPipe3Address, .-nRF24_getRxPipe3Address
 819 0022 C046     		.section	.text.nRF24_setRxPipe4Address,"ax",%progbits
 820              		.align	2
 821              		.global	nRF24_setRxPipe4Address
 822              		.code	16
 823              		.thumb_func
 824              		.type	nRF24_setRxPipe4Address, %function
 825              	nRF24_setRxPipe4Address:
 826              	.LFB28:
 495:Generated_Source\PSoC4/nRF24_NRF_FUNCS.c **** 
 496:Generated_Source\PSoC4/nRF24_NRF_FUNCS.c **** /**
 497:Generated_Source\PSoC4/nRF24_NRF_FUNCS.c ****  * Set the address of the least significant byte of the Rx Pipe 4 in the radio.
 498:Generated_Source\PSoC4/nRF24_NRF_FUNCS.c ****  *
 499:Generated_Source\PSoC4/nRF24_NRF_FUNCS.c ****  * @param const uint8_t addr_lsb:
 500:Generated_Source\PSoC4/nRF24_NRF_FUNCS.c ****  */
 501:Generated_Source\PSoC4/nRF24_NRF_FUNCS.c **** void nRF24_setRxPipe4Address(const uint8_t addr_lsb)
 502:Generated_Source\PSoC4/nRF24_NRF_FUNCS.c **** {
 827              		.loc 1 502 0
 828              		.cfi_startproc
 829              		@ args = 0, pretend = 0, frame = 0
 830              		@ frame_needed = 0, uses_anonymous_args = 0
 831              	.LVL76:
 832 0000 10B5     		push	{r4, lr}
 833              		.cfi_def_cfa_offset 8
 834              		.cfi_offset 4, -8
 835              		.cfi_offset 14, -4
 836 0002 0100     		movs	r1, r0
 503:Generated_Source\PSoC4/nRF24_NRF_FUNCS.c ****     nRF24_writeRegister(NRF_RX_ADDR_P4_REG, addr_lsb);
 837              		.loc 1 503 0
 838 0004 0E20     		movs	r0, #14
 839              	.LVL77:
 840 0006 FFF7FEFF 		bl	nRF24_writeRegister
 841              	.LVL78:
 504:Generated_Source\PSoC4/nRF24_NRF_FUNCS.c **** }
 842              		.loc 1 504 0
 843              		@ sp needed
 844 000a 10BD     		pop	{r4, pc}
 845              		.cfi_endproc
 846              	.LFE28:
 847              		.size	nRF24_setRxPipe4Address, .-nRF24_setRxPipe4Address
 848              		.section	.text.nRF24_getRxPipe4Address,"ax",%progbits
 849              		.align	2
 850              		.global	nRF24_getRxPipe4Address
 851              		.code	16
 852              		.thumb_func
 853              		.type	nRF24_getRxPipe4Address, %function
 854              	nRF24_getRxPipe4Address:
 855              	.LFB29:
 505:Generated_Source\PSoC4/nRF24_NRF_FUNCS.c **** 
 506:Generated_Source\PSoC4/nRF24_NRF_FUNCS.c **** /**
ARM GAS  C:\Users\Xwx47\AppData\Local\Temp\cc6J2i3F.s 			page 25


 507:Generated_Source\PSoC4/nRF24_NRF_FUNCS.c ****  * Get the address of the Rx Pipe 4.
 508:Generated_Source\PSoC4/nRF24_NRF_FUNCS.c ****  *
 509:Generated_Source\PSoC4/nRF24_NRF_FUNCS.c ****  * @param uint8_t* addr:
 510:Generated_Source\PSoC4/nRF24_NRF_FUNCS.c ****  * @param size_t size:
 511:Generated_Source\PSoC4/nRF24_NRF_FUNCS.c ****  */
 512:Generated_Source\PSoC4/nRF24_NRF_FUNCS.c **** void nRF24_getRxPipe4Address(uint8_t* addr, size_t size)
 513:Generated_Source\PSoC4/nRF24_NRF_FUNCS.c **** {
 856              		.loc 1 513 0
 857              		.cfi_startproc
 858              		@ args = 0, pretend = 0, frame = 0
 859              		@ frame_needed = 0, uses_anonymous_args = 0
 860              	.LVL79:
 861 0000 70B5     		push	{r4, r5, r6, lr}
 862              		.cfi_def_cfa_offset 16
 863              		.cfi_offset 4, -16
 864              		.cfi_offset 5, -12
 865              		.cfi_offset 6, -8
 866              		.cfi_offset 14, -4
 867 0002 051E     		subs	r5, r0, #0
 514:Generated_Source\PSoC4/nRF24_NRF_FUNCS.c ****     if (NULL == addr) {
 868              		.loc 1 514 0
 869 0004 0CD0     		beq	.L45
 515:Generated_Source\PSoC4/nRF24_NRF_FUNCS.c ****         return;
 516:Generated_Source\PSoC4/nRF24_NRF_FUNCS.c ****     }
 517:Generated_Source\PSoC4/nRF24_NRF_FUNCS.c **** 
 518:Generated_Source\PSoC4/nRF24_NRF_FUNCS.c ****     if (5 < size) {
 870              		.loc 1 518 0
 871 0006 0529     		cmp	r1, #5
 872 0008 0AD8     		bhi	.L45
 519:Generated_Source\PSoC4/nRF24_NRF_FUNCS.c ****         return;
 520:Generated_Source\PSoC4/nRF24_NRF_FUNCS.c ****     }
 521:Generated_Source\PSoC4/nRF24_NRF_FUNCS.c ****     
 522:Generated_Source\PSoC4/nRF24_NRF_FUNCS.c ****     // The pipe4 address is the same as the pipe1 address except the LSB
 523:Generated_Source\PSoC4/nRF24_NRF_FUNCS.c ****     nRF24_readLongRegister(NRF_RX_ADDR_P1_REG, addr, size - 1);
 873              		.loc 1 523 0
 874 000a 4C1E     		subs	r4, r1, #1
 875 000c 2200     		movs	r2, r4
 876 000e 0100     		movs	r1, r0
 877              	.LVL80:
 878 0010 0B20     		movs	r0, #11
 879              	.LVL81:
 880 0012 FFF7FEFF 		bl	nRF24_readLongRegister
 881              	.LVL82:
 524:Generated_Source\PSoC4/nRF24_NRF_FUNCS.c ****     addr[size - 1] = nRF24_readRegister(NRF_RX_ADDR_P4_REG);
 882              		.loc 1 524 0
 883 0016 2C19     		adds	r4, r5, r4
 884              	.LVL83:
 885 0018 0E20     		movs	r0, #14
 886 001a FFF7FEFF 		bl	nRF24_readRegister
 887              	.LVL84:
 888 001e 2070     		strb	r0, [r4]
 889              	.L45:
 525:Generated_Source\PSoC4/nRF24_NRF_FUNCS.c **** }
 890              		.loc 1 525 0
 891              		@ sp needed
 892              	.LVL85:
 893 0020 70BD     		pop	{r4, r5, r6, pc}
ARM GAS  C:\Users\Xwx47\AppData\Local\Temp\cc6J2i3F.s 			page 26


 894              		.cfi_endproc
 895              	.LFE29:
 896              		.size	nRF24_getRxPipe4Address, .-nRF24_getRxPipe4Address
 897 0022 C046     		.section	.text.nRF24_setRxPipe5Address,"ax",%progbits
 898              		.align	2
 899              		.global	nRF24_setRxPipe5Address
 900              		.code	16
 901              		.thumb_func
 902              		.type	nRF24_setRxPipe5Address, %function
 903              	nRF24_setRxPipe5Address:
 904              	.LFB30:
 526:Generated_Source\PSoC4/nRF24_NRF_FUNCS.c **** 
 527:Generated_Source\PSoC4/nRF24_NRF_FUNCS.c **** /**
 528:Generated_Source\PSoC4/nRF24_NRF_FUNCS.c ****  * Set the address of the least significant byte of the Rx Pipe 5 in the radio.
 529:Generated_Source\PSoC4/nRF24_NRF_FUNCS.c ****  *
 530:Generated_Source\PSoC4/nRF24_NRF_FUNCS.c ****  * @param const uint8_t addr_lsb:
 531:Generated_Source\PSoC4/nRF24_NRF_FUNCS.c ****  */
 532:Generated_Source\PSoC4/nRF24_NRF_FUNCS.c **** void nRF24_setRxPipe5Address(const uint8_t addr_lsb)
 533:Generated_Source\PSoC4/nRF24_NRF_FUNCS.c **** {
 905              		.loc 1 533 0
 906              		.cfi_startproc
 907              		@ args = 0, pretend = 0, frame = 0
 908              		@ frame_needed = 0, uses_anonymous_args = 0
 909              	.LVL86:
 910 0000 10B5     		push	{r4, lr}
 911              		.cfi_def_cfa_offset 8
 912              		.cfi_offset 4, -8
 913              		.cfi_offset 14, -4
 914 0002 0100     		movs	r1, r0
 534:Generated_Source\PSoC4/nRF24_NRF_FUNCS.c ****     nRF24_writeRegister(NRF_RX_ADDR_P5_REG, addr_lsb);
 915              		.loc 1 534 0
 916 0004 0F20     		movs	r0, #15
 917              	.LVL87:
 918 0006 FFF7FEFF 		bl	nRF24_writeRegister
 919              	.LVL88:
 535:Generated_Source\PSoC4/nRF24_NRF_FUNCS.c **** }
 920              		.loc 1 535 0
 921              		@ sp needed
 922 000a 10BD     		pop	{r4, pc}
 923              		.cfi_endproc
 924              	.LFE30:
 925              		.size	nRF24_setRxPipe5Address, .-nRF24_setRxPipe5Address
 926              		.section	.text.nRF24_getRxPipe5Address,"ax",%progbits
 927              		.align	2
 928              		.global	nRF24_getRxPipe5Address
 929              		.code	16
 930              		.thumb_func
 931              		.type	nRF24_getRxPipe5Address, %function
 932              	nRF24_getRxPipe5Address:
 933              	.LFB31:
 536:Generated_Source\PSoC4/nRF24_NRF_FUNCS.c **** 
 537:Generated_Source\PSoC4/nRF24_NRF_FUNCS.c **** /**
 538:Generated_Source\PSoC4/nRF24_NRF_FUNCS.c ****  * Get the address of the Rx Pipe 5.
 539:Generated_Source\PSoC4/nRF24_NRF_FUNCS.c ****  *
 540:Generated_Source\PSoC4/nRF24_NRF_FUNCS.c ****  * @param uint8_t* addr:
 541:Generated_Source\PSoC4/nRF24_NRF_FUNCS.c ****  * @param size_t size:
 542:Generated_Source\PSoC4/nRF24_NRF_FUNCS.c ****  */
ARM GAS  C:\Users\Xwx47\AppData\Local\Temp\cc6J2i3F.s 			page 27


 543:Generated_Source\PSoC4/nRF24_NRF_FUNCS.c **** void nRF24_getRxPipe5Address(uint8_t* addr, size_t size)
 544:Generated_Source\PSoC4/nRF24_NRF_FUNCS.c **** {
 934              		.loc 1 544 0
 935              		.cfi_startproc
 936              		@ args = 0, pretend = 0, frame = 0
 937              		@ frame_needed = 0, uses_anonymous_args = 0
 938              	.LVL89:
 939 0000 70B5     		push	{r4, r5, r6, lr}
 940              		.cfi_def_cfa_offset 16
 941              		.cfi_offset 4, -16
 942              		.cfi_offset 5, -12
 943              		.cfi_offset 6, -8
 944              		.cfi_offset 14, -4
 945 0002 051E     		subs	r5, r0, #0
 545:Generated_Source\PSoC4/nRF24_NRF_FUNCS.c ****     if (NULL == addr) {
 946              		.loc 1 545 0
 947 0004 0CD0     		beq	.L48
 546:Generated_Source\PSoC4/nRF24_NRF_FUNCS.c ****         return;
 547:Generated_Source\PSoC4/nRF24_NRF_FUNCS.c ****     }
 548:Generated_Source\PSoC4/nRF24_NRF_FUNCS.c **** 
 549:Generated_Source\PSoC4/nRF24_NRF_FUNCS.c ****     if (5 < size) {
 948              		.loc 1 549 0
 949 0006 0529     		cmp	r1, #5
 950 0008 0AD8     		bhi	.L48
 550:Generated_Source\PSoC4/nRF24_NRF_FUNCS.c ****         return;
 551:Generated_Source\PSoC4/nRF24_NRF_FUNCS.c ****     }
 552:Generated_Source\PSoC4/nRF24_NRF_FUNCS.c ****     
 553:Generated_Source\PSoC4/nRF24_NRF_FUNCS.c ****     // The pipe5 address is the same as the pipe1 address except the LSB
 554:Generated_Source\PSoC4/nRF24_NRF_FUNCS.c ****     nRF24_readLongRegister(NRF_RX_ADDR_P1_REG, addr, size - 1);
 951              		.loc 1 554 0
 952 000a 4C1E     		subs	r4, r1, #1
 953 000c 2200     		movs	r2, r4
 954 000e 0100     		movs	r1, r0
 955              	.LVL90:
 956 0010 0B20     		movs	r0, #11
 957              	.LVL91:
 958 0012 FFF7FEFF 		bl	nRF24_readLongRegister
 959              	.LVL92:
 555:Generated_Source\PSoC4/nRF24_NRF_FUNCS.c ****     addr[size - 1] = nRF24_readRegister(NRF_RX_ADDR_P5_REG);
 960              		.loc 1 555 0
 961 0016 2C19     		adds	r4, r5, r4
 962              	.LVL93:
 963 0018 0F20     		movs	r0, #15
 964 001a FFF7FEFF 		bl	nRF24_readRegister
 965              	.LVL94:
 966 001e 2070     		strb	r0, [r4]
 967              	.L48:
 556:Generated_Source\PSoC4/nRF24_NRF_FUNCS.c **** }
 968              		.loc 1 556 0
 969              		@ sp needed
 970              	.LVL95:
 971 0020 70BD     		pop	{r4, r5, r6, pc}
 972              		.cfi_endproc
 973              	.LFE31:
 974              		.size	nRF24_getRxPipe5Address, .-nRF24_getRxPipe5Address
 975 0022 C046     		.section	.text.nRF24_setTxAddress,"ax",%progbits
 976              		.align	2
ARM GAS  C:\Users\Xwx47\AppData\Local\Temp\cc6J2i3F.s 			page 28


 977              		.global	nRF24_setTxAddress
 978              		.code	16
 979              		.thumb_func
 980              		.type	nRF24_setTxAddress, %function
 981              	nRF24_setTxAddress:
 982              	.LFB32:
 557:Generated_Source\PSoC4/nRF24_NRF_FUNCS.c **** 
 558:Generated_Source\PSoC4/nRF24_NRF_FUNCS.c **** /**
 559:Generated_Source\PSoC4/nRF24_NRF_FUNCS.c ****  * @brief Set the TX Address of the radio.
 560:Generated_Source\PSoC4/nRF24_NRF_FUNCS.c ****  *
 561:Generated_Source\PSoC4/nRF24_NRF_FUNCS.c ****  * @param const uint8_t* addr:
 562:Generated_Source\PSoC4/nRF24_NRF_FUNCS.c ****  * @param size_t size:
 563:Generated_Source\PSoC4/nRF24_NRF_FUNCS.c ****  */
 564:Generated_Source\PSoC4/nRF24_NRF_FUNCS.c **** void nRF24_setTxAddress(const uint8_t* addr, size_t size)
 565:Generated_Source\PSoC4/nRF24_NRF_FUNCS.c **** {
 983              		.loc 1 565 0
 984              		.cfi_startproc
 985              		@ args = 0, pretend = 0, frame = 0
 986              		@ frame_needed = 0, uses_anonymous_args = 0
 987              	.LVL96:
 988 0000 10B5     		push	{r4, lr}
 989              		.cfi_def_cfa_offset 8
 990              		.cfi_offset 4, -8
 991              		.cfi_offset 14, -4
 566:Generated_Source\PSoC4/nRF24_NRF_FUNCS.c ****     if (NULL == addr) {
 992              		.loc 1 566 0
 993 0002 0028     		cmp	r0, #0
 994 0004 07D0     		beq	.L50
 567:Generated_Source\PSoC4/nRF24_NRF_FUNCS.c ****         return;
 568:Generated_Source\PSoC4/nRF24_NRF_FUNCS.c ****     }
 569:Generated_Source\PSoC4/nRF24_NRF_FUNCS.c **** 
 570:Generated_Source\PSoC4/nRF24_NRF_FUNCS.c ****     if (5 < size) {
 995              		.loc 1 570 0
 996 0006 0529     		cmp	r1, #5
 997 0008 00D9     		bls	.L52
 571:Generated_Source\PSoC4/nRF24_NRF_FUNCS.c ****         size = 5;
 998              		.loc 1 571 0
 999 000a 0521     		movs	r1, #5
 1000              	.LVL97:
 1001              	.L52:
 572:Generated_Source\PSoC4/nRF24_NRF_FUNCS.c ****     }
 573:Generated_Source\PSoC4/nRF24_NRF_FUNCS.c ****     
 574:Generated_Source\PSoC4/nRF24_NRF_FUNCS.c ****     nRF24_writeLongRegister(NRF_TX_ADDR_REG, addr, size);
 1002              		.loc 1 574 0
 1003 000c 0A00     		movs	r2, r1
 1004 000e 0100     		movs	r1, r0
 1005              	.LVL98:
 1006 0010 1020     		movs	r0, #16
 1007              	.LVL99:
 1008 0012 FFF7FEFF 		bl	nRF24_writeLongRegister
 1009              	.LVL100:
 1010              	.L50:
 575:Generated_Source\PSoC4/nRF24_NRF_FUNCS.c **** }
 1011              		.loc 1 575 0
 1012              		@ sp needed
 1013 0016 10BD     		pop	{r4, pc}
 1014              		.cfi_endproc
ARM GAS  C:\Users\Xwx47\AppData\Local\Temp\cc6J2i3F.s 			page 29


 1015              	.LFE32:
 1016              		.size	nRF24_setTxAddress, .-nRF24_setTxAddress
 1017              		.section	.text.nRF24_getTxAddress,"ax",%progbits
 1018              		.align	2
 1019              		.global	nRF24_getTxAddress
 1020              		.code	16
 1021              		.thumb_func
 1022              		.type	nRF24_getTxAddress, %function
 1023              	nRF24_getTxAddress:
 1024              	.LFB33:
 576:Generated_Source\PSoC4/nRF24_NRF_FUNCS.c **** 
 577:Generated_Source\PSoC4/nRF24_NRF_FUNCS.c **** /**
 578:Generated_Source\PSoC4/nRF24_NRF_FUNCS.c ****  * @brief Get the TX Address of the radio.
 579:Generated_Source\PSoC4/nRF24_NRF_FUNCS.c ****  *
 580:Generated_Source\PSoC4/nRF24_NRF_FUNCS.c ****  * @param const uint8_t* addr:
 581:Generated_Source\PSoC4/nRF24_NRF_FUNCS.c ****  * @param const size_t size:
 582:Generated_Source\PSoC4/nRF24_NRF_FUNCS.c ****  */
 583:Generated_Source\PSoC4/nRF24_NRF_FUNCS.c **** void nRF24_getTxAddress(uint8_t* addr, const size_t size)
 584:Generated_Source\PSoC4/nRF24_NRF_FUNCS.c **** {
 1025              		.loc 1 584 0
 1026              		.cfi_startproc
 1027              		@ args = 0, pretend = 0, frame = 0
 1028              		@ frame_needed = 0, uses_anonymous_args = 0
 1029              	.LVL101:
 1030 0000 10B5     		push	{r4, lr}
 1031              		.cfi_def_cfa_offset 8
 1032              		.cfi_offset 4, -8
 1033              		.cfi_offset 14, -4
 585:Generated_Source\PSoC4/nRF24_NRF_FUNCS.c ****     if (NULL == addr) {
 1034              		.loc 1 585 0
 1035 0002 0028     		cmp	r0, #0
 1036 0004 06D0     		beq	.L54
 586:Generated_Source\PSoC4/nRF24_NRF_FUNCS.c ****         return;
 587:Generated_Source\PSoC4/nRF24_NRF_FUNCS.c ****     }
 588:Generated_Source\PSoC4/nRF24_NRF_FUNCS.c **** 
 589:Generated_Source\PSoC4/nRF24_NRF_FUNCS.c ****     if (5 < size) {
 1037              		.loc 1 589 0
 1038 0006 0529     		cmp	r1, #5
 1039 0008 04D8     		bhi	.L54
 590:Generated_Source\PSoC4/nRF24_NRF_FUNCS.c ****         return;
 591:Generated_Source\PSoC4/nRF24_NRF_FUNCS.c ****     }
 592:Generated_Source\PSoC4/nRF24_NRF_FUNCS.c ****     
 593:Generated_Source\PSoC4/nRF24_NRF_FUNCS.c ****     nRF24_readLongRegister(NRF_TX_ADDR_REG, addr, size);
 1040              		.loc 1 593 0
 1041 000a 0A00     		movs	r2, r1
 1042 000c 0100     		movs	r1, r0
 1043              	.LVL102:
 1044 000e 1020     		movs	r0, #16
 1045              	.LVL103:
 1046 0010 FFF7FEFF 		bl	nRF24_readLongRegister
 1047              	.LVL104:
 1048              	.L54:
 594:Generated_Source\PSoC4/nRF24_NRF_FUNCS.c **** }
 1049              		.loc 1 594 0
 1050              		@ sp needed
 1051 0014 10BD     		pop	{r4, pc}
 1052              		.cfi_endproc
ARM GAS  C:\Users\Xwx47\AppData\Local\Temp\cc6J2i3F.s 			page 30


 1053              	.LFE33:
 1054              		.size	nRF24_getTxAddress, .-nRF24_getTxAddress
 1055 0016 C046     		.section	.text.nRF24_setPayloadSize,"ax",%progbits
 1056              		.align	2
 1057              		.global	nRF24_setPayloadSize
 1058              		.code	16
 1059              		.thumb_func
 1060              		.type	nRF24_setPayloadSize, %function
 1061              	nRF24_setPayloadSize:
 1062              	.LFB34:
 595:Generated_Source\PSoC4/nRF24_NRF_FUNCS.c **** 
 596:Generated_Source\PSoC4/nRF24_NRF_FUNCS.c **** /**
 597:Generated_Source\PSoC4/nRF24_NRF_FUNCS.c ****  * @brief Set the payload size of the given pipe.
 598:Generated_Source\PSoC4/nRF24_NRF_FUNCS.c ****  *
 599:Generated_Source\PSoC4/nRF24_NRF_FUNCS.c ****  * Configure the payload size of the given pipe.
 600:Generated_Source\PSoC4/nRF24_NRF_FUNCS.c ****  *
 601:Generated_Source\PSoC4/nRF24_NRF_FUNCS.c ****  * @param const NrfDataPipe pipe:
 602:Generated_Source\PSoC4/nRF24_NRF_FUNCS.c ****  * @param uint8_t size:
 603:Generated_Source\PSoC4/nRF24_NRF_FUNCS.c ****  */
 604:Generated_Source\PSoC4/nRF24_NRF_FUNCS.c **** void nRF24_setPayloadSize(const NrfDataPipe pipe, uint8_t size)
 605:Generated_Source\PSoC4/nRF24_NRF_FUNCS.c **** {
 1063              		.loc 1 605 0
 1064              		.cfi_startproc
 1065              		@ args = 0, pretend = 0, frame = 0
 1066              		@ frame_needed = 0, uses_anonymous_args = 0
 1067              	.LVL105:
 1068 0000 10B5     		push	{r4, lr}
 1069              		.cfi_def_cfa_offset 8
 1070              		.cfi_offset 4, -8
 1071              		.cfi_offset 14, -4
 606:Generated_Source\PSoC4/nRF24_NRF_FUNCS.c ****     if (32 < size) {
 1072              		.loc 1 606 0
 1073 0002 2029     		cmp	r1, #32
 1074 0004 00D9     		bls	.L57
 607:Generated_Source\PSoC4/nRF24_NRF_FUNCS.c ****         size = 32;
 1075              		.loc 1 607 0
 1076 0006 2021     		movs	r1, #32
 1077              	.LVL106:
 1078              	.L57:
 608:Generated_Source\PSoC4/nRF24_NRF_FUNCS.c ****     }
 609:Generated_Source\PSoC4/nRF24_NRF_FUNCS.c **** 
 610:Generated_Source\PSoC4/nRF24_NRF_FUNCS.c ****     switch (pipe) {
 1079              		.loc 1 610 0
 1080 0008 0528     		cmp	r0, #5
 1081 000a 1AD8     		bhi	.L56
 1082 000c 8000     		lsls	r0, r0, #2
 1083              	.LVL107:
 1084 000e 0D4B     		ldr	r3, .L67
 1085 0010 1B58     		ldr	r3, [r3, r0]
 1086 0012 9F46     		mov	pc, r3
 1087              		.section	.rodata
 1088              		.align	2
 1089              	.L60:
 1090 0000 14000000 		.word	.L59
 1091 0004 1C000000 		.word	.L61
 1092 0008 24000000 		.word	.L62
 1093 000c 2C000000 		.word	.L63
ARM GAS  C:\Users\Xwx47\AppData\Local\Temp\cc6J2i3F.s 			page 31


 1094 0010 34000000 		.word	.L64
 1095 0014 3C000000 		.word	.L65
 1096              		.section	.text.nRF24_setPayloadSize
 1097              	.L59:
 611:Generated_Source\PSoC4/nRF24_NRF_FUNCS.c ****     case NRF_DATA_PIPE0:
 612:Generated_Source\PSoC4/nRF24_NRF_FUNCS.c ****         nRF24_writeRegister(NRF_RX_PW_P0_REG, size);
 1098              		.loc 1 612 0
 1099 0014 1120     		movs	r0, #17
 1100 0016 FFF7FEFF 		bl	nRF24_writeRegister
 1101              	.LVL108:
 613:Generated_Source\PSoC4/nRF24_NRF_FUNCS.c ****         break;
 1102              		.loc 1 613 0
 1103 001a 12E0     		b	.L56
 1104              	.LVL109:
 1105              	.L61:
 614:Generated_Source\PSoC4/nRF24_NRF_FUNCS.c ****     case NRF_DATA_PIPE1:
 615:Generated_Source\PSoC4/nRF24_NRF_FUNCS.c ****         nRF24_writeRegister(NRF_RX_PW_P1_REG, size);
 1106              		.loc 1 615 0
 1107 001c 1220     		movs	r0, #18
 1108 001e FFF7FEFF 		bl	nRF24_writeRegister
 1109              	.LVL110:
 616:Generated_Source\PSoC4/nRF24_NRF_FUNCS.c ****         break;
 1110              		.loc 1 616 0
 1111 0022 0EE0     		b	.L56
 1112              	.LVL111:
 1113              	.L62:
 617:Generated_Source\PSoC4/nRF24_NRF_FUNCS.c ****     case NRF_DATA_PIPE2:
 618:Generated_Source\PSoC4/nRF24_NRF_FUNCS.c ****         nRF24_writeRegister(NRF_RX_PW_P2_REG, size);
 1114              		.loc 1 618 0
 1115 0024 1320     		movs	r0, #19
 1116 0026 FFF7FEFF 		bl	nRF24_writeRegister
 1117              	.LVL112:
 619:Generated_Source\PSoC4/nRF24_NRF_FUNCS.c ****         break;
 1118              		.loc 1 619 0
 1119 002a 0AE0     		b	.L56
 1120              	.LVL113:
 1121              	.L63:
 620:Generated_Source\PSoC4/nRF24_NRF_FUNCS.c ****     case NRF_DATA_PIPE3:
 621:Generated_Source\PSoC4/nRF24_NRF_FUNCS.c ****         nRF24_writeRegister(NRF_RX_PW_P3_REG, size);
 1122              		.loc 1 621 0
 1123 002c 1420     		movs	r0, #20
 1124 002e FFF7FEFF 		bl	nRF24_writeRegister
 1125              	.LVL114:
 622:Generated_Source\PSoC4/nRF24_NRF_FUNCS.c ****         break;
 1126              		.loc 1 622 0
 1127 0032 06E0     		b	.L56
 1128              	.LVL115:
 1129              	.L64:
 623:Generated_Source\PSoC4/nRF24_NRF_FUNCS.c ****     case NRF_DATA_PIPE4:
 624:Generated_Source\PSoC4/nRF24_NRF_FUNCS.c ****         nRF24_writeRegister(NRF_RX_PW_P4_REG, size);
 1130              		.loc 1 624 0
 1131 0034 1520     		movs	r0, #21
 1132 0036 FFF7FEFF 		bl	nRF24_writeRegister
 1133              	.LVL116:
 625:Generated_Source\PSoC4/nRF24_NRF_FUNCS.c ****         break;
 1134              		.loc 1 625 0
 1135 003a 02E0     		b	.L56
ARM GAS  C:\Users\Xwx47\AppData\Local\Temp\cc6J2i3F.s 			page 32


 1136              	.LVL117:
 1137              	.L65:
 626:Generated_Source\PSoC4/nRF24_NRF_FUNCS.c ****     case NRF_DATA_PIPE5:
 627:Generated_Source\PSoC4/nRF24_NRF_FUNCS.c ****         nRF24_writeRegister(NRF_RX_PW_P5_REG, size);
 1138              		.loc 1 627 0
 1139 003c 1620     		movs	r0, #22
 1140 003e FFF7FEFF 		bl	nRF24_writeRegister
 1141              	.LVL118:
 1142              	.L56:
 628:Generated_Source\PSoC4/nRF24_NRF_FUNCS.c ****         break;
 629:Generated_Source\PSoC4/nRF24_NRF_FUNCS.c ****     default:
 630:Generated_Source\PSoC4/nRF24_NRF_FUNCS.c ****         break;
 631:Generated_Source\PSoC4/nRF24_NRF_FUNCS.c ****     }
 632:Generated_Source\PSoC4/nRF24_NRF_FUNCS.c **** }
 1143              		.loc 1 632 0
 1144              		@ sp needed
 1145 0042 10BD     		pop	{r4, pc}
 1146              	.L68:
 1147              		.align	2
 1148              	.L67:
 1149 0044 00000000 		.word	.L60
 1150              		.cfi_endproc
 1151              	.LFE34:
 1152              		.size	nRF24_setPayloadSize, .-nRF24_setPayloadSize
 1153              		.section	.text.nRF24_getPayloadSize,"ax",%progbits
 1154              		.align	2
 1155              		.global	nRF24_getPayloadSize
 1156              		.code	16
 1157              		.thumb_func
 1158              		.type	nRF24_getPayloadSize, %function
 1159              	nRF24_getPayloadSize:
 1160              	.LFB35:
 633:Generated_Source\PSoC4/nRF24_NRF_FUNCS.c **** 
 634:Generated_Source\PSoC4/nRF24_NRF_FUNCS.c **** /**
 635:Generated_Source\PSoC4/nRF24_NRF_FUNCS.c ****  * Get the payload size of the given pipe.
 636:Generated_Source\PSoC4/nRF24_NRF_FUNCS.c ****  *
 637:Generated_Source\PSoC4/nRF24_NRF_FUNCS.c ****  * @param const NrfDataPipe pipe: Pipe to be read.
 638:Generated_Source\PSoC4/nRF24_NRF_FUNCS.c ****  *
 639:Generated_Source\PSoC4/nRF24_NRF_FUNCS.c ****  * @return uint8_t: Configured payload size of the given pipe.
 640:Generated_Source\PSoC4/nRF24_NRF_FUNCS.c ****  */
 641:Generated_Source\PSoC4/nRF24_NRF_FUNCS.c **** uint8_t nRF24_getPayloadSize(const NrfDataPipe pipe)
 642:Generated_Source\PSoC4/nRF24_NRF_FUNCS.c **** {
 1161              		.loc 1 642 0
 1162              		.cfi_startproc
 1163              		@ args = 0, pretend = 0, frame = 0
 1164              		@ frame_needed = 0, uses_anonymous_args = 0
 1165              	.LVL119:
 1166 0000 10B5     		push	{r4, lr}
 1167              		.cfi_def_cfa_offset 8
 1168              		.cfi_offset 4, -8
 1169              		.cfi_offset 14, -4
 643:Generated_Source\PSoC4/nRF24_NRF_FUNCS.c ****     switch (pipe) {
 1170              		.loc 1 643 0
 1171 0002 0528     		cmp	r0, #5
 1172 0004 1BD8     		bhi	.L78
 1173 0006 8000     		lsls	r0, r0, #2
 1174              	.LVL120:
ARM GAS  C:\Users\Xwx47\AppData\Local\Temp\cc6J2i3F.s 			page 33


 1175 0008 0E4B     		ldr	r3, .L79
 1176 000a 1B58     		ldr	r3, [r3, r0]
 1177 000c 9F46     		mov	pc, r3
 1178              		.section	.rodata
 1179              		.align	2
 1180              	.L72:
 1181 0018 0E000000 		.word	.L71
 1182 001c 16000000 		.word	.L73
 1183 0020 1E000000 		.word	.L74
 1184 0024 26000000 		.word	.L75
 1185 0028 2E000000 		.word	.L76
 1186 002c 36000000 		.word	.L77
 1187              		.section	.text.nRF24_getPayloadSize
 1188              	.L71:
 644:Generated_Source\PSoC4/nRF24_NRF_FUNCS.c ****     case NRF_DATA_PIPE0:
 645:Generated_Source\PSoC4/nRF24_NRF_FUNCS.c ****         return nRF24_readRegister(NRF_RX_PW_P0_REG);
 1189              		.loc 1 645 0
 1190 000e 1120     		movs	r0, #17
 1191 0010 FFF7FEFF 		bl	nRF24_readRegister
 1192              	.LVL121:
 1193 0014 14E0     		b	.L70
 1194              	.L73:
 646:Generated_Source\PSoC4/nRF24_NRF_FUNCS.c ****         break;
 647:Generated_Source\PSoC4/nRF24_NRF_FUNCS.c ****     case NRF_DATA_PIPE1:
 648:Generated_Source\PSoC4/nRF24_NRF_FUNCS.c ****         return nRF24_readRegister(NRF_RX_PW_P1_REG);
 1195              		.loc 1 648 0
 1196 0016 1220     		movs	r0, #18
 1197 0018 FFF7FEFF 		bl	nRF24_readRegister
 1198              	.LVL122:
 1199 001c 10E0     		b	.L70
 1200              	.L74:
 649:Generated_Source\PSoC4/nRF24_NRF_FUNCS.c ****         break;
 650:Generated_Source\PSoC4/nRF24_NRF_FUNCS.c ****     case NRF_DATA_PIPE2:
 651:Generated_Source\PSoC4/nRF24_NRF_FUNCS.c ****         return nRF24_readRegister(NRF_RX_PW_P2_REG);
 1201              		.loc 1 651 0
 1202 001e 1320     		movs	r0, #19
 1203 0020 FFF7FEFF 		bl	nRF24_readRegister
 1204              	.LVL123:
 1205 0024 0CE0     		b	.L70
 1206              	.L75:
 652:Generated_Source\PSoC4/nRF24_NRF_FUNCS.c ****         break;
 653:Generated_Source\PSoC4/nRF24_NRF_FUNCS.c ****     case NRF_DATA_PIPE3:
 654:Generated_Source\PSoC4/nRF24_NRF_FUNCS.c ****         return nRF24_readRegister(NRF_RX_PW_P3_REG);
 1207              		.loc 1 654 0
 1208 0026 1420     		movs	r0, #20
 1209 0028 FFF7FEFF 		bl	nRF24_readRegister
 1210              	.LVL124:
 1211 002c 08E0     		b	.L70
 1212              	.L76:
 655:Generated_Source\PSoC4/nRF24_NRF_FUNCS.c ****         break;
 656:Generated_Source\PSoC4/nRF24_NRF_FUNCS.c ****     case NRF_DATA_PIPE4:
 657:Generated_Source\PSoC4/nRF24_NRF_FUNCS.c ****         return nRF24_readRegister(NRF_RX_PW_P4_REG);
 1213              		.loc 1 657 0
 1214 002e 1520     		movs	r0, #21
 1215 0030 FFF7FEFF 		bl	nRF24_readRegister
 1216              	.LVL125:
 1217 0034 04E0     		b	.L70
ARM GAS  C:\Users\Xwx47\AppData\Local\Temp\cc6J2i3F.s 			page 34


 1218              	.L77:
 658:Generated_Source\PSoC4/nRF24_NRF_FUNCS.c ****         break;
 659:Generated_Source\PSoC4/nRF24_NRF_FUNCS.c ****     case NRF_DATA_PIPE5:
 660:Generated_Source\PSoC4/nRF24_NRF_FUNCS.c ****         return nRF24_readRegister(NRF_RX_PW_P5_REG);
 1219              		.loc 1 660 0
 1220 0036 1620     		movs	r0, #22
 1221 0038 FFF7FEFF 		bl	nRF24_readRegister
 1222              	.LVL126:
 1223 003c 00E0     		b	.L70
 1224              	.LVL127:
 1225              	.L78:
 661:Generated_Source\PSoC4/nRF24_NRF_FUNCS.c ****         break;
 662:Generated_Source\PSoC4/nRF24_NRF_FUNCS.c ****     default:
 663:Generated_Source\PSoC4/nRF24_NRF_FUNCS.c ****         return 0;
 1226              		.loc 1 663 0
 1227 003e 0020     		movs	r0, #0
 1228              	.LVL128:
 1229              	.L70:
 664:Generated_Source\PSoC4/nRF24_NRF_FUNCS.c ****     }
 665:Generated_Source\PSoC4/nRF24_NRF_FUNCS.c **** }
 1230              		.loc 1 665 0
 1231              		@ sp needed
 1232 0040 10BD     		pop	{r4, pc}
 1233              	.L80:
 1234 0042 C046     		.align	2
 1235              	.L79:
 1236 0044 18000000 		.word	.L72
 1237              		.cfi_endproc
 1238              	.LFE35:
 1239              		.size	nRF24_getPayloadSize, .-nRF24_getPayloadSize
 1240              		.section	.text.nRF24_enableDynamicPayload,"ax",%progbits
 1241              		.align	2
 1242              		.global	nRF24_enableDynamicPayload
 1243              		.code	16
 1244              		.thumb_func
 1245              		.type	nRF24_enableDynamicPayload, %function
 1246              	nRF24_enableDynamicPayload:
 1247              	.LFB37:
 666:Generated_Source\PSoC4/nRF24_NRF_FUNCS.c **** 
 667:Generated_Source\PSoC4/nRF24_NRF_FUNCS.c **** /**
 668:Generated_Source\PSoC4/nRF24_NRF_FUNCS.c ****  * @brief Reuse last transmitted payload.
 669:Generated_Source\PSoC4/nRF24_NRF_FUNCS.c ****  *
 670:Generated_Source\PSoC4/nRF24_NRF_FUNCS.c ****  * This function issue the command ReuseTxPayload and then toggle the CE pin
 671:Generated_Source\PSoC4/nRF24_NRF_FUNCS.c ****  * to transmit the last transmitted payload.
 672:Generated_Source\PSoC4/nRF24_NRF_FUNCS.c ****  */
 673:Generated_Source\PSoC4/nRF24_NRF_FUNCS.c **** void nRF24_PTX_reuseLastTransmittedPayload(void)
 674:Generated_Source\PSoC4/nRF24_NRF_FUNCS.c **** {
 675:Generated_Source\PSoC4/nRF24_NRF_FUNCS.c ****     nRF24_reuseTxPayloadCmd();
 676:Generated_Source\PSoC4/nRF24_NRF_FUNCS.c ****     nRF24_transmitPulse();
 677:Generated_Source\PSoC4/nRF24_NRF_FUNCS.c **** }
 678:Generated_Source\PSoC4/nRF24_NRF_FUNCS.c **** 
 679:Generated_Source\PSoC4/nRF24_NRF_FUNCS.c **** /**
 680:Generated_Source\PSoC4/nRF24_NRF_FUNCS.c ****  * @brief Enable dynamic payload on the given pipe.
 681:Generated_Source\PSoC4/nRF24_NRF_FUNCS.c ****  *
 682:Generated_Source\PSoC4/nRF24_NRF_FUNCS.c ****  * @param const NrfDataPipe pipe:
 683:Generated_Source\PSoC4/nRF24_NRF_FUNCS.c ****  */
 684:Generated_Source\PSoC4/nRF24_NRF_FUNCS.c **** void nRF24_enableDynamicPayload(const NrfDataPipe pipe)
ARM GAS  C:\Users\Xwx47\AppData\Local\Temp\cc6J2i3F.s 			page 35


 685:Generated_Source\PSoC4/nRF24_NRF_FUNCS.c **** {
 1248              		.loc 1 685 0
 1249              		.cfi_startproc
 1250              		@ args = 0, pretend = 0, frame = 0
 1251              		@ frame_needed = 0, uses_anonymous_args = 0
 1252              	.LVL129:
 1253 0000 10B5     		push	{r4, lr}
 1254              		.cfi_def_cfa_offset 8
 1255              		.cfi_offset 4, -8
 1256              		.cfi_offset 14, -4
 1257 0002 0400     		movs	r4, r0
 686:Generated_Source\PSoC4/nRF24_NRF_FUNCS.c ****     nRF24_setBit(NRF_EN_AA_REG, pipe);
 1258              		.loc 1 686 0
 1259 0004 0100     		movs	r1, r0
 1260 0006 0120     		movs	r0, #1
 1261              	.LVL130:
 1262 0008 FFF7FEFF 		bl	nRF24_setBit
 1263              	.LVL131:
 687:Generated_Source\PSoC4/nRF24_NRF_FUNCS.c ****     nRF24_setBit(NRF_FEATURE_REG, NRF_FEATURE_EN_ACK_PAY);
 1264              		.loc 1 687 0
 1265 000c 0121     		movs	r1, #1
 1266 000e 1D20     		movs	r0, #29
 1267 0010 FFF7FEFF 		bl	nRF24_setBit
 1268              	.LVL132:
 688:Generated_Source\PSoC4/nRF24_NRF_FUNCS.c ****     nRF24_setBit(NRF_FEATURE_REG, NRF_FEATURE_EN_DPL);
 1269              		.loc 1 688 0
 1270 0014 0221     		movs	r1, #2
 1271 0016 1D20     		movs	r0, #29
 1272 0018 FFF7FEFF 		bl	nRF24_setBit
 1273              	.LVL133:
 689:Generated_Source\PSoC4/nRF24_NRF_FUNCS.c ****     nRF24_setBit(NRF_DYNPD_REG, pipe);
 1274              		.loc 1 689 0
 1275 001c 2100     		movs	r1, r4
 1276 001e 1C20     		movs	r0, #28
 1277 0020 FFF7FEFF 		bl	nRF24_setBit
 1278              	.LVL134:
 690:Generated_Source\PSoC4/nRF24_NRF_FUNCS.c **** }
 1279              		.loc 1 690 0
 1280              		@ sp needed
 1281 0024 10BD     		pop	{r4, pc}
 1282              		.cfi_endproc
 1283              	.LFE37:
 1284              		.size	nRF24_enableDynamicPayload, .-nRF24_enableDynamicPayload
 1285 0026 C046     		.section	.text.nRF24_disableDynamicPayload,"ax",%progbits
 1286              		.align	2
 1287              		.global	nRF24_disableDynamicPayload
 1288              		.code	16
 1289              		.thumb_func
 1290              		.type	nRF24_disableDynamicPayload, %function
 1291              	nRF24_disableDynamicPayload:
 1292              	.LFB38:
 691:Generated_Source\PSoC4/nRF24_NRF_FUNCS.c **** 
 692:Generated_Source\PSoC4/nRF24_NRF_FUNCS.c **** /**
 693:Generated_Source\PSoC4/nRF24_NRF_FUNCS.c ****  * @brief Disable dynamic payload on the given pipe.
 694:Generated_Source\PSoC4/nRF24_NRF_FUNCS.c ****  *
 695:Generated_Source\PSoC4/nRF24_NRF_FUNCS.c ****  * @param const NrfDataPipe pipe:
 696:Generated_Source\PSoC4/nRF24_NRF_FUNCS.c ****  */
ARM GAS  C:\Users\Xwx47\AppData\Local\Temp\cc6J2i3F.s 			page 36


 697:Generated_Source\PSoC4/nRF24_NRF_FUNCS.c **** void nRF24_disableDynamicPayload(const NrfDataPipe pipe)
 698:Generated_Source\PSoC4/nRF24_NRF_FUNCS.c **** {
 1293              		.loc 1 698 0
 1294              		.cfi_startproc
 1295              		@ args = 0, pretend = 0, frame = 0
 1296              		@ frame_needed = 0, uses_anonymous_args = 0
 1297              	.LVL135:
 1298 0000 10B5     		push	{r4, lr}
 1299              		.cfi_def_cfa_offset 8
 1300              		.cfi_offset 4, -8
 1301              		.cfi_offset 14, -4
 1302 0002 0400     		movs	r4, r0
 699:Generated_Source\PSoC4/nRF24_NRF_FUNCS.c ****     nRF24_clearBit(NRF_EN_AA_REG, pipe);
 1303              		.loc 1 699 0
 1304 0004 0100     		movs	r1, r0
 1305 0006 0120     		movs	r0, #1
 1306              	.LVL136:
 1307 0008 FFF7FEFF 		bl	nRF24_clearBit
 1308              	.LVL137:
 700:Generated_Source\PSoC4/nRF24_NRF_FUNCS.c ****     nRF24_clearBit(NRF_FEATURE_REG, NRF_FEATURE_EN_ACK_PAY);
 1309              		.loc 1 700 0
 1310 000c 0121     		movs	r1, #1
 1311 000e 1D20     		movs	r0, #29
 1312 0010 FFF7FEFF 		bl	nRF24_clearBit
 1313              	.LVL138:
 701:Generated_Source\PSoC4/nRF24_NRF_FUNCS.c ****     nRF24_clearBit(NRF_FEATURE_REG, NRF_FEATURE_EN_DPL);
 1314              		.loc 1 701 0
 1315 0014 0221     		movs	r1, #2
 1316 0016 1D20     		movs	r0, #29
 1317 0018 FFF7FEFF 		bl	nRF24_clearBit
 1318              	.LVL139:
 702:Generated_Source\PSoC4/nRF24_NRF_FUNCS.c ****     nRF24_clearBit(NRF_DYNPD_REG, pipe);
 1319              		.loc 1 702 0
 1320 001c 2100     		movs	r1, r4
 1321 001e 1C20     		movs	r0, #28
 1322 0020 FFF7FEFF 		bl	nRF24_clearBit
 1323              	.LVL140:
 703:Generated_Source\PSoC4/nRF24_NRF_FUNCS.c **** }
 1324              		.loc 1 703 0
 1325              		@ sp needed
 1326 0024 10BD     		pop	{r4, pc}
 1327              		.cfi_endproc
 1328              	.LFE38:
 1329              		.size	nRF24_disableDynamicPayload, .-nRF24_disableDynamicPayload
 1330 0026 C046     		.section	.text.nRF24_enableDynamicPayloadLength,"ax",%progbits
 1331              		.align	2
 1332              		.global	nRF24_enableDynamicPayloadLength
 1333              		.code	16
 1334              		.thumb_func
 1335              		.type	nRF24_enableDynamicPayloadLength, %function
 1336              	nRF24_enableDynamicPayloadLength:
 1337              	.LFB39:
 704:Generated_Source\PSoC4/nRF24_NRF_FUNCS.c **** 
 705:Generated_Source\PSoC4/nRF24_NRF_FUNCS.c **** /**
 706:Generated_Source\PSoC4/nRF24_NRF_FUNCS.c ****  * @brief Enable dinamic payload length.
 707:Generated_Source\PSoC4/nRF24_NRF_FUNCS.c ****  */
 708:Generated_Source\PSoC4/nRF24_NRF_FUNCS.c **** void nRF24_enableDynamicPayloadLength(void)
ARM GAS  C:\Users\Xwx47\AppData\Local\Temp\cc6J2i3F.s 			page 37


 709:Generated_Source\PSoC4/nRF24_NRF_FUNCS.c **** {
 1338              		.loc 1 709 0
 1339              		.cfi_startproc
 1340              		@ args = 0, pretend = 0, frame = 0
 1341              		@ frame_needed = 0, uses_anonymous_args = 0
 1342 0000 10B5     		push	{r4, lr}
 1343              		.cfi_def_cfa_offset 8
 1344              		.cfi_offset 4, -8
 1345              		.cfi_offset 14, -4
 710:Generated_Source\PSoC4/nRF24_NRF_FUNCS.c ****     nRF24_setBit(NRF_FEATURE_REG, NRF_FEATURE_EN_DPL);
 1346              		.loc 1 710 0
 1347 0002 0221     		movs	r1, #2
 1348 0004 1D20     		movs	r0, #29
 1349 0006 FFF7FEFF 		bl	nRF24_setBit
 1350              	.LVL141:
 711:Generated_Source\PSoC4/nRF24_NRF_FUNCS.c **** }
 1351              		.loc 1 711 0
 1352              		@ sp needed
 1353 000a 10BD     		pop	{r4, pc}
 1354              		.cfi_endproc
 1355              	.LFE39:
 1356              		.size	nRF24_enableDynamicPayloadLength, .-nRF24_enableDynamicPayloadLength
 1357              		.section	.text.nRF24_disableDynamicPayloadLength,"ax",%progbits
 1358              		.align	2
 1359              		.global	nRF24_disableDynamicPayloadLength
 1360              		.code	16
 1361              		.thumb_func
 1362              		.type	nRF24_disableDynamicPayloadLength, %function
 1363              	nRF24_disableDynamicPayloadLength:
 1364              	.LFB40:
 712:Generated_Source\PSoC4/nRF24_NRF_FUNCS.c **** 
 713:Generated_Source\PSoC4/nRF24_NRF_FUNCS.c **** /**
 714:Generated_Source\PSoC4/nRF24_NRF_FUNCS.c ****  * @brief Disable dynamic payload length.
 715:Generated_Source\PSoC4/nRF24_NRF_FUNCS.c ****  */
 716:Generated_Source\PSoC4/nRF24_NRF_FUNCS.c **** void nRF24_disableDynamicPayloadLength(void)
 717:Generated_Source\PSoC4/nRF24_NRF_FUNCS.c **** {
 1365              		.loc 1 717 0
 1366              		.cfi_startproc
 1367              		@ args = 0, pretend = 0, frame = 0
 1368              		@ frame_needed = 0, uses_anonymous_args = 0
 1369 0000 10B5     		push	{r4, lr}
 1370              		.cfi_def_cfa_offset 8
 1371              		.cfi_offset 4, -8
 1372              		.cfi_offset 14, -4
 718:Generated_Source\PSoC4/nRF24_NRF_FUNCS.c ****     nRF24_clearBit(NRF_FEATURE_REG, NRF_FEATURE_EN_DPL);
 1373              		.loc 1 718 0
 1374 0002 0221     		movs	r1, #2
 1375 0004 1D20     		movs	r0, #29
 1376 0006 FFF7FEFF 		bl	nRF24_clearBit
 1377              	.LVL142:
 719:Generated_Source\PSoC4/nRF24_NRF_FUNCS.c **** }
 1378              		.loc 1 719 0
 1379              		@ sp needed
 1380 000a 10BD     		pop	{r4, pc}
 1381              		.cfi_endproc
 1382              	.LFE40:
 1383              		.size	nRF24_disableDynamicPayloadLength, .-nRF24_disableDynamicPayloadLength
ARM GAS  C:\Users\Xwx47\AppData\Local\Temp\cc6J2i3F.s 			page 38


 1384              		.section	.text.nRF24_enablePayloadWithACK,"ax",%progbits
 1385              		.align	2
 1386              		.global	nRF24_enablePayloadWithACK
 1387              		.code	16
 1388              		.thumb_func
 1389              		.type	nRF24_enablePayloadWithACK, %function
 1390              	nRF24_enablePayloadWithACK:
 1391              	.LFB41:
 720:Generated_Source\PSoC4/nRF24_NRF_FUNCS.c **** 
 721:Generated_Source\PSoC4/nRF24_NRF_FUNCS.c **** /**
 722:Generated_Source\PSoC4/nRF24_NRF_FUNCS.c ****  * @brief Enable payload with ACK.
 723:Generated_Source\PSoC4/nRF24_NRF_FUNCS.c ****  */
 724:Generated_Source\PSoC4/nRF24_NRF_FUNCS.c **** void nRF24_enablePayloadWithACK(void)
 725:Generated_Source\PSoC4/nRF24_NRF_FUNCS.c **** {
 1392              		.loc 1 725 0
 1393              		.cfi_startproc
 1394              		@ args = 0, pretend = 0, frame = 0
 1395              		@ frame_needed = 0, uses_anonymous_args = 0
 1396 0000 10B5     		push	{r4, lr}
 1397              		.cfi_def_cfa_offset 8
 1398              		.cfi_offset 4, -8
 1399              		.cfi_offset 14, -4
 726:Generated_Source\PSoC4/nRF24_NRF_FUNCS.c ****     nRF24_setBit(NRF_FEATURE_REG, NRF_FEATURE_EN_ACK_PAY);
 1400              		.loc 1 726 0
 1401 0002 0121     		movs	r1, #1
 1402 0004 1D20     		movs	r0, #29
 1403 0006 FFF7FEFF 		bl	nRF24_setBit
 1404              	.LVL143:
 727:Generated_Source\PSoC4/nRF24_NRF_FUNCS.c **** }
 1405              		.loc 1 727 0
 1406              		@ sp needed
 1407 000a 10BD     		pop	{r4, pc}
 1408              		.cfi_endproc
 1409              	.LFE41:
 1410              		.size	nRF24_enablePayloadWithACK, .-nRF24_enablePayloadWithACK
 1411              		.section	.text.nRF24_disablePayloadWithACK,"ax",%progbits
 1412              		.align	2
 1413              		.global	nRF24_disablePayloadWithACK
 1414              		.code	16
 1415              		.thumb_func
 1416              		.type	nRF24_disablePayloadWithACK, %function
 1417              	nRF24_disablePayloadWithACK:
 1418              	.LFB42:
 728:Generated_Source\PSoC4/nRF24_NRF_FUNCS.c **** 
 729:Generated_Source\PSoC4/nRF24_NRF_FUNCS.c **** /**
 730:Generated_Source\PSoC4/nRF24_NRF_FUNCS.c ****  * @brief Disable Payload with ACK.
 731:Generated_Source\PSoC4/nRF24_NRF_FUNCS.c ****  */
 732:Generated_Source\PSoC4/nRF24_NRF_FUNCS.c **** void nRF24_disablePayloadWithACK(void)
 733:Generated_Source\PSoC4/nRF24_NRF_FUNCS.c **** {
 1419              		.loc 1 733 0
 1420              		.cfi_startproc
 1421              		@ args = 0, pretend = 0, frame = 0
 1422              		@ frame_needed = 0, uses_anonymous_args = 0
 1423 0000 10B5     		push	{r4, lr}
 1424              		.cfi_def_cfa_offset 8
 1425              		.cfi_offset 4, -8
 1426              		.cfi_offset 14, -4
ARM GAS  C:\Users\Xwx47\AppData\Local\Temp\cc6J2i3F.s 			page 39


 734:Generated_Source\PSoC4/nRF24_NRF_FUNCS.c ****     nRF24_clearBit(NRF_FEATURE_REG, NRF_FEATURE_EN_ACK_PAY);
 1427              		.loc 1 734 0
 1428 0002 0121     		movs	r1, #1
 1429 0004 1D20     		movs	r0, #29
 1430 0006 FFF7FEFF 		bl	nRF24_clearBit
 1431              	.LVL144:
 735:Generated_Source\PSoC4/nRF24_NRF_FUNCS.c **** }
 1432              		.loc 1 735 0
 1433              		@ sp needed
 1434 000a 10BD     		pop	{r4, pc}
 1435              		.cfi_endproc
 1436              	.LFE42:
 1437              		.size	nRF24_disablePayloadWithACK, .-nRF24_disablePayloadWithACK
 1438              		.section	.text.nRF24_enablePayloadWithNoACKCmd,"ax",%progbits
 1439              		.align	2
 1440              		.global	nRF24_enablePayloadWithNoACKCmd
 1441              		.code	16
 1442              		.thumb_func
 1443              		.type	nRF24_enablePayloadWithNoACKCmd, %function
 1444              	nRF24_enablePayloadWithNoACKCmd:
 1445              	.LFB43:
 736:Generated_Source\PSoC4/nRF24_NRF_FUNCS.c **** 
 737:Generated_Source\PSoC4/nRF24_NRF_FUNCS.c **** /**
 738:Generated_Source\PSoC4/nRF24_NRF_FUNCS.c ****  * @brief Enable dynamic payload length.
 739:Generated_Source\PSoC4/nRF24_NRF_FUNCS.c ****  */
 740:Generated_Source\PSoC4/nRF24_NRF_FUNCS.c **** void nRF24_enablePayloadWithNoACKCmd(void)
 741:Generated_Source\PSoC4/nRF24_NRF_FUNCS.c **** {
 1446              		.loc 1 741 0
 1447              		.cfi_startproc
 1448              		@ args = 0, pretend = 0, frame = 0
 1449              		@ frame_needed = 0, uses_anonymous_args = 0
 1450 0000 10B5     		push	{r4, lr}
 1451              		.cfi_def_cfa_offset 8
 1452              		.cfi_offset 4, -8
 1453              		.cfi_offset 14, -4
 742:Generated_Source\PSoC4/nRF24_NRF_FUNCS.c ****     nRF24_setBit(NRF_FEATURE_REG, NRF_FEATURE_EN_DYN_ACK);
 1454              		.loc 1 742 0
 1455 0002 0021     		movs	r1, #0
 1456 0004 1D20     		movs	r0, #29
 1457 0006 FFF7FEFF 		bl	nRF24_setBit
 1458              	.LVL145:
 743:Generated_Source\PSoC4/nRF24_NRF_FUNCS.c **** }
 1459              		.loc 1 743 0
 1460              		@ sp needed
 1461 000a 10BD     		pop	{r4, pc}
 1462              		.cfi_endproc
 1463              	.LFE43:
 1464              		.size	nRF24_enablePayloadWithNoACKCmd, .-nRF24_enablePayloadWithNoACKCmd
 1465              		.section	.text.nRF24_disablePayloadWithNoACKCmd,"ax",%progbits
 1466              		.align	2
 1467              		.global	nRF24_disablePayloadWithNoACKCmd
 1468              		.code	16
 1469              		.thumb_func
 1470              		.type	nRF24_disablePayloadWithNoACKCmd, %function
 1471              	nRF24_disablePayloadWithNoACKCmd:
 1472              	.LFB44:
 744:Generated_Source\PSoC4/nRF24_NRF_FUNCS.c **** 
ARM GAS  C:\Users\Xwx47\AppData\Local\Temp\cc6J2i3F.s 			page 40


 745:Generated_Source\PSoC4/nRF24_NRF_FUNCS.c **** /**
 746:Generated_Source\PSoC4/nRF24_NRF_FUNCS.c ****  * @brief Disable Payload with no ACK.
 747:Generated_Source\PSoC4/nRF24_NRF_FUNCS.c ****  */
 748:Generated_Source\PSoC4/nRF24_NRF_FUNCS.c **** void nRF24_disablePayloadWithNoACKCmd(void)
 749:Generated_Source\PSoC4/nRF24_NRF_FUNCS.c **** {
 1473              		.loc 1 749 0
 1474              		.cfi_startproc
 1475              		@ args = 0, pretend = 0, frame = 0
 1476              		@ frame_needed = 0, uses_anonymous_args = 0
 1477 0000 10B5     		push	{r4, lr}
 1478              		.cfi_def_cfa_offset 8
 1479              		.cfi_offset 4, -8
 1480              		.cfi_offset 14, -4
 750:Generated_Source\PSoC4/nRF24_NRF_FUNCS.c ****     nRF24_clearBit(NRF_FEATURE_REG, NRF_FEATURE_EN_DYN_ACK);
 1481              		.loc 1 750 0
 1482 0002 0021     		movs	r1, #0
 1483 0004 1D20     		movs	r0, #29
 1484 0006 FFF7FEFF 		bl	nRF24_clearBit
 1485              	.LVL146:
 751:Generated_Source\PSoC4/nRF24_NRF_FUNCS.c **** }
 1486              		.loc 1 751 0
 1487              		@ sp needed
 1488 000a 10BD     		pop	{r4, pc}
 1489              		.cfi_endproc
 1490              	.LFE44:
 1491              		.size	nRF24_disablePayloadWithNoACKCmd, .-nRF24_disablePayloadWithNoACKCmd
 1492              		.section	.text.nRF24_listen,"ax",%progbits
 1493              		.align	2
 1494              		.global	nRF24_listen
 1495              		.code	16
 1496              		.thumb_func
 1497              		.type	nRF24_listen, %function
 1498              	nRF24_listen:
 1499              	.LFB45:
 752:Generated_Source\PSoC4/nRF24_NRF_FUNCS.c **** 
 753:Generated_Source\PSoC4/nRF24_NRF_FUNCS.c **** /**
 754:Generated_Source\PSoC4/nRF24_NRF_FUNCS.c ****  * @brief Set the value of the CE pin to listen or not.
 755:Generated_Source\PSoC4/nRF24_NRF_FUNCS.c ****  *
 756:Generated_Source\PSoC4/nRF24_NRF_FUNCS.c ****  * @param const bool listen: If @listen is set to true, then the radio will
 757:Generated_Source\PSoC4/nRF24_NRF_FUNCS.c ****  * listen, if set to false the radio will stop listening.
 758:Generated_Source\PSoC4/nRF24_NRF_FUNCS.c ****  */
 759:Generated_Source\PSoC4/nRF24_NRF_FUNCS.c **** void nRF24_listen(const bool listen)
 760:Generated_Source\PSoC4/nRF24_NRF_FUNCS.c **** {
 1500              		.loc 1 760 0
 1501              		.cfi_startproc
 1502              		@ args = 0, pretend = 0, frame = 0
 1503              		@ frame_needed = 0, uses_anonymous_args = 0
 1504              	.LVL147:
 1505 0000 10B5     		push	{r4, lr}
 1506              		.cfi_def_cfa_offset 8
 1507              		.cfi_offset 4, -8
 1508              		.cfi_offset 14, -4
 761:Generated_Source\PSoC4/nRF24_NRF_FUNCS.c ****     listen ? CE_Write(1) : CE_Write(0);
 1509              		.loc 1 761 0
 1510 0002 0028     		cmp	r0, #0
 1511 0004 03D0     		beq	.L90
 1512              		.loc 1 761 0 is_stmt 0 discriminator 1
ARM GAS  C:\Users\Xwx47\AppData\Local\Temp\cc6J2i3F.s 			page 41


 1513 0006 0120     		movs	r0, #1
 1514              	.LVL148:
 1515 0008 FFF7FEFF 		bl	CE_Write
 1516              	.LVL149:
 1517 000c 02E0     		b	.L89
 1518              	.LVL150:
 1519              	.L90:
 1520              		.loc 1 761 0 discriminator 2
 1521 000e 0020     		movs	r0, #0
 1522              	.LVL151:
 1523 0010 FFF7FEFF 		bl	CE_Write
 1524              	.LVL152:
 1525              	.L89:
 762:Generated_Source\PSoC4/nRF24_NRF_FUNCS.c **** }
 1526              		.loc 1 762 0 is_stmt 1
 1527              		@ sp needed
 1528 0014 10BD     		pop	{r4, pc}
 1529              		.cfi_endproc
 1530              	.LFE45:
 1531              		.size	nRF24_listen, .-nRF24_listen
 1532 0016 C046     		.section	.text.nRF24_setStandbyIMode,"ax",%progbits
 1533              		.align	2
 1534              		.global	nRF24_setStandbyIMode
 1535              		.code	16
 1536              		.thumb_func
 1537              		.type	nRF24_setStandbyIMode, %function
 1538              	nRF24_setStandbyIMode:
 1539              	.LFB11:
 234:Generated_Source\PSoC4/nRF24_NRF_FUNCS.c ****     nRF24_listen(false);
 1540              		.loc 1 234 0
 1541              		.cfi_startproc
 1542              		@ args = 0, pretend = 0, frame = 0
 1543              		@ frame_needed = 0, uses_anonymous_args = 0
 1544 0000 10B5     		push	{r4, lr}
 1545              		.cfi_def_cfa_offset 8
 1546              		.cfi_offset 4, -8
 1547              		.cfi_offset 14, -4
 235:Generated_Source\PSoC4/nRF24_NRF_FUNCS.c ****     nRF24_clearBit(NRF_CONFIG_REG, NRF_CONFIG_PWR_UP);
 1548              		.loc 1 235 0
 1549 0002 0020     		movs	r0, #0
 1550 0004 FFF7FEFF 		bl	nRF24_listen
 1551              	.LVL153:
 236:Generated_Source\PSoC4/nRF24_NRF_FUNCS.c **** }
 1552              		.loc 1 236 0
 1553 0008 0121     		movs	r1, #1
 1554 000a 0020     		movs	r0, #0
 1555 000c FFF7FEFF 		bl	nRF24_clearBit
 1556              	.LVL154:
 237:Generated_Source\PSoC4/nRF24_NRF_FUNCS.c **** 
 1557              		.loc 1 237 0
 1558              		@ sp needed
 1559 0010 10BD     		pop	{r4, pc}
 1560              		.cfi_endproc
 1561              	.LFE11:
 1562              		.size	nRF24_setStandbyIMode, .-nRF24_setStandbyIMode
 1563 0012 C046     		.section	.text.nRF24_setStandbyIIMode,"ax",%progbits
 1564              		.align	2
ARM GAS  C:\Users\Xwx47\AppData\Local\Temp\cc6J2i3F.s 			page 42


 1565              		.global	nRF24_setStandbyIIMode
 1566              		.code	16
 1567              		.thumb_func
 1568              		.type	nRF24_setStandbyIIMode, %function
 1569              	nRF24_setStandbyIIMode:
 1570              	.LFB12:
 249:Generated_Source\PSoC4/nRF24_NRF_FUNCS.c ****     nRF24_listen(true);
 1571              		.loc 1 249 0
 1572              		.cfi_startproc
 1573              		@ args = 0, pretend = 0, frame = 0
 1574              		@ frame_needed = 0, uses_anonymous_args = 0
 1575 0000 10B5     		push	{r4, lr}
 1576              		.cfi_def_cfa_offset 8
 1577              		.cfi_offset 4, -8
 1578              		.cfi_offset 14, -4
 250:Generated_Source\PSoC4/nRF24_NRF_FUNCS.c ****     nRF24_setBit(NRF_CONFIG_REG, NRF_CONFIG_PWR_UP);
 1579              		.loc 1 250 0
 1580 0002 0120     		movs	r0, #1
 1581 0004 FFF7FEFF 		bl	nRF24_listen
 1582              	.LVL155:
 251:Generated_Source\PSoC4/nRF24_NRF_FUNCS.c **** }
 1583              		.loc 1 251 0
 1584 0008 0121     		movs	r1, #1
 1585 000a 0020     		movs	r0, #0
 1586 000c FFF7FEFF 		bl	nRF24_setBit
 1587              	.LVL156:
 252:Generated_Source\PSoC4/nRF24_NRF_FUNCS.c **** 
 1588              		.loc 1 252 0
 1589              		@ sp needed
 1590 0010 10BD     		pop	{r4, pc}
 1591              		.cfi_endproc
 1592              	.LFE12:
 1593              		.size	nRF24_setStandbyIIMode, .-nRF24_setStandbyIIMode
 1594 0012 C046     		.section	.text.nRF24_startListening,"ax",%progbits
 1595              		.align	2
 1596              		.global	nRF24_startListening
 1597              		.code	16
 1598              		.thumb_func
 1599              		.type	nRF24_startListening, %function
 1600              	nRF24_startListening:
 1601              	.LFB46:
 763:Generated_Source\PSoC4/nRF24_NRF_FUNCS.c **** 
 764:Generated_Source\PSoC4/nRF24_NRF_FUNCS.c **** /**
 765:Generated_Source\PSoC4/nRF24_NRF_FUNCS.c ****  * @brief The nRF24 radio will start listening.
 766:Generated_Source\PSoC4/nRF24_NRF_FUNCS.c ****  *
 767:Generated_Source\PSoC4/nRF24_NRF_FUNCS.c ****  * This function set the pin CE to logic high, this enable the radio for
 768:Generated_Source\PSoC4/nRF24_NRF_FUNCS.c ****  * listening.
 769:Generated_Source\PSoC4/nRF24_NRF_FUNCS.c ****  */
 770:Generated_Source\PSoC4/nRF24_NRF_FUNCS.c **** void nRF24_startListening(void) {
 1602              		.loc 1 770 0
 1603              		.cfi_startproc
 1604              		@ args = 0, pretend = 0, frame = 0
 1605              		@ frame_needed = 0, uses_anonymous_args = 0
 1606 0000 10B5     		push	{r4, lr}
 1607              		.cfi_def_cfa_offset 8
 1608              		.cfi_offset 4, -8
 1609              		.cfi_offset 14, -4
ARM GAS  C:\Users\Xwx47\AppData\Local\Temp\cc6J2i3F.s 			page 43


 771:Generated_Source\PSoC4/nRF24_NRF_FUNCS.c ****     nRF24_listen(true);
 1610              		.loc 1 771 0
 1611 0002 0120     		movs	r0, #1
 1612 0004 FFF7FEFF 		bl	nRF24_listen
 1613              	.LVL157:
 772:Generated_Source\PSoC4/nRF24_NRF_FUNCS.c **** }
 1614              		.loc 1 772 0
 1615              		@ sp needed
 1616 0008 10BD     		pop	{r4, pc}
 1617              		.cfi_endproc
 1618              	.LFE46:
 1619              		.size	nRF24_startListening, .-nRF24_startListening
 1620 000a C046     		.section	.text.nRF24_stopListening,"ax",%progbits
 1621              		.align	2
 1622              		.global	nRF24_stopListening
 1623              		.code	16
 1624              		.thumb_func
 1625              		.type	nRF24_stopListening, %function
 1626              	nRF24_stopListening:
 1627              	.LFB47:
 773:Generated_Source\PSoC4/nRF24_NRF_FUNCS.c **** 
 774:Generated_Source\PSoC4/nRF24_NRF_FUNCS.c **** /**
 775:Generated_Source\PSoC4/nRF24_NRF_FUNCS.c ****  * @brief The nRF24 radio will stop listening.
 776:Generated_Source\PSoC4/nRF24_NRF_FUNCS.c ****  *
 777:Generated_Source\PSoC4/nRF24_NRF_FUNCS.c ****  * This function the pin CE of the nRF24 radio will be set to logic low,
 778:Generated_Source\PSoC4/nRF24_NRF_FUNCS.c ****  * this disable the radio for listening.
 779:Generated_Source\PSoC4/nRF24_NRF_FUNCS.c ****  */
 780:Generated_Source\PSoC4/nRF24_NRF_FUNCS.c **** void nRF24_stopListening(void) {
 1628              		.loc 1 780 0
 1629              		.cfi_startproc
 1630              		@ args = 0, pretend = 0, frame = 0
 1631              		@ frame_needed = 0, uses_anonymous_args = 0
 1632 0000 10B5     		push	{r4, lr}
 1633              		.cfi_def_cfa_offset 8
 1634              		.cfi_offset 4, -8
 1635              		.cfi_offset 14, -4
 781:Generated_Source\PSoC4/nRF24_NRF_FUNCS.c ****     nRF24_listen(false);
 1636              		.loc 1 781 0
 1637 0002 0020     		movs	r0, #0
 1638 0004 FFF7FEFF 		bl	nRF24_listen
 1639              	.LVL158:
 782:Generated_Source\PSoC4/nRF24_NRF_FUNCS.c **** }
 1640              		.loc 1 782 0
 1641              		@ sp needed
 1642 0008 10BD     		pop	{r4, pc}
 1643              		.cfi_endproc
 1644              	.LFE47:
 1645              		.size	nRF24_stopListening, .-nRF24_stopListening
 1646 000a C046     		.section	.text.nRF24_transmitPulse,"ax",%progbits
 1647              		.align	2
 1648              		.global	nRF24_transmitPulse
 1649              		.code	16
 1650              		.thumb_func
 1651              		.type	nRF24_transmitPulse, %function
 1652              	nRF24_transmitPulse:
 1653              	.LFB48:
 783:Generated_Source\PSoC4/nRF24_NRF_FUNCS.c **** 
ARM GAS  C:\Users\Xwx47\AppData\Local\Temp\cc6J2i3F.s 			page 44


 784:Generated_Source\PSoC4/nRF24_NRF_FUNCS.c **** /**
 785:Generated_Source\PSoC4/nRF24_NRF_FUNCS.c ****  * @brief Transmit pulse on the CE pin.
 786:Generated_Source\PSoC4/nRF24_NRF_FUNCS.c ****  *
 787:Generated_Source\PSoC4/nRF24_NRF_FUNCS.c ****  * With this function the CE pin of the nRF24 radio will have a pulse of 15us,
 788:Generated_Source\PSoC4/nRF24_NRF_FUNCS.c ****  * this pulse trigger a transmission of the content of the TX FIFO.
 789:Generated_Source\PSoC4/nRF24_NRF_FUNCS.c ****  */
 790:Generated_Source\PSoC4/nRF24_NRF_FUNCS.c **** void nRF24_transmitPulse(void)
 791:Generated_Source\PSoC4/nRF24_NRF_FUNCS.c **** {
 1654              		.loc 1 791 0
 1655              		.cfi_startproc
 1656              		@ args = 0, pretend = 0, frame = 0
 1657              		@ frame_needed = 0, uses_anonymous_args = 0
 1658 0000 10B5     		push	{r4, lr}
 1659              		.cfi_def_cfa_offset 8
 1660              		.cfi_offset 4, -8
 1661              		.cfi_offset 14, -4
 792:Generated_Source\PSoC4/nRF24_NRF_FUNCS.c ****     CE_Write(1);
 1662              		.loc 1 792 0
 1663 0002 0120     		movs	r0, #1
 1664 0004 FFF7FEFF 		bl	CE_Write
 1665              	.LVL159:
 793:Generated_Source\PSoC4/nRF24_NRF_FUNCS.c ****     CyDelayUs(15);
 1666              		.loc 1 793 0
 1667 0008 0F20     		movs	r0, #15
 1668 000a FFF7FEFF 		bl	CyDelayUs
 1669              	.LVL160:
 794:Generated_Source\PSoC4/nRF24_NRF_FUNCS.c ****     CE_Write(0);
 1670              		.loc 1 794 0
 1671 000e 0020     		movs	r0, #0
 1672 0010 FFF7FEFF 		bl	CE_Write
 1673              	.LVL161:
 795:Generated_Source\PSoC4/nRF24_NRF_FUNCS.c **** }
 1674              		.loc 1 795 0
 1675              		@ sp needed
 1676 0014 10BD     		pop	{r4, pc}
 1677              		.cfi_endproc
 1678              	.LFE48:
 1679              		.size	nRF24_transmitPulse, .-nRF24_transmitPulse
 1680 0016 C046     		.section	.text.nRF24_PTX_reuseLastTransmittedPayload,"ax",%progbits
 1681              		.align	2
 1682              		.global	nRF24_PTX_reuseLastTransmittedPayload
 1683              		.code	16
 1684              		.thumb_func
 1685              		.type	nRF24_PTX_reuseLastTransmittedPayload, %function
 1686              	nRF24_PTX_reuseLastTransmittedPayload:
 1687              	.LFB36:
 674:Generated_Source\PSoC4/nRF24_NRF_FUNCS.c ****     nRF24_reuseTxPayloadCmd();
 1688              		.loc 1 674 0
 1689              		.cfi_startproc
 1690              		@ args = 0, pretend = 0, frame = 0
 1691              		@ frame_needed = 0, uses_anonymous_args = 0
 1692 0000 10B5     		push	{r4, lr}
 1693              		.cfi_def_cfa_offset 8
 1694              		.cfi_offset 4, -8
 1695              		.cfi_offset 14, -4
 675:Generated_Source\PSoC4/nRF24_NRF_FUNCS.c ****     nRF24_transmitPulse();
 1696              		.loc 1 675 0
ARM GAS  C:\Users\Xwx47\AppData\Local\Temp\cc6J2i3F.s 			page 45


 1697 0002 FFF7FEFF 		bl	nRF24_reuseTxPayloadCmd
 1698              	.LVL162:
 676:Generated_Source\PSoC4/nRF24_NRF_FUNCS.c **** }
 1699              		.loc 1 676 0
 1700 0006 FFF7FEFF 		bl	nRF24_transmitPulse
 1701              	.LVL163:
 677:Generated_Source\PSoC4/nRF24_NRF_FUNCS.c **** 
 1702              		.loc 1 677 0
 1703              		@ sp needed
 1704 000a 10BD     		pop	{r4, pc}
 1705              		.cfi_endproc
 1706              	.LFE36:
 1707              		.size	nRF24_PTX_reuseLastTransmittedPayload, .-nRF24_PTX_reuseLastTransmittedPayload
 1708              		.section	.text.nRF24_getStatus,"ax",%progbits
 1709              		.align	2
 1710              		.global	nRF24_getStatus
 1711              		.code	16
 1712              		.thumb_func
 1713              		.type	nRF24_getStatus, %function
 1714              	nRF24_getStatus:
 1715              	.LFB49:
 796:Generated_Source\PSoC4/nRF24_NRF_FUNCS.c **** 
 797:Generated_Source\PSoC4/nRF24_NRF_FUNCS.c **** /**
 798:Generated_Source\PSoC4/nRF24_NRF_FUNCS.c ****  * @brief Get the STATUS register of the nRF24.
 799:Generated_Source\PSoC4/nRF24_NRF_FUNCS.c ****  *
 800:Generated_Source\PSoC4/nRF24_NRF_FUNCS.c ****  * @return uint8_t: STATUS register of the nRF24.
 801:Generated_Source\PSoC4/nRF24_NRF_FUNCS.c ****  */
 802:Generated_Source\PSoC4/nRF24_NRF_FUNCS.c **** uint8_t nRF24_getStatus(void)
 803:Generated_Source\PSoC4/nRF24_NRF_FUNCS.c **** {
 1716              		.loc 1 803 0
 1717              		.cfi_startproc
 1718              		@ args = 0, pretend = 0, frame = 0
 1719              		@ frame_needed = 0, uses_anonymous_args = 0
 1720 0000 10B5     		push	{r4, lr}
 1721              		.cfi_def_cfa_offset 8
 1722              		.cfi_offset 4, -8
 1723              		.cfi_offset 14, -4
 804:Generated_Source\PSoC4/nRF24_NRF_FUNCS.c ****     return nRF24_NOPCmd();
 1724              		.loc 1 804 0
 1725 0002 FFF7FEFF 		bl	nRF24_NOPCmd
 1726              	.LVL164:
 805:Generated_Source\PSoC4/nRF24_NRF_FUNCS.c **** }
 1727              		.loc 1 805 0
 1728              		@ sp needed
 1729 0006 10BD     		pop	{r4, pc}
 1730              		.cfi_endproc
 1731              	.LFE49:
 1732              		.size	nRF24_getStatus, .-nRF24_getStatus
 1733              		.section	.text.nRF24_getRetransmissionsCount,"ax",%progbits
 1734              		.align	2
 1735              		.global	nRF24_getRetransmissionsCount
 1736              		.code	16
 1737              		.thumb_func
 1738              		.type	nRF24_getRetransmissionsCount, %function
 1739              	nRF24_getRetransmissionsCount:
 1740              	.LFB50:
 806:Generated_Source\PSoC4/nRF24_NRF_FUNCS.c **** 
ARM GAS  C:\Users\Xwx47\AppData\Local\Temp\cc6J2i3F.s 			page 46


 807:Generated_Source\PSoC4/nRF24_NRF_FUNCS.c **** /**
 808:Generated_Source\PSoC4/nRF24_NRF_FUNCS.c ****  * @brief Get the number of retransmissions.
 809:Generated_Source\PSoC4/nRF24_NRF_FUNCS.c ****  *
 810:Generated_Source\PSoC4/nRF24_NRF_FUNCS.c ****  * @return uint8_t: Retransmissions count.
 811:Generated_Source\PSoC4/nRF24_NRF_FUNCS.c ****  */
 812:Generated_Source\PSoC4/nRF24_NRF_FUNCS.c **** uint8_t nRF24_getRetransmissionsCount(void)
 813:Generated_Source\PSoC4/nRF24_NRF_FUNCS.c **** {
 1741              		.loc 1 813 0
 1742              		.cfi_startproc
 1743              		@ args = 0, pretend = 0, frame = 0
 1744              		@ frame_needed = 0, uses_anonymous_args = 0
 1745 0000 10B5     		push	{r4, lr}
 1746              		.cfi_def_cfa_offset 8
 1747              		.cfi_offset 4, -8
 1748              		.cfi_offset 14, -4
 814:Generated_Source\PSoC4/nRF24_NRF_FUNCS.c ****     uint8_t count = nRF24_readRegister(NRF_OBSERVE_TX_REG);
 1749              		.loc 1 814 0
 1750 0002 0820     		movs	r0, #8
 1751 0004 FFF7FEFF 		bl	nRF24_readRegister
 1752              	.LVL165:
 815:Generated_Source\PSoC4/nRF24_NRF_FUNCS.c ****     return count & NRF_OBSERVE_TX_ARC_CNT_MASK;
 1753              		.loc 1 815 0
 1754 0008 0F23     		movs	r3, #15
 1755 000a 1840     		ands	r0, r3
 1756              	.LVL166:
 816:Generated_Source\PSoC4/nRF24_NRF_FUNCS.c **** }
 1757              		.loc 1 816 0
 1758              		@ sp needed
 1759 000c 10BD     		pop	{r4, pc}
 1760              		.cfi_endproc
 1761              	.LFE50:
 1762              		.size	nRF24_getRetransmissionsCount, .-nRF24_getRetransmissionsCount
 1763 000e C046     		.section	.text.nRF24_getLostPacketsCount,"ax",%progbits
 1764              		.align	2
 1765              		.global	nRF24_getLostPacketsCount
 1766              		.code	16
 1767              		.thumb_func
 1768              		.type	nRF24_getLostPacketsCount, %function
 1769              	nRF24_getLostPacketsCount:
 1770              	.LFB51:
 817:Generated_Source\PSoC4/nRF24_NRF_FUNCS.c **** 
 818:Generated_Source\PSoC4/nRF24_NRF_FUNCS.c **** /**
 819:Generated_Source\PSoC4/nRF24_NRF_FUNCS.c ****  * @brief Get the number of lost packets.
 820:Generated_Source\PSoC4/nRF24_NRF_FUNCS.c ****  *
 821:Generated_Source\PSoC4/nRF24_NRF_FUNCS.c ****  * @return uint8_t: Lost packets.
 822:Generated_Source\PSoC4/nRF24_NRF_FUNCS.c ****  */
 823:Generated_Source\PSoC4/nRF24_NRF_FUNCS.c **** uint8_t nRF24_getLostPacketsCount(void)
 824:Generated_Source\PSoC4/nRF24_NRF_FUNCS.c **** {
 1771              		.loc 1 824 0
 1772              		.cfi_startproc
 1773              		@ args = 0, pretend = 0, frame = 0
 1774              		@ frame_needed = 0, uses_anonymous_args = 0
 1775 0000 10B5     		push	{r4, lr}
 1776              		.cfi_def_cfa_offset 8
 1777              		.cfi_offset 4, -8
 1778              		.cfi_offset 14, -4
 825:Generated_Source\PSoC4/nRF24_NRF_FUNCS.c ****     uint8_t lostPackets = nRF24_readRegister(NRF_OBSERVE_TX_REG);
ARM GAS  C:\Users\Xwx47\AppData\Local\Temp\cc6J2i3F.s 			page 47


 1779              		.loc 1 825 0
 1780 0002 0820     		movs	r0, #8
 1781 0004 FFF7FEFF 		bl	nRF24_readRegister
 1782              	.LVL167:
 826:Generated_Source\PSoC4/nRF24_NRF_FUNCS.c ****     lostPackets = lostPackets & NRF_OBSERVE_TX_PLOS_CNT_MASK;
 827:Generated_Source\PSoC4/nRF24_NRF_FUNCS.c ****     return lostPackets >> NRF_OBSERVE_TX_PLOS_CNT;
 1783              		.loc 1 827 0
 1784 0008 0009     		lsrs	r0, r0, #4
 1785              	.LVL168:
 1786 000a C0B2     		uxtb	r0, r0
 828:Generated_Source\PSoC4/nRF24_NRF_FUNCS.c **** }
 1787              		.loc 1 828 0
 1788              		@ sp needed
 1789 000c 10BD     		pop	{r4, pc}
 1790              		.cfi_endproc
 1791              	.LFE51:
 1792              		.size	nRF24_getLostPacketsCount, .-nRF24_getLostPacketsCount
 1793 000e C046     		.section	.text.nRF24_putInTXFIFO,"ax",%progbits
 1794              		.align	2
 1795              		.global	nRF24_putInTXFIFO
 1796              		.code	16
 1797              		.thumb_func
 1798              		.type	nRF24_putInTXFIFO, %function
 1799              	nRF24_putInTXFIFO:
 1800              	.LFB52:
 829:Generated_Source\PSoC4/nRF24_NRF_FUNCS.c **** 
 830:Generated_Source\PSoC4/nRF24_NRF_FUNCS.c **** /**
 831:Generated_Source\PSoC4/nRF24_NRF_FUNCS.c ****  * Put data into the TX FIFO wihout sending it.
 832:Generated_Source\PSoC4/nRF24_NRF_FUNCS.c ****  *
 833:Generated_Source\PSoC4/nRF24_NRF_FUNCS.c ****  * @param const uint8_t* data:
 834:Generated_Source\PSoC4/nRF24_NRF_FUNCS.c ****  * @param const size_t size:
 835:Generated_Source\PSoC4/nRF24_NRF_FUNCS.c ****  */
 836:Generated_Source\PSoC4/nRF24_NRF_FUNCS.c **** void nRF24_putInTXFIFO(const uint8_t* data, const size_t size)
 837:Generated_Source\PSoC4/nRF24_NRF_FUNCS.c **** {
 1801              		.loc 1 837 0
 1802              		.cfi_startproc
 1803              		@ args = 0, pretend = 0, frame = 0
 1804              		@ frame_needed = 0, uses_anonymous_args = 0
 1805              	.LVL169:
 1806 0000 10B5     		push	{r4, lr}
 1807              		.cfi_def_cfa_offset 8
 1808              		.cfi_offset 4, -8
 1809              		.cfi_offset 14, -4
 838:Generated_Source\PSoC4/nRF24_NRF_FUNCS.c ****     if (NULL == data) {
 1810              		.loc 1 838 0
 1811 0002 0028     		cmp	r0, #0
 1812 0004 03D0     		beq	.L101
 839:Generated_Source\PSoC4/nRF24_NRF_FUNCS.c ****         return;
 840:Generated_Source\PSoC4/nRF24_NRF_FUNCS.c ****     }
 841:Generated_Source\PSoC4/nRF24_NRF_FUNCS.c **** 
 842:Generated_Source\PSoC4/nRF24_NRF_FUNCS.c ****     if (32 < size) {
 1813              		.loc 1 842 0
 1814 0006 2029     		cmp	r1, #32
 1815 0008 01D8     		bhi	.L101
 843:Generated_Source\PSoC4/nRF24_NRF_FUNCS.c ****         return;
 844:Generated_Source\PSoC4/nRF24_NRF_FUNCS.c ****     }
 845:Generated_Source\PSoC4/nRF24_NRF_FUNCS.c ****     
ARM GAS  C:\Users\Xwx47\AppData\Local\Temp\cc6J2i3F.s 			page 48


 846:Generated_Source\PSoC4/nRF24_NRF_FUNCS.c ****     nRF24_writeTXPayloadCmd(data, size);
 1816              		.loc 1 846 0
 1817 000a FFF7FEFF 		bl	nRF24_writeTXPayloadCmd
 1818              	.LVL170:
 1819              	.L101:
 847:Generated_Source\PSoC4/nRF24_NRF_FUNCS.c **** }
 1820              		.loc 1 847 0
 1821              		@ sp needed
 1822 000e 10BD     		pop	{r4, pc}
 1823              		.cfi_endproc
 1824              	.LFE52:
 1825              		.size	nRF24_putInTXFIFO, .-nRF24_putInTXFIFO
 1826              		.section	.text.nRF24_PTX_Transmit,"ax",%progbits
 1827              		.align	2
 1828              		.global	nRF24_PTX_Transmit
 1829              		.code	16
 1830              		.thumb_func
 1831              		.type	nRF24_PTX_Transmit, %function
 1832              	nRF24_PTX_Transmit:
 1833              	.LFB53:
 848:Generated_Source\PSoC4/nRF24_NRF_FUNCS.c **** 
 849:Generated_Source\PSoC4/nRF24_NRF_FUNCS.c **** /**
 850:Generated_Source\PSoC4/nRF24_NRF_FUNCS.c ****  * Put data in TX FIFO and transmit it.
 851:Generated_Source\PSoC4/nRF24_NRF_FUNCS.c ****  *
 852:Generated_Source\PSoC4/nRF24_NRF_FUNCS.c ****  * @param const uint8_t* data:
 853:Generated_Source\PSoC4/nRF24_NRF_FUNCS.c ****  * @param const size_t size:
 854:Generated_Source\PSoC4/nRF24_NRF_FUNCS.c ****  */
 855:Generated_Source\PSoC4/nRF24_NRF_FUNCS.c **** void nRF24_PTX_Transmit(const uint8_t* data, const size_t size)
 856:Generated_Source\PSoC4/nRF24_NRF_FUNCS.c **** {
 1834              		.loc 1 856 0
 1835              		.cfi_startproc
 1836              		@ args = 0, pretend = 0, frame = 0
 1837              		@ frame_needed = 0, uses_anonymous_args = 0
 1838              	.LVL171:
 1839 0000 10B5     		push	{r4, lr}
 1840              		.cfi_def_cfa_offset 8
 1841              		.cfi_offset 4, -8
 1842              		.cfi_offset 14, -4
 857:Generated_Source\PSoC4/nRF24_NRF_FUNCS.c ****     if (NULL == data) {
 1843              		.loc 1 857 0
 1844 0002 0028     		cmp	r0, #0
 1845 0004 05D0     		beq	.L103
 858:Generated_Source\PSoC4/nRF24_NRF_FUNCS.c ****         return;
 859:Generated_Source\PSoC4/nRF24_NRF_FUNCS.c ****     }
 860:Generated_Source\PSoC4/nRF24_NRF_FUNCS.c ****     
 861:Generated_Source\PSoC4/nRF24_NRF_FUNCS.c ****     if (32 < size) {
 1846              		.loc 1 861 0
 1847 0006 2029     		cmp	r1, #32
 1848 0008 03D8     		bhi	.L103
 862:Generated_Source\PSoC4/nRF24_NRF_FUNCS.c ****         return;
 863:Generated_Source\PSoC4/nRF24_NRF_FUNCS.c ****     }
 864:Generated_Source\PSoC4/nRF24_NRF_FUNCS.c **** 
 865:Generated_Source\PSoC4/nRF24_NRF_FUNCS.c ****     nRF24_putInTXFIFO(data, size);
 1849              		.loc 1 865 0
 1850 000a FFF7FEFF 		bl	nRF24_putInTXFIFO
 1851              	.LVL172:
 866:Generated_Source\PSoC4/nRF24_NRF_FUNCS.c ****     nRF24_transmitPulse();
ARM GAS  C:\Users\Xwx47\AppData\Local\Temp\cc6J2i3F.s 			page 49


 1852              		.loc 1 866 0
 1853 000e FFF7FEFF 		bl	nRF24_transmitPulse
 1854              	.LVL173:
 1855              	.L103:
 867:Generated_Source\PSoC4/nRF24_NRF_FUNCS.c **** }
 1856              		.loc 1 867 0
 1857              		@ sp needed
 1858 0012 10BD     		pop	{r4, pc}
 1859              		.cfi_endproc
 1860              	.LFE53:
 1861              		.size	nRF24_PTX_Transmit, .-nRF24_PTX_Transmit
 1862              		.section	.text.nRF24_isDataReady,"ax",%progbits
 1863              		.align	2
 1864              		.global	nRF24_isDataReady
 1865              		.code	16
 1866              		.thumb_func
 1867              		.type	nRF24_isDataReady, %function
 1868              	nRF24_isDataReady:
 1869              	.LFB54:
 868:Generated_Source\PSoC4/nRF24_NRF_FUNCS.c **** 
 869:Generated_Source\PSoC4/nRF24_NRF_FUNCS.c **** /**
 870:Generated_Source\PSoC4/nRF24_NRF_FUNCS.c ****  * @brief
 871:Generated_Source\PSoC4/nRF24_NRF_FUNCS.c ****  *
 872:Generated_Source\PSoC4/nRF24_NRF_FUNCS.c ****  * @return bool: True if there's data ready.
 873:Generated_Source\PSoC4/nRF24_NRF_FUNCS.c ****  */
 874:Generated_Source\PSoC4/nRF24_NRF_FUNCS.c **** bool nRF24_isDataReady(void)
 875:Generated_Source\PSoC4/nRF24_NRF_FUNCS.c **** {
 1870              		.loc 1 875 0
 1871              		.cfi_startproc
 1872              		@ args = 0, pretend = 0, frame = 0
 1873              		@ frame_needed = 0, uses_anonymous_args = 0
 1874 0000 10B5     		push	{r4, lr}
 1875              		.cfi_def_cfa_offset 8
 1876              		.cfi_offset 4, -8
 1877              		.cfi_offset 14, -4
 876:Generated_Source\PSoC4/nRF24_NRF_FUNCS.c ****     return NRF_STATUS_RX_DR_MASK & nRF24_getStatus();
 1878              		.loc 1 876 0
 1879 0002 FFF7FEFF 		bl	nRF24_getStatus
 1880              	.LVL174:
 1881 0006 8009     		lsrs	r0, r0, #6
 1882 0008 0123     		movs	r3, #1
 1883 000a 1840     		ands	r0, r3
 877:Generated_Source\PSoC4/nRF24_NRF_FUNCS.c **** }
 1884              		.loc 1 877 0
 1885              		@ sp needed
 1886 000c 10BD     		pop	{r4, pc}
 1887              		.cfi_endproc
 1888              	.LFE54:
 1889              		.size	nRF24_isDataReady, .-nRF24_isDataReady
 1890 000e C046     		.section	.text.nRF24_getRxPayload,"ax",%progbits
 1891              		.align	2
 1892              		.global	nRF24_getRxPayload
 1893              		.code	16
 1894              		.thumb_func
 1895              		.type	nRF24_getRxPayload, %function
 1896              	nRF24_getRxPayload:
 1897              	.LFB55:
ARM GAS  C:\Users\Xwx47\AppData\Local\Temp\cc6J2i3F.s 			page 50


 878:Generated_Source\PSoC4/nRF24_NRF_FUNCS.c **** 
 879:Generated_Source\PSoC4/nRF24_NRF_FUNCS.c **** /**
 880:Generated_Source\PSoC4/nRF24_NRF_FUNCS.c ****  * @brief
 881:Generated_Source\PSoC4/nRF24_NRF_FUNCS.c ****  *
 882:Generated_Source\PSoC4/nRF24_NRF_FUNCS.c ****  * @param uint8_t* data:
 883:Generated_Source\PSoC4/nRF24_NRF_FUNCS.c ****  * @param const size_t size:
 884:Generated_Source\PSoC4/nRF24_NRF_FUNCS.c ****  */
 885:Generated_Source\PSoC4/nRF24_NRF_FUNCS.c **** void nRF24_getRxPayload(uint8_t* data, const size_t size)
 886:Generated_Source\PSoC4/nRF24_NRF_FUNCS.c **** {
 1898              		.loc 1 886 0
 1899              		.cfi_startproc
 1900              		@ args = 0, pretend = 0, frame = 0
 1901              		@ frame_needed = 0, uses_anonymous_args = 0
 1902              	.LVL175:
 1903 0000 70B5     		push	{r4, r5, r6, lr}
 1904              		.cfi_def_cfa_offset 16
 1905              		.cfi_offset 4, -16
 1906              		.cfi_offset 5, -12
 1907              		.cfi_offset 6, -8
 1908              		.cfi_offset 14, -4
 1909 0002 0400     		movs	r4, r0
 1910 0004 0D00     		movs	r5, r1
 887:Generated_Source\PSoC4/nRF24_NRF_FUNCS.c ****     if (NULL == data) {
 1911              		.loc 1 887 0
 1912 0006 0028     		cmp	r0, #0
 1913 0008 09D0     		beq	.L106
 888:Generated_Source\PSoC4/nRF24_NRF_FUNCS.c ****         return;
 889:Generated_Source\PSoC4/nRF24_NRF_FUNCS.c ****     }
 890:Generated_Source\PSoC4/nRF24_NRF_FUNCS.c ****     
 891:Generated_Source\PSoC4/nRF24_NRF_FUNCS.c ****     CE_Write(0);
 1914              		.loc 1 891 0
 1915 000a 0020     		movs	r0, #0
 1916              	.LVL176:
 1917 000c FFF7FEFF 		bl	CE_Write
 1918              	.LVL177:
 892:Generated_Source\PSoC4/nRF24_NRF_FUNCS.c ****     nRF24_readRXPayloadCmd(data, size);
 1919              		.loc 1 892 0
 1920 0010 2900     		movs	r1, r5
 1921 0012 2000     		movs	r0, r4
 1922 0014 FFF7FEFF 		bl	nRF24_readRXPayloadCmd
 1923              	.LVL178:
 893:Generated_Source\PSoC4/nRF24_NRF_FUNCS.c ****     CE_Write(1);
 1924              		.loc 1 893 0
 1925 0018 0120     		movs	r0, #1
 1926 001a FFF7FEFF 		bl	CE_Write
 1927              	.LVL179:
 1928              	.L106:
 894:Generated_Source\PSoC4/nRF24_NRF_FUNCS.c **** }
 1929              		.loc 1 894 0
 1930              		@ sp needed
 1931              	.LVL180:
 1932              	.LVL181:
 1933 001e 70BD     		pop	{r4, r5, r6, pc}
 1934              		.cfi_endproc
 1935              	.LFE55:
 1936              		.size	nRF24_getRxPayload, .-nRF24_getRxPayload
 1937              		.section	.text.nRF24_txTransmitWaitNoACK,"ax",%progbits
ARM GAS  C:\Users\Xwx47\AppData\Local\Temp\cc6J2i3F.s 			page 51


 1938              		.align	2
 1939              		.global	nRF24_txTransmitWaitNoACK
 1940              		.code	16
 1941              		.thumb_func
 1942              		.type	nRF24_txTransmitWaitNoACK, %function
 1943              	nRF24_txTransmitWaitNoACK:
 1944              	.LFB56:
 895:Generated_Source\PSoC4/nRF24_NRF_FUNCS.c **** 
 896:Generated_Source\PSoC4/nRF24_NRF_FUNCS.c **** /**
 897:Generated_Source\PSoC4/nRF24_NRF_FUNCS.c ****  * @brief
 898:Generated_Source\PSoC4/nRF24_NRF_FUNCS.c ****  *
 899:Generated_Source\PSoC4/nRF24_NRF_FUNCS.c ****  * @param const uint8_t* data:
 900:Generated_Source\PSoC4/nRF24_NRF_FUNCS.c ****  * @param size_t size:
 901:Generated_Source\PSoC4/nRF24_NRF_FUNCS.c ****  */
 902:Generated_Source\PSoC4/nRF24_NRF_FUNCS.c **** void nRF24_txTransmitWaitNoACK(const uint8_t* data, const size_t size)
 903:Generated_Source\PSoC4/nRF24_NRF_FUNCS.c **** {
 1945              		.loc 1 903 0
 1946              		.cfi_startproc
 1947              		@ args = 0, pretend = 0, frame = 0
 1948              		@ frame_needed = 0, uses_anonymous_args = 0
 1949              	.LVL182:
 1950 0000 10B5     		push	{r4, lr}
 1951              		.cfi_def_cfa_offset 8
 1952              		.cfi_offset 4, -8
 1953              		.cfi_offset 14, -4
 904:Generated_Source\PSoC4/nRF24_NRF_FUNCS.c ****     if (NULL == data) {
 1954              		.loc 1 904 0
 1955 0002 0028     		cmp	r0, #0
 1956 0004 05D0     		beq	.L108
 905:Generated_Source\PSoC4/nRF24_NRF_FUNCS.c ****         return;
 906:Generated_Source\PSoC4/nRF24_NRF_FUNCS.c ****     }
 907:Generated_Source\PSoC4/nRF24_NRF_FUNCS.c **** 
 908:Generated_Source\PSoC4/nRF24_NRF_FUNCS.c ****     if (32 < size) {
 1957              		.loc 1 908 0
 1958 0006 2029     		cmp	r1, #32
 1959 0008 03D8     		bhi	.L108
 909:Generated_Source\PSoC4/nRF24_NRF_FUNCS.c ****         return;
 910:Generated_Source\PSoC4/nRF24_NRF_FUNCS.c ****     }
 911:Generated_Source\PSoC4/nRF24_NRF_FUNCS.c ****     
 912:Generated_Source\PSoC4/nRF24_NRF_FUNCS.c ****     nRF24_noACKPayloadCmd(data, size);
 1960              		.loc 1 912 0
 1961 000a FFF7FEFF 		bl	nRF24_noACKPayloadCmd
 1962              	.LVL183:
 913:Generated_Source\PSoC4/nRF24_NRF_FUNCS.c ****     nRF24_transmitPulse();
 1963              		.loc 1 913 0
 1964 000e FFF7FEFF 		bl	nRF24_transmitPulse
 1965              	.LVL184:
 1966              	.L108:
 914:Generated_Source\PSoC4/nRF24_NRF_FUNCS.c **** }
 1967              		.loc 1 914 0
 1968              		@ sp needed
 1969 0012 10BD     		pop	{r4, pc}
 1970              		.cfi_endproc
 1971              	.LFE56:
 1972              		.size	nRF24_txTransmitWaitNoACK, .-nRF24_txTransmitWaitNoACK
 1973              		.section	.text.nRF24_rxWritePayload,"ax",%progbits
 1974              		.align	2
ARM GAS  C:\Users\Xwx47\AppData\Local\Temp\cc6J2i3F.s 			page 52


 1975              		.global	nRF24_rxWritePayload
 1976              		.code	16
 1977              		.thumb_func
 1978              		.type	nRF24_rxWritePayload, %function
 1979              	nRF24_rxWritePayload:
 1980              	.LFB57:
 915:Generated_Source\PSoC4/nRF24_NRF_FUNCS.c **** 
 916:Generated_Source\PSoC4/nRF24_NRF_FUNCS.c **** /**
 917:Generated_Source\PSoC4/nRF24_NRF_FUNCS.c ****  * @brief
 918:Generated_Source\PSoC4/nRF24_NRF_FUNCS.c ****  *
 919:Generated_Source\PSoC4/nRF24_NRF_FUNCS.c ****  * @param const NrfDataPipe pipe:
 920:Generated_Source\PSoC4/nRF24_NRF_FUNCS.c ****  * @param const uint8_t* data:
 921:Generated_Source\PSoC4/nRF24_NRF_FUNCS.c ****  * @param size_t size:
 922:Generated_Source\PSoC4/nRF24_NRF_FUNCS.c ****  */
 923:Generated_Source\PSoC4/nRF24_NRF_FUNCS.c **** void nRF24_rxWritePayload(const NrfDataPipe pipe, const uint8_t* data,
 924:Generated_Source\PSoC4/nRF24_NRF_FUNCS.c ****                                      const size_t size)
 925:Generated_Source\PSoC4/nRF24_NRF_FUNCS.c **** {
 1981              		.loc 1 925 0
 1982              		.cfi_startproc
 1983              		@ args = 0, pretend = 0, frame = 0
 1984              		@ frame_needed = 0, uses_anonymous_args = 0
 1985              	.LVL185:
 1986 0000 10B5     		push	{r4, lr}
 1987              		.cfi_def_cfa_offset 8
 1988              		.cfi_offset 4, -8
 1989              		.cfi_offset 14, -4
 926:Generated_Source\PSoC4/nRF24_NRF_FUNCS.c ****     if (NULL == data) {
 1990              		.loc 1 926 0
 1991 0002 0029     		cmp	r1, #0
 1992 0004 03D0     		beq	.L110
 927:Generated_Source\PSoC4/nRF24_NRF_FUNCS.c ****         return;
 928:Generated_Source\PSoC4/nRF24_NRF_FUNCS.c ****     }
 929:Generated_Source\PSoC4/nRF24_NRF_FUNCS.c **** 
 930:Generated_Source\PSoC4/nRF24_NRF_FUNCS.c ****     if (32 < size) {
 1993              		.loc 1 930 0
 1994 0006 202A     		cmp	r2, #32
 1995 0008 01D8     		bhi	.L110
 931:Generated_Source\PSoC4/nRF24_NRF_FUNCS.c ****         return;
 932:Generated_Source\PSoC4/nRF24_NRF_FUNCS.c ****     }
 933:Generated_Source\PSoC4/nRF24_NRF_FUNCS.c ****     
 934:Generated_Source\PSoC4/nRF24_NRF_FUNCS.c ****     nRF24_writeACKPayloadCmd(pipe, data, size);
 1996              		.loc 1 934 0
 1997 000a FFF7FEFF 		bl	nRF24_writeACKPayloadCmd
 1998              	.LVL186:
 1999              	.L110:
 935:Generated_Source\PSoC4/nRF24_NRF_FUNCS.c **** }
 2000              		.loc 1 935 0
 2001              		@ sp needed
 2002 000e 10BD     		pop	{r4, pc}
 2003              		.cfi_endproc
 2004              	.LFE57:
 2005              		.size	nRF24_rxWritePayload, .-nRF24_rxWritePayload
 2006              		.section	.text.nRF24_getDataPipeWithPayload,"ax",%progbits
 2007              		.align	2
 2008              		.global	nRF24_getDataPipeWithPayload
 2009              		.code	16
 2010              		.thumb_func
ARM GAS  C:\Users\Xwx47\AppData\Local\Temp\cc6J2i3F.s 			page 53


 2011              		.type	nRF24_getDataPipeWithPayload, %function
 2012              	nRF24_getDataPipeWithPayload:
 2013              	.LFB58:
 936:Generated_Source\PSoC4/nRF24_NRF_FUNCS.c **** 
 937:Generated_Source\PSoC4/nRF24_NRF_FUNCS.c **** /**
 938:Generated_Source\PSoC4/nRF24_NRF_FUNCS.c ****  * Return the pipe number with data.
 939:Generated_Source\PSoC4/nRF24_NRF_FUNCS.c ****  *
 940:Generated_Source\PSoC4/nRF24_NRF_FUNCS.c ****  * @return uint8_t:
 941:Generated_Source\PSoC4/nRF24_NRF_FUNCS.c ****  */
 942:Generated_Source\PSoC4/nRF24_NRF_FUNCS.c **** uint8_t nRF24_getDataPipeWithPayload(void)
 943:Generated_Source\PSoC4/nRF24_NRF_FUNCS.c **** {
 2014              		.loc 1 943 0
 2015              		.cfi_startproc
 2016              		@ args = 0, pretend = 0, frame = 0
 2017              		@ frame_needed = 0, uses_anonymous_args = 0
 2018 0000 10B5     		push	{r4, lr}
 2019              		.cfi_def_cfa_offset 8
 2020              		.cfi_offset 4, -8
 2021              		.cfi_offset 14, -4
 944:Generated_Source\PSoC4/nRF24_NRF_FUNCS.c ****     uint8_t pipe = nRF24_readRegister(NRF_STATUS_REG);
 2022              		.loc 1 944 0
 2023 0002 0720     		movs	r0, #7
 2024 0004 FFF7FEFF 		bl	nRF24_readRegister
 2025              	.LVL187:
 945:Generated_Source\PSoC4/nRF24_NRF_FUNCS.c ****     return (pipe & 0x0Eu) >> 1;
 2026              		.loc 1 945 0
 2027 0008 4008     		lsrs	r0, r0, #1
 2028              	.LVL188:
 2029 000a 0723     		movs	r3, #7
 2030 000c 1840     		ands	r0, r3
 946:Generated_Source\PSoC4/nRF24_NRF_FUNCS.c **** }
 2031              		.loc 1 946 0
 2032              		@ sp needed
 2033 000e 10BD     		pop	{r4, pc}
 2034              		.cfi_endproc
 2035              	.LFE58:
 2036              		.size	nRF24_getDataPipeWithPayload, .-nRF24_getDataPipeWithPayload
 2037              		.section	.text.nRF24_PRX_receivedPowerDetector,"ax",%progbits
 2038              		.align	2
 2039              		.global	nRF24_PRX_receivedPowerDetector
 2040              		.code	16
 2041              		.thumb_func
 2042              		.type	nRF24_PRX_receivedPowerDetector, %function
 2043              	nRF24_PRX_receivedPowerDetector:
 2044              	.LFB59:
 947:Generated_Source\PSoC4/nRF24_NRF_FUNCS.c **** 
 948:Generated_Source\PSoC4/nRF24_NRF_FUNCS.c **** /**
 949:Generated_Source\PSoC4/nRF24_NRF_FUNCS.c ****  * @brief
 950:Generated_Source\PSoC4/nRF24_NRF_FUNCS.c ****  *
 951:Generated_Source\PSoC4/nRF24_NRF_FUNCS.c ****  * @return uint8_t:
 952:Generated_Source\PSoC4/nRF24_NRF_FUNCS.c ****  */
 953:Generated_Source\PSoC4/nRF24_NRF_FUNCS.c **** uint8_t nRF24_PRX_receivedPowerDetector(void)
 954:Generated_Source\PSoC4/nRF24_NRF_FUNCS.c **** {
 2045              		.loc 1 954 0
 2046              		.cfi_startproc
 2047              		@ args = 0, pretend = 0, frame = 0
 2048              		@ frame_needed = 0, uses_anonymous_args = 0
ARM GAS  C:\Users\Xwx47\AppData\Local\Temp\cc6J2i3F.s 			page 54


 2049 0000 10B5     		push	{r4, lr}
 2050              		.cfi_def_cfa_offset 8
 2051              		.cfi_offset 4, -8
 2052              		.cfi_offset 14, -4
 955:Generated_Source\PSoC4/nRF24_NRF_FUNCS.c ****     return nRF24_readBit(NRF_RPD_REG, NRF_RPD_RPD);
 2053              		.loc 1 955 0
 2054 0002 0021     		movs	r1, #0
 2055 0004 0920     		movs	r0, #9
 2056 0006 FFF7FEFF 		bl	nRF24_readBit
 2057              	.LVL189:
 956:Generated_Source\PSoC4/nRF24_NRF_FUNCS.c **** }
 2058              		.loc 1 956 0
 2059              		@ sp needed
 2060 000a 10BD     		pop	{r4, pc}
 2061              		.cfi_endproc
 2062              	.LFE59:
 2063              		.size	nRF24_PRX_receivedPowerDetector, .-nRF24_PRX_receivedPowerDetector
 2064              		.section	.text.nRF24_isTXFIFOFull,"ax",%progbits
 2065              		.align	2
 2066              		.global	nRF24_isTXFIFOFull
 2067              		.code	16
 2068              		.thumb_func
 2069              		.type	nRF24_isTXFIFOFull, %function
 2070              	nRF24_isTXFIFOFull:
 2071              	.LFB60:
 957:Generated_Source\PSoC4/nRF24_NRF_FUNCS.c **** 
 958:Generated_Source\PSoC4/nRF24_NRF_FUNCS.c **** /**
 959:Generated_Source\PSoC4/nRF24_NRF_FUNCS.c ****  * @return bool: true if the TX FIFO is full, false if it have available
 960:Generated_Source\PSoC4/nRF24_NRF_FUNCS.c ****  * locations.
 961:Generated_Source\PSoC4/nRF24_NRF_FUNCS.c ****  */
 962:Generated_Source\PSoC4/nRF24_NRF_FUNCS.c **** bool nRF24_isTXFIFOFull(void)
 963:Generated_Source\PSoC4/nRF24_NRF_FUNCS.c **** {
 2072              		.loc 1 963 0
 2073              		.cfi_startproc
 2074              		@ args = 0, pretend = 0, frame = 0
 2075              		@ frame_needed = 0, uses_anonymous_args = 0
 2076 0000 10B5     		push	{r4, lr}
 2077              		.cfi_def_cfa_offset 8
 2078              		.cfi_offset 4, -8
 2079              		.cfi_offset 14, -4
 964:Generated_Source\PSoC4/nRF24_NRF_FUNCS.c ****     return nRF24_readBit(NRF_FIFO_STATUS_REG, NRF_FIFO_STATUS_TX_FULL);
 2080              		.loc 1 964 0
 2081 0002 0521     		movs	r1, #5
 2082 0004 1720     		movs	r0, #23
 2083 0006 FFF7FEFF 		bl	nRF24_readBit
 2084              	.LVL190:
 965:Generated_Source\PSoC4/nRF24_NRF_FUNCS.c **** }
 2085              		.loc 1 965 0
 2086              		@ sp needed
 2087 000a 10BD     		pop	{r4, pc}
 2088              		.cfi_endproc
 2089              	.LFE60:
 2090              		.size	nRF24_isTXFIFOFull, .-nRF24_isTXFIFOFull
 2091              		.section	.text.nRF24_isRXFIFOEmpty,"ax",%progbits
 2092              		.align	2
 2093              		.global	nRF24_isRXFIFOEmpty
 2094              		.code	16
ARM GAS  C:\Users\Xwx47\AppData\Local\Temp\cc6J2i3F.s 			page 55


 2095              		.thumb_func
 2096              		.type	nRF24_isRXFIFOEmpty, %function
 2097              	nRF24_isRXFIFOEmpty:
 2098              	.LFB61:
 966:Generated_Source\PSoC4/nRF24_NRF_FUNCS.c **** 
 967:Generated_Source\PSoC4/nRF24_NRF_FUNCS.c **** /**
 968:Generated_Source\PSoC4/nRF24_NRF_FUNCS.c ****  * @return bool: true if the RX FIFO es empty, false if any pipe have data.
 969:Generated_Source\PSoC4/nRF24_NRF_FUNCS.c ****  */
 970:Generated_Source\PSoC4/nRF24_NRF_FUNCS.c **** bool nRF24_isRXFIFOEmpty(void)
 971:Generated_Source\PSoC4/nRF24_NRF_FUNCS.c **** {
 2099              		.loc 1 971 0
 2100              		.cfi_startproc
 2101              		@ args = 0, pretend = 0, frame = 0
 2102              		@ frame_needed = 0, uses_anonymous_args = 0
 2103 0000 10B5     		push	{r4, lr}
 2104              		.cfi_def_cfa_offset 8
 2105              		.cfi_offset 4, -8
 2106              		.cfi_offset 14, -4
 972:Generated_Source\PSoC4/nRF24_NRF_FUNCS.c ****     return nRF24_readBit(NRF_FIFO_STATUS_REG, NRF_FIFO_STATUS_RX_EMPTY);
 2107              		.loc 1 972 0
 2108 0002 0021     		movs	r1, #0
 2109 0004 1720     		movs	r0, #23
 2110 0006 FFF7FEFF 		bl	nRF24_readBit
 2111              	.LVL191:
 973:Generated_Source\PSoC4/nRF24_NRF_FUNCS.c **** }
 2112              		.loc 1 973 0
 2113              		@ sp needed
 2114 000a 10BD     		pop	{r4, pc}
 2115              		.cfi_endproc
 2116              	.LFE61:
 2117              		.size	nRF24_isRXFIFOEmpty, .-nRF24_isRXFIFOEmpty
 2118              		.section	.text.nRF24_clearAllIRQs,"ax",%progbits
 2119              		.align	2
 2120              		.global	nRF24_clearAllIRQs
 2121              		.code	16
 2122              		.thumb_func
 2123              		.type	nRF24_clearAllIRQs, %function
 2124              	nRF24_clearAllIRQs:
 2125              	.LFB62:
 974:Generated_Source\PSoC4/nRF24_NRF_FUNCS.c **** 
 975:Generated_Source\PSoC4/nRF24_NRF_FUNCS.c **** /**
 976:Generated_Source\PSoC4/nRF24_NRF_FUNCS.c ****  * This function will write 1 to all the three IRQ "flag" bits on the
 977:Generated_Source\PSoC4/nRF24_NRF_FUNCS.c ****  * STATUS register.
 978:Generated_Source\PSoC4/nRF24_NRF_FUNCS.c ****  */
 979:Generated_Source\PSoC4/nRF24_NRF_FUNCS.c **** void nRF24_clearAllIRQs(void)
 980:Generated_Source\PSoC4/nRF24_NRF_FUNCS.c **** {
 2126              		.loc 1 980 0
 2127              		.cfi_startproc
 2128              		@ args = 0, pretend = 0, frame = 0
 2129              		@ frame_needed = 0, uses_anonymous_args = 0
 2130 0000 10B5     		push	{r4, lr}
 2131              		.cfi_def_cfa_offset 8
 2132              		.cfi_offset 4, -8
 2133              		.cfi_offset 14, -4
 981:Generated_Source\PSoC4/nRF24_NRF_FUNCS.c ****     nRF24_writeRegister(NRF_STATUS_REG, 0x70);
 2134              		.loc 1 981 0
 2135 0002 7021     		movs	r1, #112
ARM GAS  C:\Users\Xwx47\AppData\Local\Temp\cc6J2i3F.s 			page 56


 2136 0004 0720     		movs	r0, #7
 2137 0006 FFF7FEFF 		bl	nRF24_writeRegister
 2138              	.LVL192:
 982:Generated_Source\PSoC4/nRF24_NRF_FUNCS.c **** }
 2139              		.loc 1 982 0
 2140              		@ sp needed
 2141 000a 10BD     		pop	{r4, pc}
 2142              		.cfi_endproc
 2143              	.LFE62:
 2144              		.size	nRF24_clearAllIRQs, .-nRF24_clearAllIRQs
 2145              		.section	.text.nRF24_start,"ax",%progbits
 2146              		.align	2
 2147              		.global	nRF24_start
 2148              		.code	16
 2149              		.thumb_func
 2150              		.type	nRF24_start, %function
 2151              	nRF24_start:
 2152              	.LFB1:
  50:Generated_Source\PSoC4/nRF24_NRF_FUNCS.c ****     // Recommended delay to start using the nRF24
 2153              		.loc 1 50 0
 2154              		.cfi_startproc
 2155              		@ args = 0, pretend = 0, frame = 0
 2156              		@ frame_needed = 0, uses_anonymous_args = 0
 2157 0000 10B5     		push	{r4, lr}
 2158              		.cfi_def_cfa_offset 8
 2159              		.cfi_offset 4, -8
 2160              		.cfi_offset 14, -4
  52:Generated_Source\PSoC4/nRF24_NRF_FUNCS.c ****     
 2161              		.loc 1 52 0
 2162 0002 6420     		movs	r0, #100
 2163 0004 FFF7FEFF 		bl	CyDelay
 2164              	.LVL193:
  57:Generated_Source\PSoC4/nRF24_NRF_FUNCS.c ****     SS_Write(1);
 2165              		.loc 1 57 0
 2166 0008 0020     		movs	r0, #0
 2167 000a FFF7FEFF 		bl	CE_Write
 2168              	.LVL194:
  58:Generated_Source\PSoC4/nRF24_NRF_FUNCS.c ****     SPI_Start();
 2169              		.loc 1 58 0
 2170 000e 0120     		movs	r0, #1
 2171 0010 FFF7FEFF 		bl	SS_Write
 2172              	.LVL195:
  59:Generated_Source\PSoC4/nRF24_NRF_FUNCS.c **** 
 2173              		.loc 1 59 0
 2174 0014 FFF7FEFF 		bl	SPI_Start
 2175              	.LVL196:
  62:Generated_Source\PSoC4/nRF24_NRF_FUNCS.c ****     nRF24_flushTxCmd();
 2176              		.loc 1 62 0
 2177 0018 FFF7FEFF 		bl	nRF24_flushRxCmd
 2178              	.LVL197:
  63:Generated_Source\PSoC4/nRF24_NRF_FUNCS.c ****     // Clear IRQ flags
 2179              		.loc 1 63 0
 2180 001c FFF7FEFF 		bl	nRF24_flushTxCmd
 2181              	.LVL198:
  65:Generated_Source\PSoC4/nRF24_NRF_FUNCS.c ****     
 2182              		.loc 1 65 0
 2183 0020 FFF7FEFF 		bl	nRF24_clearAllIRQs
ARM GAS  C:\Users\Xwx47\AppData\Local\Temp\cc6J2i3F.s 			page 57


 2184              	.LVL199:
  68:Generated_Source\PSoC4/nRF24_NRF_FUNCS.c ****     
 2185              		.loc 1 68 0
 2186 0024 FFF7FEFF 		bl	nRF24_init
 2187              	.LVL200:
  71:Generated_Source\PSoC4/nRF24_NRF_FUNCS.c **** }
 2188              		.loc 1 71 0
 2189 0028 9620     		movs	r0, #150
 2190 002a FFF7FEFF 		bl	CyDelayUs
 2191              	.LVL201:
  72:Generated_Source\PSoC4/nRF24_NRF_FUNCS.c **** 
 2192              		.loc 1 72 0
 2193              		@ sp needed
 2194 002e 10BD     		pop	{r4, pc}
 2195              		.cfi_endproc
 2196              	.LFE1:
 2197              		.size	nRF24_start, .-nRF24_start
 2198              		.section	.text.nRF24_clearIRQFlag,"ax",%progbits
 2199              		.align	2
 2200              		.global	nRF24_clearIRQFlag
 2201              		.code	16
 2202              		.thumb_func
 2203              		.type	nRF24_clearIRQFlag, %function
 2204              	nRF24_clearIRQFlag:
 2205              	.LFB63:
 983:Generated_Source\PSoC4/nRF24_NRF_FUNCS.c **** 
 984:Generated_Source\PSoC4/nRF24_NRF_FUNCS.c **** /**
 985:Generated_Source\PSoC4/nRF24_NRF_FUNCS.c ****  * @brief Clears the specific IRQ flag.
 986:Generated_Source\PSoC4/nRF24_NRF_FUNCS.c ****  *
 987:Generated_Source\PSoC4/nRF24_NRF_FUNCS.c ****  * Clear the flag by writing 1 to the interrupt flag bit.
 988:Generated_Source\PSoC4/nRF24_NRF_FUNCS.c ****  *
 989:Generated_Source\PSoC4/nRF24_NRF_FUNCS.c ****  * @param NrfIRQ irq_flag: Interrupt flag to clear.
 990:Generated_Source\PSoC4/nRF24_NRF_FUNCS.c ****  */
 991:Generated_Source\PSoC4/nRF24_NRF_FUNCS.c **** void nRF24_clearIRQFlag(const NrfIRQ irq_flag)
 992:Generated_Source\PSoC4/nRF24_NRF_FUNCS.c **** {
 2206              		.loc 1 992 0
 2207              		.cfi_startproc
 2208              		@ args = 0, pretend = 0, frame = 0
 2209              		@ frame_needed = 0, uses_anonymous_args = 0
 2210              	.LVL202:
 2211 0000 10B5     		push	{r4, lr}
 2212              		.cfi_def_cfa_offset 8
 2213              		.cfi_offset 4, -8
 2214              		.cfi_offset 14, -4
 993:Generated_Source\PSoC4/nRF24_NRF_FUNCS.c ****     nRF24_writeRegister(NRF_STATUS_REG, (1 << irq_flag));
 2215              		.loc 1 993 0
 2216 0002 0121     		movs	r1, #1
 2217 0004 8140     		lsls	r1, r1, r0
 2218 0006 C9B2     		uxtb	r1, r1
 2219 0008 0720     		movs	r0, #7
 2220              	.LVL203:
 2221 000a FFF7FEFF 		bl	nRF24_writeRegister
 2222              	.LVL204:
 994:Generated_Source\PSoC4/nRF24_NRF_FUNCS.c **** }
 2223              		.loc 1 994 0
 2224              		@ sp needed
 2225 000e 10BD     		pop	{r4, pc}
ARM GAS  C:\Users\Xwx47\AppData\Local\Temp\cc6J2i3F.s 			page 58


 2226              		.cfi_endproc
 2227              	.LFE63:
 2228              		.size	nRF24_clearIRQFlag, .-nRF24_clearIRQFlag
 2229              		.section	.text.nRF24_getIRQFlag,"ax",%progbits
 2230              		.align	2
 2231              		.global	nRF24_getIRQFlag
 2232              		.code	16
 2233              		.thumb_func
 2234              		.type	nRF24_getIRQFlag, %function
 2235              	nRF24_getIRQFlag:
 2236              	.LFB64:
 995:Generated_Source\PSoC4/nRF24_NRF_FUNCS.c **** 
 996:Generated_Source\PSoC4/nRF24_NRF_FUNCS.c **** /**
 997:Generated_Source\PSoC4/nRF24_NRF_FUNCS.c ****  * This method is used to get if any of the IRQ "flag" bits on the STATUS
 998:Generated_Source\PSoC4/nRF24_NRF_FUNCS.c ****  * register is set to 1. This function returns 0 is none of the flag bits
 999:Generated_Source\PSoC4/nRF24_NRF_FUNCS.c ****  * is not set to 1.
1000:Generated_Source\PSoC4/nRF24_NRF_FUNCS.c ****  *
1001:Generated_Source\PSoC4/nRF24_NRF_FUNCS.c ****  * @return NrfIRQ: Asserted bit of the interrupt flags.
1002:Generated_Source\PSoC4/nRF24_NRF_FUNCS.c ****  */
1003:Generated_Source\PSoC4/nRF24_NRF_FUNCS.c **** NrfIRQ nRF24_getIRQFlag(void)
1004:Generated_Source\PSoC4/nRF24_NRF_FUNCS.c **** {
 2237              		.loc 1 1004 0
 2238              		.cfi_startproc
 2239              		@ args = 0, pretend = 0, frame = 0
 2240              		@ frame_needed = 0, uses_anonymous_args = 0
 2241 0000 10B5     		push	{r4, lr}
 2242              		.cfi_def_cfa_offset 8
 2243              		.cfi_offset 4, -8
 2244              		.cfi_offset 14, -4
1005:Generated_Source\PSoC4/nRF24_NRF_FUNCS.c ****     // Get the STATUS register
1006:Generated_Source\PSoC4/nRF24_NRF_FUNCS.c ****     uint8_t sts = nRF24_NOPCmd();
 2245              		.loc 1 1006 0
 2246 0002 FFF7FEFF 		bl	nRF24_NOPCmd
 2247              	.LVL205:
1007:Generated_Source\PSoC4/nRF24_NRF_FUNCS.c **** 
1008:Generated_Source\PSoC4/nRF24_NRF_FUNCS.c ****     NrfIRQ irq = NRF_NONE_IRQ;
1009:Generated_Source\PSoC4/nRF24_NRF_FUNCS.c ****     
1010:Generated_Source\PSoC4/nRF24_NRF_FUNCS.c ****     // We only care if bits 4, 5 or 6 are set, so we mask the STATUS with 0x0111_0000
1011:Generated_Source\PSoC4/nRF24_NRF_FUNCS.c ****     switch (sts & 0x70) {
 2248              		.loc 1 1011 0
 2249 0006 7023     		movs	r3, #112
 2250 0008 1840     		ands	r0, r3
 2251              	.LVL206:
 2252 000a 2028     		cmp	r0, #32
 2253 000c 05D0     		beq	.L121
 2254 000e 4028     		cmp	r0, #64
 2255 0010 07D0     		beq	.L124
 2256 0012 1028     		cmp	r0, #16
 2257 0014 03D0     		beq	.L123
1008:Generated_Source\PSoC4/nRF24_NRF_FUNCS.c ****     
 2258              		.loc 1 1008 0
 2259 0016 0020     		movs	r0, #0
 2260 0018 04E0     		b	.L122
 2261              	.L121:
 2262              	.LVL207:
1012:Generated_Source\PSoC4/nRF24_NRF_FUNCS.c ****     case NRF_STATUS_RX_DR_MASK:
1013:Generated_Source\PSoC4/nRF24_NRF_FUNCS.c ****         irq = NRF_RX_DR_IRQ;
ARM GAS  C:\Users\Xwx47\AppData\Local\Temp\cc6J2i3F.s 			page 59


1014:Generated_Source\PSoC4/nRF24_NRF_FUNCS.c ****         break;
1015:Generated_Source\PSoC4/nRF24_NRF_FUNCS.c ****     case NRF_STATUS_TX_DS_MASK:
1016:Generated_Source\PSoC4/nRF24_NRF_FUNCS.c ****         irq = NRF_TX_DS_IRQ;
 2263              		.loc 1 1016 0
 2264 001a 0520     		movs	r0, #5
1017:Generated_Source\PSoC4/nRF24_NRF_FUNCS.c ****         break;
 2265              		.loc 1 1017 0
 2266 001c 02E0     		b	.L122
 2267              	.LVL208:
 2268              	.L123:
1018:Generated_Source\PSoC4/nRF24_NRF_FUNCS.c ****     case NRF_STATUS_MAX_RT_MASK:
1019:Generated_Source\PSoC4/nRF24_NRF_FUNCS.c ****         irq = NRF_MAX_RT_IRQ;
 2269              		.loc 1 1019 0
 2270 001e 0420     		movs	r0, #4
1020:Generated_Source\PSoC4/nRF24_NRF_FUNCS.c ****         break;
 2271              		.loc 1 1020 0
 2272 0020 00E0     		b	.L122
 2273              	.LVL209:
 2274              	.L124:
1013:Generated_Source\PSoC4/nRF24_NRF_FUNCS.c ****         break;
 2275              		.loc 1 1013 0
 2276 0022 0620     		movs	r0, #6
 2277              	.LVL210:
 2278              	.L122:
1021:Generated_Source\PSoC4/nRF24_NRF_FUNCS.c ****     default:
1022:Generated_Source\PSoC4/nRF24_NRF_FUNCS.c ****         break;
1023:Generated_Source\PSoC4/nRF24_NRF_FUNCS.c ****     }
1024:Generated_Source\PSoC4/nRF24_NRF_FUNCS.c ****     
1025:Generated_Source\PSoC4/nRF24_NRF_FUNCS.c ****     return irq;
1026:Generated_Source\PSoC4/nRF24_NRF_FUNCS.c **** }
 2279              		.loc 1 1026 0
 2280              		@ sp needed
 2281 0024 10BD     		pop	{r4, pc}
 2282              		.cfi_endproc
 2283              	.LFE64:
 2284              		.size	nRF24_getIRQFlag, .-nRF24_getIRQFlag
 2285 0026 C046     		.text
 2286              	.Letext0:
 2287              		.file 2 "c:\\program files (x86)\\cypress\\psoc creator\\4.1\\psoc creator\\import\\gnu\\arm\\5.4.
 2288              		.file 3 "c:\\program files (x86)\\cypress\\psoc creator\\4.1\\psoc creator\\import\\gnu\\arm\\5.4.
 2289              		.file 4 "c:\\program files (x86)\\cypress\\psoc creator\\4.1\\psoc creator\\import\\gnu\\arm\\5.4.
 2290              		.file 5 "Generated_Source\\PSoC4\\nRF24_NRF_REGS.h"
 2291              		.file 6 "Generated_Source\\PSoC4\\nRF24_LL_SPI.h"
 2292              		.file 7 "Generated_Source\\PSoC4/CE.h"
 2293              		.file 8 "Generated_Source\\PSoC4/CyLib.h"
 2294              		.file 9 "Generated_Source\\PSoC4\\nRF24_NRF_COMMANDS.h"
 2295              		.file 10 "Generated_Source\\PSoC4/SS.h"
 2296              		.file 11 "Generated_Source\\PSoC4/SPI.h"