ARM GAS  C:\Users\d3bug\AppData\Local\Temp\ccQAmDn0.s 			page 1


   1              		.syntax unified
   2              		.cpu cortex-m0plus
   3              		.fpu softvfp
   4              		.eabi_attribute 20, 1
   5              		.eabi_attribute 21, 1
   6              		.eabi_attribute 23, 3
   7              		.eabi_attribute 24, 1
   8              		.eabi_attribute 25, 1
   9              		.eabi_attribute 26, 1
  10              		.eabi_attribute 30, 1
  11              		.eabi_attribute 34, 0
  12              		.eabi_attribute 18, 4
  13              		.thumb
  14              		.syntax unified
  15              		.file	"nRF24_FUNCS.c"
  16              		.text
  17              	.Ltext0:
  18              		.cfi_sections	.debug_frame
  19              		.section	.text._addr_width_conf_to_bytes,"ax",%progbits
  20              		.align	2
  21              		.code	16
  22              		.thumb_func
  23              		.type	_addr_width_conf_to_bytes, %function
  24              	_addr_width_conf_to_bytes:
  25              	.LFB1:
  26              		.file 1 "Generated_Source\\PSoC4\\nRF24_FUNCS.c"
   1:Generated_Source\PSoC4/nRF24_FUNCS.c **** /**
   2:Generated_Source\PSoC4/nRF24_FUNCS.c **** * @file     nRF24_FUNCS.c
   3:Generated_Source\PSoC4/nRF24_FUNCS.c **** * @version  3
   4:Generated_Source\PSoC4/nRF24_FUNCS.c **** * @brief    This file define all the functions available to the user.
   5:Generated_Source\PSoC4/nRF24_FUNCS.c **** */
   6:Generated_Source\PSoC4/nRF24_FUNCS.c **** 
   7:Generated_Source\PSoC4/nRF24_FUNCS.c **** #include "nRF24_CONFIG.h"
   8:Generated_Source\PSoC4/nRF24_FUNCS.c **** #include "nRF24_HAL.h"
   9:Generated_Source\PSoC4/nRF24_FUNCS.c **** #include "nRF24_COMMANDS.h"
  10:Generated_Source\PSoC4/nRF24_FUNCS.c **** #include "nRF24_FUNCS.h"
  11:Generated_Source\PSoC4/nRF24_FUNCS.c **** #include "nRF24_DEFS.h"
  12:Generated_Source\PSoC4/nRF24_FUNCS.c **** 
  13:Generated_Source\PSoC4/nRF24_FUNCS.c **** /* "Helper" global variables */
  14:Generated_Source\PSoC4/nRF24_FUNCS.c **** /* _nrf_addr_width expresed in bytes, declared with the default value */
  15:Generated_Source\PSoC4/nRF24_FUNCS.c **** static nrf_pipe_addr_width _nrf_addr_width = NRF_PIPE_ADDR_WIDTH_5BYTES;
  16:Generated_Source\PSoC4/nRF24_FUNCS.c **** 
  17:Generated_Source\PSoC4/nRF24_FUNCS.c **** static void
  18:Generated_Source\PSoC4/nRF24_FUNCS.c **** _addr_width_conf_to_bytes(nrf_addr_width addr_width)
  19:Generated_Source\PSoC4/nRF24_FUNCS.c **** {
  27              		.loc 1 19 0
  28              		.cfi_startproc
  29              		@ args = 0, pretend = 0, frame = 0
  30              		@ frame_needed = 0, uses_anonymous_args = 0
  31              		@ link register save eliminated.
  32              	.LVL0:
  20:Generated_Source\PSoC4/nRF24_FUNCS.c ****     switch(addr_width)
  33              		.loc 1 20 0
  34 0000 0228     		cmp	r0, #2
  35 0002 07D0     		beq	.L3
  36 0004 0328     		cmp	r0, #3
  37 0006 09D0     		beq	.L4
ARM GAS  C:\Users\d3bug\AppData\Local\Temp\ccQAmDn0.s 			page 2


  38 0008 0128     		cmp	r0, #1
  39 000a 0AD1     		bne	.L1
  21:Generated_Source\PSoC4/nRF24_FUNCS.c ****     {
  22:Generated_Source\PSoC4/nRF24_FUNCS.c ****     case NRF_SETUP_AW_3BYTES:
  23:Generated_Source\PSoC4/nRF24_FUNCS.c ****         _nrf_addr_width = NRF_PIPE_ADDR_WIDTH_3BYTES;
  40              		.loc 1 23 0
  41 000c 0322     		movs	r2, #3
  42 000e 054B     		ldr	r3, .L6
  43 0010 1A70     		strb	r2, [r3]
  24:Generated_Source\PSoC4/nRF24_FUNCS.c ****         break;
  44              		.loc 1 24 0
  45 0012 06E0     		b	.L1
  46              	.L3:
  25:Generated_Source\PSoC4/nRF24_FUNCS.c ****     case NRF_SETUP_AW_4BYTES:
  26:Generated_Source\PSoC4/nRF24_FUNCS.c ****         _nrf_addr_width = NRF_PIPE_ADDR_WIDTH_4BYTES;
  47              		.loc 1 26 0
  48 0014 0422     		movs	r2, #4
  49 0016 034B     		ldr	r3, .L6
  50 0018 1A70     		strb	r2, [r3]
  27:Generated_Source\PSoC4/nRF24_FUNCS.c ****         break;
  51              		.loc 1 27 0
  52 001a 02E0     		b	.L1
  53              	.L4:
  28:Generated_Source\PSoC4/nRF24_FUNCS.c ****     case NRF_SETUP_AW_5BYTES:
  29:Generated_Source\PSoC4/nRF24_FUNCS.c ****         _nrf_addr_width = NRF_PIPE_ADDR_WIDTH_5BYTES;
  54              		.loc 1 29 0
  55 001c 0522     		movs	r2, #5
  56 001e 014B     		ldr	r3, .L6
  57 0020 1A70     		strb	r2, [r3]
  58              	.L1:
  30:Generated_Source\PSoC4/nRF24_FUNCS.c ****         break;
  31:Generated_Source\PSoC4/nRF24_FUNCS.c ****     }
  32:Generated_Source\PSoC4/nRF24_FUNCS.c **** }
  59              		.loc 1 32 0
  60              		@ sp needed
  61 0022 7047     		bx	lr
  62              	.L7:
  63              		.align	2
  64              	.L6:
  65 0024 00000000 		.word	.LANCHOR0
  66              		.cfi_endproc
  67              	.LFE1:
  68              		.size	_addr_width_conf_to_bytes, .-_addr_width_conf_to_bytes
  69              		.section	.text.nRF24_init,"ax",%progbits
  70              		.align	2
  71              		.global	nRF24_init
  72              		.code	16
  73              		.thumb_func
  74              		.type	nRF24_init, %function
  75              	nRF24_init:
  76              	.LFB3:
  33:Generated_Source\PSoC4/nRF24_FUNCS.c **** 
  34:Generated_Source\PSoC4/nRF24_FUNCS.c **** /**
  35:Generated_Source\PSoC4/nRF24_FUNCS.c ****  * @brief Configure the radio and clear IRQs, TX and RX FIFOs.
  36:Generated_Source\PSoC4/nRF24_FUNCS.c ****  */
  37:Generated_Source\PSoC4/nRF24_FUNCS.c **** void nRF24_start(void)
  38:Generated_Source\PSoC4/nRF24_FUNCS.c **** {
ARM GAS  C:\Users\d3bug\AppData\Local\Temp\ccQAmDn0.s 			page 3


  39:Generated_Source\PSoC4/nRF24_FUNCS.c ****     // Recommended delay before start using the nRF24
  40:Generated_Source\PSoC4/nRF24_FUNCS.c ****     CyDelay(NRF_POWER_UP_DELAY_MS);
  41:Generated_Source\PSoC4/nRF24_FUNCS.c **** 
  42:Generated_Source\PSoC4/nRF24_FUNCS.c ****     // Now the radio is in Power Down mode
  43:Generated_Source\PSoC4/nRF24_FUNCS.c **** 
  44:Generated_Source\PSoC4/nRF24_FUNCS.c **** #if defined (_PSOC6)
  45:Generated_Source\PSoC4/nRF24_FUNCS.c ****     /* We are using the low level driver, so pass NULL to the context */
  46:Generated_Source\PSoC4/nRF24_FUNCS.c ****     (void) Cy_SCB_SPI_Init(SPI_HW, &SPI_config, NULL);
  47:Generated_Source\PSoC4/nRF24_FUNCS.c ****     Cy_SCB_SPI_Enable(SPI_HW);
  48:Generated_Source\PSoC4/nRF24_FUNCS.c **** #else // _PSoC4_SCB and _PSOC_UDB
  49:Generated_Source\PSoC4/nRF24_FUNCS.c ****     SPI_Start();
  50:Generated_Source\PSoC4/nRF24_FUNCS.c **** #endif
  51:Generated_Source\PSoC4/nRF24_FUNCS.c ****     nRF24_ss_write(GPIO_SET);
  52:Generated_Source\PSoC4/nRF24_FUNCS.c ****     nRF24_ce_write(GPIO_CLEAR);
  53:Generated_Source\PSoC4/nRF24_FUNCS.c **** 
  54:Generated_Source\PSoC4/nRF24_FUNCS.c ****     // Flush both nRF24 FIFOs
  55:Generated_Source\PSoC4/nRF24_FUNCS.c ****     nRF24_cmd_flush_rx();
  56:Generated_Source\PSoC4/nRF24_FUNCS.c ****     nRF24_cmd_flush_tx();
  57:Generated_Source\PSoC4/nRF24_FUNCS.c ****     // Clear IRQ flags
  58:Generated_Source\PSoC4/nRF24_FUNCS.c ****     nRF24_clear_all_irqs();
  59:Generated_Source\PSoC4/nRF24_FUNCS.c **** 
  60:Generated_Source\PSoC4/nRF24_FUNCS.c ****     // Configure the nRF24 with the data from the customizer
  61:Generated_Source\PSoC4/nRF24_FUNCS.c ****     nRF24_init();
  62:Generated_Source\PSoC4/nRF24_FUNCS.c **** 
  63:Generated_Source\PSoC4/nRF24_FUNCS.c ****     // After PWR_UP = 1 the radio is in Standby-I mode, 130us of delay for settling
  64:Generated_Source\PSoC4/nRF24_FUNCS.c ****     CyDelayUs(150);
  65:Generated_Source\PSoC4/nRF24_FUNCS.c **** }
  66:Generated_Source\PSoC4/nRF24_FUNCS.c **** 
  67:Generated_Source\PSoC4/nRF24_FUNCS.c **** /**
  68:Generated_Source\PSoC4/nRF24_FUNCS.c ****  * Configure the nRF radio with the data from the customizer.
  69:Generated_Source\PSoC4/nRF24_FUNCS.c ****  */
  70:Generated_Source\PSoC4/nRF24_FUNCS.c **** void nRF24_init(void)
  71:Generated_Source\PSoC4/nRF24_FUNCS.c **** {
  77              		.loc 1 71 0
  78              		.cfi_startproc
  79              		@ args = 0, pretend = 0, frame = 40
  80              		@ frame_needed = 0, uses_anonymous_args = 0
  81 0000 30B5     		push	{r4, r5, lr}
  82              		.cfi_def_cfa_offset 12
  83              		.cfi_offset 4, -12
  84              		.cfi_offset 5, -8
  85              		.cfi_offset 14, -4
  86 0002 8BB0     		sub	sp, sp, #44
  87              		.cfi_def_cfa_offset 56
  72:Generated_Source\PSoC4/nRF24_FUNCS.c ****     nRF24_write_reg(NRF_REG_EN_AA, (uint8_t []){CUSTOMIZER_EN_AA}, 1);
  88              		.loc 1 72 0
  89 0004 0124     		movs	r4, #1
  90 0006 6B46     		mov	r3, sp
  91 0008 1C70     		strb	r4, [r3]
  92 000a 0122     		movs	r2, #1
  93 000c 6946     		mov	r1, sp
  94 000e 0120     		movs	r0, #1
  95 0010 FFF7FEFF 		bl	nRF24_write_reg
  96              	.LVL1:
  73:Generated_Source\PSoC4/nRF24_FUNCS.c ****     nRF24_write_reg(NRF_REG_EN_RXADDR, (uint8_t []){CUSTOMIZER_EN_RXADDR}, 1);
  97              		.loc 1 73 0
  98 0014 01A9     		add	r1, sp, #4
ARM GAS  C:\Users\d3bug\AppData\Local\Temp\ccQAmDn0.s 			page 4


  99 0016 0C70     		strb	r4, [r1]
 100 0018 0122     		movs	r2, #1
 101 001a 0220     		movs	r0, #2
 102 001c FFF7FEFF 		bl	nRF24_write_reg
 103              	.LVL2:
  74:Generated_Source\PSoC4/nRF24_FUNCS.c ****     nRF24_write_reg(NRF_REG_SETUP_AW, (uint8_t []){CUSTOMIZER_SETUP_AW}, 1);
 104              		.loc 1 74 0
 105 0020 02A9     		add	r1, sp, #8
 106 0022 0325     		movs	r5, #3
 107 0024 0D70     		strb	r5, [r1]
 108 0026 0122     		movs	r2, #1
 109 0028 0320     		movs	r0, #3
 110 002a FFF7FEFF 		bl	nRF24_write_reg
 111              	.LVL3:
  75:Generated_Source\PSoC4/nRF24_FUNCS.c ****     nRF24_write_reg(NRF_REG_SETUP_RETR, (uint8_t []){CUSTOMIZER_SETUP_RETR}, 1);
 112              		.loc 1 75 0
 113 002e 03A9     		add	r1, sp, #12
 114 0030 0D70     		strb	r5, [r1]
 115 0032 0122     		movs	r2, #1
 116 0034 0420     		movs	r0, #4
 117 0036 FFF7FEFF 		bl	nRF24_write_reg
 118              	.LVL4:
  76:Generated_Source\PSoC4/nRF24_FUNCS.c ****     nRF24_write_reg(NRF_REG_RF_CH, (uint8_t []){CUSTOMIZER_RF_CH}, 1);
 119              		.loc 1 76 0
 120 003a 04A9     		add	r1, sp, #16
 121 003c 4B23     		movs	r3, #75
 122 003e 0B70     		strb	r3, [r1]
 123 0040 0122     		movs	r2, #1
 124 0042 0520     		movs	r0, #5
 125 0044 FFF7FEFF 		bl	nRF24_write_reg
 126              	.LVL5:
  77:Generated_Source\PSoC4/nRF24_FUNCS.c ****     nRF24_write_reg(NRF_REG_RF_SETUP, (uint8_t []){CUSTOMIZER_RF_SETUP}, 1);
 127              		.loc 1 77 0
 128 0048 05A9     		add	r1, sp, #20
 129 004a 2623     		movs	r3, #38
 130 004c 0B70     		strb	r3, [r1]
 131 004e 0122     		movs	r2, #1
 132 0050 0620     		movs	r0, #6
 133 0052 FFF7FEFF 		bl	nRF24_write_reg
 134              	.LVL6:
  78:Generated_Source\PSoC4/nRF24_FUNCS.c ****     nRF24_write_reg(NRF_REG_DYNPD, (uint8_t []){CUSTOMIZER_DYNPD}, 1);
 135              		.loc 1 78 0
 136 0056 06A9     		add	r1, sp, #24
 137 0058 0025     		movs	r5, #0
 138 005a 0D70     		strb	r5, [r1]
 139 005c 0122     		movs	r2, #1
 140 005e 1C20     		movs	r0, #28
 141 0060 FFF7FEFF 		bl	nRF24_write_reg
 142              	.LVL7:
  79:Generated_Source\PSoC4/nRF24_FUNCS.c ****     nRF24_write_reg(NRF_REG_FEATURE, (uint8_t []){CUSTOMIZER_FEATURE}, 1);
 143              		.loc 1 79 0
 144 0064 07A9     		add	r1, sp, #28
 145 0066 0D70     		strb	r5, [r1]
 146 0068 0122     		movs	r2, #1
 147 006a 1D20     		movs	r0, #29
 148 006c FFF7FEFF 		bl	nRF24_write_reg
 149              	.LVL8:
ARM GAS  C:\Users\d3bug\AppData\Local\Temp\ccQAmDn0.s 			page 5


  80:Generated_Source\PSoC4/nRF24_FUNCS.c **** 
  81:Generated_Source\PSoC4/nRF24_FUNCS.c **** // Configuring data pipes
  82:Generated_Source\PSoC4/nRF24_FUNCS.c **** #if (ENABLE_PIPE0 == 1)
  83:Generated_Source\PSoC4/nRF24_FUNCS.c ****     nRF24_write_reg(NRF_REG_RX_PW_P0, (uint8_t []){CUSTOMIZER_RX_PW_P0}, 1);
 150              		.loc 1 83 0
 151 0070 08A9     		add	r1, sp, #32
 152 0072 0C70     		strb	r4, [r1]
 153 0074 0122     		movs	r2, #1
 154 0076 1120     		movs	r0, #17
 155 0078 FFF7FEFF 		bl	nRF24_write_reg
 156              	.LVL9:
  84:Generated_Source\PSoC4/nRF24_FUNCS.c **** #endif
  85:Generated_Source\PSoC4/nRF24_FUNCS.c **** #if (ENABLE_PIPE1 == 1)
  86:Generated_Source\PSoC4/nRF24_FUNCS.c ****     nRF24_write_reg(NRF_REG_RX_PW_P1, (uint8_t []){CUSTOMIZER_RX_PW_P1}, 1);
  87:Generated_Source\PSoC4/nRF24_FUNCS.c **** #endif
  88:Generated_Source\PSoC4/nRF24_FUNCS.c **** #if (ENABLE_PIPE2 == 1)
  89:Generated_Source\PSoC4/nRF24_FUNCS.c ****     nRF24_write_reg(NRF_REG_RX_ADDR_P2, (uint8_t []){CUSTOMIZER_RX_ADDR_P2}, 1);
  90:Generated_Source\PSoC4/nRF24_FUNCS.c ****     nRF24_write_reg(NRF_REG_RX_PW_P2, (uint8_t []){CUSTOMIZER_RX_PW_P2}, 1);
  91:Generated_Source\PSoC4/nRF24_FUNCS.c **** #endif
  92:Generated_Source\PSoC4/nRF24_FUNCS.c **** #if (ENABLE_PIPE3 == 1)
  93:Generated_Source\PSoC4/nRF24_FUNCS.c ****     nRF24_write_reg(NRF_REG_RX_ADDR_P3, (uint8_t []){CUSTOMIZER_RX_ADDR_P3}, 1);
  94:Generated_Source\PSoC4/nRF24_FUNCS.c ****     nRF24_write_reg(NRF_REG_RX_PW_P3, (uint8_t []){CUSTOMIZER_RX_PW_P3}, 1);
  95:Generated_Source\PSoC4/nRF24_FUNCS.c **** #endif
  96:Generated_Source\PSoC4/nRF24_FUNCS.c **** #if (ENABLE_PIPE4 == 1)
  97:Generated_Source\PSoC4/nRF24_FUNCS.c ****     nRF24_write_reg(NRF_REG_RX_ADDR_P4, (uint8_t []){CUSTOMIZER_RX_ADDR_P4}, 1);
  98:Generated_Source\PSoC4/nRF24_FUNCS.c ****     nRF24_write_reg(NRF_REG_RX_PW_P4, (uint8_t []){CUSTOMIZER_RX_PW_P4}, 1);
  99:Generated_Source\PSoC4/nRF24_FUNCS.c **** #endif
 100:Generated_Source\PSoC4/nRF24_FUNCS.c **** #if (ENABLE_PIPE5 == 1)
 101:Generated_Source\PSoC4/nRF24_FUNCS.c ****     nRF24_write_reg(NRF_REG_RX_ADDR_P5, (uint8_t []){CUSTOMIZER_RX_ADDR_P5}, 1);
 102:Generated_Source\PSoC4/nRF24_FUNCS.c ****     nRF24_write_reg(NRF_REG_RX_PW_P5, (uint8_t []){CUSTOMIZER_RX_PW_P5}, 1);
 103:Generated_Source\PSoC4/nRF24_FUNCS.c **** #endif
 104:Generated_Source\PSoC4/nRF24_FUNCS.c **** 
 105:Generated_Source\PSoC4/nRF24_FUNCS.c ****     nRF24_write_reg(NRF_REG_CONFIG, (uint8_t []){CUSTOMIZER_CONFIG}, 1);
 157              		.loc 1 105 0
 158 007c 09A9     		add	r1, sp, #36
 159 007e 3B23     		movs	r3, #59
 160 0080 0B70     		strb	r3, [r1]
 161 0082 0122     		movs	r2, #1
 162 0084 0020     		movs	r0, #0
 163 0086 FFF7FEFF 		bl	nRF24_write_reg
 164              	.LVL10:
 106:Generated_Source\PSoC4/nRF24_FUNCS.c **** 
 107:Generated_Source\PSoC4/nRF24_FUNCS.c ****     // Set the _nrf_addr_width variable
 108:Generated_Source\PSoC4/nRF24_FUNCS.c ****     _addr_width_conf_to_bytes(CUSTOMIZER_SETUP_AW);
 165              		.loc 1 108 0
 166 008a 0320     		movs	r0, #3
 167 008c FFF7FEFF 		bl	_addr_width_conf_to_bytes
 168              	.LVL11:
 109:Generated_Source\PSoC4/nRF24_FUNCS.c **** }
 169              		.loc 1 109 0
 170 0090 0BB0     		add	sp, sp, #44
 171              		@ sp needed
 172 0092 30BD     		pop	{r4, r5, pc}
 173              		.cfi_endproc
 174              	.LFE3:
 175              		.size	nRF24_init, .-nRF24_init
 176              		.section	.text.nRF24_enable,"ax",%progbits
ARM GAS  C:\Users\d3bug\AppData\Local\Temp\ccQAmDn0.s 			page 6


 177              		.align	2
 178              		.global	nRF24_enable
 179              		.code	16
 180              		.thumb_func
 181              		.type	nRF24_enable, %function
 182              	nRF24_enable:
 183              	.LFB4:
 110:Generated_Source\PSoC4/nRF24_FUNCS.c **** 
 111:Generated_Source\PSoC4/nRF24_FUNCS.c **** /**
 112:Generated_Source\PSoC4/nRF24_FUNCS.c ****  * Enable the nRF24 radio.
 113:Generated_Source\PSoC4/nRF24_FUNCS.c ****  *
 114:Generated_Source\PSoC4/nRF24_FUNCS.c ****  * @todo Implement this function
 115:Generated_Source\PSoC4/nRF24_FUNCS.c ****  */
 116:Generated_Source\PSoC4/nRF24_FUNCS.c **** void nRF24_enable(void)
 117:Generated_Source\PSoC4/nRF24_FUNCS.c **** {
 184              		.loc 1 117 0
 185              		.cfi_startproc
 186              		@ args = 0, pretend = 0, frame = 0
 187              		@ frame_needed = 0, uses_anonymous_args = 0
 188              		@ link register save eliminated.
 118:Generated_Source\PSoC4/nRF24_FUNCS.c **** }
 189              		.loc 1 118 0
 190              		@ sp needed
 191 0000 7047     		bx	lr
 192              		.cfi_endproc
 193              	.LFE4:
 194              		.size	nRF24_enable, .-nRF24_enable
 195 0002 C046     		.section	.text.nRF24_stop,"ax",%progbits
 196              		.align	2
 197              		.global	nRF24_stop
 198              		.code	16
 199              		.thumb_func
 200              		.type	nRF24_stop, %function
 201              	nRF24_stop:
 202              	.LFB5:
 119:Generated_Source\PSoC4/nRF24_FUNCS.c **** 
 120:Generated_Source\PSoC4/nRF24_FUNCS.c **** /**
 121:Generated_Source\PSoC4/nRF24_FUNCS.c ****  * Stop the nRF24 radio.
 122:Generated_Source\PSoC4/nRF24_FUNCS.c ****  *
 123:Generated_Source\PSoC4/nRF24_FUNCS.c ****  * @todo Implement this function
 124:Generated_Source\PSoC4/nRF24_FUNCS.c ****  */
 125:Generated_Source\PSoC4/nRF24_FUNCS.c **** void nRF24_stop(void)
 126:Generated_Source\PSoC4/nRF24_FUNCS.c **** {
 203              		.loc 1 126 0
 204              		.cfi_startproc
 205              		@ args = 0, pretend = 0, frame = 0
 206              		@ frame_needed = 0, uses_anonymous_args = 0
 207              		@ link register save eliminated.
 127:Generated_Source\PSoC4/nRF24_FUNCS.c **** }
 208              		.loc 1 127 0
 209              		@ sp needed
 210 0000 7047     		bx	lr
 211              		.cfi_endproc
 212              	.LFE5:
 213              		.size	nRF24_stop, .-nRF24_stop
 214 0002 C046     		.section	.text.nRF24_wakeup,"ax",%progbits
 215              		.align	2
ARM GAS  C:\Users\d3bug\AppData\Local\Temp\ccQAmDn0.s 			page 7


 216              		.global	nRF24_wakeup
 217              		.code	16
 218              		.thumb_func
 219              		.type	nRF24_wakeup, %function
 220              	nRF24_wakeup:
 221              	.LFB7:
 128:Generated_Source\PSoC4/nRF24_FUNCS.c **** 
 129:Generated_Source\PSoC4/nRF24_FUNCS.c **** /**
 130:Generated_Source\PSoC4/nRF24_FUNCS.c ****  * Put the nRF24 radio on Standby-I mode.
 131:Generated_Source\PSoC4/nRF24_FUNCS.c ****  * 
 132:Generated_Source\PSoC4/nRF24_FUNCS.c ****  * @note Is standby-I the lowest power mode?
 133:Generated_Source\PSoC4/nRF24_FUNCS.c ****  */
 134:Generated_Source\PSoC4/nRF24_FUNCS.c **** void nRF24_sleep(void)
 135:Generated_Source\PSoC4/nRF24_FUNCS.c **** {
 136:Generated_Source\PSoC4/nRF24_FUNCS.c ****     nRF24_set_standby_i_mode();
 137:Generated_Source\PSoC4/nRF24_FUNCS.c **** }
 138:Generated_Source\PSoC4/nRF24_FUNCS.c **** 
 139:Generated_Source\PSoC4/nRF24_FUNCS.c **** /**
 140:Generated_Source\PSoC4/nRF24_FUNCS.c ****  * Wakeup the nRF24 radio, and restore the configuration.
 141:Generated_Source\PSoC4/nRF24_FUNCS.c ****  */
 142:Generated_Source\PSoC4/nRF24_FUNCS.c **** void nRF24_wakeup(void)
 143:Generated_Source\PSoC4/nRF24_FUNCS.c **** {
 222              		.loc 1 143 0
 223              		.cfi_startproc
 224              		@ args = 0, pretend = 0, frame = 0
 225              		@ frame_needed = 0, uses_anonymous_args = 0
 226 0000 10B5     		push	{r4, lr}
 227              		.cfi_def_cfa_offset 8
 228              		.cfi_offset 4, -8
 229              		.cfi_offset 14, -4
 144:Generated_Source\PSoC4/nRF24_FUNCS.c ****     nRF24_set_bit(NRF_REG_CONFIG, NRF_CONFIG_BIT_PWR_UP);
 230              		.loc 1 144 0
 231 0002 0121     		movs	r1, #1
 232 0004 0020     		movs	r0, #0
 233 0006 FFF7FEFF 		bl	nRF24_set_bit
 234              	.LVL12:
 145:Generated_Source\PSoC4/nRF24_FUNCS.c ****     // after leaving standby-I mode the radio need a time to return to TX or
 146:Generated_Source\PSoC4/nRF24_FUNCS.c ****     // RX Mode
 147:Generated_Source\PSoC4/nRF24_FUNCS.c ****     CyDelay(5);
 235              		.loc 1 147 0
 236 000a 0520     		movs	r0, #5
 237 000c FFF7FEFF 		bl	CyDelay
 238              	.LVL13:
 148:Generated_Source\PSoC4/nRF24_FUNCS.c **** }
 239              		.loc 1 148 0
 240              		@ sp needed
 241 0010 10BD     		pop	{r4, pc}
 242              		.cfi_endproc
 243              	.LFE7:
 244              		.size	nRF24_wakeup, .-nRF24_wakeup
 245 0012 C046     		.section	.text.nRF24_save_config,"ax",%progbits
 246              		.align	2
 247              		.global	nRF24_save_config
 248              		.code	16
 249              		.thumb_func
 250              		.type	nRF24_save_config, %function
 251              	nRF24_save_config:
ARM GAS  C:\Users\d3bug\AppData\Local\Temp\ccQAmDn0.s 			page 8


 252              	.LFB8:
 149:Generated_Source\PSoC4/nRF24_FUNCS.c **** 
 150:Generated_Source\PSoC4/nRF24_FUNCS.c **** /**
 151:Generated_Source\PSoC4/nRF24_FUNCS.c ****  * Save the nRF24 radio configuration.
 152:Generated_Source\PSoC4/nRF24_FUNCS.c ****  *
 153:Generated_Source\PSoC4/nRF24_FUNCS.c ****  * @todo Implement this function.
 154:Generated_Source\PSoC4/nRF24_FUNCS.c ****  */
 155:Generated_Source\PSoC4/nRF24_FUNCS.c **** void nRF24_save_config(void)
 156:Generated_Source\PSoC4/nRF24_FUNCS.c **** {
 253              		.loc 1 156 0
 254              		.cfi_startproc
 255              		@ args = 0, pretend = 0, frame = 0
 256              		@ frame_needed = 0, uses_anonymous_args = 0
 257              		@ link register save eliminated.
 157:Generated_Source\PSoC4/nRF24_FUNCS.c **** }
 258              		.loc 1 157 0
 259              		@ sp needed
 260 0000 7047     		bx	lr
 261              		.cfi_endproc
 262              	.LFE8:
 263              		.size	nRF24_save_config, .-nRF24_save_config
 264 0002 C046     		.section	.text.nRF24_restore_config,"ax",%progbits
 265              		.align	2
 266              		.global	nRF24_restore_config
 267              		.code	16
 268              		.thumb_func
 269              		.type	nRF24_restore_config, %function
 270              	nRF24_restore_config:
 271              	.LFB9:
 158:Generated_Source\PSoC4/nRF24_FUNCS.c **** 
 159:Generated_Source\PSoC4/nRF24_FUNCS.c **** /**
 160:Generated_Source\PSoC4/nRF24_FUNCS.c ****  * Restore the nRF24 radio configuration.
 161:Generated_Source\PSoC4/nRF24_FUNCS.c ****  *
 162:Generated_Source\PSoC4/nRF24_FUNCS.c ****  * @todo Implement this function.
 163:Generated_Source\PSoC4/nRF24_FUNCS.c ****  */
 164:Generated_Source\PSoC4/nRF24_FUNCS.c **** void nRF24_restore_config(void)
 165:Generated_Source\PSoC4/nRF24_FUNCS.c **** {
 272              		.loc 1 165 0
 273              		.cfi_startproc
 274              		@ args = 0, pretend = 0, frame = 0
 275              		@ frame_needed = 0, uses_anonymous_args = 0
 276              		@ link register save eliminated.
 166:Generated_Source\PSoC4/nRF24_FUNCS.c **** }
 277              		.loc 1 166 0
 278              		@ sp needed
 279 0000 7047     		bx	lr
 280              		.cfi_endproc
 281              	.LFE9:
 282              		.size	nRF24_restore_config, .-nRF24_restore_config
 283 0002 C046     		.section	.text.nRF24_set_power_down_mode,"ax",%progbits
 284              		.align	2
 285              		.global	nRF24_set_power_down_mode
 286              		.code	16
 287              		.thumb_func
 288              		.type	nRF24_set_power_down_mode, %function
 289              	nRF24_set_power_down_mode:
 290              	.LFB11:
ARM GAS  C:\Users\d3bug\AppData\Local\Temp\ccQAmDn0.s 			page 9


 167:Generated_Source\PSoC4/nRF24_FUNCS.c **** 
 168:Generated_Source\PSoC4/nRF24_FUNCS.c **** /**
 169:Generated_Source\PSoC4/nRF24_FUNCS.c ****  * Configure the radio as Receiver or Transmitter.
 170:Generated_Source\PSoC4/nRF24_FUNCS.c ****  *
 171:Generated_Source\PSoC4/nRF24_FUNCS.c ****  * @param const nrf_mode mode: The radio can be configured as Receiver (PRX)
 172:Generated_Source\PSoC4/nRF24_FUNCS.c ****  * or Transmitter (PTX).
 173:Generated_Source\PSoC4/nRF24_FUNCS.c ****  */
 174:Generated_Source\PSoC4/nRF24_FUNCS.c **** void nRF24_set_mode(const nrf_mode mode)
 175:Generated_Source\PSoC4/nRF24_FUNCS.c **** {
 176:Generated_Source\PSoC4/nRF24_FUNCS.c ****     mode == NRF_MODE_RX ? nRF24_set_rx_mode() : nRF24_set_tx_mode();
 177:Generated_Source\PSoC4/nRF24_FUNCS.c **** }
 178:Generated_Source\PSoC4/nRF24_FUNCS.c **** 
 179:Generated_Source\PSoC4/nRF24_FUNCS.c **** /**
 180:Generated_Source\PSoC4/nRF24_FUNCS.c ****  * @brief Set radio in Power Down Mode.
 181:Generated_Source\PSoC4/nRF24_FUNCS.c ****  *
 182:Generated_Source\PSoC4/nRF24_FUNCS.c ****  * In power down mode nRF24 is disabled using minimal current consumption.
 183:Generated_Source\PSoC4/nRF24_FUNCS.c ****  * All register values available are maintained and the SPI is kept active,
 184:Generated_Source\PSoC4/nRF24_FUNCS.c ****  * enabling change of configuration and the uploading/downloading of data
 185:Generated_Source\PSoC4/nRF24_FUNCS.c ****  * registers.
 186:Generated_Source\PSoC4/nRF24_FUNCS.c ****  * Power down mode is entered by setting the PWR_UP bit (CONFIG register) to 0.
 187:Generated_Source\PSoC4/nRF24_FUNCS.c ****  */
 188:Generated_Source\PSoC4/nRF24_FUNCS.c **** void nRF24_set_power_down_mode(void)
 189:Generated_Source\PSoC4/nRF24_FUNCS.c **** {
 291              		.loc 1 189 0
 292              		.cfi_startproc
 293              		@ args = 0, pretend = 0, frame = 0
 294              		@ frame_needed = 0, uses_anonymous_args = 0
 295 0000 10B5     		push	{r4, lr}
 296              		.cfi_def_cfa_offset 8
 297              		.cfi_offset 4, -8
 298              		.cfi_offset 14, -4
 190:Generated_Source\PSoC4/nRF24_FUNCS.c ****     nRF24_clear_bit(NRF_REG_CONFIG, NRF_CONFIG_BIT_PWR_UP);
 299              		.loc 1 190 0
 300 0002 0121     		movs	r1, #1
 301 0004 0020     		movs	r0, #0
 302 0006 FFF7FEFF 		bl	nRF24_clear_bit
 303              	.LVL14:
 191:Generated_Source\PSoC4/nRF24_FUNCS.c **** }
 304              		.loc 1 191 0
 305              		@ sp needed
 306 000a 10BD     		pop	{r4, pc}
 307              		.cfi_endproc
 308              	.LFE11:
 309              		.size	nRF24_set_power_down_mode, .-nRF24_set_power_down_mode
 310              		.section	.text.nRF24_set_rx_mode,"ax",%progbits
 311              		.align	2
 312              		.global	nRF24_set_rx_mode
 313              		.code	16
 314              		.thumb_func
 315              		.type	nRF24_set_rx_mode, %function
 316              	nRF24_set_rx_mode:
 317              	.LFB14:
 192:Generated_Source\PSoC4/nRF24_FUNCS.c **** 
 193:Generated_Source\PSoC4/nRF24_FUNCS.c **** /**
 194:Generated_Source\PSoC4/nRF24_FUNCS.c ****  * @brief Set the radio in Standby I Mode.
 195:Generated_Source\PSoC4/nRF24_FUNCS.c ****  *
 196:Generated_Source\PSoC4/nRF24_FUNCS.c ****  * By setting the PWR_UP bit in the CONFIG register to 1, the device enters
ARM GAS  C:\Users\d3bug\AppData\Local\Temp\ccQAmDn0.s 			page 10


 197:Generated_Source\PSoC4/nRF24_FUNCS.c ****  * standby-I mode. Standby-I mode is used to minimize average current
 198:Generated_Source\PSoC4/nRF24_FUNCS.c ****  * consumption while maintaining short start up times.
 199:Generated_Source\PSoC4/nRF24_FUNCS.c ****  * In this mode only part of the crystal oscillator is active. Change to
 200:Generated_Source\PSoC4/nRF24_FUNCS.c ****  * active modes only happens if CE is set high and when CE is set low,
 201:Generated_Source\PSoC4/nRF24_FUNCS.c ****  * the nRF24 returns to standby-I mode from both the TX and RX modes.
 202:Generated_Source\PSoC4/nRF24_FUNCS.c ****  */
 203:Generated_Source\PSoC4/nRF24_FUNCS.c **** void nRF24_set_standby_i_mode(void)
 204:Generated_Source\PSoC4/nRF24_FUNCS.c **** {
 205:Generated_Source\PSoC4/nRF24_FUNCS.c ****     nRF24_stop_listening();
 206:Generated_Source\PSoC4/nRF24_FUNCS.c ****     nRF24_set_bit(NRF_REG_CONFIG, NRF_CONFIG_PWR_UP);
 207:Generated_Source\PSoC4/nRF24_FUNCS.c **** }
 208:Generated_Source\PSoC4/nRF24_FUNCS.c **** 
 209:Generated_Source\PSoC4/nRF24_FUNCS.c **** /**
 210:Generated_Source\PSoC4/nRF24_FUNCS.c ****  * @brief Set the radio in Standby II Mode.
 211:Generated_Source\PSoC4/nRF24_FUNCS.c ****  *
 212:Generated_Source\PSoC4/nRF24_FUNCS.c ****  * In standby-II mode extra clock buffers are active and more current is used
 213:Generated_Source\PSoC4/nRF24_FUNCS.c ****  * compared to standby-I mode. nRF24 enters standby-II mode if CE is held high
 214:Generated_Source\PSoC4/nRF24_FUNCS.c ****  * on a TX device with an empty TX FIFO.
 215:Generated_Source\PSoC4/nRF24_FUNCS.c ****  * If a new packet is uploaded to the TX FIFO, the PLL immediately starts and
 216:Generated_Source\PSoC4/nRF24_FUNCS.c ****  * the packet is transmitted after the normal PLL settling  delay (130us).
 217:Generated_Source\PSoC4/nRF24_FUNCS.c ****  */
 218:Generated_Source\PSoC4/nRF24_FUNCS.c **** void nRF24_set_standby_ii_mode(void)
 219:Generated_Source\PSoC4/nRF24_FUNCS.c **** {
 220:Generated_Source\PSoC4/nRF24_FUNCS.c ****     nRF24_start_listening();
 221:Generated_Source\PSoC4/nRF24_FUNCS.c ****     nRF24_set_bit(NRF_REG_CONFIG, NRF_CONFIG_BIT_PWR_UP);
 222:Generated_Source\PSoC4/nRF24_FUNCS.c **** }
 223:Generated_Source\PSoC4/nRF24_FUNCS.c **** 
 224:Generated_Source\PSoC4/nRF24_FUNCS.c **** /**
 225:Generated_Source\PSoC4/nRF24_FUNCS.c ****  * @brief Set the radio in Receiver (Rx) Mode.
 226:Generated_Source\PSoC4/nRF24_FUNCS.c ****  *
 227:Generated_Source\PSoC4/nRF24_FUNCS.c ****  * RX mode is an active mode where the nRF24 radio is used as receiver. To
 228:Generated_Source\PSoC4/nRF24_FUNCS.c ****  * enter this mode, the nRF24 must have the PWR_UP bit, PRIM_RX bit and the CE
 229:Generated_Source\PSoC4/nRF24_FUNCS.c ****  * pin set high.
 230:Generated_Source\PSoC4/nRF24_FUNCS.c ****  */
 231:Generated_Source\PSoC4/nRF24_FUNCS.c **** void nRF24_set_rx_mode(void)
 232:Generated_Source\PSoC4/nRF24_FUNCS.c **** {
 318              		.loc 1 232 0
 319              		.cfi_startproc
 320              		@ args = 0, pretend = 0, frame = 0
 321              		@ frame_needed = 0, uses_anonymous_args = 0
 322 0000 10B5     		push	{r4, lr}
 323              		.cfi_def_cfa_offset 8
 324              		.cfi_offset 4, -8
 325              		.cfi_offset 14, -4
 233:Generated_Source\PSoC4/nRF24_FUNCS.c ****     nRF24_set_bit(NRF_REG_CONFIG, NRF_CONFIG_BIT_PRIM_RX);
 326              		.loc 1 233 0
 327 0002 0021     		movs	r1, #0
 328 0004 0020     		movs	r0, #0
 329 0006 FFF7FEFF 		bl	nRF24_set_bit
 330              	.LVL15:
 234:Generated_Source\PSoC4/nRF24_FUNCS.c **** }
 331              		.loc 1 234 0
 332              		@ sp needed
 333 000a 10BD     		pop	{r4, pc}
 334              		.cfi_endproc
 335              	.LFE14:
 336              		.size	nRF24_set_rx_mode, .-nRF24_set_rx_mode
ARM GAS  C:\Users\d3bug\AppData\Local\Temp\ccQAmDn0.s 			page 11


 337              		.section	.text.nRF24_set_tx_mode,"ax",%progbits
 338              		.align	2
 339              		.global	nRF24_set_tx_mode
 340              		.code	16
 341              		.thumb_func
 342              		.type	nRF24_set_tx_mode, %function
 343              	nRF24_set_tx_mode:
 344              	.LFB15:
 235:Generated_Source\PSoC4/nRF24_FUNCS.c **** 
 236:Generated_Source\PSoC4/nRF24_FUNCS.c **** /**
 237:Generated_Source\PSoC4/nRF24_FUNCS.c ****  * @brief Set the radio in Transmitted (Tx) Mode.
 238:Generated_Source\PSoC4/nRF24_FUNCS.c ****  *
 239:Generated_Source\PSoC4/nRF24_FUNCS.c ****  * TX mode is an active mode for transmitting packets. To enter this mode,
 240:Generated_Source\PSoC4/nRF24_FUNCS.c ****  * the nRF24 must have the PWR_UP bit set high, PRIM_RX bit set low, a payload
 241:Generated_Source\PSoC4/nRF24_FUNCS.c ****  * in the TX FIFO and a high pulse on the CE for more than 10us.
 242:Generated_Source\PSoC4/nRF24_FUNCS.c ****  */
 243:Generated_Source\PSoC4/nRF24_FUNCS.c **** void nRF24_set_tx_mode(void)
 244:Generated_Source\PSoC4/nRF24_FUNCS.c **** {
 345              		.loc 1 244 0
 346              		.cfi_startproc
 347              		@ args = 0, pretend = 0, frame = 0
 348              		@ frame_needed = 0, uses_anonymous_args = 0
 349 0000 10B5     		push	{r4, lr}
 350              		.cfi_def_cfa_offset 8
 351              		.cfi_offset 4, -8
 352              		.cfi_offset 14, -4
 245:Generated_Source\PSoC4/nRF24_FUNCS.c ****     nRF24_clear_bit(NRF_REG_CONFIG, NRF_CONFIG_BIT_PRIM_RX);
 353              		.loc 1 245 0
 354 0002 0021     		movs	r1, #0
 355 0004 0020     		movs	r0, #0
 356 0006 FFF7FEFF 		bl	nRF24_clear_bit
 357              	.LVL16:
 246:Generated_Source\PSoC4/nRF24_FUNCS.c **** }
 358              		.loc 1 246 0
 359              		@ sp needed
 360 000a 10BD     		pop	{r4, pc}
 361              		.cfi_endproc
 362              	.LFE15:
 363              		.size	nRF24_set_tx_mode, .-nRF24_set_tx_mode
 364              		.section	.text.nRF24_set_mode,"ax",%progbits
 365              		.align	2
 366              		.global	nRF24_set_mode
 367              		.code	16
 368              		.thumb_func
 369              		.type	nRF24_set_mode, %function
 370              	nRF24_set_mode:
 371              	.LFB10:
 175:Generated_Source\PSoC4/nRF24_FUNCS.c ****     mode == NRF_MODE_RX ? nRF24_set_rx_mode() : nRF24_set_tx_mode();
 372              		.loc 1 175 0
 373              		.cfi_startproc
 374              		@ args = 0, pretend = 0, frame = 0
 375              		@ frame_needed = 0, uses_anonymous_args = 0
 376              	.LVL17:
 377 0000 10B5     		push	{r4, lr}
 378              		.cfi_def_cfa_offset 8
 379              		.cfi_offset 4, -8
 380              		.cfi_offset 14, -4
ARM GAS  C:\Users\d3bug\AppData\Local\Temp\ccQAmDn0.s 			page 12


 176:Generated_Source\PSoC4/nRF24_FUNCS.c **** }
 381              		.loc 1 176 0
 382 0002 0128     		cmp	r0, #1
 383 0004 02D1     		bne	.L18
 176:Generated_Source\PSoC4/nRF24_FUNCS.c **** }
 384              		.loc 1 176 0 is_stmt 0 discriminator 1
 385 0006 FFF7FEFF 		bl	nRF24_set_rx_mode
 386              	.LVL18:
 387 000a 01E0     		b	.L17
 388              	.LVL19:
 389              	.L18:
 176:Generated_Source\PSoC4/nRF24_FUNCS.c **** }
 390              		.loc 1 176 0 discriminator 2
 391 000c FFF7FEFF 		bl	nRF24_set_tx_mode
 392              	.LVL20:
 393              	.L17:
 177:Generated_Source\PSoC4/nRF24_FUNCS.c **** 
 394              		.loc 1 177 0 is_stmt 1
 395              		@ sp needed
 396 0010 10BD     		pop	{r4, pc}
 397              		.cfi_endproc
 398              	.LFE10:
 399              		.size	nRF24_set_mode, .-nRF24_set_mode
 400 0012 C046     		.section	.text.nRF24_enable_auto_ack,"ax",%progbits
 401              		.align	2
 402              		.global	nRF24_enable_auto_ack
 403              		.code	16
 404              		.thumb_func
 405              		.type	nRF24_enable_auto_ack, %function
 406              	nRF24_enable_auto_ack:
 407              	.LFB16:
 247:Generated_Source\PSoC4/nRF24_FUNCS.c **** 
 248:Generated_Source\PSoC4/nRF24_FUNCS.c **** /**
 249:Generated_Source\PSoC4/nRF24_FUNCS.c ****  * @brief Enable AutoACK in the given pipe.
 250:Generated_Source\PSoC4/nRF24_FUNCS.c ****  *
 251:Generated_Source\PSoC4/nRF24_FUNCS.c ****  * @param pipe: Enable AutoACK in the given pipe.
 252:Generated_Source\PSoC4/nRF24_FUNCS.c ****  */
 253:Generated_Source\PSoC4/nRF24_FUNCS.c **** void nRF24_enable_auto_ack(const nrf_pipe pipe)
 254:Generated_Source\PSoC4/nRF24_FUNCS.c **** {
 408              		.loc 1 254 0
 409              		.cfi_startproc
 410              		@ args = 0, pretend = 0, frame = 0
 411              		@ frame_needed = 0, uses_anonymous_args = 0
 412              	.LVL21:
 413 0000 10B5     		push	{r4, lr}
 414              		.cfi_def_cfa_offset 8
 415              		.cfi_offset 4, -8
 416              		.cfi_offset 14, -4
 417 0002 0100     		movs	r1, r0
 255:Generated_Source\PSoC4/nRF24_FUNCS.c ****     nRF24_set_bit(NRF_REG_EN_AA, pipe);
 418              		.loc 1 255 0
 419 0004 0120     		movs	r0, #1
 420              	.LVL22:
 421 0006 FFF7FEFF 		bl	nRF24_set_bit
 422              	.LVL23:
 256:Generated_Source\PSoC4/nRF24_FUNCS.c **** }
 423              		.loc 1 256 0
ARM GAS  C:\Users\d3bug\AppData\Local\Temp\ccQAmDn0.s 			page 13


 424              		@ sp needed
 425 000a 10BD     		pop	{r4, pc}
 426              		.cfi_endproc
 427              	.LFE16:
 428              		.size	nRF24_enable_auto_ack, .-nRF24_enable_auto_ack
 429              		.section	.text.nRF24_disable_auto_ack,"ax",%progbits
 430              		.align	2
 431              		.global	nRF24_disable_auto_ack
 432              		.code	16
 433              		.thumb_func
 434              		.type	nRF24_disable_auto_ack, %function
 435              	nRF24_disable_auto_ack:
 436              	.LFB17:
 257:Generated_Source\PSoC4/nRF24_FUNCS.c **** 
 258:Generated_Source\PSoC4/nRF24_FUNCS.c **** /**
 259:Generated_Source\PSoC4/nRF24_FUNCS.c ****  * @brief Disable AutoACK in the given pipe.
 260:Generated_Source\PSoC4/nRF24_FUNCS.c ****  *
 261:Generated_Source\PSoC4/nRF24_FUNCS.c ****  * @param pipe: Disable AutoACK in the given pipe.
 262:Generated_Source\PSoC4/nRF24_FUNCS.c ****  */
 263:Generated_Source\PSoC4/nRF24_FUNCS.c **** void nRF24_disable_auto_ack(const nrf_pipe pipe)
 264:Generated_Source\PSoC4/nRF24_FUNCS.c **** {
 437              		.loc 1 264 0
 438              		.cfi_startproc
 439              		@ args = 0, pretend = 0, frame = 0
 440              		@ frame_needed = 0, uses_anonymous_args = 0
 441              	.LVL24:
 442 0000 10B5     		push	{r4, lr}
 443              		.cfi_def_cfa_offset 8
 444              		.cfi_offset 4, -8
 445              		.cfi_offset 14, -4
 446 0002 0100     		movs	r1, r0
 265:Generated_Source\PSoC4/nRF24_FUNCS.c ****     nRF24_clear_bit(NRF_REG_EN_AA, pipe);
 447              		.loc 1 265 0
 448 0004 0120     		movs	r0, #1
 449              	.LVL25:
 450 0006 FFF7FEFF 		bl	nRF24_clear_bit
 451              	.LVL26:
 266:Generated_Source\PSoC4/nRF24_FUNCS.c **** }
 452              		.loc 1 266 0
 453              		@ sp needed
 454 000a 10BD     		pop	{r4, pc}
 455              		.cfi_endproc
 456              	.LFE17:
 457              		.size	nRF24_disable_auto_ack, .-nRF24_disable_auto_ack
 458              		.section	.text.nRF24_set_channel,"ax",%progbits
 459              		.align	2
 460              		.global	nRF24_set_channel
 461              		.code	16
 462              		.thumb_func
 463              		.type	nRF24_set_channel, %function
 464              	nRF24_set_channel:
 465              	.LFB18:
 267:Generated_Source\PSoC4/nRF24_FUNCS.c **** 
 268:Generated_Source\PSoC4/nRF24_FUNCS.c **** /**
 269:Generated_Source\PSoC4/nRF24_FUNCS.c ****  * @brief Set the channel where the radio will work.
 270:Generated_Source\PSoC4/nRF24_FUNCS.c ****  *
 271:Generated_Source\PSoC4/nRF24_FUNCS.c ****  * @param uint8_t channel: Channel where the radio will work.
ARM GAS  C:\Users\d3bug\AppData\Local\Temp\ccQAmDn0.s 			page 14


 272:Generated_Source\PSoC4/nRF24_FUNCS.c ****  */
 273:Generated_Source\PSoC4/nRF24_FUNCS.c **** void nRF24_set_channel(uint8_t channel)
 274:Generated_Source\PSoC4/nRF24_FUNCS.c **** {
 466              		.loc 1 274 0
 467              		.cfi_startproc
 468              		@ args = 0, pretend = 0, frame = 8
 469              		@ frame_needed = 0, uses_anonymous_args = 0
 470              	.LVL27:
 471 0000 00B5     		push	{lr}
 472              		.cfi_def_cfa_offset 4
 473              		.cfi_offset 14, -4
 474 0002 83B0     		sub	sp, sp, #12
 475              		.cfi_def_cfa_offset 16
 476 0004 6B46     		mov	r3, sp
 477 0006 D871     		strb	r0, [r3, #7]
 275:Generated_Source\PSoC4/nRF24_FUNCS.c ****     if (NRF_MAX_RF_CHANNEL < channel) {
 478              		.loc 1 275 0
 479 0008 7D28     		cmp	r0, #125
 480 000a 02D9     		bls	.L23
 276:Generated_Source\PSoC4/nRF24_FUNCS.c ****         channel = NRF_MAX_RF_CHANNEL;
 481              		.loc 1 276 0
 482 000c 7D22     		movs	r2, #125
 483 000e 6B46     		mov	r3, sp
 484 0010 DA71     		strb	r2, [r3, #7]
 485              	.L23:
 277:Generated_Source\PSoC4/nRF24_FUNCS.c ****     }
 278:Generated_Source\PSoC4/nRF24_FUNCS.c **** 
 279:Generated_Source\PSoC4/nRF24_FUNCS.c ****     nRF24_write_reg(NRF_REG_RF_CH, &channel, 1);
 486              		.loc 1 279 0
 487 0012 0122     		movs	r2, #1
 488 0014 6B46     		mov	r3, sp
 489 0016 D91D     		adds	r1, r3, #7
 490 0018 0520     		movs	r0, #5
 491              	.LVL28:
 492 001a FFF7FEFF 		bl	nRF24_write_reg
 493              	.LVL29:
 280:Generated_Source\PSoC4/nRF24_FUNCS.c **** 
 281:Generated_Source\PSoC4/nRF24_FUNCS.c ****     nRF24_cmd_flush_rx();
 494              		.loc 1 281 0
 495 001e FFF7FEFF 		bl	nRF24_cmd_flush_rx
 496              	.LVL30:
 282:Generated_Source\PSoC4/nRF24_FUNCS.c ****     nRF24_cmd_flush_tx();
 497              		.loc 1 282 0
 498 0022 FFF7FEFF 		bl	nRF24_cmd_flush_tx
 499              	.LVL31:
 283:Generated_Source\PSoC4/nRF24_FUNCS.c **** }
 500              		.loc 1 283 0
 501 0026 03B0     		add	sp, sp, #12
 502              		@ sp needed
 503 0028 00BD     		pop	{pc}
 504              		.cfi_endproc
 505              	.LFE18:
 506              		.size	nRF24_set_channel, .-nRF24_set_channel
 507 002a C046     		.section	.text.nRF24_get_channel,"ax",%progbits
 508              		.align	2
 509              		.global	nRF24_get_channel
 510              		.code	16
ARM GAS  C:\Users\d3bug\AppData\Local\Temp\ccQAmDn0.s 			page 15


 511              		.thumb_func
 512              		.type	nRF24_get_channel, %function
 513              	nRF24_get_channel:
 514              	.LFB19:
 284:Generated_Source\PSoC4/nRF24_FUNCS.c **** 
 285:Generated_Source\PSoC4/nRF24_FUNCS.c **** /**
 286:Generated_Source\PSoC4/nRF24_FUNCS.c ****  * @brief Set the data pipes address width.
 287:Generated_Source\PSoC4/nRF24_FUNCS.c ****  *
 288:Generated_Source\PSoC4/nRF24_FUNCS.c ****  * @param const nrf_setup_address_width addr_width:
 289:Generated_Source\PSoC4/nRF24_FUNCS.c ****  */
 290:Generated_Source\PSoC4/nRF24_FUNCS.c **** uint8_t nRF24_get_channel(void)
 291:Generated_Source\PSoC4/nRF24_FUNCS.c **** {
 515              		.loc 1 291 0
 516              		.cfi_startproc
 517              		@ args = 0, pretend = 0, frame = 8
 518              		@ frame_needed = 0, uses_anonymous_args = 0
 519 0000 10B5     		push	{r4, lr}
 520              		.cfi_def_cfa_offset 8
 521              		.cfi_offset 4, -8
 522              		.cfi_offset 14, -4
 523 0002 82B0     		sub	sp, sp, #8
 524              		.cfi_def_cfa_offset 16
 292:Generated_Source\PSoC4/nRF24_FUNCS.c ****     uint8_t channel;
 293:Generated_Source\PSoC4/nRF24_FUNCS.c ****     nRF24_read_reg(NRF_REG_RF_CH, &channel, 1);
 525              		.loc 1 293 0
 526 0004 6B46     		mov	r3, sp
 527 0006 DC1D     		adds	r4, r3, #7
 528 0008 0122     		movs	r2, #1
 529 000a 2100     		movs	r1, r4
 530 000c 0520     		movs	r0, #5
 531 000e FFF7FEFF 		bl	nRF24_read_reg
 532              	.LVL32:
 294:Generated_Source\PSoC4/nRF24_FUNCS.c ****     return channel;
 533              		.loc 1 294 0
 534 0012 2078     		ldrb	r0, [r4]
 295:Generated_Source\PSoC4/nRF24_FUNCS.c **** }
 535              		.loc 1 295 0
 536 0014 02B0     		add	sp, sp, #8
 537              		@ sp needed
 538 0016 10BD     		pop	{r4, pc}
 539              		.cfi_endproc
 540              	.LFE19:
 541              		.size	nRF24_get_channel, .-nRF24_get_channel
 542              		.section	.text.nRF24_set_address_width,"ax",%progbits
 543              		.align	2
 544              		.global	nRF24_set_address_width
 545              		.code	16
 546              		.thumb_func
 547              		.type	nRF24_set_address_width, %function
 548              	nRF24_set_address_width:
 549              	.LFB20:
 296:Generated_Source\PSoC4/nRF24_FUNCS.c **** 
 297:Generated_Source\PSoC4/nRF24_FUNCS.c **** /**
 298:Generated_Source\PSoC4/nRF24_FUNCS.c ****  * @brief Set the data pipes address width.
 299:Generated_Source\PSoC4/nRF24_FUNCS.c ****  *
 300:Generated_Source\PSoC4/nRF24_FUNCS.c ****  * @param const nrf_addr_width addr_width:
 301:Generated_Source\PSoC4/nRF24_FUNCS.c ****  */
ARM GAS  C:\Users\d3bug\AppData\Local\Temp\ccQAmDn0.s 			page 16


 302:Generated_Source\PSoC4/nRF24_FUNCS.c **** void nRF24_set_address_width(const nrf_addr_width addr_width)
 303:Generated_Source\PSoC4/nRF24_FUNCS.c **** {
 550              		.loc 1 303 0
 551              		.cfi_startproc
 552              		@ args = 0, pretend = 0, frame = 8
 553              		@ frame_needed = 0, uses_anonymous_args = 0
 554              	.LVL33:
 555 0000 10B5     		push	{r4, lr}
 556              		.cfi_def_cfa_offset 8
 557              		.cfi_offset 4, -8
 558              		.cfi_offset 14, -4
 559 0002 82B0     		sub	sp, sp, #8
 560              		.cfi_def_cfa_offset 16
 561 0004 6B46     		mov	r3, sp
 562 0006 DC1D     		adds	r4, r3, #7
 563 0008 D871     		strb	r0, [r3, #7]
 304:Generated_Source\PSoC4/nRF24_FUNCS.c ****     nRF24_write_reg(NRF_REG_SETUP_AW, &addr_width, 1);
 564              		.loc 1 304 0
 565 000a 0122     		movs	r2, #1
 566 000c 2100     		movs	r1, r4
 567 000e 0320     		movs	r0, #3
 568              	.LVL34:
 569 0010 FFF7FEFF 		bl	nRF24_write_reg
 570              	.LVL35:
 305:Generated_Source\PSoC4/nRF24_FUNCS.c **** 
 306:Generated_Source\PSoC4/nRF24_FUNCS.c ****     // update the _nrf_addr_width variable
 307:Generated_Source\PSoC4/nRF24_FUNCS.c ****     _addr_width_conf_to_bytes(addr_width);
 571              		.loc 1 307 0
 572 0014 2078     		ldrb	r0, [r4]
 573 0016 FFF7FEFF 		bl	_addr_width_conf_to_bytes
 574              	.LVL36:
 308:Generated_Source\PSoC4/nRF24_FUNCS.c **** }
 575              		.loc 1 308 0
 576 001a 02B0     		add	sp, sp, #8
 577              		@ sp needed
 578              	.LVL37:
 579 001c 10BD     		pop	{r4, pc}
 580              		.cfi_endproc
 581              	.LFE20:
 582              		.size	nRF24_set_address_width, .-nRF24_set_address_width
 583 001e C046     		.section	.text.nRF24_get_address_width,"ax",%progbits
 584              		.align	2
 585              		.global	nRF24_get_address_width
 586              		.code	16
 587              		.thumb_func
 588              		.type	nRF24_get_address_width, %function
 589              	nRF24_get_address_width:
 590              	.LFB21:
 309:Generated_Source\PSoC4/nRF24_FUNCS.c **** 
 310:Generated_Source\PSoC4/nRF24_FUNCS.c **** /**
 311:Generated_Source\PSoC4/nRF24_FUNCS.c ****  * @brief Get the address width of the data pipes.
 312:Generated_Source\PSoC4/nRF24_FUNCS.c ****  *
 313:Generated_Source\PSoC4/nRF24_FUNCS.c ****  * @return uint8_t: Address width in bytes.
 314:Generated_Source\PSoC4/nRF24_FUNCS.c ****  */
 315:Generated_Source\PSoC4/nRF24_FUNCS.c **** uint8_t nRF24_get_address_width(void)
 316:Generated_Source\PSoC4/nRF24_FUNCS.c **** {
 591              		.loc 1 316 0
ARM GAS  C:\Users\d3bug\AppData\Local\Temp\ccQAmDn0.s 			page 17


 592              		.cfi_startproc
 593              		@ args = 0, pretend = 0, frame = 0
 594              		@ frame_needed = 0, uses_anonymous_args = 0
 595              		@ link register save eliminated.
 317:Generated_Source\PSoC4/nRF24_FUNCS.c ****     return _nrf_addr_width;
 596              		.loc 1 317 0
 597 0000 014B     		ldr	r3, .L27
 598 0002 1878     		ldrb	r0, [r3]
 318:Generated_Source\PSoC4/nRF24_FUNCS.c **** }
 599              		.loc 1 318 0
 600              		@ sp needed
 601 0004 7047     		bx	lr
 602              	.L28:
 603 0006 C046     		.align	2
 604              	.L27:
 605 0008 00000000 		.word	.LANCHOR0
 606              		.cfi_endproc
 607              	.LFE21:
 608              		.size	nRF24_get_address_width, .-nRF24_get_address_width
 609              		.section	.text.nRF24_set_rx_pipe_address,"ax",%progbits
 610              		.align	2
 611              		.global	nRF24_set_rx_pipe_address
 612              		.code	16
 613              		.thumb_func
 614              		.type	nRF24_set_rx_pipe_address, %function
 615              	nRF24_set_rx_pipe_address:
 616              	.LFB22:
 319:Generated_Source\PSoC4/nRF24_FUNCS.c **** 
 320:Generated_Source\PSoC4/nRF24_FUNCS.c **** /**
 321:Generated_Source\PSoC4/nRF24_FUNCS.c ****  * @brief Set the address of the RX Pipe 0 in the radio.
 322:Generated_Source\PSoC4/nRF24_FUNCS.c ****  *
 323:Generated_Source\PSoC4/nRF24_FUNCS.c ****  * This function configure the address of the Rx Pipe 0 of the radio.
 324:Generated_Source\PSoC4/nRF24_FUNCS.c ****  *
 325:Generated_Source\PSoC4/nRF24_FUNCS.c ****  * @param const uint8_t* addr:
 326:Generated_Source\PSoC4/nRF24_FUNCS.c ****  * @param size_t size:
 327:Generated_Source\PSoC4/nRF24_FUNCS.c ****  */
 328:Generated_Source\PSoC4/nRF24_FUNCS.c **** void nRF24_set_rx_pipe_address(const nrf_addr_rx_pipe pipe,
 329:Generated_Source\PSoC4/nRF24_FUNCS.c ****                                             const uint8_t *addr, size_t size)
 330:Generated_Source\PSoC4/nRF24_FUNCS.c **** {
 617              		.loc 1 330 0
 618              		.cfi_startproc
 619              		@ args = 0, pretend = 0, frame = 0
 620              		@ frame_needed = 0, uses_anonymous_args = 0
 621              	.LVL38:
 622 0000 10B5     		push	{r4, lr}
 623              		.cfi_def_cfa_offset 8
 624              		.cfi_offset 4, -8
 625              		.cfi_offset 14, -4
 331:Generated_Source\PSoC4/nRF24_FUNCS.c ****     if (NULL == addr) {
 626              		.loc 1 331 0
 627 0002 0029     		cmp	r1, #0
 628 0004 12D0     		beq	.L29
 332:Generated_Source\PSoC4/nRF24_FUNCS.c ****         return;
 333:Generated_Source\PSoC4/nRF24_FUNCS.c ****     }
 334:Generated_Source\PSoC4/nRF24_FUNCS.c ****     
 335:Generated_Source\PSoC4/nRF24_FUNCS.c ****     switch(pipe) {
 629              		.loc 1 335 0
ARM GAS  C:\Users\d3bug\AppData\Local\Temp\ccQAmDn0.s 			page 18


 630 0006 0A28     		cmp	r0, #10
 631 0008 10D3     		bcc	.L29
 632 000a 0B28     		cmp	r0, #11
 633 000c 02D9     		bls	.L31
 634 000e 0F28     		cmp	r0, #15
 635 0010 09D9     		bls	.L34
 636 0012 0BE0     		b	.L29
 637              	.L31:
 336:Generated_Source\PSoC4/nRF24_FUNCS.c ****     // For pipes 0 and 1 we can change up to 5 bytes of it's addresses
 337:Generated_Source\PSoC4/nRF24_FUNCS.c ****     case NRF_ADDR_PIPE0:
 338:Generated_Source\PSoC4/nRF24_FUNCS.c ****     case NRF_ADDR_PIPE1:
 339:Generated_Source\PSoC4/nRF24_FUNCS.c ****         // The smaller address is 3 bytes
 340:Generated_Source\PSoC4/nRF24_FUNCS.c ****         if (NRF_PIPE_ADDR_WIDTH_3BYTES > size) {
 341:Generated_Source\PSoC4/nRF24_FUNCS.c ****             // TODO
 342:Generated_Source\PSoC4/nRF24_FUNCS.c ****         }
 343:Generated_Source\PSoC4/nRF24_FUNCS.c ****         
 344:Generated_Source\PSoC4/nRF24_FUNCS.c ****         if (_nrf_addr_width < size) {
 638              		.loc 1 344 0
 639 0014 064B     		ldr	r3, .L35
 640 0016 1B78     		ldrb	r3, [r3]
 641 0018 9342     		cmp	r3, r2
 642 001a 00D3     		bcc	.L33
 643 001c 1300     		movs	r3, r2
 644              	.L33:
 645              	.LVL39:
 345:Generated_Source\PSoC4/nRF24_FUNCS.c ****             size = _nrf_addr_width;
 346:Generated_Source\PSoC4/nRF24_FUNCS.c ****         }
 347:Generated_Source\PSoC4/nRF24_FUNCS.c ****         nRF24_write_reg(pipe, addr, size);
 646              		.loc 1 347 0
 647 001e 1A00     		movs	r2, r3
 648 0020 FFF7FEFF 		bl	nRF24_write_reg
 649              	.LVL40:
 348:Generated_Source\PSoC4/nRF24_FUNCS.c ****         break;
 650              		.loc 1 348 0
 651 0024 02E0     		b	.L29
 652              	.LVL41:
 653              	.L34:
 349:Generated_Source\PSoC4/nRF24_FUNCS.c ****     // For pipes 2, 3, 4 and 5 we can change only the LSB of it's address
 350:Generated_Source\PSoC4/nRF24_FUNCS.c ****     case NRF_ADDR_PIPE2:
 351:Generated_Source\PSoC4/nRF24_FUNCS.c ****     case NRF_ADDR_PIPE3:
 352:Generated_Source\PSoC4/nRF24_FUNCS.c ****     case NRF_ADDR_PIPE4:
 353:Generated_Source\PSoC4/nRF24_FUNCS.c ****     case NRF_ADDR_PIPE5:
 354:Generated_Source\PSoC4/nRF24_FUNCS.c ****         (void)size; // so we don't get a warning on unused variable
 355:Generated_Source\PSoC4/nRF24_FUNCS.c ****         nRF24_write_reg(pipe, addr, 1);
 654              		.loc 1 355 0
 655 0026 0122     		movs	r2, #1
 656              	.LVL42:
 657 0028 FFF7FEFF 		bl	nRF24_write_reg
 658              	.LVL43:
 659              	.L29:
 356:Generated_Source\PSoC4/nRF24_FUNCS.c ****         break;
 357:Generated_Source\PSoC4/nRF24_FUNCS.c ****     }
 358:Generated_Source\PSoC4/nRF24_FUNCS.c **** }
 660              		.loc 1 358 0
 661              		@ sp needed
 662 002c 10BD     		pop	{r4, pc}
 663              	.L36:
ARM GAS  C:\Users\d3bug\AppData\Local\Temp\ccQAmDn0.s 			page 19


 664 002e C046     		.align	2
 665              	.L35:
 666 0030 00000000 		.word	.LANCHOR0
 667              		.cfi_endproc
 668              	.LFE22:
 669              		.size	nRF24_set_rx_pipe_address, .-nRF24_set_rx_pipe_address
 670              		.section	.text.nRF24_get_rx_pipe_address,"ax",%progbits
 671              		.align	2
 672              		.global	nRF24_get_rx_pipe_address
 673              		.code	16
 674              		.thumb_func
 675              		.type	nRF24_get_rx_pipe_address, %function
 676              	nRF24_get_rx_pipe_address:
 677              	.LFB23:
 359:Generated_Source\PSoC4/nRF24_FUNCS.c **** 
 360:Generated_Source\PSoC4/nRF24_FUNCS.c **** /**
 361:Generated_Source\PSoC4/nRF24_FUNCS.c ****  * @brief Get the address of the RX Pipe 0 in the radio.
 362:Generated_Source\PSoC4/nRF24_FUNCS.c ****  *
 363:Generated_Source\PSoC4/nRF24_FUNCS.c ****  * @param uint8_t* addr:
 364:Generated_Source\PSoC4/nRF24_FUNCS.c ****  * @param size_t size:
 365:Generated_Source\PSoC4/nRF24_FUNCS.c ****  */
 366:Generated_Source\PSoC4/nRF24_FUNCS.c **** void nRF24_get_rx_pipe_address(const nrf_addr_rx_pipe pipe,
 367:Generated_Source\PSoC4/nRF24_FUNCS.c ****                                             uint8_t *addr, size_t size)
 368:Generated_Source\PSoC4/nRF24_FUNCS.c **** {
 678              		.loc 1 368 0
 679              		.cfi_startproc
 680              		@ args = 0, pretend = 0, frame = 0
 681              		@ frame_needed = 0, uses_anonymous_args = 0
 682              	.LVL44:
 683 0000 70B5     		push	{r4, r5, r6, lr}
 684              		.cfi_def_cfa_offset 16
 685              		.cfi_offset 4, -16
 686              		.cfi_offset 5, -12
 687              		.cfi_offset 6, -8
 688              		.cfi_offset 14, -4
 689 0002 0500     		movs	r5, r0
 690 0004 0E1E     		subs	r6, r1, #0
 369:Generated_Source\PSoC4/nRF24_FUNCS.c ****     if (NULL == addr) {
 691              		.loc 1 369 0
 692 0006 1CD0     		beq	.L37
 370:Generated_Source\PSoC4/nRF24_FUNCS.c ****         return;
 371:Generated_Source\PSoC4/nRF24_FUNCS.c ****     }
 372:Generated_Source\PSoC4/nRF24_FUNCS.c ****     
 373:Generated_Source\PSoC4/nRF24_FUNCS.c ****     // The smaller address is 3 bytes
 374:Generated_Source\PSoC4/nRF24_FUNCS.c ****     if (NRF_PIPE_ADDR_WIDTH_3BYTES > size) {
 375:Generated_Source\PSoC4/nRF24_FUNCS.c ****         // TODO
 376:Generated_Source\PSoC4/nRF24_FUNCS.c ****     }
 377:Generated_Source\PSoC4/nRF24_FUNCS.c ****     
 378:Generated_Source\PSoC4/nRF24_FUNCS.c ****     if (_nrf_addr_width < size) {
 693              		.loc 1 378 0
 694 0008 0E4B     		ldr	r3, .L43
 695 000a 1B78     		ldrb	r3, [r3]
 696 000c 9342     		cmp	r3, r2
 697 000e 00D3     		bcc	.L39
 698 0010 1300     		movs	r3, r2
 699              	.L39:
 700              	.LVL45:
ARM GAS  C:\Users\d3bug\AppData\Local\Temp\ccQAmDn0.s 			page 20


 379:Generated_Source\PSoC4/nRF24_FUNCS.c ****         size = _nrf_addr_width;
 380:Generated_Source\PSoC4/nRF24_FUNCS.c ****     }
 381:Generated_Source\PSoC4/nRF24_FUNCS.c ****     
 382:Generated_Source\PSoC4/nRF24_FUNCS.c ****     switch(pipe) {
 701              		.loc 1 382 0
 702 0012 0A2D     		cmp	r5, #10
 703 0014 15D3     		bcc	.L37
 704 0016 0B2D     		cmp	r5, #11
 705 0018 02D9     		bls	.L40
 706 001a 0F2D     		cmp	r5, #15
 707 001c 06D9     		bls	.L42
 708 001e 10E0     		b	.L37
 709              	.L40:
 383:Generated_Source\PSoC4/nRF24_FUNCS.c ****     // For pipes 0 and 1 we can read up to 5 bytes of it's addresses
 384:Generated_Source\PSoC4/nRF24_FUNCS.c ****     case NRF_ADDR_PIPE0:
 385:Generated_Source\PSoC4/nRF24_FUNCS.c ****     case NRF_ADDR_PIPE1:
 386:Generated_Source\PSoC4/nRF24_FUNCS.c ****         nRF24_read_reg(pipe, addr, size);
 710              		.loc 1 386 0
 711 0020 1A00     		movs	r2, r3
 712 0022 3100     		movs	r1, r6
 713              	.LVL46:
 714 0024 2800     		movs	r0, r5
 715              	.LVL47:
 716 0026 FFF7FEFF 		bl	nRF24_read_reg
 717              	.LVL48:
 387:Generated_Source\PSoC4/nRF24_FUNCS.c ****         break;
 718              		.loc 1 387 0
 719 002a 0AE0     		b	.L37
 720              	.LVL49:
 721              	.L42:
 388:Generated_Source\PSoC4/nRF24_FUNCS.c ****     // For pipes 2, 3, 4 and 5 the address is the same to pipe1 except the LSB
 389:Generated_Source\PSoC4/nRF24_FUNCS.c ****     case NRF_ADDR_PIPE2:
 390:Generated_Source\PSoC4/nRF24_FUNCS.c ****     case NRF_ADDR_PIPE3:
 391:Generated_Source\PSoC4/nRF24_FUNCS.c ****     case NRF_ADDR_PIPE4:
 392:Generated_Source\PSoC4/nRF24_FUNCS.c ****     case NRF_ADDR_PIPE5:
 393:Generated_Source\PSoC4/nRF24_FUNCS.c ****         nRF24_read_reg(NRF_REG_RX_ADDR_P1, addr, size - 1);
 722              		.loc 1 393 0
 723 002c 5C1E     		subs	r4, r3, #1
 724 002e 2200     		movs	r2, r4
 725 0030 3100     		movs	r1, r6
 726              	.LVL50:
 727 0032 0B20     		movs	r0, #11
 728              	.LVL51:
 729 0034 FFF7FEFF 		bl	nRF24_read_reg
 730              	.LVL52:
 394:Generated_Source\PSoC4/nRF24_FUNCS.c ****         nRF24_read_reg(pipe, &addr[size - 1], 1);
 731              		.loc 1 394 0
 732 0038 3119     		adds	r1, r6, r4
 733 003a 0122     		movs	r2, #1
 734 003c 2800     		movs	r0, r5
 735 003e FFF7FEFF 		bl	nRF24_read_reg
 736              	.LVL53:
 737              	.L37:
 395:Generated_Source\PSoC4/nRF24_FUNCS.c ****         break;
 396:Generated_Source\PSoC4/nRF24_FUNCS.c ****     }
 397:Generated_Source\PSoC4/nRF24_FUNCS.c **** }
 738              		.loc 1 397 0
ARM GAS  C:\Users\d3bug\AppData\Local\Temp\ccQAmDn0.s 			page 21


 739              		@ sp needed
 740              	.LVL54:
 741 0042 70BD     		pop	{r4, r5, r6, pc}
 742              	.L44:
 743              		.align	2
 744              	.L43:
 745 0044 00000000 		.word	.LANCHOR0
 746              		.cfi_endproc
 747              	.LFE23:
 748              		.size	nRF24_get_rx_pipe_address, .-nRF24_get_rx_pipe_address
 749              		.section	.text.nRF24_set_tx_address,"ax",%progbits
 750              		.align	2
 751              		.global	nRF24_set_tx_address
 752              		.code	16
 753              		.thumb_func
 754              		.type	nRF24_set_tx_address, %function
 755              	nRF24_set_tx_address:
 756              	.LFB24:
 398:Generated_Source\PSoC4/nRF24_FUNCS.c **** 
 399:Generated_Source\PSoC4/nRF24_FUNCS.c **** /**
 400:Generated_Source\PSoC4/nRF24_FUNCS.c ****  * @brief Set the TX Address of the radio.
 401:Generated_Source\PSoC4/nRF24_FUNCS.c ****  *
 402:Generated_Source\PSoC4/nRF24_FUNCS.c ****  * @param const uint8_t* addr:
 403:Generated_Source\PSoC4/nRF24_FUNCS.c ****  * @param size_t size:
 404:Generated_Source\PSoC4/nRF24_FUNCS.c ****  */
 405:Generated_Source\PSoC4/nRF24_FUNCS.c **** void nRF24_set_tx_address(const uint8_t *const addr, size_t size)
 406:Generated_Source\PSoC4/nRF24_FUNCS.c **** {
 757              		.loc 1 406 0
 758              		.cfi_startproc
 759              		@ args = 0, pretend = 0, frame = 0
 760              		@ frame_needed = 0, uses_anonymous_args = 0
 761              	.LVL55:
 762 0000 10B5     		push	{r4, lr}
 763              		.cfi_def_cfa_offset 8
 764              		.cfi_offset 4, -8
 765              		.cfi_offset 14, -4
 407:Generated_Source\PSoC4/nRF24_FUNCS.c ****     if (NULL == addr) {
 766              		.loc 1 407 0
 767 0002 0028     		cmp	r0, #0
 768 0004 08D0     		beq	.L45
 408:Generated_Source\PSoC4/nRF24_FUNCS.c ****         return;
 409:Generated_Source\PSoC4/nRF24_FUNCS.c ****     }
 410:Generated_Source\PSoC4/nRF24_FUNCS.c **** 
 411:Generated_Source\PSoC4/nRF24_FUNCS.c ****     if (_nrf_addr_width < size) {
 769              		.loc 1 411 0
 770 0006 054B     		ldr	r3, .L48
 771 0008 1A78     		ldrb	r2, [r3]
 772 000a 8A42     		cmp	r2, r1
 773 000c 00D3     		bcc	.L47
 774 000e 0A00     		movs	r2, r1
 775              	.L47:
 776              	.LVL56:
 412:Generated_Source\PSoC4/nRF24_FUNCS.c ****         size = _nrf_addr_width;
 413:Generated_Source\PSoC4/nRF24_FUNCS.c ****     }
 414:Generated_Source\PSoC4/nRF24_FUNCS.c **** 
 415:Generated_Source\PSoC4/nRF24_FUNCS.c ****     nRF24_write_reg(NRF_REG_TX_ADDR, addr, size);
 777              		.loc 1 415 0
ARM GAS  C:\Users\d3bug\AppData\Local\Temp\ccQAmDn0.s 			page 22


 778 0010 0100     		movs	r1, r0
 779 0012 1020     		movs	r0, #16
 780              	.LVL57:
 781 0014 FFF7FEFF 		bl	nRF24_write_reg
 782              	.LVL58:
 783              	.L45:
 416:Generated_Source\PSoC4/nRF24_FUNCS.c **** }
 784              		.loc 1 416 0
 785              		@ sp needed
 786 0018 10BD     		pop	{r4, pc}
 787              	.L49:
 788 001a C046     		.align	2
 789              	.L48:
 790 001c 00000000 		.word	.LANCHOR0
 791              		.cfi_endproc
 792              	.LFE24:
 793              		.size	nRF24_set_tx_address, .-nRF24_set_tx_address
 794              		.section	.text.nRF24_get_tx_address,"ax",%progbits
 795              		.align	2
 796              		.global	nRF24_get_tx_address
 797              		.code	16
 798              		.thumb_func
 799              		.type	nRF24_get_tx_address, %function
 800              	nRF24_get_tx_address:
 801              	.LFB25:
 417:Generated_Source\PSoC4/nRF24_FUNCS.c **** 
 418:Generated_Source\PSoC4/nRF24_FUNCS.c **** /**
 419:Generated_Source\PSoC4/nRF24_FUNCS.c ****  * @brief Get the TX Address of the radio.
 420:Generated_Source\PSoC4/nRF24_FUNCS.c ****  *
 421:Generated_Source\PSoC4/nRF24_FUNCS.c ****  * @param const uint8_t* addr:
 422:Generated_Source\PSoC4/nRF24_FUNCS.c ****  * @param const size_t size:
 423:Generated_Source\PSoC4/nRF24_FUNCS.c ****  */
 424:Generated_Source\PSoC4/nRF24_FUNCS.c **** void nRF24_get_tx_address(uint8_t* addr, size_t size)
 425:Generated_Source\PSoC4/nRF24_FUNCS.c **** {
 802              		.loc 1 425 0
 803              		.cfi_startproc
 804              		@ args = 0, pretend = 0, frame = 0
 805              		@ frame_needed = 0, uses_anonymous_args = 0
 806              	.LVL59:
 807 0000 10B5     		push	{r4, lr}
 808              		.cfi_def_cfa_offset 8
 809              		.cfi_offset 4, -8
 810              		.cfi_offset 14, -4
 426:Generated_Source\PSoC4/nRF24_FUNCS.c ****     if (NULL == addr) {
 811              		.loc 1 426 0
 812 0002 0028     		cmp	r0, #0
 813 0004 08D0     		beq	.L50
 427:Generated_Source\PSoC4/nRF24_FUNCS.c ****         return;
 428:Generated_Source\PSoC4/nRF24_FUNCS.c ****     }
 429:Generated_Source\PSoC4/nRF24_FUNCS.c **** 
 430:Generated_Source\PSoC4/nRF24_FUNCS.c ****     if (_nrf_addr_width < size) {
 814              		.loc 1 430 0
 815 0006 054B     		ldr	r3, .L53
 816 0008 1A78     		ldrb	r2, [r3]
 817 000a 8A42     		cmp	r2, r1
 818 000c 00D3     		bcc	.L52
 819 000e 0A00     		movs	r2, r1
ARM GAS  C:\Users\d3bug\AppData\Local\Temp\ccQAmDn0.s 			page 23


 820              	.L52:
 821              	.LVL60:
 431:Generated_Source\PSoC4/nRF24_FUNCS.c ****         size = _nrf_addr_width;
 432:Generated_Source\PSoC4/nRF24_FUNCS.c ****     }
 433:Generated_Source\PSoC4/nRF24_FUNCS.c **** 
 434:Generated_Source\PSoC4/nRF24_FUNCS.c ****     nRF24_read_reg(NRF_REG_TX_ADDR, addr, size);
 822              		.loc 1 434 0
 823 0010 0100     		movs	r1, r0
 824 0012 1020     		movs	r0, #16
 825              	.LVL61:
 826 0014 FFF7FEFF 		bl	nRF24_read_reg
 827              	.LVL62:
 828              	.L50:
 435:Generated_Source\PSoC4/nRF24_FUNCS.c **** }
 829              		.loc 1 435 0
 830              		@ sp needed
 831 0018 10BD     		pop	{r4, pc}
 832              	.L54:
 833 001a C046     		.align	2
 834              	.L53:
 835 001c 00000000 		.word	.LANCHOR0
 836              		.cfi_endproc
 837              	.LFE25:
 838              		.size	nRF24_get_tx_address, .-nRF24_get_tx_address
 839              		.section	.text.nRF24_set_payload_size,"ax",%progbits
 840              		.align	2
 841              		.global	nRF24_set_payload_size
 842              		.code	16
 843              		.thumb_func
 844              		.type	nRF24_set_payload_size, %function
 845              	nRF24_set_payload_size:
 846              	.LFB26:
 436:Generated_Source\PSoC4/nRF24_FUNCS.c **** 
 437:Generated_Source\PSoC4/nRF24_FUNCS.c **** /**
 438:Generated_Source\PSoC4/nRF24_FUNCS.c ****  * @brief Set the payload size of the given pipe.
 439:Generated_Source\PSoC4/nRF24_FUNCS.c ****  *
 440:Generated_Source\PSoC4/nRF24_FUNCS.c ****  * Configure the payload size of the given pipe.
 441:Generated_Source\PSoC4/nRF24_FUNCS.c ****  *
 442:Generated_Source\PSoC4/nRF24_FUNCS.c ****  * @param const nrf_pipe pipe:
 443:Generated_Source\PSoC4/nRF24_FUNCS.c ****  * @param uint8_t size:
 444:Generated_Source\PSoC4/nRF24_FUNCS.c ****  */
 445:Generated_Source\PSoC4/nRF24_FUNCS.c **** void nRF24_set_payload_size(const nrf_pld_size pipe, uint8_t size)
 446:Generated_Source\PSoC4/nRF24_FUNCS.c **** {
 847              		.loc 1 446 0
 848              		.cfi_startproc
 849              		@ args = 0, pretend = 0, frame = 8
 850              		@ frame_needed = 0, uses_anonymous_args = 0
 851              	.LVL63:
 852 0000 00B5     		push	{lr}
 853              		.cfi_def_cfa_offset 4
 854              		.cfi_offset 14, -4
 855 0002 83B0     		sub	sp, sp, #12
 856              		.cfi_def_cfa_offset 16
 857 0004 6B46     		mov	r3, sp
 858 0006 D971     		strb	r1, [r3, #7]
 447:Generated_Source\PSoC4/nRF24_FUNCS.c ****     if (NRF_PAYLOAD_SIZE_MAX < size) {
 859              		.loc 1 447 0
ARM GAS  C:\Users\d3bug\AppData\Local\Temp\ccQAmDn0.s 			page 24


 860 0008 2029     		cmp	r1, #32
 861 000a 02D9     		bls	.L56
 448:Generated_Source\PSoC4/nRF24_FUNCS.c ****         size = NRF_PAYLOAD_SIZE_MAX;
 862              		.loc 1 448 0
 863 000c 2022     		movs	r2, #32
 864 000e 6B46     		mov	r3, sp
 865 0010 DA71     		strb	r2, [r3, #7]
 866              	.L56:
 449:Generated_Source\PSoC4/nRF24_FUNCS.c ****     }
 450:Generated_Source\PSoC4/nRF24_FUNCS.c **** 
 451:Generated_Source\PSoC4/nRF24_FUNCS.c ****     nRF24_write_reg(pipe, &size, 1);
 867              		.loc 1 451 0
 868 0012 0122     		movs	r2, #1
 869 0014 6B46     		mov	r3, sp
 870 0016 D91D     		adds	r1, r3, #7
 871              	.LVL64:
 872 0018 FFF7FEFF 		bl	nRF24_write_reg
 873              	.LVL65:
 452:Generated_Source\PSoC4/nRF24_FUNCS.c **** }
 874              		.loc 1 452 0
 875 001c 03B0     		add	sp, sp, #12
 876              		@ sp needed
 877 001e 00BD     		pop	{pc}
 878              		.cfi_endproc
 879              	.LFE26:
 880              		.size	nRF24_set_payload_size, .-nRF24_set_payload_size
 881              		.section	.text.nRF24_get_payload_size,"ax",%progbits
 882              		.align	2
 883              		.global	nRF24_get_payload_size
 884              		.code	16
 885              		.thumb_func
 886              		.type	nRF24_get_payload_size, %function
 887              	nRF24_get_payload_size:
 888              	.LFB27:
 453:Generated_Source\PSoC4/nRF24_FUNCS.c **** 
 454:Generated_Source\PSoC4/nRF24_FUNCS.c **** /**
 455:Generated_Source\PSoC4/nRF24_FUNCS.c ****  * Get the payload size of the given pipe.
 456:Generated_Source\PSoC4/nRF24_FUNCS.c ****  *
 457:Generated_Source\PSoC4/nRF24_FUNCS.c ****  * @param const nrf_pipe pipe: Pipe to be read.
 458:Generated_Source\PSoC4/nRF24_FUNCS.c ****  *
 459:Generated_Source\PSoC4/nRF24_FUNCS.c ****  * @return uint8_t: Configured payload size of the given pipe.
 460:Generated_Source\PSoC4/nRF24_FUNCS.c ****  */
 461:Generated_Source\PSoC4/nRF24_FUNCS.c **** uint8_t nRF24_get_payload_size(const nrf_pld_size pipe)
 462:Generated_Source\PSoC4/nRF24_FUNCS.c **** {
 889              		.loc 1 462 0
 890              		.cfi_startproc
 891              		@ args = 0, pretend = 0, frame = 8
 892              		@ frame_needed = 0, uses_anonymous_args = 0
 893              	.LVL66:
 894 0000 10B5     		push	{r4, lr}
 895              		.cfi_def_cfa_offset 8
 896              		.cfi_offset 4, -8
 897              		.cfi_offset 14, -4
 898 0002 82B0     		sub	sp, sp, #8
 899              		.cfi_def_cfa_offset 16
 463:Generated_Source\PSoC4/nRF24_FUNCS.c ****     uint8_t payload_size;
 464:Generated_Source\PSoC4/nRF24_FUNCS.c ****     nRF24_read_reg(pipe, &payload_size, 1);
ARM GAS  C:\Users\d3bug\AppData\Local\Temp\ccQAmDn0.s 			page 25


 900              		.loc 1 464 0
 901 0004 6B46     		mov	r3, sp
 902 0006 DC1D     		adds	r4, r3, #7
 903 0008 0122     		movs	r2, #1
 904 000a 2100     		movs	r1, r4
 905 000c FFF7FEFF 		bl	nRF24_read_reg
 906              	.LVL67:
 465:Generated_Source\PSoC4/nRF24_FUNCS.c ****     return payload_size;
 907              		.loc 1 465 0
 908 0010 2078     		ldrb	r0, [r4]
 466:Generated_Source\PSoC4/nRF24_FUNCS.c **** }
 909              		.loc 1 466 0
 910 0012 02B0     		add	sp, sp, #8
 911              		@ sp needed
 912 0014 10BD     		pop	{r4, pc}
 913              		.cfi_endproc
 914              	.LFE27:
 915              		.size	nRF24_get_payload_size, .-nRF24_get_payload_size
 916 0016 C046     		.section	.text.nRF24_enable_dynamic_payload,"ax",%progbits
 917              		.align	2
 918              		.global	nRF24_enable_dynamic_payload
 919              		.code	16
 920              		.thumb_func
 921              		.type	nRF24_enable_dynamic_payload, %function
 922              	nRF24_enable_dynamic_payload:
 923              	.LFB29:
 467:Generated_Source\PSoC4/nRF24_FUNCS.c **** 
 468:Generated_Source\PSoC4/nRF24_FUNCS.c **** /**
 469:Generated_Source\PSoC4/nRF24_FUNCS.c ****  * @brief Reuse last transmitted payload.
 470:Generated_Source\PSoC4/nRF24_FUNCS.c ****  *
 471:Generated_Source\PSoC4/nRF24_FUNCS.c ****  * This function issue the command ReuseTxPayload and then toggle the CE pin
 472:Generated_Source\PSoC4/nRF24_FUNCS.c ****  * to transmit the last transmitted payload.
 473:Generated_Source\PSoC4/nRF24_FUNCS.c ****  */
 474:Generated_Source\PSoC4/nRF24_FUNCS.c **** void nRF24_reuse_last_transmitted_payload(void)
 475:Generated_Source\PSoC4/nRF24_FUNCS.c **** {
 476:Generated_Source\PSoC4/nRF24_FUNCS.c ****     nRF24_cmd_reuse_tx_payload();
 477:Generated_Source\PSoC4/nRF24_FUNCS.c ****     nRF24_transmit_pulse();
 478:Generated_Source\PSoC4/nRF24_FUNCS.c **** }
 479:Generated_Source\PSoC4/nRF24_FUNCS.c **** 
 480:Generated_Source\PSoC4/nRF24_FUNCS.c **** /**
 481:Generated_Source\PSoC4/nRF24_FUNCS.c ****  * @brief Enable dynamic payload on the given pipe.
 482:Generated_Source\PSoC4/nRF24_FUNCS.c ****  *
 483:Generated_Source\PSoC4/nRF24_FUNCS.c ****  * @param const nrf_pipe pipe:
 484:Generated_Source\PSoC4/nRF24_FUNCS.c ****  */
 485:Generated_Source\PSoC4/nRF24_FUNCS.c **** void nRF24_enable_dynamic_payload(void)
 486:Generated_Source\PSoC4/nRF24_FUNCS.c **** {
 924              		.loc 1 486 0
 925              		.cfi_startproc
 926              		@ args = 0, pretend = 0, frame = 0
 927              		@ frame_needed = 0, uses_anonymous_args = 0
 928 0000 10B5     		push	{r4, lr}
 929              		.cfi_def_cfa_offset 8
 930              		.cfi_offset 4, -8
 931              		.cfi_offset 14, -4
 487:Generated_Source\PSoC4/nRF24_FUNCS.c ****     // TODO: Read the FEATURE register, check the needed values and set
 488:Generated_Source\PSoC4/nRF24_FUNCS.c ****     // the bits if not set already
 489:Generated_Source\PSoC4/nRF24_FUNCS.c ****     nRF24_set_bit(NRF_REG_FEATURE, NRF_FEATURE_BIT_EN_ACK_PAY);
ARM GAS  C:\Users\d3bug\AppData\Local\Temp\ccQAmDn0.s 			page 26


 932              		.loc 1 489 0
 933 0002 0121     		movs	r1, #1
 934 0004 1D20     		movs	r0, #29
 935 0006 FFF7FEFF 		bl	nRF24_set_bit
 936              	.LVL68:
 490:Generated_Source\PSoC4/nRF24_FUNCS.c ****     nRF24_set_bit(NRF_REG_FEATURE, NRF_FEATURE_BIT_EN_DPL);
 937              		.loc 1 490 0
 938 000a 0221     		movs	r1, #2
 939 000c 1D20     		movs	r0, #29
 940 000e FFF7FEFF 		bl	nRF24_set_bit
 941              	.LVL69:
 491:Generated_Source\PSoC4/nRF24_FUNCS.c **** }
 942              		.loc 1 491 0
 943              		@ sp needed
 944 0012 10BD     		pop	{r4, pc}
 945              		.cfi_endproc
 946              	.LFE29:
 947              		.size	nRF24_enable_dynamic_payload, .-nRF24_enable_dynamic_payload
 948              		.section	.text.nRF24_enable_dynamic_payload_on_pipe,"ax",%progbits
 949              		.align	2
 950              		.global	nRF24_enable_dynamic_payload_on_pipe
 951              		.code	16
 952              		.thumb_func
 953              		.type	nRF24_enable_dynamic_payload_on_pipe, %function
 954              	nRF24_enable_dynamic_payload_on_pipe:
 955              	.LFB30:
 492:Generated_Source\PSoC4/nRF24_FUNCS.c **** 
 493:Generated_Source\PSoC4/nRF24_FUNCS.c **** /**
 494:Generated_Source\PSoC4/nRF24_FUNCS.c ****  * @brief Enable dynamic payload on the given pipe.
 495:Generated_Source\PSoC4/nRF24_FUNCS.c ****  *
 496:Generated_Source\PSoC4/nRF24_FUNCS.c ****  * @param const nrf_pipe pipe:
 497:Generated_Source\PSoC4/nRF24_FUNCS.c ****  */
 498:Generated_Source\PSoC4/nRF24_FUNCS.c **** void nRF24_enable_dynamic_payload_on_pipe(const nrf_pipe pipe)
 499:Generated_Source\PSoC4/nRF24_FUNCS.c **** {
 956              		.loc 1 499 0
 957              		.cfi_startproc
 958              		@ args = 0, pretend = 0, frame = 0
 959              		@ frame_needed = 0, uses_anonymous_args = 0
 960              	.LVL70:
 961 0000 10B5     		push	{r4, lr}
 962              		.cfi_def_cfa_offset 8
 963              		.cfi_offset 4, -8
 964              		.cfi_offset 14, -4
 965 0002 0400     		movs	r4, r0
 500:Generated_Source\PSoC4/nRF24_FUNCS.c ****     nRF24_set_bit(NRF_REG_EN_AA, pipe);
 966              		.loc 1 500 0
 967 0004 0100     		movs	r1, r0
 968 0006 0120     		movs	r0, #1
 969              	.LVL71:
 970 0008 FFF7FEFF 		bl	nRF24_set_bit
 971              	.LVL72:
 501:Generated_Source\PSoC4/nRF24_FUNCS.c ****     nRF24_set_bit(NRF_REG_DYNPD, pipe);
 972              		.loc 1 501 0
 973 000c 2100     		movs	r1, r4
 974 000e 1C20     		movs	r0, #28
 975 0010 FFF7FEFF 		bl	nRF24_set_bit
 976              	.LVL73:
ARM GAS  C:\Users\d3bug\AppData\Local\Temp\ccQAmDn0.s 			page 27


 502:Generated_Source\PSoC4/nRF24_FUNCS.c **** }
 977              		.loc 1 502 0
 978              		@ sp needed
 979 0014 10BD     		pop	{r4, pc}
 980              		.cfi_endproc
 981              	.LFE30:
 982              		.size	nRF24_enable_dynamic_payload_on_pipe, .-nRF24_enable_dynamic_payload_on_pipe
 983 0016 C046     		.section	.text.nRF24_disable_dynamic_payload,"ax",%progbits
 984              		.align	2
 985              		.global	nRF24_disable_dynamic_payload
 986              		.code	16
 987              		.thumb_func
 988              		.type	nRF24_disable_dynamic_payload, %function
 989              	nRF24_disable_dynamic_payload:
 990              	.LFB31:
 503:Generated_Source\PSoC4/nRF24_FUNCS.c **** 
 504:Generated_Source\PSoC4/nRF24_FUNCS.c **** /**
 505:Generated_Source\PSoC4/nRF24_FUNCS.c ****  * @brief Disable dynamic payload on the given pipe.
 506:Generated_Source\PSoC4/nRF24_FUNCS.c ****  *
 507:Generated_Source\PSoC4/nRF24_FUNCS.c ****  * @param const nrf_pipe pipe:
 508:Generated_Source\PSoC4/nRF24_FUNCS.c ****  */
 509:Generated_Source\PSoC4/nRF24_FUNCS.c **** void nRF24_disable_dynamic_payload()
 510:Generated_Source\PSoC4/nRF24_FUNCS.c **** {
 991              		.loc 1 510 0
 992              		.cfi_startproc
 993              		@ args = 0, pretend = 0, frame = 0
 994              		@ frame_needed = 0, uses_anonymous_args = 0
 995 0000 10B5     		push	{r4, lr}
 996              		.cfi_def_cfa_offset 8
 997              		.cfi_offset 4, -8
 998              		.cfi_offset 14, -4
 511:Generated_Source\PSoC4/nRF24_FUNCS.c ****     // TODO: Read the FEATURE register, check the needed values and clear
 512:Generated_Source\PSoC4/nRF24_FUNCS.c ****     // the bits if not clear already
 513:Generated_Source\PSoC4/nRF24_FUNCS.c ****     nRF24_clear_bit(NRF_REG_FEATURE, NRF_FEATURE_BIT_EN_ACK_PAY);
 999              		.loc 1 513 0
 1000 0002 0121     		movs	r1, #1
 1001 0004 1D20     		movs	r0, #29
 1002 0006 FFF7FEFF 		bl	nRF24_clear_bit
 1003              	.LVL74:
 514:Generated_Source\PSoC4/nRF24_FUNCS.c ****     nRF24_clear_bit(NRF_REG_FEATURE, NRF_FEATURE_BIT_EN_DPL);
 1004              		.loc 1 514 0
 1005 000a 0221     		movs	r1, #2
 1006 000c 1D20     		movs	r0, #29
 1007 000e FFF7FEFF 		bl	nRF24_clear_bit
 1008              	.LVL75:
 515:Generated_Source\PSoC4/nRF24_FUNCS.c **** }
 1009              		.loc 1 515 0
 1010              		@ sp needed
 1011 0012 10BD     		pop	{r4, pc}
 1012              		.cfi_endproc
 1013              	.LFE31:
 1014              		.size	nRF24_disable_dynamic_payload, .-nRF24_disable_dynamic_payload
 1015              		.section	.text.nRF24_disable_dynamic_payload_on_pipe,"ax",%progbits
 1016              		.align	2
 1017              		.global	nRF24_disable_dynamic_payload_on_pipe
 1018              		.code	16
 1019              		.thumb_func
ARM GAS  C:\Users\d3bug\AppData\Local\Temp\ccQAmDn0.s 			page 28


 1020              		.type	nRF24_disable_dynamic_payload_on_pipe, %function
 1021              	nRF24_disable_dynamic_payload_on_pipe:
 1022              	.LFB32:
 516:Generated_Source\PSoC4/nRF24_FUNCS.c **** 
 517:Generated_Source\PSoC4/nRF24_FUNCS.c **** /**
 518:Generated_Source\PSoC4/nRF24_FUNCS.c ****  * @brief Disable dynamic payload on the given pipe.
 519:Generated_Source\PSoC4/nRF24_FUNCS.c ****  *
 520:Generated_Source\PSoC4/nRF24_FUNCS.c ****  * @param const nrf_pipe pipe:
 521:Generated_Source\PSoC4/nRF24_FUNCS.c ****  */
 522:Generated_Source\PSoC4/nRF24_FUNCS.c **** void nRF24_disable_dynamic_payload_on_pipe(const nrf_pipe pipe)
 523:Generated_Source\PSoC4/nRF24_FUNCS.c **** {
 1023              		.loc 1 523 0
 1024              		.cfi_startproc
 1025              		@ args = 0, pretend = 0, frame = 0
 1026              		@ frame_needed = 0, uses_anonymous_args = 0
 1027              	.LVL76:
 1028 0000 10B5     		push	{r4, lr}
 1029              		.cfi_def_cfa_offset 8
 1030              		.cfi_offset 4, -8
 1031              		.cfi_offset 14, -4
 1032 0002 0400     		movs	r4, r0
 524:Generated_Source\PSoC4/nRF24_FUNCS.c ****     nRF24_clear_bit(NRF_REG_EN_AA, pipe);
 1033              		.loc 1 524 0
 1034 0004 0100     		movs	r1, r0
 1035 0006 0120     		movs	r0, #1
 1036              	.LVL77:
 1037 0008 FFF7FEFF 		bl	nRF24_clear_bit
 1038              	.LVL78:
 525:Generated_Source\PSoC4/nRF24_FUNCS.c ****     nRF24_clear_bit(NRF_REG_DYNPD, pipe);
 1039              		.loc 1 525 0
 1040 000c 2100     		movs	r1, r4
 1041 000e 1C20     		movs	r0, #28
 1042 0010 FFF7FEFF 		bl	nRF24_clear_bit
 1043              	.LVL79:
 526:Generated_Source\PSoC4/nRF24_FUNCS.c **** }
 1044              		.loc 1 526 0
 1045              		@ sp needed
 1046 0014 10BD     		pop	{r4, pc}
 1047              		.cfi_endproc
 1048              	.LFE32:
 1049              		.size	nRF24_disable_dynamic_payload_on_pipe, .-nRF24_disable_dynamic_payload_on_pipe
 1050 0016 C046     		.section	.text.nRF24_enable_dynamic_payload_length,"ax",%progbits
 1051              		.align	2
 1052              		.global	nRF24_enable_dynamic_payload_length
 1053              		.code	16
 1054              		.thumb_func
 1055              		.type	nRF24_enable_dynamic_payload_length, %function
 1056              	nRF24_enable_dynamic_payload_length:
 1057              	.LFB33:
 527:Generated_Source\PSoC4/nRF24_FUNCS.c **** 
 528:Generated_Source\PSoC4/nRF24_FUNCS.c **** /**
 529:Generated_Source\PSoC4/nRF24_FUNCS.c ****  * @brief Enable dinamic payload length.
 530:Generated_Source\PSoC4/nRF24_FUNCS.c ****  */
 531:Generated_Source\PSoC4/nRF24_FUNCS.c **** void nRF24_enable_dynamic_payload_length(void)
 532:Generated_Source\PSoC4/nRF24_FUNCS.c **** {
 1058              		.loc 1 532 0
 1059              		.cfi_startproc
ARM GAS  C:\Users\d3bug\AppData\Local\Temp\ccQAmDn0.s 			page 29


 1060              		@ args = 0, pretend = 0, frame = 0
 1061              		@ frame_needed = 0, uses_anonymous_args = 0
 1062 0000 10B5     		push	{r4, lr}
 1063              		.cfi_def_cfa_offset 8
 1064              		.cfi_offset 4, -8
 1065              		.cfi_offset 14, -4
 533:Generated_Source\PSoC4/nRF24_FUNCS.c ****     nRF24_set_bit(NRF_REG_FEATURE, NRF_FEATURE_BIT_EN_DPL);
 1066              		.loc 1 533 0
 1067 0002 0221     		movs	r1, #2
 1068 0004 1D20     		movs	r0, #29
 1069 0006 FFF7FEFF 		bl	nRF24_set_bit
 1070              	.LVL80:
 534:Generated_Source\PSoC4/nRF24_FUNCS.c **** }
 1071              		.loc 1 534 0
 1072              		@ sp needed
 1073 000a 10BD     		pop	{r4, pc}
 1074              		.cfi_endproc
 1075              	.LFE33:
 1076              		.size	nRF24_enable_dynamic_payload_length, .-nRF24_enable_dynamic_payload_length
 1077              		.section	.text.nRF24_disable_dynamic_payload_length,"ax",%progbits
 1078              		.align	2
 1079              		.global	nRF24_disable_dynamic_payload_length
 1080              		.code	16
 1081              		.thumb_func
 1082              		.type	nRF24_disable_dynamic_payload_length, %function
 1083              	nRF24_disable_dynamic_payload_length:
 1084              	.LFB34:
 535:Generated_Source\PSoC4/nRF24_FUNCS.c **** 
 536:Generated_Source\PSoC4/nRF24_FUNCS.c **** /**
 537:Generated_Source\PSoC4/nRF24_FUNCS.c ****  * @brief Disable dynamic payload length.
 538:Generated_Source\PSoC4/nRF24_FUNCS.c ****  */
 539:Generated_Source\PSoC4/nRF24_FUNCS.c **** void nRF24_disable_dynamic_payload_length(void)
 540:Generated_Source\PSoC4/nRF24_FUNCS.c **** {
 1085              		.loc 1 540 0
 1086              		.cfi_startproc
 1087              		@ args = 0, pretend = 0, frame = 0
 1088              		@ frame_needed = 0, uses_anonymous_args = 0
 1089 0000 10B5     		push	{r4, lr}
 1090              		.cfi_def_cfa_offset 8
 1091              		.cfi_offset 4, -8
 1092              		.cfi_offset 14, -4
 541:Generated_Source\PSoC4/nRF24_FUNCS.c ****     nRF24_clear_bit(NRF_REG_FEATURE, NRF_FEATURE_BIT_EN_DPL);
 1093              		.loc 1 541 0
 1094 0002 0221     		movs	r1, #2
 1095 0004 1D20     		movs	r0, #29
 1096 0006 FFF7FEFF 		bl	nRF24_clear_bit
 1097              	.LVL81:
 542:Generated_Source\PSoC4/nRF24_FUNCS.c **** }
 1098              		.loc 1 542 0
 1099              		@ sp needed
 1100 000a 10BD     		pop	{r4, pc}
 1101              		.cfi_endproc
 1102              	.LFE34:
 1103              		.size	nRF24_disable_dynamic_payload_length, .-nRF24_disable_dynamic_payload_length
 1104              		.section	.text.nRF24_enable_payload_with_ack,"ax",%progbits
 1105              		.align	2
 1106              		.global	nRF24_enable_payload_with_ack
ARM GAS  C:\Users\d3bug\AppData\Local\Temp\ccQAmDn0.s 			page 30


 1107              		.code	16
 1108              		.thumb_func
 1109              		.type	nRF24_enable_payload_with_ack, %function
 1110              	nRF24_enable_payload_with_ack:
 1111              	.LFB35:
 543:Generated_Source\PSoC4/nRF24_FUNCS.c **** 
 544:Generated_Source\PSoC4/nRF24_FUNCS.c **** /**
 545:Generated_Source\PSoC4/nRF24_FUNCS.c ****  * @brief Enable payload with ACK.
 546:Generated_Source\PSoC4/nRF24_FUNCS.c ****  */
 547:Generated_Source\PSoC4/nRF24_FUNCS.c **** void nRF24_enable_payload_with_ack(void)
 548:Generated_Source\PSoC4/nRF24_FUNCS.c **** {
 1112              		.loc 1 548 0
 1113              		.cfi_startproc
 1114              		@ args = 0, pretend = 0, frame = 0
 1115              		@ frame_needed = 0, uses_anonymous_args = 0
 1116 0000 10B5     		push	{r4, lr}
 1117              		.cfi_def_cfa_offset 8
 1118              		.cfi_offset 4, -8
 1119              		.cfi_offset 14, -4
 549:Generated_Source\PSoC4/nRF24_FUNCS.c ****     nRF24_set_bit(NRF_REG_FEATURE, NRF_FEATURE_BIT_EN_ACK_PAY);
 1120              		.loc 1 549 0
 1121 0002 0121     		movs	r1, #1
 1122 0004 1D20     		movs	r0, #29
 1123 0006 FFF7FEFF 		bl	nRF24_set_bit
 1124              	.LVL82:
 550:Generated_Source\PSoC4/nRF24_FUNCS.c **** }
 1125              		.loc 1 550 0
 1126              		@ sp needed
 1127 000a 10BD     		pop	{r4, pc}
 1128              		.cfi_endproc
 1129              	.LFE35:
 1130              		.size	nRF24_enable_payload_with_ack, .-nRF24_enable_payload_with_ack
 1131              		.section	.text.nRF24_disable_payload_with_ack,"ax",%progbits
 1132              		.align	2
 1133              		.global	nRF24_disable_payload_with_ack
 1134              		.code	16
 1135              		.thumb_func
 1136              		.type	nRF24_disable_payload_with_ack, %function
 1137              	nRF24_disable_payload_with_ack:
 1138              	.LFB36:
 551:Generated_Source\PSoC4/nRF24_FUNCS.c **** 
 552:Generated_Source\PSoC4/nRF24_FUNCS.c **** /**
 553:Generated_Source\PSoC4/nRF24_FUNCS.c ****  * @brief Disable Payload with ACK.
 554:Generated_Source\PSoC4/nRF24_FUNCS.c ****  */
 555:Generated_Source\PSoC4/nRF24_FUNCS.c **** void nRF24_disable_payload_with_ack(void)
 556:Generated_Source\PSoC4/nRF24_FUNCS.c **** {
 1139              		.loc 1 556 0
 1140              		.cfi_startproc
 1141              		@ args = 0, pretend = 0, frame = 0
 1142              		@ frame_needed = 0, uses_anonymous_args = 0
 1143 0000 10B5     		push	{r4, lr}
 1144              		.cfi_def_cfa_offset 8
 1145              		.cfi_offset 4, -8
 1146              		.cfi_offset 14, -4
 557:Generated_Source\PSoC4/nRF24_FUNCS.c ****     nRF24_clear_bit(NRF_REG_FEATURE, NRF_FEATURE_BIT_EN_ACK_PAY);
 1147              		.loc 1 557 0
 1148 0002 0121     		movs	r1, #1
ARM GAS  C:\Users\d3bug\AppData\Local\Temp\ccQAmDn0.s 			page 31


 1149 0004 1D20     		movs	r0, #29
 1150 0006 FFF7FEFF 		bl	nRF24_clear_bit
 1151              	.LVL83:
 558:Generated_Source\PSoC4/nRF24_FUNCS.c **** }
 1152              		.loc 1 558 0
 1153              		@ sp needed
 1154 000a 10BD     		pop	{r4, pc}
 1155              		.cfi_endproc
 1156              	.LFE36:
 1157              		.size	nRF24_disable_payload_with_ack, .-nRF24_disable_payload_with_ack
 1158              		.section	.text.nRF24_enable_payload_with_no_ack,"ax",%progbits
 1159              		.align	2
 1160              		.global	nRF24_enable_payload_with_no_ack
 1161              		.code	16
 1162              		.thumb_func
 1163              		.type	nRF24_enable_payload_with_no_ack, %function
 1164              	nRF24_enable_payload_with_no_ack:
 1165              	.LFB37:
 559:Generated_Source\PSoC4/nRF24_FUNCS.c **** 
 560:Generated_Source\PSoC4/nRF24_FUNCS.c **** /**
 561:Generated_Source\PSoC4/nRF24_FUNCS.c ****  * @brief Enable dynamic payload length.
 562:Generated_Source\PSoC4/nRF24_FUNCS.c ****  */
 563:Generated_Source\PSoC4/nRF24_FUNCS.c **** void nRF24_enable_payload_with_no_ack(void)
 564:Generated_Source\PSoC4/nRF24_FUNCS.c **** {
 1166              		.loc 1 564 0
 1167              		.cfi_startproc
 1168              		@ args = 0, pretend = 0, frame = 0
 1169              		@ frame_needed = 0, uses_anonymous_args = 0
 1170 0000 10B5     		push	{r4, lr}
 1171              		.cfi_def_cfa_offset 8
 1172              		.cfi_offset 4, -8
 1173              		.cfi_offset 14, -4
 565:Generated_Source\PSoC4/nRF24_FUNCS.c ****     nRF24_set_bit(NRF_REG_FEATURE, NRF_FEATURE_BIT_EN_DYN_ACK);
 1174              		.loc 1 565 0
 1175 0002 0021     		movs	r1, #0
 1176 0004 1D20     		movs	r0, #29
 1177 0006 FFF7FEFF 		bl	nRF24_set_bit
 1178              	.LVL84:
 566:Generated_Source\PSoC4/nRF24_FUNCS.c **** }
 1179              		.loc 1 566 0
 1180              		@ sp needed
 1181 000a 10BD     		pop	{r4, pc}
 1182              		.cfi_endproc
 1183              	.LFE37:
 1184              		.size	nRF24_enable_payload_with_no_ack, .-nRF24_enable_payload_with_no_ack
 1185              		.section	.text.nRF24_disable_payload_with_no_ack,"ax",%progbits
 1186              		.align	2
 1187              		.global	nRF24_disable_payload_with_no_ack
 1188              		.code	16
 1189              		.thumb_func
 1190              		.type	nRF24_disable_payload_with_no_ack, %function
 1191              	nRF24_disable_payload_with_no_ack:
 1192              	.LFB38:
 567:Generated_Source\PSoC4/nRF24_FUNCS.c **** 
 568:Generated_Source\PSoC4/nRF24_FUNCS.c **** /**
 569:Generated_Source\PSoC4/nRF24_FUNCS.c ****  * @brief Disable Payload with no ACK.
 570:Generated_Source\PSoC4/nRF24_FUNCS.c ****  */
ARM GAS  C:\Users\d3bug\AppData\Local\Temp\ccQAmDn0.s 			page 32


 571:Generated_Source\PSoC4/nRF24_FUNCS.c **** void nRF24_disable_payload_with_no_ack(void)
 572:Generated_Source\PSoC4/nRF24_FUNCS.c **** {
 1193              		.loc 1 572 0
 1194              		.cfi_startproc
 1195              		@ args = 0, pretend = 0, frame = 0
 1196              		@ frame_needed = 0, uses_anonymous_args = 0
 1197 0000 10B5     		push	{r4, lr}
 1198              		.cfi_def_cfa_offset 8
 1199              		.cfi_offset 4, -8
 1200              		.cfi_offset 14, -4
 573:Generated_Source\PSoC4/nRF24_FUNCS.c ****     nRF24_clear_bit(NRF_REG_FEATURE, NRF_FEATURE_BIT_EN_DYN_ACK);
 1201              		.loc 1 573 0
 1202 0002 0021     		movs	r1, #0
 1203 0004 1D20     		movs	r0, #29
 1204 0006 FFF7FEFF 		bl	nRF24_clear_bit
 1205              	.LVL85:
 574:Generated_Source\PSoC4/nRF24_FUNCS.c **** }
 1206              		.loc 1 574 0
 1207              		@ sp needed
 1208 000a 10BD     		pop	{r4, pc}
 1209              		.cfi_endproc
 1210              	.LFE38:
 1211              		.size	nRF24_disable_payload_with_no_ack, .-nRF24_disable_payload_with_no_ack
 1212              		.section	.text.nRF24_start_listening,"ax",%progbits
 1213              		.align	2
 1214              		.global	nRF24_start_listening
 1215              		.code	16
 1216              		.thumb_func
 1217              		.type	nRF24_start_listening, %function
 1218              	nRF24_start_listening:
 1219              	.LFB39:
 575:Generated_Source\PSoC4/nRF24_FUNCS.c **** 
 576:Generated_Source\PSoC4/nRF24_FUNCS.c **** /**
 577:Generated_Source\PSoC4/nRF24_FUNCS.c ****  * @brief The nRF24 radio will start listening.
 578:Generated_Source\PSoC4/nRF24_FUNCS.c ****  *
 579:Generated_Source\PSoC4/nRF24_FUNCS.c ****  * This function set the pin CE to logic high, this enable the radio for
 580:Generated_Source\PSoC4/nRF24_FUNCS.c ****  * listening.
 581:Generated_Source\PSoC4/nRF24_FUNCS.c ****  */
 582:Generated_Source\PSoC4/nRF24_FUNCS.c **** void nRF24_start_listening(void)
 583:Generated_Source\PSoC4/nRF24_FUNCS.c **** {
 1220              		.loc 1 583 0
 1221              		.cfi_startproc
 1222              		@ args = 0, pretend = 0, frame = 0
 1223              		@ frame_needed = 0, uses_anonymous_args = 0
 1224 0000 10B5     		push	{r4, lr}
 1225              		.cfi_def_cfa_offset 8
 1226              		.cfi_offset 4, -8
 1227              		.cfi_offset 14, -4
 584:Generated_Source\PSoC4/nRF24_FUNCS.c ****     nRF24_ce_write(GPIO_SET);
 1228              		.loc 1 584 0
 1229 0002 0120     		movs	r0, #1
 1230 0004 FFF7FEFF 		bl	nRF24_ce_write
 1231              	.LVL86:
 585:Generated_Source\PSoC4/nRF24_FUNCS.c **** }
 1232              		.loc 1 585 0
 1233              		@ sp needed
 1234 0008 10BD     		pop	{r4, pc}
ARM GAS  C:\Users\d3bug\AppData\Local\Temp\ccQAmDn0.s 			page 33


 1235              		.cfi_endproc
 1236              	.LFE39:
 1237              		.size	nRF24_start_listening, .-nRF24_start_listening
 1238 000a C046     		.section	.text.nRF24_set_standby_ii_mode,"ax",%progbits
 1239              		.align	2
 1240              		.global	nRF24_set_standby_ii_mode
 1241              		.code	16
 1242              		.thumb_func
 1243              		.type	nRF24_set_standby_ii_mode, %function
 1244              	nRF24_set_standby_ii_mode:
 1245              	.LFB13:
 219:Generated_Source\PSoC4/nRF24_FUNCS.c ****     nRF24_start_listening();
 1246              		.loc 1 219 0
 1247              		.cfi_startproc
 1248              		@ args = 0, pretend = 0, frame = 0
 1249              		@ frame_needed = 0, uses_anonymous_args = 0
 1250 0000 10B5     		push	{r4, lr}
 1251              		.cfi_def_cfa_offset 8
 1252              		.cfi_offset 4, -8
 1253              		.cfi_offset 14, -4
 220:Generated_Source\PSoC4/nRF24_FUNCS.c ****     nRF24_set_bit(NRF_REG_CONFIG, NRF_CONFIG_BIT_PWR_UP);
 1254              		.loc 1 220 0
 1255 0002 FFF7FEFF 		bl	nRF24_start_listening
 1256              	.LVL87:
 221:Generated_Source\PSoC4/nRF24_FUNCS.c **** }
 1257              		.loc 1 221 0
 1258 0006 0121     		movs	r1, #1
 1259 0008 0020     		movs	r0, #0
 1260 000a FFF7FEFF 		bl	nRF24_set_bit
 1261              	.LVL88:
 222:Generated_Source\PSoC4/nRF24_FUNCS.c **** 
 1262              		.loc 1 222 0
 1263              		@ sp needed
 1264 000e 10BD     		pop	{r4, pc}
 1265              		.cfi_endproc
 1266              	.LFE13:
 1267              		.size	nRF24_set_standby_ii_mode, .-nRF24_set_standby_ii_mode
 1268              		.section	.text.nRF24_stop_listening,"ax",%progbits
 1269              		.align	2
 1270              		.global	nRF24_stop_listening
 1271              		.code	16
 1272              		.thumb_func
 1273              		.type	nRF24_stop_listening, %function
 1274              	nRF24_stop_listening:
 1275              	.LFB40:
 586:Generated_Source\PSoC4/nRF24_FUNCS.c **** 
 587:Generated_Source\PSoC4/nRF24_FUNCS.c **** /**
 588:Generated_Source\PSoC4/nRF24_FUNCS.c ****  * @brief The nRF24 radio will stop listening.
 589:Generated_Source\PSoC4/nRF24_FUNCS.c ****  *
 590:Generated_Source\PSoC4/nRF24_FUNCS.c ****  * This function the pin CE of the nRF24 radio will be set to logic low,
 591:Generated_Source\PSoC4/nRF24_FUNCS.c ****  * this disable the radio for listening.
 592:Generated_Source\PSoC4/nRF24_FUNCS.c ****  */
 593:Generated_Source\PSoC4/nRF24_FUNCS.c **** void nRF24_stop_listening(void)
 594:Generated_Source\PSoC4/nRF24_FUNCS.c **** {
 1276              		.loc 1 594 0
 1277              		.cfi_startproc
 1278              		@ args = 0, pretend = 0, frame = 0
ARM GAS  C:\Users\d3bug\AppData\Local\Temp\ccQAmDn0.s 			page 34


 1279              		@ frame_needed = 0, uses_anonymous_args = 0
 1280 0000 10B5     		push	{r4, lr}
 1281              		.cfi_def_cfa_offset 8
 1282              		.cfi_offset 4, -8
 1283              		.cfi_offset 14, -4
 595:Generated_Source\PSoC4/nRF24_FUNCS.c ****     nRF24_ce_write(GPIO_CLEAR);
 1284              		.loc 1 595 0
 1285 0002 0020     		movs	r0, #0
 1286 0004 FFF7FEFF 		bl	nRF24_ce_write
 1287              	.LVL89:
 596:Generated_Source\PSoC4/nRF24_FUNCS.c **** }
 1288              		.loc 1 596 0
 1289              		@ sp needed
 1290 0008 10BD     		pop	{r4, pc}
 1291              		.cfi_endproc
 1292              	.LFE40:
 1293              		.size	nRF24_stop_listening, .-nRF24_stop_listening
 1294 000a C046     		.section	.text.nRF24_set_standby_i_mode,"ax",%progbits
 1295              		.align	2
 1296              		.global	nRF24_set_standby_i_mode
 1297              		.code	16
 1298              		.thumb_func
 1299              		.type	nRF24_set_standby_i_mode, %function
 1300              	nRF24_set_standby_i_mode:
 1301              	.LFB12:
 204:Generated_Source\PSoC4/nRF24_FUNCS.c ****     nRF24_stop_listening();
 1302              		.loc 1 204 0
 1303              		.cfi_startproc
 1304              		@ args = 0, pretend = 0, frame = 0
 1305              		@ frame_needed = 0, uses_anonymous_args = 0
 1306 0000 10B5     		push	{r4, lr}
 1307              		.cfi_def_cfa_offset 8
 1308              		.cfi_offset 4, -8
 1309              		.cfi_offset 14, -4
 205:Generated_Source\PSoC4/nRF24_FUNCS.c ****     nRF24_set_bit(NRF_REG_CONFIG, NRF_CONFIG_PWR_UP);
 1310              		.loc 1 205 0
 1311 0002 FFF7FEFF 		bl	nRF24_stop_listening
 1312              	.LVL90:
 206:Generated_Source\PSoC4/nRF24_FUNCS.c **** }
 1313              		.loc 1 206 0
 1314 0006 0221     		movs	r1, #2
 1315 0008 0020     		movs	r0, #0
 1316 000a FFF7FEFF 		bl	nRF24_set_bit
 1317              	.LVL91:
 207:Generated_Source\PSoC4/nRF24_FUNCS.c **** 
 1318              		.loc 1 207 0
 1319              		@ sp needed
 1320 000e 10BD     		pop	{r4, pc}
 1321              		.cfi_endproc
 1322              	.LFE12:
 1323              		.size	nRF24_set_standby_i_mode, .-nRF24_set_standby_i_mode
 1324              		.section	.text.nRF24_sleep,"ax",%progbits
 1325              		.align	2
 1326              		.global	nRF24_sleep
 1327              		.code	16
 1328              		.thumb_func
 1329              		.type	nRF24_sleep, %function
ARM GAS  C:\Users\d3bug\AppData\Local\Temp\ccQAmDn0.s 			page 35


 1330              	nRF24_sleep:
 1331              	.LFB6:
 135:Generated_Source\PSoC4/nRF24_FUNCS.c ****     nRF24_set_standby_i_mode();
 1332              		.loc 1 135 0
 1333              		.cfi_startproc
 1334              		@ args = 0, pretend = 0, frame = 0
 1335              		@ frame_needed = 0, uses_anonymous_args = 0
 1336 0000 10B5     		push	{r4, lr}
 1337              		.cfi_def_cfa_offset 8
 1338              		.cfi_offset 4, -8
 1339              		.cfi_offset 14, -4
 136:Generated_Source\PSoC4/nRF24_FUNCS.c **** }
 1340              		.loc 1 136 0
 1341 0002 FFF7FEFF 		bl	nRF24_set_standby_i_mode
 1342              	.LVL92:
 137:Generated_Source\PSoC4/nRF24_FUNCS.c **** 
 1343              		.loc 1 137 0
 1344              		@ sp needed
 1345 0006 10BD     		pop	{r4, pc}
 1346              		.cfi_endproc
 1347              	.LFE6:
 1348              		.size	nRF24_sleep, .-nRF24_sleep
 1349              		.section	.text.nRF24_transmit_pulse,"ax",%progbits
 1350              		.align	2
 1351              		.global	nRF24_transmit_pulse
 1352              		.code	16
 1353              		.thumb_func
 1354              		.type	nRF24_transmit_pulse, %function
 1355              	nRF24_transmit_pulse:
 1356              	.LFB41:
 597:Generated_Source\PSoC4/nRF24_FUNCS.c **** 
 598:Generated_Source\PSoC4/nRF24_FUNCS.c **** /**
 599:Generated_Source\PSoC4/nRF24_FUNCS.c ****  * @brief Transmit pulse on the CE pin.
 600:Generated_Source\PSoC4/nRF24_FUNCS.c ****  *
 601:Generated_Source\PSoC4/nRF24_FUNCS.c ****  * With this function the CE pin of the nRF24 radio will have a pulse of 15us,
 602:Generated_Source\PSoC4/nRF24_FUNCS.c ****  * this pulse trigger a transmission of the content of the TX FIFO.
 603:Generated_Source\PSoC4/nRF24_FUNCS.c ****  */
 604:Generated_Source\PSoC4/nRF24_FUNCS.c **** void nRF24_transmit_pulse(void)
 605:Generated_Source\PSoC4/nRF24_FUNCS.c **** {
 1357              		.loc 1 605 0
 1358              		.cfi_startproc
 1359              		@ args = 0, pretend = 0, frame = 0
 1360              		@ frame_needed = 0, uses_anonymous_args = 0
 1361 0000 10B5     		push	{r4, lr}
 1362              		.cfi_def_cfa_offset 8
 1363              		.cfi_offset 4, -8
 1364              		.cfi_offset 14, -4
 606:Generated_Source\PSoC4/nRF24_FUNCS.c ****     nRF24_ce_write(GPIO_SET);
 1365              		.loc 1 606 0
 1366 0002 0120     		movs	r0, #1
 1367 0004 FFF7FEFF 		bl	nRF24_ce_write
 1368              	.LVL93:
 607:Generated_Source\PSoC4/nRF24_FUNCS.c ****     CyDelayUs(NRF_CE_PULSE_WIDTH_US);
 1369              		.loc 1 607 0
 1370 0008 0F20     		movs	r0, #15
 1371 000a FFF7FEFF 		bl	CyDelayUs
 1372              	.LVL94:
ARM GAS  C:\Users\d3bug\AppData\Local\Temp\ccQAmDn0.s 			page 36


 608:Generated_Source\PSoC4/nRF24_FUNCS.c ****     nRF24_ce_write(GPIO_CLEAR);
 1373              		.loc 1 608 0
 1374 000e 0020     		movs	r0, #0
 1375 0010 FFF7FEFF 		bl	nRF24_ce_write
 1376              	.LVL95:
 609:Generated_Source\PSoC4/nRF24_FUNCS.c **** }
 1377              		.loc 1 609 0
 1378              		@ sp needed
 1379 0014 10BD     		pop	{r4, pc}
 1380              		.cfi_endproc
 1381              	.LFE41:
 1382              		.size	nRF24_transmit_pulse, .-nRF24_transmit_pulse
 1383 0016 C046     		.section	.text.nRF24_reuse_last_transmitted_payload,"ax",%progbits
 1384              		.align	2
 1385              		.global	nRF24_reuse_last_transmitted_payload
 1386              		.code	16
 1387              		.thumb_func
 1388              		.type	nRF24_reuse_last_transmitted_payload, %function
 1389              	nRF24_reuse_last_transmitted_payload:
 1390              	.LFB28:
 475:Generated_Source\PSoC4/nRF24_FUNCS.c ****     nRF24_cmd_reuse_tx_payload();
 1391              		.loc 1 475 0
 1392              		.cfi_startproc
 1393              		@ args = 0, pretend = 0, frame = 0
 1394              		@ frame_needed = 0, uses_anonymous_args = 0
 1395 0000 10B5     		push	{r4, lr}
 1396              		.cfi_def_cfa_offset 8
 1397              		.cfi_offset 4, -8
 1398              		.cfi_offset 14, -4
 476:Generated_Source\PSoC4/nRF24_FUNCS.c ****     nRF24_transmit_pulse();
 1399              		.loc 1 476 0
 1400 0002 FFF7FEFF 		bl	nRF24_cmd_reuse_tx_payload
 1401              	.LVL96:
 477:Generated_Source\PSoC4/nRF24_FUNCS.c **** }
 1402              		.loc 1 477 0
 1403 0006 FFF7FEFF 		bl	nRF24_transmit_pulse
 1404              	.LVL97:
 478:Generated_Source\PSoC4/nRF24_FUNCS.c **** 
 1405              		.loc 1 478 0
 1406              		@ sp needed
 1407 000a 10BD     		pop	{r4, pc}
 1408              		.cfi_endproc
 1409              	.LFE28:
 1410              		.size	nRF24_reuse_last_transmitted_payload, .-nRF24_reuse_last_transmitted_payload
 1411              		.section	.text.nRF24_get_status,"ax",%progbits
 1412              		.align	2
 1413              		.global	nRF24_get_status
 1414              		.code	16
 1415              		.thumb_func
 1416              		.type	nRF24_get_status, %function
 1417              	nRF24_get_status:
 1418              	.LFB42:
 610:Generated_Source\PSoC4/nRF24_FUNCS.c **** 
 611:Generated_Source\PSoC4/nRF24_FUNCS.c **** /**
 612:Generated_Source\PSoC4/nRF24_FUNCS.c ****  * @brief Get the STATUS register of the nRF24.
 613:Generated_Source\PSoC4/nRF24_FUNCS.c ****  *
 614:Generated_Source\PSoC4/nRF24_FUNCS.c ****  * @return uint8_t: STATUS register of the nRF24.
ARM GAS  C:\Users\d3bug\AppData\Local\Temp\ccQAmDn0.s 			page 37


 615:Generated_Source\PSoC4/nRF24_FUNCS.c ****  */
 616:Generated_Source\PSoC4/nRF24_FUNCS.c **** uint8_t nRF24_get_status(void)
 617:Generated_Source\PSoC4/nRF24_FUNCS.c **** {
 1419              		.loc 1 617 0
 1420              		.cfi_startproc
 1421              		@ args = 0, pretend = 0, frame = 0
 1422              		@ frame_needed = 0, uses_anonymous_args = 0
 1423 0000 10B5     		push	{r4, lr}
 1424              		.cfi_def_cfa_offset 8
 1425              		.cfi_offset 4, -8
 1426              		.cfi_offset 14, -4
 618:Generated_Source\PSoC4/nRF24_FUNCS.c ****     return nRF24_cmd_nop();
 1427              		.loc 1 618 0
 1428 0002 FFF7FEFF 		bl	nRF24_cmd_nop
 1429              	.LVL98:
 619:Generated_Source\PSoC4/nRF24_FUNCS.c **** }
 1430              		.loc 1 619 0
 1431              		@ sp needed
 1432 0006 10BD     		pop	{r4, pc}
 1433              		.cfi_endproc
 1434              	.LFE42:
 1435              		.size	nRF24_get_status, .-nRF24_get_status
 1436              		.section	.text.nRF24_get_fifo_status,"ax",%progbits
 1437              		.align	2
 1438              		.global	nRF24_get_fifo_status
 1439              		.code	16
 1440              		.thumb_func
 1441              		.type	nRF24_get_fifo_status, %function
 1442              	nRF24_get_fifo_status:
 1443              	.LFB43:
 620:Generated_Source\PSoC4/nRF24_FUNCS.c **** 
 621:Generated_Source\PSoC4/nRF24_FUNCS.c **** /**
 622:Generated_Source\PSoC4/nRF24_FUNCS.c ****  * @brief Get the STATUS register of the nRF24.
 623:Generated_Source\PSoC4/nRF24_FUNCS.c ****  *
 624:Generated_Source\PSoC4/nRF24_FUNCS.c ****  * @return uint8_t: STATUS register of the nRF24.
 625:Generated_Source\PSoC4/nRF24_FUNCS.c ****  */
 626:Generated_Source\PSoC4/nRF24_FUNCS.c **** uint8_t nRF24_get_fifo_status(void)
 627:Generated_Source\PSoC4/nRF24_FUNCS.c **** {
 1444              		.loc 1 627 0
 1445              		.cfi_startproc
 1446              		@ args = 0, pretend = 0, frame = 8
 1447              		@ frame_needed = 0, uses_anonymous_args = 0
 1448 0000 10B5     		push	{r4, lr}
 1449              		.cfi_def_cfa_offset 8
 1450              		.cfi_offset 4, -8
 1451              		.cfi_offset 14, -4
 1452 0002 82B0     		sub	sp, sp, #8
 1453              		.cfi_def_cfa_offset 16
 628:Generated_Source\PSoC4/nRF24_FUNCS.c ****     uint8_t fifo_status;
 629:Generated_Source\PSoC4/nRF24_FUNCS.c ****     nRF24_read_reg(NRF_REG_FIFO_STATUS, &fifo_status, 1);
 1454              		.loc 1 629 0
 1455 0004 6B46     		mov	r3, sp
 1456 0006 DC1D     		adds	r4, r3, #7
 1457 0008 0122     		movs	r2, #1
 1458 000a 2100     		movs	r1, r4
 1459 000c 1720     		movs	r0, #23
 1460 000e FFF7FEFF 		bl	nRF24_read_reg
ARM GAS  C:\Users\d3bug\AppData\Local\Temp\ccQAmDn0.s 			page 38


 1461              	.LVL99:
 630:Generated_Source\PSoC4/nRF24_FUNCS.c ****     return fifo_status;
 1462              		.loc 1 630 0
 1463 0012 2078     		ldrb	r0, [r4]
 631:Generated_Source\PSoC4/nRF24_FUNCS.c **** }
 1464              		.loc 1 631 0
 1465 0014 02B0     		add	sp, sp, #8
 1466              		@ sp needed
 1467 0016 10BD     		pop	{r4, pc}
 1468              		.cfi_endproc
 1469              	.LFE43:
 1470              		.size	nRF24_get_fifo_status, .-nRF24_get_fifo_status
 1471              		.section	.text.nRF24_get_retransmissions_count,"ax",%progbits
 1472              		.align	2
 1473              		.global	nRF24_get_retransmissions_count
 1474              		.code	16
 1475              		.thumb_func
 1476              		.type	nRF24_get_retransmissions_count, %function
 1477              	nRF24_get_retransmissions_count:
 1478              	.LFB44:
 632:Generated_Source\PSoC4/nRF24_FUNCS.c **** 
 633:Generated_Source\PSoC4/nRF24_FUNCS.c **** /**
 634:Generated_Source\PSoC4/nRF24_FUNCS.c ****  * @brief Get the number of retransmissions.
 635:Generated_Source\PSoC4/nRF24_FUNCS.c ****  *
 636:Generated_Source\PSoC4/nRF24_FUNCS.c ****  * @return uint8_t: Retransmissions count.
 637:Generated_Source\PSoC4/nRF24_FUNCS.c ****  */
 638:Generated_Source\PSoC4/nRF24_FUNCS.c **** uint8_t nRF24_get_retransmissions_count(void)
 639:Generated_Source\PSoC4/nRF24_FUNCS.c **** {
 1479              		.loc 1 639 0
 1480              		.cfi_startproc
 1481              		@ args = 0, pretend = 0, frame = 8
 1482              		@ frame_needed = 0, uses_anonymous_args = 0
 1483 0000 10B5     		push	{r4, lr}
 1484              		.cfi_def_cfa_offset 8
 1485              		.cfi_offset 4, -8
 1486              		.cfi_offset 14, -4
 1487 0002 82B0     		sub	sp, sp, #8
 1488              		.cfi_def_cfa_offset 16
 640:Generated_Source\PSoC4/nRF24_FUNCS.c ****     uint8_t count;
 641:Generated_Source\PSoC4/nRF24_FUNCS.c ****     nRF24_read_reg(NRF_REG_OBSERVE_TX, &count, 1);
 1489              		.loc 1 641 0
 1490 0004 6B46     		mov	r3, sp
 1491 0006 DC1D     		adds	r4, r3, #7
 1492 0008 0122     		movs	r2, #1
 1493 000a 2100     		movs	r1, r4
 1494 000c 0820     		movs	r0, #8
 1495 000e FFF7FEFF 		bl	nRF24_read_reg
 1496              	.LVL100:
 642:Generated_Source\PSoC4/nRF24_FUNCS.c ****     return count & NRF_OBSERVE_TX_ARC_CNT_MASK;
 1497              		.loc 1 642 0
 1498 0012 2378     		ldrb	r3, [r4]
 1499 0014 0F20     		movs	r0, #15
 1500 0016 1840     		ands	r0, r3
 643:Generated_Source\PSoC4/nRF24_FUNCS.c **** }
 1501              		.loc 1 643 0
 1502 0018 02B0     		add	sp, sp, #8
 1503              		@ sp needed
ARM GAS  C:\Users\d3bug\AppData\Local\Temp\ccQAmDn0.s 			page 39


 1504 001a 10BD     		pop	{r4, pc}
 1505              		.cfi_endproc
 1506              	.LFE44:
 1507              		.size	nRF24_get_retransmissions_count, .-nRF24_get_retransmissions_count
 1508              		.section	.text.nRF24_get_lost_packets_count,"ax",%progbits
 1509              		.align	2
 1510              		.global	nRF24_get_lost_packets_count
 1511              		.code	16
 1512              		.thumb_func
 1513              		.type	nRF24_get_lost_packets_count, %function
 1514              	nRF24_get_lost_packets_count:
 1515              	.LFB45:
 644:Generated_Source\PSoC4/nRF24_FUNCS.c **** 
 645:Generated_Source\PSoC4/nRF24_FUNCS.c **** /**
 646:Generated_Source\PSoC4/nRF24_FUNCS.c ****  * @brief Get the number of lost packets.
 647:Generated_Source\PSoC4/nRF24_FUNCS.c ****  *
 648:Generated_Source\PSoC4/nRF24_FUNCS.c ****  * @return uint8_t: Lost packets.
 649:Generated_Source\PSoC4/nRF24_FUNCS.c ****  */
 650:Generated_Source\PSoC4/nRF24_FUNCS.c **** uint8_t nRF24_get_lost_packets_count(void)
 651:Generated_Source\PSoC4/nRF24_FUNCS.c **** {
 1516              		.loc 1 651 0
 1517              		.cfi_startproc
 1518              		@ args = 0, pretend = 0, frame = 8
 1519              		@ frame_needed = 0, uses_anonymous_args = 0
 1520 0000 10B5     		push	{r4, lr}
 1521              		.cfi_def_cfa_offset 8
 1522              		.cfi_offset 4, -8
 1523              		.cfi_offset 14, -4
 1524 0002 82B0     		sub	sp, sp, #8
 1525              		.cfi_def_cfa_offset 16
 652:Generated_Source\PSoC4/nRF24_FUNCS.c ****     uint8_t lostPackets;
 653:Generated_Source\PSoC4/nRF24_FUNCS.c ****     nRF24_read_reg(NRF_REG_OBSERVE_TX, &lostPackets, 1);
 1526              		.loc 1 653 0
 1527 0004 6B46     		mov	r3, sp
 1528 0006 DC1D     		adds	r4, r3, #7
 1529 0008 0122     		movs	r2, #1
 1530 000a 2100     		movs	r1, r4
 1531 000c 0820     		movs	r0, #8
 1532 000e FFF7FEFF 		bl	nRF24_read_reg
 1533              	.LVL101:
 654:Generated_Source\PSoC4/nRF24_FUNCS.c ****     lostPackets = lostPackets & NRF_OBSERVE_TX_PLOS_CNT_MASK;
 1534              		.loc 1 654 0
 1535 0012 2078     		ldrb	r0, [r4]
 1536 0014 0F23     		movs	r3, #15
 1537 0016 9843     		bics	r0, r3
 1538              	.LVL102:
 655:Generated_Source\PSoC4/nRF24_FUNCS.c ****     return lostPackets >> NRF_OBSERVE_TX_BIT_PLOS_CNT;
 1539              		.loc 1 655 0
 1540 0018 0009     		lsrs	r0, r0, #4
 1541              	.LVL103:
 656:Generated_Source\PSoC4/nRF24_FUNCS.c **** }
 1542              		.loc 1 656 0
 1543 001a 02B0     		add	sp, sp, #8
 1544              		@ sp needed
 1545              	.LVL104:
 1546 001c 10BD     		pop	{r4, pc}
 1547              		.cfi_endproc
ARM GAS  C:\Users\d3bug\AppData\Local\Temp\ccQAmDn0.s 			page 40


 1548              	.LFE45:
 1549              		.size	nRF24_get_lost_packets_count, .-nRF24_get_lost_packets_count
 1550 001e C046     		.section	.text.nRF24_put_in_tx_fifo,"ax",%progbits
 1551              		.align	2
 1552              		.global	nRF24_put_in_tx_fifo
 1553              		.code	16
 1554              		.thumb_func
 1555              		.type	nRF24_put_in_tx_fifo, %function
 1556              	nRF24_put_in_tx_fifo:
 1557              	.LFB46:
 657:Generated_Source\PSoC4/nRF24_FUNCS.c **** 
 658:Generated_Source\PSoC4/nRF24_FUNCS.c **** /**
 659:Generated_Source\PSoC4/nRF24_FUNCS.c ****  * Put data into the TX FIFO wihout sending it.
 660:Generated_Source\PSoC4/nRF24_FUNCS.c ****  *
 661:Generated_Source\PSoC4/nRF24_FUNCS.c ****  * @param const uint8_t* data:
 662:Generated_Source\PSoC4/nRF24_FUNCS.c ****  * @param const size_t size:
 663:Generated_Source\PSoC4/nRF24_FUNCS.c ****  */
 664:Generated_Source\PSoC4/nRF24_FUNCS.c **** void nRF24_put_in_tx_fifo(const uint8_t* payload, size_t payload_size)
 665:Generated_Source\PSoC4/nRF24_FUNCS.c **** {
 1558              		.loc 1 665 0
 1559              		.cfi_startproc
 1560              		@ args = 0, pretend = 0, frame = 0
 1561              		@ frame_needed = 0, uses_anonymous_args = 0
 1562              	.LVL105:
 1563 0000 10B5     		push	{r4, lr}
 1564              		.cfi_def_cfa_offset 8
 1565              		.cfi_offset 4, -8
 1566              		.cfi_offset 14, -4
 666:Generated_Source\PSoC4/nRF24_FUNCS.c ****     if (NULL == payload) {
 1567              		.loc 1 666 0
 1568 0002 0028     		cmp	r0, #0
 1569 0004 04D0     		beq	.L79
 667:Generated_Source\PSoC4/nRF24_FUNCS.c ****         return;
 668:Generated_Source\PSoC4/nRF24_FUNCS.c ****     }
 669:Generated_Source\PSoC4/nRF24_FUNCS.c **** 
 670:Generated_Source\PSoC4/nRF24_FUNCS.c ****     if (NRF_PAYLOAD_SIZE_MAX < payload_size) {
 1570              		.loc 1 670 0
 1571 0006 2029     		cmp	r1, #32
 1572 0008 00D9     		bls	.L81
 671:Generated_Source\PSoC4/nRF24_FUNCS.c ****         payload_size = NRF_PAYLOAD_SIZE_MAX;
 1573              		.loc 1 671 0
 1574 000a 2021     		movs	r1, #32
 1575              	.LVL106:
 1576              	.L81:
 672:Generated_Source\PSoC4/nRF24_FUNCS.c ****     }
 673:Generated_Source\PSoC4/nRF24_FUNCS.c **** 
 674:Generated_Source\PSoC4/nRF24_FUNCS.c ****     nRF24_cmd_write_tx_payload(payload, payload_size);
 1577              		.loc 1 674 0
 1578 000c FFF7FEFF 		bl	nRF24_cmd_write_tx_payload
 1579              	.LVL107:
 1580              	.L79:
 675:Generated_Source\PSoC4/nRF24_FUNCS.c **** }
 1581              		.loc 1 675 0
 1582              		@ sp needed
 1583 0010 10BD     		pop	{r4, pc}
 1584              		.cfi_endproc
 1585              	.LFE46:
ARM GAS  C:\Users\d3bug\AppData\Local\Temp\ccQAmDn0.s 			page 41


 1586              		.size	nRF24_put_in_tx_fifo, .-nRF24_put_in_tx_fifo
 1587 0012 C046     		.section	.text.nRF24_transmit,"ax",%progbits
 1588              		.align	2
 1589              		.global	nRF24_transmit
 1590              		.code	16
 1591              		.thumb_func
 1592              		.type	nRF24_transmit, %function
 1593              	nRF24_transmit:
 1594              	.LFB47:
 676:Generated_Source\PSoC4/nRF24_FUNCS.c **** 
 677:Generated_Source\PSoC4/nRF24_FUNCS.c **** /**
 678:Generated_Source\PSoC4/nRF24_FUNCS.c ****  * Put data in TX FIFO and transmit it.
 679:Generated_Source\PSoC4/nRF24_FUNCS.c ****  *
 680:Generated_Source\PSoC4/nRF24_FUNCS.c ****  * @param const uint8_t* data:
 681:Generated_Source\PSoC4/nRF24_FUNCS.c ****  * @param const size_t size:
 682:Generated_Source\PSoC4/nRF24_FUNCS.c ****  */
 683:Generated_Source\PSoC4/nRF24_FUNCS.c **** void nRF24_transmit(const uint8_t* payload, size_t payload_size)
 684:Generated_Source\PSoC4/nRF24_FUNCS.c **** {
 1595              		.loc 1 684 0
 1596              		.cfi_startproc
 1597              		@ args = 0, pretend = 0, frame = 0
 1598              		@ frame_needed = 0, uses_anonymous_args = 0
 1599              	.LVL108:
 1600 0000 10B5     		push	{r4, lr}
 1601              		.cfi_def_cfa_offset 8
 1602              		.cfi_offset 4, -8
 1603              		.cfi_offset 14, -4
 685:Generated_Source\PSoC4/nRF24_FUNCS.c ****     if (NULL == payload) {
 1604              		.loc 1 685 0
 1605 0002 0028     		cmp	r0, #0
 1606 0004 06D0     		beq	.L83
 686:Generated_Source\PSoC4/nRF24_FUNCS.c ****         return;
 687:Generated_Source\PSoC4/nRF24_FUNCS.c ****     }
 688:Generated_Source\PSoC4/nRF24_FUNCS.c **** 
 689:Generated_Source\PSoC4/nRF24_FUNCS.c ****     if (NRF_PAYLOAD_SIZE_MAX < payload_size) {
 1607              		.loc 1 689 0
 1608 0006 2029     		cmp	r1, #32
 1609 0008 00D9     		bls	.L85
 690:Generated_Source\PSoC4/nRF24_FUNCS.c ****         payload_size = NRF_PAYLOAD_SIZE_MAX;
 1610              		.loc 1 690 0
 1611 000a 2021     		movs	r1, #32
 1612              	.LVL109:
 1613              	.L85:
 691:Generated_Source\PSoC4/nRF24_FUNCS.c ****     }
 692:Generated_Source\PSoC4/nRF24_FUNCS.c **** 
 693:Generated_Source\PSoC4/nRF24_FUNCS.c ****     nRF24_put_in_tx_fifo(payload, payload_size);
 1614              		.loc 1 693 0
 1615 000c FFF7FEFF 		bl	nRF24_put_in_tx_fifo
 1616              	.LVL110:
 694:Generated_Source\PSoC4/nRF24_FUNCS.c ****     nRF24_transmit_pulse();
 1617              		.loc 1 694 0
 1618 0010 FFF7FEFF 		bl	nRF24_transmit_pulse
 1619              	.LVL111:
 1620              	.L83:
 695:Generated_Source\PSoC4/nRF24_FUNCS.c **** }
 1621              		.loc 1 695 0
 1622              		@ sp needed
ARM GAS  C:\Users\d3bug\AppData\Local\Temp\ccQAmDn0.s 			page 42


 1623 0014 10BD     		pop	{r4, pc}
 1624              		.cfi_endproc
 1625              	.LFE47:
 1626              		.size	nRF24_transmit, .-nRF24_transmit
 1627 0016 C046     		.section	.text.nRF24_is_data_ready,"ax",%progbits
 1628              		.align	2
 1629              		.global	nRF24_is_data_ready
 1630              		.code	16
 1631              		.thumb_func
 1632              		.type	nRF24_is_data_ready, %function
 1633              	nRF24_is_data_ready:
 1634              	.LFB48:
 696:Generated_Source\PSoC4/nRF24_FUNCS.c **** 
 697:Generated_Source\PSoC4/nRF24_FUNCS.c **** /**
 698:Generated_Source\PSoC4/nRF24_FUNCS.c ****  * @brief
 699:Generated_Source\PSoC4/nRF24_FUNCS.c ****  *
 700:Generated_Source\PSoC4/nRF24_FUNCS.c ****  * @return bool: True if there's data ready.
 701:Generated_Source\PSoC4/nRF24_FUNCS.c ****  */
 702:Generated_Source\PSoC4/nRF24_FUNCS.c **** bool nRF24_is_data_ready(void)
 703:Generated_Source\PSoC4/nRF24_FUNCS.c **** {
 1635              		.loc 1 703 0
 1636              		.cfi_startproc
 1637              		@ args = 0, pretend = 0, frame = 0
 1638              		@ frame_needed = 0, uses_anonymous_args = 0
 1639 0000 10B5     		push	{r4, lr}
 1640              		.cfi_def_cfa_offset 8
 1641              		.cfi_offset 4, -8
 1642              		.cfi_offset 14, -4
 704:Generated_Source\PSoC4/nRF24_FUNCS.c ****     return NRF_STATUS_RX_DR_MASK & nRF24_get_status();
 1643              		.loc 1 704 0
 1644 0002 FFF7FEFF 		bl	nRF24_get_status
 1645              	.LVL112:
 1646 0006 8009     		lsrs	r0, r0, #6
 1647 0008 0123     		movs	r3, #1
 1648 000a 1840     		ands	r0, r3
 705:Generated_Source\PSoC4/nRF24_FUNCS.c **** }
 1649              		.loc 1 705 0
 1650              		@ sp needed
 1651 000c 10BD     		pop	{r4, pc}
 1652              		.cfi_endproc
 1653              	.LFE48:
 1654              		.size	nRF24_is_data_ready, .-nRF24_is_data_ready
 1655 000e C046     		.section	.text.nRF24_get_rx_payload,"ax",%progbits
 1656              		.align	2
 1657              		.global	nRF24_get_rx_payload
 1658              		.code	16
 1659              		.thumb_func
 1660              		.type	nRF24_get_rx_payload, %function
 1661              	nRF24_get_rx_payload:
 1662              	.LFB49:
 706:Generated_Source\PSoC4/nRF24_FUNCS.c **** 
 707:Generated_Source\PSoC4/nRF24_FUNCS.c **** /**
 708:Generated_Source\PSoC4/nRF24_FUNCS.c ****  * @brief
 709:Generated_Source\PSoC4/nRF24_FUNCS.c ****  *
 710:Generated_Source\PSoC4/nRF24_FUNCS.c ****  * @param uint8_t* data:
 711:Generated_Source\PSoC4/nRF24_FUNCS.c ****  * @param const size_t size:
 712:Generated_Source\PSoC4/nRF24_FUNCS.c ****  */
ARM GAS  C:\Users\d3bug\AppData\Local\Temp\ccQAmDn0.s 			page 43


 713:Generated_Source\PSoC4/nRF24_FUNCS.c **** void nRF24_get_rx_payload(uint8_t *payload, const size_t payload_size)
 714:Generated_Source\PSoC4/nRF24_FUNCS.c **** {
 1663              		.loc 1 714 0
 1664              		.cfi_startproc
 1665              		@ args = 0, pretend = 0, frame = 0
 1666              		@ frame_needed = 0, uses_anonymous_args = 0
 1667              	.LVL113:
 1668 0000 70B5     		push	{r4, r5, r6, lr}
 1669              		.cfi_def_cfa_offset 16
 1670              		.cfi_offset 4, -16
 1671              		.cfi_offset 5, -12
 1672              		.cfi_offset 6, -8
 1673              		.cfi_offset 14, -4
 1674 0002 0400     		movs	r4, r0
 1675 0004 0D00     		movs	r5, r1
 715:Generated_Source\PSoC4/nRF24_FUNCS.c ****     if (NULL == payload) {
 1676              		.loc 1 715 0
 1677 0006 0028     		cmp	r0, #0
 1678 0008 09D0     		beq	.L88
 716:Generated_Source\PSoC4/nRF24_FUNCS.c ****         return;
 717:Generated_Source\PSoC4/nRF24_FUNCS.c ****     }
 718:Generated_Source\PSoC4/nRF24_FUNCS.c **** 
 719:Generated_Source\PSoC4/nRF24_FUNCS.c ****     nRF24_ce_write(GPIO_CLEAR);
 1679              		.loc 1 719 0
 1680 000a 0020     		movs	r0, #0
 1681              	.LVL114:
 1682 000c FFF7FEFF 		bl	nRF24_ce_write
 1683              	.LVL115:
 720:Generated_Source\PSoC4/nRF24_FUNCS.c ****     nRF24_cmd_read_rx_payload(payload, payload_size);
 1684              		.loc 1 720 0
 1685 0010 2900     		movs	r1, r5
 1686 0012 2000     		movs	r0, r4
 1687 0014 FFF7FEFF 		bl	nRF24_cmd_read_rx_payload
 1688              	.LVL116:
 721:Generated_Source\PSoC4/nRF24_FUNCS.c ****     nRF24_ce_write(GPIO_SET);
 1689              		.loc 1 721 0
 1690 0018 0120     		movs	r0, #1
 1691 001a FFF7FEFF 		bl	nRF24_ce_write
 1692              	.LVL117:
 1693              	.L88:
 722:Generated_Source\PSoC4/nRF24_FUNCS.c **** }
 1694              		.loc 1 722 0
 1695              		@ sp needed
 1696              	.LVL118:
 1697              	.LVL119:
 1698 001e 70BD     		pop	{r4, r5, r6, pc}
 1699              		.cfi_endproc
 1700              	.LFE49:
 1701              		.size	nRF24_get_rx_payload, .-nRF24_get_rx_payload
 1702              		.section	.text.nRF24_tx_transmit_no_ack,"ax",%progbits
 1703              		.align	2
 1704              		.global	nRF24_tx_transmit_no_ack
 1705              		.code	16
 1706              		.thumb_func
 1707              		.type	nRF24_tx_transmit_no_ack, %function
 1708              	nRF24_tx_transmit_no_ack:
 1709              	.LFB50:
ARM GAS  C:\Users\d3bug\AppData\Local\Temp\ccQAmDn0.s 			page 44


 723:Generated_Source\PSoC4/nRF24_FUNCS.c **** 
 724:Generated_Source\PSoC4/nRF24_FUNCS.c **** /**
 725:Generated_Source\PSoC4/nRF24_FUNCS.c ****  * @brief
 726:Generated_Source\PSoC4/nRF24_FUNCS.c ****  *
 727:Generated_Source\PSoC4/nRF24_FUNCS.c ****  * @param const uint8_t* data:
 728:Generated_Source\PSoC4/nRF24_FUNCS.c ****  * @param size_t size:
 729:Generated_Source\PSoC4/nRF24_FUNCS.c ****  */
 730:Generated_Source\PSoC4/nRF24_FUNCS.c **** void nRF24_tx_transmit_no_ack(const uint8_t *payload, size_t payload_size)
 731:Generated_Source\PSoC4/nRF24_FUNCS.c **** {
 1710              		.loc 1 731 0
 1711              		.cfi_startproc
 1712              		@ args = 0, pretend = 0, frame = 0
 1713              		@ frame_needed = 0, uses_anonymous_args = 0
 1714              	.LVL120:
 1715 0000 10B5     		push	{r4, lr}
 1716              		.cfi_def_cfa_offset 8
 1717              		.cfi_offset 4, -8
 1718              		.cfi_offset 14, -4
 732:Generated_Source\PSoC4/nRF24_FUNCS.c ****     if (NULL == payload) {
 1719              		.loc 1 732 0
 1720 0002 0028     		cmp	r0, #0
 1721 0004 05D0     		beq	.L90
 733:Generated_Source\PSoC4/nRF24_FUNCS.c ****         return;
 734:Generated_Source\PSoC4/nRF24_FUNCS.c ****     }
 735:Generated_Source\PSoC4/nRF24_FUNCS.c **** 
 736:Generated_Source\PSoC4/nRF24_FUNCS.c ****     if (NRF_PAYLOAD_SIZE_MAX < payload_size) {
 1722              		.loc 1 736 0
 1723 0006 2029     		cmp	r1, #32
 1724 0008 03D8     		bhi	.L90
 737:Generated_Source\PSoC4/nRF24_FUNCS.c ****         return;
 738:Generated_Source\PSoC4/nRF24_FUNCS.c ****     }
 739:Generated_Source\PSoC4/nRF24_FUNCS.c **** 
 740:Generated_Source\PSoC4/nRF24_FUNCS.c ****     nRF24_cmd_no_ack_payload(payload, payload_size);
 1725              		.loc 1 740 0
 1726 000a FFF7FEFF 		bl	nRF24_cmd_no_ack_payload
 1727              	.LVL121:
 741:Generated_Source\PSoC4/nRF24_FUNCS.c ****     nRF24_transmit_pulse();
 1728              		.loc 1 741 0
 1729 000e FFF7FEFF 		bl	nRF24_transmit_pulse
 1730              	.LVL122:
 1731              	.L90:
 742:Generated_Source\PSoC4/nRF24_FUNCS.c **** }
 1732              		.loc 1 742 0
 1733              		@ sp needed
 1734 0012 10BD     		pop	{r4, pc}
 1735              		.cfi_endproc
 1736              	.LFE50:
 1737              		.size	nRF24_tx_transmit_no_ack, .-nRF24_tx_transmit_no_ack
 1738              		.section	.text.nRF24_rx_write_payload,"ax",%progbits
 1739              		.align	2
 1740              		.global	nRF24_rx_write_payload
 1741              		.code	16
 1742              		.thumb_func
 1743              		.type	nRF24_rx_write_payload, %function
 1744              	nRF24_rx_write_payload:
 1745              	.LFB51:
 743:Generated_Source\PSoC4/nRF24_FUNCS.c **** 
ARM GAS  C:\Users\d3bug\AppData\Local\Temp\ccQAmDn0.s 			page 45


 744:Generated_Source\PSoC4/nRF24_FUNCS.c **** /**
 745:Generated_Source\PSoC4/nRF24_FUNCS.c ****  * @brief
 746:Generated_Source\PSoC4/nRF24_FUNCS.c ****  *
 747:Generated_Source\PSoC4/nRF24_FUNCS.c ****  * @param const nrf_pipe pipe:
 748:Generated_Source\PSoC4/nRF24_FUNCS.c ****  * @param const uint8_t* data:
 749:Generated_Source\PSoC4/nRF24_FUNCS.c ****  * @param size_t size:
 750:Generated_Source\PSoC4/nRF24_FUNCS.c ****  */
 751:Generated_Source\PSoC4/nRF24_FUNCS.c **** void nRF24_rx_write_payload(const nrf_pipe pipe,
 752:Generated_Source\PSoC4/nRF24_FUNCS.c ****                                         const uint8_t *payload, size_t payload_size)
 753:Generated_Source\PSoC4/nRF24_FUNCS.c **** {
 1746              		.loc 1 753 0
 1747              		.cfi_startproc
 1748              		@ args = 0, pretend = 0, frame = 0
 1749              		@ frame_needed = 0, uses_anonymous_args = 0
 1750              	.LVL123:
 1751 0000 10B5     		push	{r4, lr}
 1752              		.cfi_def_cfa_offset 8
 1753              		.cfi_offset 4, -8
 1754              		.cfi_offset 14, -4
 754:Generated_Source\PSoC4/nRF24_FUNCS.c ****     if (NULL == payload) {
 1755              		.loc 1 754 0
 1756 0002 0029     		cmp	r1, #0
 1757 0004 04D0     		beq	.L92
 755:Generated_Source\PSoC4/nRF24_FUNCS.c ****         return;
 756:Generated_Source\PSoC4/nRF24_FUNCS.c ****     }
 757:Generated_Source\PSoC4/nRF24_FUNCS.c **** 
 758:Generated_Source\PSoC4/nRF24_FUNCS.c ****     if (NRF_PAYLOAD_SIZE_MAX < payload_size) {
 1758              		.loc 1 758 0
 1759 0006 202A     		cmp	r2, #32
 1760 0008 00D9     		bls	.L94
 759:Generated_Source\PSoC4/nRF24_FUNCS.c ****         payload_size = NRF_PAYLOAD_SIZE_MAX;
 1761              		.loc 1 759 0
 1762 000a 2022     		movs	r2, #32
 1763              	.LVL124:
 1764              	.L94:
 760:Generated_Source\PSoC4/nRF24_FUNCS.c ****     }
 761:Generated_Source\PSoC4/nRF24_FUNCS.c **** 
 762:Generated_Source\PSoC4/nRF24_FUNCS.c ****     nRF24_cmd_write_ack_payload(pipe, payload, payload_size);
 1765              		.loc 1 762 0
 1766 000c FFF7FEFF 		bl	nRF24_cmd_write_ack_payload
 1767              	.LVL125:
 1768              	.L92:
 763:Generated_Source\PSoC4/nRF24_FUNCS.c **** }
 1769              		.loc 1 763 0
 1770              		@ sp needed
 1771 0010 10BD     		pop	{r4, pc}
 1772              		.cfi_endproc
 1773              	.LFE51:
 1774              		.size	nRF24_rx_write_payload, .-nRF24_rx_write_payload
 1775 0012 C046     		.section	.text.nRF24_get_data_pipe_with_payload,"ax",%progbits
 1776              		.align	2
 1777              		.global	nRF24_get_data_pipe_with_payload
 1778              		.code	16
 1779              		.thumb_func
 1780              		.type	nRF24_get_data_pipe_with_payload, %function
 1781              	nRF24_get_data_pipe_with_payload:
 1782              	.LFB52:
ARM GAS  C:\Users\d3bug\AppData\Local\Temp\ccQAmDn0.s 			page 46


 764:Generated_Source\PSoC4/nRF24_FUNCS.c **** 
 765:Generated_Source\PSoC4/nRF24_FUNCS.c **** /**
 766:Generated_Source\PSoC4/nRF24_FUNCS.c ****  * Return the pipe number with data.
 767:Generated_Source\PSoC4/nRF24_FUNCS.c ****  *
 768:Generated_Source\PSoC4/nRF24_FUNCS.c ****  * @return uint8_t:
 769:Generated_Source\PSoC4/nRF24_FUNCS.c ****  */
 770:Generated_Source\PSoC4/nRF24_FUNCS.c **** uint8_t nRF24_get_data_pipe_with_payload(void)
 771:Generated_Source\PSoC4/nRF24_FUNCS.c **** {
 1783              		.loc 1 771 0
 1784              		.cfi_startproc
 1785              		@ args = 0, pretend = 0, frame = 8
 1786              		@ frame_needed = 0, uses_anonymous_args = 0
 1787 0000 10B5     		push	{r4, lr}
 1788              		.cfi_def_cfa_offset 8
 1789              		.cfi_offset 4, -8
 1790              		.cfi_offset 14, -4
 1791 0002 82B0     		sub	sp, sp, #8
 1792              		.cfi_def_cfa_offset 16
 772:Generated_Source\PSoC4/nRF24_FUNCS.c ****     uint8_t pipe;
 773:Generated_Source\PSoC4/nRF24_FUNCS.c ****     nRF24_read_reg(NRF_REG_STATUS, &pipe, 1);
 1793              		.loc 1 773 0
 1794 0004 6B46     		mov	r3, sp
 1795 0006 DC1D     		adds	r4, r3, #7
 1796 0008 0122     		movs	r2, #1
 1797 000a 2100     		movs	r1, r4
 1798 000c 0720     		movs	r0, #7
 1799 000e FFF7FEFF 		bl	nRF24_read_reg
 1800              	.LVL126:
 774:Generated_Source\PSoC4/nRF24_FUNCS.c ****     return (pipe & NRF_STATUS_PIPES_MASK) >> NRF_STATUS_PIPES_SHIFT;
 1801              		.loc 1 774 0
 1802 0012 2078     		ldrb	r0, [r4]
 1803 0014 4010     		asrs	r0, r0, #1
 1804 0016 0723     		movs	r3, #7
 1805 0018 1840     		ands	r0, r3
 775:Generated_Source\PSoC4/nRF24_FUNCS.c **** }
 1806              		.loc 1 775 0
 1807 001a 02B0     		add	sp, sp, #8
 1808              		@ sp needed
 1809 001c 10BD     		pop	{r4, pc}
 1810              		.cfi_endproc
 1811              	.LFE52:
 1812              		.size	nRF24_get_data_pipe_with_payload, .-nRF24_get_data_pipe_with_payload
 1813 001e C046     		.section	.text.nRF24_received_power_detector,"ax",%progbits
 1814              		.align	2
 1815              		.global	nRF24_received_power_detector
 1816              		.code	16
 1817              		.thumb_func
 1818              		.type	nRF24_received_power_detector, %function
 1819              	nRF24_received_power_detector:
 1820              	.LFB53:
 776:Generated_Source\PSoC4/nRF24_FUNCS.c **** 
 777:Generated_Source\PSoC4/nRF24_FUNCS.c **** /**
 778:Generated_Source\PSoC4/nRF24_FUNCS.c ****  * @brief
 779:Generated_Source\PSoC4/nRF24_FUNCS.c ****  *
 780:Generated_Source\PSoC4/nRF24_FUNCS.c ****  * @return uint8_t:
 781:Generated_Source\PSoC4/nRF24_FUNCS.c ****  */
 782:Generated_Source\PSoC4/nRF24_FUNCS.c **** uint8_t nRF24_received_power_detector(void)
ARM GAS  C:\Users\d3bug\AppData\Local\Temp\ccQAmDn0.s 			page 47


 783:Generated_Source\PSoC4/nRF24_FUNCS.c **** {
 1821              		.loc 1 783 0
 1822              		.cfi_startproc
 1823              		@ args = 0, pretend = 0, frame = 0
 1824              		@ frame_needed = 0, uses_anonymous_args = 0
 1825 0000 10B5     		push	{r4, lr}
 1826              		.cfi_def_cfa_offset 8
 1827              		.cfi_offset 4, -8
 1828              		.cfi_offset 14, -4
 784:Generated_Source\PSoC4/nRF24_FUNCS.c ****     return nRF24_read_bit(NRF_REG_RPD, NRF_RPD_BIT_RPD);
 1829              		.loc 1 784 0
 1830 0002 0021     		movs	r1, #0
 1831 0004 0920     		movs	r0, #9
 1832 0006 FFF7FEFF 		bl	nRF24_read_bit
 1833              	.LVL127:
 785:Generated_Source\PSoC4/nRF24_FUNCS.c **** }
 1834              		.loc 1 785 0
 1835              		@ sp needed
 1836 000a 10BD     		pop	{r4, pc}
 1837              		.cfi_endproc
 1838              	.LFE53:
 1839              		.size	nRF24_received_power_detector, .-nRF24_received_power_detector
 1840              		.section	.text.nRF24_is_tx_fifo_full,"ax",%progbits
 1841              		.align	2
 1842              		.global	nRF24_is_tx_fifo_full
 1843              		.code	16
 1844              		.thumb_func
 1845              		.type	nRF24_is_tx_fifo_full, %function
 1846              	nRF24_is_tx_fifo_full:
 1847              	.LFB54:
 786:Generated_Source\PSoC4/nRF24_FUNCS.c **** 
 787:Generated_Source\PSoC4/nRF24_FUNCS.c **** /**
 788:Generated_Source\PSoC4/nRF24_FUNCS.c ****  * @return bool: true if the TX FIFO is full, false if it have available
 789:Generated_Source\PSoC4/nRF24_FUNCS.c ****  * locations.
 790:Generated_Source\PSoC4/nRF24_FUNCS.c ****  */
 791:Generated_Source\PSoC4/nRF24_FUNCS.c **** bool nRF24_is_tx_fifo_full(void)
 792:Generated_Source\PSoC4/nRF24_FUNCS.c **** {
 1848              		.loc 1 792 0
 1849              		.cfi_startproc
 1850              		@ args = 0, pretend = 0, frame = 0
 1851              		@ frame_needed = 0, uses_anonymous_args = 0
 1852 0000 10B5     		push	{r4, lr}
 1853              		.cfi_def_cfa_offset 8
 1854              		.cfi_offset 4, -8
 1855              		.cfi_offset 14, -4
 793:Generated_Source\PSoC4/nRF24_FUNCS.c ****     return nRF24_read_bit(NRF_REG_FIFO_STATUS, NRF_FIFO_STATUS_BIT_TX_FULL);
 1856              		.loc 1 793 0
 1857 0002 0521     		movs	r1, #5
 1858 0004 1720     		movs	r0, #23
 1859 0006 FFF7FEFF 		bl	nRF24_read_bit
 1860              	.LVL128:
 794:Generated_Source\PSoC4/nRF24_FUNCS.c **** }
 1861              		.loc 1 794 0
 1862              		@ sp needed
 1863 000a 10BD     		pop	{r4, pc}
 1864              		.cfi_endproc
 1865              	.LFE54:
ARM GAS  C:\Users\d3bug\AppData\Local\Temp\ccQAmDn0.s 			page 48


 1866              		.size	nRF24_is_tx_fifo_full, .-nRF24_is_tx_fifo_full
 1867              		.section	.text.nRF24_is_rx_fifo_empty,"ax",%progbits
 1868              		.align	2
 1869              		.global	nRF24_is_rx_fifo_empty
 1870              		.code	16
 1871              		.thumb_func
 1872              		.type	nRF24_is_rx_fifo_empty, %function
 1873              	nRF24_is_rx_fifo_empty:
 1874              	.LFB55:
 795:Generated_Source\PSoC4/nRF24_FUNCS.c **** 
 796:Generated_Source\PSoC4/nRF24_FUNCS.c **** /**
 797:Generated_Source\PSoC4/nRF24_FUNCS.c ****  * @return bool: true if the RX FIFO es empty, false if any pipe have data.
 798:Generated_Source\PSoC4/nRF24_FUNCS.c ****  */
 799:Generated_Source\PSoC4/nRF24_FUNCS.c **** bool nRF24_is_rx_fifo_empty(void)
 800:Generated_Source\PSoC4/nRF24_FUNCS.c **** {
 1875              		.loc 1 800 0
 1876              		.cfi_startproc
 1877              		@ args = 0, pretend = 0, frame = 0
 1878              		@ frame_needed = 0, uses_anonymous_args = 0
 1879 0000 10B5     		push	{r4, lr}
 1880              		.cfi_def_cfa_offset 8
 1881              		.cfi_offset 4, -8
 1882              		.cfi_offset 14, -4
 801:Generated_Source\PSoC4/nRF24_FUNCS.c ****     return nRF24_read_bit(NRF_REG_FIFO_STATUS, NRF_FIFO_STATUS_BIT_RX_EMPTY);
 1883              		.loc 1 801 0
 1884 0002 0021     		movs	r1, #0
 1885 0004 1720     		movs	r0, #23
 1886 0006 FFF7FEFF 		bl	nRF24_read_bit
 1887              	.LVL129:
 802:Generated_Source\PSoC4/nRF24_FUNCS.c **** }
 1888              		.loc 1 802 0
 1889              		@ sp needed
 1890 000a 10BD     		pop	{r4, pc}
 1891              		.cfi_endproc
 1892              	.LFE55:
 1893              		.size	nRF24_is_rx_fifo_empty, .-nRF24_is_rx_fifo_empty
 1894              		.section	.text.nRF24_test_carrier,"ax",%progbits
 1895              		.align	2
 1896              		.global	nRF24_test_carrier
 1897              		.code	16
 1898              		.thumb_func
 1899              		.type	nRF24_test_carrier, %function
 1900              	nRF24_test_carrier:
 1901              	.LFB56:
 803:Generated_Source\PSoC4/nRF24_FUNCS.c **** 
 804:Generated_Source\PSoC4/nRF24_FUNCS.c **** /**
 805:Generated_Source\PSoC4/nRF24_FUNCS.c ****  * Received Power Detector triggers at received power levels above -64dBm that
 806:Generated_Source\PSoC4/nRF24_FUNCS.c ****  * are present in the RF channel you receive on. If the received power is less
 807:Generated_Source\PSoC4/nRF24_FUNCS.c ****  * than -64dBm, RDP = 0.
 808:Generated_Source\PSoC4/nRF24_FUNCS.c ****  * The RPD can be read out at any time while nRF24L01+ is in receive mode.
 809:Generated_Source\PSoC4/nRF24_FUNCS.c ****  */
 810:Generated_Source\PSoC4/nRF24_FUNCS.c **** bool nRF24_test_carrier(void)
 811:Generated_Source\PSoC4/nRF24_FUNCS.c **** {
 1902              		.loc 1 811 0
 1903              		.cfi_startproc
 1904              		@ args = 0, pretend = 0, frame = 0
 1905              		@ frame_needed = 0, uses_anonymous_args = 0
ARM GAS  C:\Users\d3bug\AppData\Local\Temp\ccQAmDn0.s 			page 49


 1906 0000 10B5     		push	{r4, lr}
 1907              		.cfi_def_cfa_offset 8
 1908              		.cfi_offset 4, -8
 1909              		.cfi_offset 14, -4
 812:Generated_Source\PSoC4/nRF24_FUNCS.c ****     return nRF24_read_bit(NRF_REG_RPD, NRF_RPD_BIT_RPD);
 1910              		.loc 1 812 0
 1911 0002 0021     		movs	r1, #0
 1912 0004 0920     		movs	r0, #9
 1913 0006 FFF7FEFF 		bl	nRF24_read_bit
 1914              	.LVL130:
 813:Generated_Source\PSoC4/nRF24_FUNCS.c **** }
 1915              		.loc 1 813 0
 1916              		@ sp needed
 1917 000a 10BD     		pop	{r4, pc}
 1918              		.cfi_endproc
 1919              	.LFE56:
 1920              		.size	nRF24_test_carrier, .-nRF24_test_carrier
 1921              		.section	.text.nRF24_clear_all_irqs,"ax",%progbits
 1922              		.align	2
 1923              		.global	nRF24_clear_all_irqs
 1924              		.code	16
 1925              		.thumb_func
 1926              		.type	nRF24_clear_all_irqs, %function
 1927              	nRF24_clear_all_irqs:
 1928              	.LFB57:
 814:Generated_Source\PSoC4/nRF24_FUNCS.c **** 
 815:Generated_Source\PSoC4/nRF24_FUNCS.c **** /**
 816:Generated_Source\PSoC4/nRF24_FUNCS.c ****  * This function will write 1 to all the three IRQ "flag" bits on the
 817:Generated_Source\PSoC4/nRF24_FUNCS.c ****  * STATUS register.
 818:Generated_Source\PSoC4/nRF24_FUNCS.c ****  */
 819:Generated_Source\PSoC4/nRF24_FUNCS.c **** void nRF24_clear_all_irqs(void)
 820:Generated_Source\PSoC4/nRF24_FUNCS.c **** {
 1929              		.loc 1 820 0
 1930              		.cfi_startproc
 1931              		@ args = 0, pretend = 0, frame = 8
 1932              		@ frame_needed = 0, uses_anonymous_args = 0
 1933 0000 00B5     		push	{lr}
 1934              		.cfi_def_cfa_offset 4
 1935              		.cfi_offset 14, -4
 1936 0002 83B0     		sub	sp, sp, #12
 1937              		.cfi_def_cfa_offset 16
 821:Generated_Source\PSoC4/nRF24_FUNCS.c ****     uint8_t mask = NRF_ALL_IRQ_MASK;
 1938              		.loc 1 821 0
 1939 0004 6B46     		mov	r3, sp
 1940 0006 D91D     		adds	r1, r3, #7
 1941 0008 7023     		movs	r3, #112
 1942 000a 0B70     		strb	r3, [r1]
 822:Generated_Source\PSoC4/nRF24_FUNCS.c ****     nRF24_write_reg(NRF_REG_STATUS, &mask, 1);
 1943              		.loc 1 822 0
 1944 000c 0122     		movs	r2, #1
 1945 000e 0720     		movs	r0, #7
 1946 0010 FFF7FEFF 		bl	nRF24_write_reg
 1947              	.LVL131:
 823:Generated_Source\PSoC4/nRF24_FUNCS.c **** }
 1948              		.loc 1 823 0
 1949 0014 03B0     		add	sp, sp, #12
 1950              		@ sp needed
ARM GAS  C:\Users\d3bug\AppData\Local\Temp\ccQAmDn0.s 			page 50


 1951 0016 00BD     		pop	{pc}
 1952              		.cfi_endproc
 1953              	.LFE57:
 1954              		.size	nRF24_clear_all_irqs, .-nRF24_clear_all_irqs
 1955              		.section	.text.nRF24_start,"ax",%progbits
 1956              		.align	2
 1957              		.global	nRF24_start
 1958              		.code	16
 1959              		.thumb_func
 1960              		.type	nRF24_start, %function
 1961              	nRF24_start:
 1962              	.LFB2:
  38:Generated_Source\PSoC4/nRF24_FUNCS.c ****     // Recommended delay before start using the nRF24
 1963              		.loc 1 38 0
 1964              		.cfi_startproc
 1965              		@ args = 0, pretend = 0, frame = 0
 1966              		@ frame_needed = 0, uses_anonymous_args = 0
 1967 0000 10B5     		push	{r4, lr}
 1968              		.cfi_def_cfa_offset 8
 1969              		.cfi_offset 4, -8
 1970              		.cfi_offset 14, -4
  40:Generated_Source\PSoC4/nRF24_FUNCS.c **** 
 1971              		.loc 1 40 0
 1972 0002 6420     		movs	r0, #100
 1973 0004 FFF7FEFF 		bl	CyDelay
 1974              	.LVL132:
  49:Generated_Source\PSoC4/nRF24_FUNCS.c **** #endif
 1975              		.loc 1 49 0
 1976 0008 FFF7FEFF 		bl	SPI_Start
 1977              	.LVL133:
  51:Generated_Source\PSoC4/nRF24_FUNCS.c ****     nRF24_ce_write(GPIO_CLEAR);
 1978              		.loc 1 51 0
 1979 000c 0120     		movs	r0, #1
 1980 000e FFF7FEFF 		bl	nRF24_ss_write
 1981              	.LVL134:
  52:Generated_Source\PSoC4/nRF24_FUNCS.c **** 
 1982              		.loc 1 52 0
 1983 0012 0020     		movs	r0, #0
 1984 0014 FFF7FEFF 		bl	nRF24_ce_write
 1985              	.LVL135:
  55:Generated_Source\PSoC4/nRF24_FUNCS.c ****     nRF24_cmd_flush_tx();
 1986              		.loc 1 55 0
 1987 0018 FFF7FEFF 		bl	nRF24_cmd_flush_rx
 1988              	.LVL136:
  56:Generated_Source\PSoC4/nRF24_FUNCS.c ****     // Clear IRQ flags
 1989              		.loc 1 56 0
 1990 001c FFF7FEFF 		bl	nRF24_cmd_flush_tx
 1991              	.LVL137:
  58:Generated_Source\PSoC4/nRF24_FUNCS.c **** 
 1992              		.loc 1 58 0
 1993 0020 FFF7FEFF 		bl	nRF24_clear_all_irqs
 1994              	.LVL138:
  61:Generated_Source\PSoC4/nRF24_FUNCS.c **** 
 1995              		.loc 1 61 0
 1996 0024 FFF7FEFF 		bl	nRF24_init
 1997              	.LVL139:
  64:Generated_Source\PSoC4/nRF24_FUNCS.c **** }
ARM GAS  C:\Users\d3bug\AppData\Local\Temp\ccQAmDn0.s 			page 51


 1998              		.loc 1 64 0
 1999 0028 9620     		movs	r0, #150
 2000 002a FFF7FEFF 		bl	CyDelayUs
 2001              	.LVL140:
  65:Generated_Source\PSoC4/nRF24_FUNCS.c **** 
 2002              		.loc 1 65 0
 2003              		@ sp needed
 2004 002e 10BD     		pop	{r4, pc}
 2005              		.cfi_endproc
 2006              	.LFE2:
 2007              		.size	nRF24_start, .-nRF24_start
 2008              		.section	.text.nRF24_clear_irq_flag,"ax",%progbits
 2009              		.align	2
 2010              		.global	nRF24_clear_irq_flag
 2011              		.code	16
 2012              		.thumb_func
 2013              		.type	nRF24_clear_irq_flag, %function
 2014              	nRF24_clear_irq_flag:
 2015              	.LFB58:
 824:Generated_Source\PSoC4/nRF24_FUNCS.c **** 
 825:Generated_Source\PSoC4/nRF24_FUNCS.c **** /**
 826:Generated_Source\PSoC4/nRF24_FUNCS.c ****  * @brief Clears the specific IRQ flag.
 827:Generated_Source\PSoC4/nRF24_FUNCS.c ****  *
 828:Generated_Source\PSoC4/nRF24_FUNCS.c ****  * Clear the flag by writing 1 to the interrupt flag bit.
 829:Generated_Source\PSoC4/nRF24_FUNCS.c ****  *
 830:Generated_Source\PSoC4/nRF24_FUNCS.c ****  * @param nrf_irq irq_flag: Interrupt flag to clear.
 831:Generated_Source\PSoC4/nRF24_FUNCS.c ****  */
 832:Generated_Source\PSoC4/nRF24_FUNCS.c **** void nRF24_clear_irq_flag(const nrf_irq irq_flag)
 833:Generated_Source\PSoC4/nRF24_FUNCS.c **** {
 2016              		.loc 1 833 0
 2017              		.cfi_startproc
 2018              		@ args = 0, pretend = 0, frame = 8
 2019              		@ frame_needed = 0, uses_anonymous_args = 0
 2020              	.LVL141:
 2021 0000 00B5     		push	{lr}
 2022              		.cfi_def_cfa_offset 4
 2023              		.cfi_offset 14, -4
 2024 0002 83B0     		sub	sp, sp, #12
 2025              		.cfi_def_cfa_offset 16
 834:Generated_Source\PSoC4/nRF24_FUNCS.c ****     uint8_t mask = 1 << irq_flag;
 2026              		.loc 1 834 0
 2027 0004 0123     		movs	r3, #1
 2028 0006 8340     		lsls	r3, r3, r0
 2029 0008 6A46     		mov	r2, sp
 2030 000a D11D     		adds	r1, r2, #7
 2031 000c 0B70     		strb	r3, [r1]
 835:Generated_Source\PSoC4/nRF24_FUNCS.c ****     nRF24_write_reg(NRF_REG_STATUS, &mask, 1);
 2032              		.loc 1 835 0
 2033 000e 0122     		movs	r2, #1
 2034 0010 0720     		movs	r0, #7
 2035              	.LVL142:
 2036 0012 FFF7FEFF 		bl	nRF24_write_reg
 2037              	.LVL143:
 836:Generated_Source\PSoC4/nRF24_FUNCS.c **** }
 2038              		.loc 1 836 0
 2039 0016 03B0     		add	sp, sp, #12
 2040              		@ sp needed
ARM GAS  C:\Users\d3bug\AppData\Local\Temp\ccQAmDn0.s 			page 52


 2041 0018 00BD     		pop	{pc}
 2042              		.cfi_endproc
 2043              	.LFE58:
 2044              		.size	nRF24_clear_irq_flag, .-nRF24_clear_irq_flag
 2045 001a C046     		.section	.text.nRF24_get_irq_flag,"ax",%progbits
 2046              		.align	2
 2047              		.global	nRF24_get_irq_flag
 2048              		.code	16
 2049              		.thumb_func
 2050              		.type	nRF24_get_irq_flag, %function
 2051              	nRF24_get_irq_flag:
 2052              	.LFB59:
 837:Generated_Source\PSoC4/nRF24_FUNCS.c **** 
 838:Generated_Source\PSoC4/nRF24_FUNCS.c **** /**
 839:Generated_Source\PSoC4/nRF24_FUNCS.c ****  * This method is used to get if any of the IRQ "flag" bits on the STATUS
 840:Generated_Source\PSoC4/nRF24_FUNCS.c ****  * register is set to 1. This function returns 0 is none of the flag bits
 841:Generated_Source\PSoC4/nRF24_FUNCS.c ****  * is not set to 1.
 842:Generated_Source\PSoC4/nRF24_FUNCS.c ****  *
 843:Generated_Source\PSoC4/nRF24_FUNCS.c ****  * @return nrf_irq: Asserted bit of the interrupt flags.
 844:Generated_Source\PSoC4/nRF24_FUNCS.c ****  */
 845:Generated_Source\PSoC4/nRF24_FUNCS.c **** nrf_irq nRF24_get_irq_flag(void)
 846:Generated_Source\PSoC4/nRF24_FUNCS.c **** {
 2053              		.loc 1 846 0
 2054              		.cfi_startproc
 2055              		@ args = 0, pretend = 0, frame = 0
 2056              		@ frame_needed = 0, uses_anonymous_args = 0
 2057 0000 10B5     		push	{r4, lr}
 2058              		.cfi_def_cfa_offset 8
 2059              		.cfi_offset 4, -8
 2060              		.cfi_offset 14, -4
 2061              	.LVL144:
 847:Generated_Source\PSoC4/nRF24_FUNCS.c ****     nrf_irq irq = NRF_NONE_IRQ;
 848:Generated_Source\PSoC4/nRF24_FUNCS.c **** 
 849:Generated_Source\PSoC4/nRF24_FUNCS.c ****     // Get the STATUS register
 850:Generated_Source\PSoC4/nRF24_FUNCS.c ****     uint8_t sts = nRF24_cmd_nop();
 2062              		.loc 1 850 0
 2063 0002 FFF7FEFF 		bl	nRF24_cmd_nop
 2064              	.LVL145:
 851:Generated_Source\PSoC4/nRF24_FUNCS.c **** 
 852:Generated_Source\PSoC4/nRF24_FUNCS.c ****     // We only care if bits 4, 5 or 6 are set, so we mask the STATUS with 0x0111_0000
 853:Generated_Source\PSoC4/nRF24_FUNCS.c ****     switch (sts & NRF_ALL_IRQ_MASK) {
 2065              		.loc 1 853 0
 2066 0006 7023     		movs	r3, #112
 2067 0008 1840     		ands	r0, r3
 2068              	.LVL146:
 2069 000a 2028     		cmp	r0, #32
 2070 000c 0AD0     		beq	.L109
 2071 000e 4028     		cmp	r0, #64
 2072 0010 02D0     		beq	.L107
 2073 0012 1028     		cmp	r0, #16
 2074 0014 04D1     		bne	.L110
 2075 0016 01E0     		b	.L108
 2076              	.L107:
 854:Generated_Source\PSoC4/nRF24_FUNCS.c ****     case NRF_STATUS_RX_DR_MASK:
 855:Generated_Source\PSoC4/nRF24_FUNCS.c ****         irq = NRF_RX_DR_IRQ;
 2077              		.loc 1 855 0
 2078 0018 0620     		movs	r0, #6
ARM GAS  C:\Users\d3bug\AppData\Local\Temp\ccQAmDn0.s 			page 53


 2079 001a 04E0     		b	.L106
 2080              	.L108:
 2081              	.LVL147:
 856:Generated_Source\PSoC4/nRF24_FUNCS.c ****         break;
 857:Generated_Source\PSoC4/nRF24_FUNCS.c ****     case NRF_STATUS_TX_DS_MASK:
 858:Generated_Source\PSoC4/nRF24_FUNCS.c ****         irq = NRF_TX_DS_IRQ;
 859:Generated_Source\PSoC4/nRF24_FUNCS.c ****         break;
 860:Generated_Source\PSoC4/nRF24_FUNCS.c ****     case NRF_STATUS_MAX_RT_MASK:
 861:Generated_Source\PSoC4/nRF24_FUNCS.c ****         irq = NRF_MAX_RT_IRQ;
 2082              		.loc 1 861 0
 2083 001c 0420     		movs	r0, #4
 862:Generated_Source\PSoC4/nRF24_FUNCS.c ****         break;
 2084              		.loc 1 862 0
 2085 001e 02E0     		b	.L106
 2086              	.LVL148:
 2087              	.L110:
 863:Generated_Source\PSoC4/nRF24_FUNCS.c ****     default:
 864:Generated_Source\PSoC4/nRF24_FUNCS.c ****         irq = NRF_ALL_IRQ_MASK;
 2088              		.loc 1 864 0
 2089 0020 7020     		movs	r0, #112
 865:Generated_Source\PSoC4/nRF24_FUNCS.c ****         break;
 2090              		.loc 1 865 0
 2091 0022 00E0     		b	.L106
 2092              	.LVL149:
 2093              	.L109:
 858:Generated_Source\PSoC4/nRF24_FUNCS.c ****         break;
 2094              		.loc 1 858 0
 2095 0024 0520     		movs	r0, #5
 2096              	.LVL150:
 2097              	.L106:
 866:Generated_Source\PSoC4/nRF24_FUNCS.c ****     }
 867:Generated_Source\PSoC4/nRF24_FUNCS.c **** 
 868:Generated_Source\PSoC4/nRF24_FUNCS.c ****     return irq;
 869:Generated_Source\PSoC4/nRF24_FUNCS.c **** }
 2098              		.loc 1 869 0
 2099              		@ sp needed
 2100 0026 10BD     		pop	{r4, pc}
 2101              		.cfi_endproc
 2102              	.LFE59:
 2103              		.size	nRF24_get_irq_flag, .-nRF24_get_irq_flag
 2104              		.section	.text.nRF24_poll_interrupt,"ax",%progbits
 2105              		.align	2
 2106              		.global	nRF24_poll_interrupt
 2107              		.code	16
 2108              		.thumb_func
 2109              		.type	nRF24_poll_interrupt, %function
 2110              	nRF24_poll_interrupt:
 2111              	.LFB60:
 870:Generated_Source\PSoC4/nRF24_FUNCS.c **** 
 871:Generated_Source\PSoC4/nRF24_FUNCS.c **** void nRF24_poll_interrupt(void)
 872:Generated_Source\PSoC4/nRF24_FUNCS.c **** {
 2112              		.loc 1 872 0
 2113              		.cfi_startproc
 2114              		@ args = 0, pretend = 0, frame = 0
 2115              		@ frame_needed = 0, uses_anonymous_args = 0
 2116              		@ link register save eliminated.
 873:Generated_Source\PSoC4/nRF24_FUNCS.c ****     // TODO
ARM GAS  C:\Users\d3bug\AppData\Local\Temp\ccQAmDn0.s 			page 54


 874:Generated_Source\PSoC4/nRF24_FUNCS.c **** }
 2117              		.loc 1 874 0
 2118              		@ sp needed
 2119 0000 7047     		bx	lr
 2120              		.cfi_endproc
 2121              	.LFE60:
 2122              		.size	nRF24_poll_interrupt, .-nRF24_poll_interrupt
 2123 0002 C046     		.section	.text.nRF24_get_status_clear_irq,"ax",%progbits
 2124              		.align	2
 2125              		.global	nRF24_get_status_clear_irq
 2126              		.code	16
 2127              		.thumb_func
 2128              		.type	nRF24_get_status_clear_irq, %function
 2129              	nRF24_get_status_clear_irq:
 2130              	.LFB61:
 875:Generated_Source\PSoC4/nRF24_FUNCS.c **** 
 876:Generated_Source\PSoC4/nRF24_FUNCS.c **** uint8_t nRF24_get_status_clear_irq(void)
 877:Generated_Source\PSoC4/nRF24_FUNCS.c **** {
 2131              		.loc 1 877 0
 2132              		.cfi_startproc
 2133              		@ args = 0, pretend = 0, frame = 8
 2134              		@ frame_needed = 0, uses_anonymous_args = 0
 2135 0000 00B5     		push	{lr}
 2136              		.cfi_def_cfa_offset 4
 2137              		.cfi_offset 14, -4
 2138 0002 83B0     		sub	sp, sp, #12
 2139              		.cfi_def_cfa_offset 16
 878:Generated_Source\PSoC4/nRF24_FUNCS.c ****     uint8_t mask = NRF_ALL_IRQ_MASK;
 2140              		.loc 1 878 0
 2141 0004 6B46     		mov	r3, sp
 2142 0006 D91D     		adds	r1, r3, #7
 2143 0008 7023     		movs	r3, #112
 2144 000a 0B70     		strb	r3, [r1]
 879:Generated_Source\PSoC4/nRF24_FUNCS.c ****     return nRF24_write_reg(NRF_REG_STATUS, &mask, 1);
 2145              		.loc 1 879 0
 2146 000c 0122     		movs	r2, #1
 2147 000e 0720     		movs	r0, #7
 2148 0010 FFF7FEFF 		bl	nRF24_write_reg
 2149              	.LVL151:
 880:Generated_Source\PSoC4/nRF24_FUNCS.c **** }
 2150              		.loc 1 880 0
 2151 0014 03B0     		add	sp, sp, #12
 2152              		@ sp needed
 2153 0016 00BD     		pop	{pc}
 2154              		.cfi_endproc
 2155              	.LFE61:
 2156              		.size	nRF24_get_status_clear_irq, .-nRF24_get_status_clear_irq
 2157              		.section	.text.nRF24_flush_rx,"ax",%progbits
 2158              		.align	2
 2159              		.global	nRF24_flush_rx
 2160              		.code	16
 2161              		.thumb_func
 2162              		.type	nRF24_flush_rx, %function
 2163              	nRF24_flush_rx:
 2164              	.LFB62:
 881:Generated_Source\PSoC4/nRF24_FUNCS.c **** 
 882:Generated_Source\PSoC4/nRF24_FUNCS.c **** // command wrappers
ARM GAS  C:\Users\d3bug\AppData\Local\Temp\ccQAmDn0.s 			page 55


 883:Generated_Source\PSoC4/nRF24_FUNCS.c **** void nRF24_flush_rx(void)
 884:Generated_Source\PSoC4/nRF24_FUNCS.c **** {
 2165              		.loc 1 884 0
 2166              		.cfi_startproc
 2167              		@ args = 0, pretend = 0, frame = 0
 2168              		@ frame_needed = 0, uses_anonymous_args = 0
 2169 0000 10B5     		push	{r4, lr}
 2170              		.cfi_def_cfa_offset 8
 2171              		.cfi_offset 4, -8
 2172              		.cfi_offset 14, -4
 885:Generated_Source\PSoC4/nRF24_FUNCS.c ****     nRF24_cmd_flush_rx();
 2173              		.loc 1 885 0
 2174 0002 FFF7FEFF 		bl	nRF24_cmd_flush_rx
 2175              	.LVL152:
 886:Generated_Source\PSoC4/nRF24_FUNCS.c **** }
 2176              		.loc 1 886 0
 2177              		@ sp needed
 2178 0006 10BD     		pop	{r4, pc}
 2179              		.cfi_endproc
 2180              	.LFE62:
 2181              		.size	nRF24_flush_rx, .-nRF24_flush_rx
 2182              		.section	.text.nRF24_flush_tx,"ax",%progbits
 2183              		.align	2
 2184              		.global	nRF24_flush_tx
 2185              		.code	16
 2186              		.thumb_func
 2187              		.type	nRF24_flush_tx, %function
 2188              	nRF24_flush_tx:
 2189              	.LFB63:
 887:Generated_Source\PSoC4/nRF24_FUNCS.c **** 
 888:Generated_Source\PSoC4/nRF24_FUNCS.c **** void nRF24_flush_tx(void)
 889:Generated_Source\PSoC4/nRF24_FUNCS.c **** {
 2190              		.loc 1 889 0
 2191              		.cfi_startproc
 2192              		@ args = 0, pretend = 0, frame = 0
 2193              		@ frame_needed = 0, uses_anonymous_args = 0
 2194 0000 10B5     		push	{r4, lr}
 2195              		.cfi_def_cfa_offset 8
 2196              		.cfi_offset 4, -8
 2197              		.cfi_offset 14, -4
 890:Generated_Source\PSoC4/nRF24_FUNCS.c ****     nRF24_cmd_flush_tx();
 2198              		.loc 1 890 0
 2199 0002 FFF7FEFF 		bl	nRF24_cmd_flush_tx
 2200              	.LVL153:
 891:Generated_Source\PSoC4/nRF24_FUNCS.c **** }
 2201              		.loc 1 891 0
 2202              		@ sp needed
 2203 0006 10BD     		pop	{r4, pc}
 2204              		.cfi_endproc
 2205              	.LFE63:
 2206              		.size	nRF24_flush_tx, .-nRF24_flush_tx
 2207              		.data
 2208              		.set	.LANCHOR0,. + 0
 2209              		.type	_nrf_addr_width, %object
 2210              		.size	_nrf_addr_width, 1
 2211              	_nrf_addr_width:
 2212 0000 05       		.byte	5
ARM GAS  C:\Users\d3bug\AppData\Local\Temp\ccQAmDn0.s 			page 56


 2213              		.text
 2214              	.Letext0:
 2215              		.file 2 "c:\\program files (x86)\\cypress\\psoc creator\\4.2\\psoc creator\\import\\gnu\\arm\\5.4.
 2216              		.file 3 "c:\\program files (x86)\\cypress\\psoc creator\\4.2\\psoc creator\\import\\gnu\\arm\\5.4.
 2217              		.file 4 "c:\\program files (x86)\\cypress\\psoc creator\\4.2\\psoc creator\\import\\gnu\\arm\\5.4.
 2218              		.file 5 "Generated_Source\\PSoC4\\nRF24_DEFS.h"
 2219              		.file 6 "Generated_Source\\PSoC4\\nRF24_HAL.h"
 2220              		.file 7 "Generated_Source\\PSoC4/CyLib.h"
 2221              		.file 8 "Generated_Source\\PSoC4\\nRF24_COMMANDS.h"
 2222              		.file 9 "Generated_Source\\PSoC4\\SPI.h"
 2223              		.section	.debug_info,"",%progbits
 2224              	.Ldebug_info0:
 2225 0000 C1150000 		.4byte	0x15c1
 2226 0004 0400     		.2byte	0x4
 2227 0006 00000000 		.4byte	.Ldebug_abbrev0
 2228 000a 04       		.byte	0x4
 2229 000b 01       		.uleb128 0x1
 2230 000c B4030000 		.4byte	.LASF246
 2231 0010 0C       		.byte	0xc
 2232 0011 330E0000 		.4byte	.LASF247
 2233 0015 20050000 		.4byte	.LASF248
 2234 0019 00000000 		.4byte	.Ldebug_ranges0+0
 2235 001d 00000000 		.4byte	0
 2236 0021 00000000 		.4byte	.Ldebug_line0
 2237 0025 02       		.uleb128 0x2
 2238 0026 01       		.byte	0x1
 2239 0027 06       		.byte	0x6
 2240 0028 9C110000 		.4byte	.LASF0
 2241 002c 03       		.uleb128 0x3
 2242 002d 820E0000 		.4byte	.LASF9
 2243 0031 02       		.byte	0x2
 2244 0032 1D       		.byte	0x1d
 2245 0033 37000000 		.4byte	0x37
 2246 0037 02       		.uleb128 0x2
 2247 0038 01       		.byte	0x1
 2248 0039 08       		.byte	0x8
 2249 003a D20F0000 		.4byte	.LASF1
 2250 003e 02       		.uleb128 0x2
 2251 003f 02       		.byte	0x2
 2252 0040 05       		.byte	0x5
 2253 0041 AC0C0000 		.4byte	.LASF2
 2254 0045 02       		.uleb128 0x2
 2255 0046 02       		.byte	0x2
 2256 0047 07       		.byte	0x7
 2257 0048 A8110000 		.4byte	.LASF3
 2258 004c 02       		.uleb128 0x2
 2259 004d 04       		.byte	0x4
 2260 004e 05       		.byte	0x5
 2261 004f 3F0D0000 		.4byte	.LASF4
 2262 0053 02       		.uleb128 0x2
 2263 0054 04       		.byte	0x4
 2264 0055 07       		.byte	0x7
 2265 0056 5C0F0000 		.4byte	.LASF5
 2266 005a 02       		.uleb128 0x2
 2267 005b 08       		.byte	0x8
 2268 005c 05       		.byte	0x5
 2269 005d 49090000 		.4byte	.LASF6
ARM GAS  C:\Users\d3bug\AppData\Local\Temp\ccQAmDn0.s 			page 57


 2270 0061 02       		.uleb128 0x2
 2271 0062 08       		.byte	0x8
 2272 0063 07       		.byte	0x7
 2273 0064 ED040000 		.4byte	.LASF7
 2274 0068 04       		.uleb128 0x4
 2275 0069 04       		.byte	0x4
 2276 006a 05       		.byte	0x5
 2277 006b 696E7400 		.ascii	"int\000"
 2278 006f 02       		.uleb128 0x2
 2279 0070 04       		.byte	0x4
 2280 0071 07       		.byte	0x7
 2281 0072 AD010000 		.4byte	.LASF8
 2282 0076 03       		.uleb128 0x3
 2283 0077 B3080000 		.4byte	.LASF10
 2284 007b 03       		.byte	0x3
 2285 007c 18       		.byte	0x18
 2286 007d 2C000000 		.4byte	0x2c
 2287 0081 02       		.uleb128 0x2
 2288 0082 04       		.byte	0x4
 2289 0083 04       		.byte	0x4
 2290 0084 A1030000 		.4byte	.LASF11
 2291 0088 02       		.uleb128 0x2
 2292 0089 08       		.byte	0x8
 2293 008a 04       		.byte	0x4
 2294 008b 72120000 		.4byte	.LASF12
 2295 008f 02       		.uleb128 0x2
 2296 0090 01       		.byte	0x1
 2297 0091 08       		.byte	0x8
 2298 0092 3B080000 		.4byte	.LASF13
 2299 0096 03       		.uleb128 0x3
 2300 0097 AD060000 		.4byte	.LASF14
 2301 009b 04       		.byte	0x4
 2302 009c D8       		.byte	0xd8
 2303 009d 6F000000 		.4byte	0x6f
 2304 00a1 02       		.uleb128 0x2
 2305 00a2 08       		.byte	0x8
 2306 00a3 04       		.byte	0x4
 2307 00a4 AD0B0000 		.4byte	.LASF15
 2308 00a8 02       		.uleb128 0x2
 2309 00a9 04       		.byte	0x4
 2310 00aa 07       		.byte	0x7
 2311 00ab 230F0000 		.4byte	.LASF16
 2312 00af 05       		.uleb128 0x5
 2313 00b0 01       		.byte	0x1
 2314 00b1 37000000 		.4byte	0x37
 2315 00b5 05       		.byte	0x5
 2316 00b6 10       		.byte	0x10
 2317 00b7 58010000 		.4byte	0x158
 2318 00bb 06       		.uleb128 0x6
 2319 00bc 90050000 		.4byte	.LASF17
 2320 00c0 00       		.byte	0
 2321 00c1 06       		.uleb128 0x6
 2322 00c2 44100000 		.4byte	.LASF18
 2323 00c6 01       		.byte	0x1
 2324 00c7 06       		.uleb128 0x6
 2325 00c8 35110000 		.4byte	.LASF19
 2326 00cc 02       		.byte	0x2
ARM GAS  C:\Users\d3bug\AppData\Local\Temp\ccQAmDn0.s 			page 58


 2327 00cd 06       		.uleb128 0x6
 2328 00ce 0F050000 		.4byte	.LASF20
 2329 00d2 03       		.byte	0x3
 2330 00d3 06       		.uleb128 0x6
 2331 00d4 30020000 		.4byte	.LASF21
 2332 00d8 04       		.byte	0x4
 2333 00d9 06       		.uleb128 0x6
 2334 00da AB0F0000 		.4byte	.LASF22
 2335 00de 05       		.byte	0x5
 2336 00df 06       		.uleb128 0x6
 2337 00e0 93080000 		.4byte	.LASF23
 2338 00e4 06       		.byte	0x6
 2339 00e5 06       		.uleb128 0x6
 2340 00e6 2D010000 		.4byte	.LASF24
 2341 00ea 07       		.byte	0x7
 2342 00eb 06       		.uleb128 0x6
 2343 00ec E5050000 		.4byte	.LASF25
 2344 00f0 08       		.byte	0x8
 2345 00f1 06       		.uleb128 0x6
 2346 00f2 9F0F0000 		.4byte	.LASF26
 2347 00f6 09       		.byte	0x9
 2348 00f7 06       		.uleb128 0x6
 2349 00f8 2B070000 		.4byte	.LASF27
 2350 00fc 0A       		.byte	0xa
 2351 00fd 06       		.uleb128 0x6
 2352 00fe 3E070000 		.4byte	.LASF28
 2353 0102 0B       		.byte	0xb
 2354 0103 06       		.uleb128 0x6
 2355 0104 51070000 		.4byte	.LASF29
 2356 0108 0C       		.byte	0xc
 2357 0109 06       		.uleb128 0x6
 2358 010a 64070000 		.4byte	.LASF30
 2359 010e 0D       		.byte	0xd
 2360 010f 06       		.uleb128 0x6
 2361 0110 77070000 		.4byte	.LASF31
 2362 0114 0E       		.byte	0xe
 2363 0115 06       		.uleb128 0x6
 2364 0116 8A070000 		.4byte	.LASF32
 2365 011a 0F       		.byte	0xf
 2366 011b 06       		.uleb128 0x6
 2367 011c 75110000 		.4byte	.LASF33
 2368 0120 10       		.byte	0x10
 2369 0121 06       		.uleb128 0x6
 2370 0122 D8110000 		.4byte	.LASF34
 2371 0126 11       		.byte	0x11
 2372 0127 06       		.uleb128 0x6
 2373 0128 E9110000 		.4byte	.LASF35
 2374 012c 12       		.byte	0x12
 2375 012d 06       		.uleb128 0x6
 2376 012e FA110000 		.4byte	.LASF36
 2377 0132 13       		.byte	0x13
 2378 0133 06       		.uleb128 0x6
 2379 0134 0B120000 		.4byte	.LASF37
 2380 0138 14       		.byte	0x14
 2381 0139 06       		.uleb128 0x6
 2382 013a 1C120000 		.4byte	.LASF38
 2383 013e 15       		.byte	0x15
ARM GAS  C:\Users\d3bug\AppData\Local\Temp\ccQAmDn0.s 			page 59


 2384 013f 06       		.uleb128 0x6
 2385 0140 2D120000 		.4byte	.LASF39
 2386 0144 16       		.byte	0x16
 2387 0145 06       		.uleb128 0x6
 2388 0146 090E0000 		.4byte	.LASF40
 2389 014a 17       		.byte	0x17
 2390 014b 06       		.uleb128 0x6
 2391 014c CD0E0000 		.4byte	.LASF41
 2392 0150 1C       		.byte	0x1c
 2393 0151 06       		.uleb128 0x6
 2394 0152 480D0000 		.4byte	.LASF42
 2395 0156 1D       		.byte	0x1d
 2396 0157 00       		.byte	0
 2397 0158 05       		.uleb128 0x5
 2398 0159 01       		.byte	0x1
 2399 015a 37000000 		.4byte	0x37
 2400 015e 05       		.byte	0x5
 2401 015f 3D       		.byte	0x3d
 2402 0160 89010000 		.4byte	0x189
 2403 0164 06       		.uleb128 0x6
 2404 0165 EF060000 		.4byte	.LASF43
 2405 0169 00       		.byte	0
 2406 016a 06       		.uleb128 0x6
 2407 016b F9060000 		.4byte	.LASF44
 2408 016f 01       		.byte	0x1
 2409 0170 06       		.uleb128 0x6
 2410 0171 03070000 		.4byte	.LASF45
 2411 0175 02       		.byte	0x2
 2412 0176 06       		.uleb128 0x6
 2413 0177 0D070000 		.4byte	.LASF46
 2414 017b 03       		.byte	0x3
 2415 017c 06       		.uleb128 0x6
 2416 017d 17070000 		.4byte	.LASF47
 2417 0181 04       		.byte	0x4
 2418 0182 06       		.uleb128 0x6
 2419 0183 21070000 		.4byte	.LASF48
 2420 0187 05       		.byte	0x5
 2421 0188 00       		.byte	0
 2422 0189 03       		.uleb128 0x3
 2423 018a FD050000 		.4byte	.LASF49
 2424 018e 05       		.byte	0x5
 2425 018f 44       		.byte	0x44
 2426 0190 58010000 		.4byte	0x158
 2427 0194 05       		.uleb128 0x5
 2428 0195 01       		.byte	0x1
 2429 0196 37000000 		.4byte	0x37
 2430 019a 05       		.byte	0x5
 2431 019b 47       		.byte	0x47
 2432 019c C5010000 		.4byte	0x1c5
 2433 01a0 06       		.uleb128 0x6
 2434 01a1 5B000000 		.4byte	.LASF50
 2435 01a5 0A       		.byte	0xa
 2436 01a6 06       		.uleb128 0x6
 2437 01a7 6A000000 		.4byte	.LASF51
 2438 01ab 0B       		.byte	0xb
 2439 01ac 06       		.uleb128 0x6
 2440 01ad 79000000 		.4byte	.LASF52
ARM GAS  C:\Users\d3bug\AppData\Local\Temp\ccQAmDn0.s 			page 60


 2441 01b1 0C       		.byte	0xc
 2442 01b2 06       		.uleb128 0x6
 2443 01b3 88000000 		.4byte	.LASF53
 2444 01b7 0D       		.byte	0xd
 2445 01b8 06       		.uleb128 0x6
 2446 01b9 97000000 		.4byte	.LASF54
 2447 01bd 0E       		.byte	0xe
 2448 01be 06       		.uleb128 0x6
 2449 01bf A6000000 		.4byte	.LASF55
 2450 01c3 0F       		.byte	0xf
 2451 01c4 00       		.byte	0
 2452 01c5 03       		.uleb128 0x3
 2453 01c6 D5020000 		.4byte	.LASF56
 2454 01ca 05       		.byte	0x5
 2455 01cb 4E       		.byte	0x4e
 2456 01cc 94010000 		.4byte	0x194
 2457 01d0 05       		.uleb128 0x5
 2458 01d1 01       		.byte	0x1
 2459 01d2 37000000 		.4byte	0x37
 2460 01d6 05       		.byte	0x5
 2461 01d7 50       		.byte	0x50
 2462 01d8 01020000 		.4byte	0x201
 2463 01dc 06       		.uleb128 0x6
 2464 01dd 6E090000 		.4byte	.LASF57
 2465 01e1 11       		.byte	0x11
 2466 01e2 06       		.uleb128 0x6
 2467 01e3 81090000 		.4byte	.LASF58
 2468 01e7 12       		.byte	0x12
 2469 01e8 06       		.uleb128 0x6
 2470 01e9 94090000 		.4byte	.LASF59
 2471 01ed 13       		.byte	0x13
 2472 01ee 06       		.uleb128 0x6
 2473 01ef A7090000 		.4byte	.LASF60
 2474 01f3 14       		.byte	0x14
 2475 01f4 06       		.uleb128 0x6
 2476 01f5 BA090000 		.4byte	.LASF61
 2477 01f9 15       		.byte	0x15
 2478 01fa 06       		.uleb128 0x6
 2479 01fb CD090000 		.4byte	.LASF62
 2480 01ff 16       		.byte	0x16
 2481 0200 00       		.byte	0
 2482 0201 03       		.uleb128 0x3
 2483 0202 AB100000 		.4byte	.LASF63
 2484 0206 05       		.byte	0x5
 2485 0207 57       		.byte	0x57
 2486 0208 D0010000 		.4byte	0x1d0
 2487 020c 05       		.uleb128 0x5
 2488 020d 01       		.byte	0x1
 2489 020e 37000000 		.4byte	0x37
 2490 0212 05       		.byte	0x5
 2491 0213 5A       		.byte	0x5a
 2492 0214 25020000 		.4byte	0x225
 2493 0218 06       		.uleb128 0x6
 2494 0219 740A0000 		.4byte	.LASF64
 2495 021d 00       		.byte	0
 2496 021e 06       		.uleb128 0x6
 2497 021f 5E080000 		.4byte	.LASF65
ARM GAS  C:\Users\d3bug\AppData\Local\Temp\ccQAmDn0.s 			page 61


 2498 0223 01       		.byte	0x1
 2499 0224 00       		.byte	0
 2500 0225 03       		.uleb128 0x3
 2501 0226 E6020000 		.4byte	.LASF66
 2502 022a 05       		.byte	0x5
 2503 022b 5D       		.byte	0x5d
 2504 022c 0C020000 		.4byte	0x20c
 2505 0230 05       		.uleb128 0x5
 2506 0231 01       		.byte	0x1
 2507 0232 37000000 		.4byte	0x37
 2508 0236 05       		.byte	0x5
 2509 0237 5F       		.byte	0x5f
 2510 0238 55020000 		.4byte	0x255
 2511 023c 06       		.uleb128 0x6
 2512 023d D0010000 		.4byte	.LASF67
 2513 0241 00       		.byte	0
 2514 0242 06       		.uleb128 0x6
 2515 0243 E8000000 		.4byte	.LASF68
 2516 0247 04       		.byte	0x4
 2517 0248 06       		.uleb128 0x6
 2518 0249 6C0D0000 		.4byte	.LASF69
 2519 024d 05       		.byte	0x5
 2520 024e 06       		.uleb128 0x6
 2521 024f EB080000 		.4byte	.LASF70
 2522 0253 06       		.byte	0x6
 2523 0254 00       		.byte	0
 2524 0255 03       		.uleb128 0x3
 2525 0256 32060000 		.4byte	.LASF71
 2526 025a 05       		.byte	0x5
 2527 025b 64       		.byte	0x64
 2528 025c 30020000 		.4byte	0x230
 2529 0260 05       		.uleb128 0x5
 2530 0261 01       		.byte	0x1
 2531 0262 37000000 		.4byte	0x37
 2532 0266 05       		.byte	0x5
 2533 0267 67       		.byte	0x67
 2534 0268 97020000 		.4byte	0x297
 2535 026c 06       		.uleb128 0x6
 2536 026d 03130000 		.4byte	.LASF72
 2537 0271 00       		.byte	0
 2538 0272 06       		.uleb128 0x6
 2539 0273 1D0E0000 		.4byte	.LASF73
 2540 0277 01       		.byte	0x1
 2541 0278 06       		.uleb128 0x6
 2542 0279 8D040000 		.4byte	.LASF74
 2543 027d 02       		.byte	0x2
 2544 027e 06       		.uleb128 0x6
 2545 027f BB080000 		.4byte	.LASF75
 2546 0283 03       		.byte	0x3
 2547 0284 06       		.uleb128 0x6
 2548 0285 DC070000 		.4byte	.LASF76
 2549 0289 04       		.byte	0x4
 2550 028a 06       		.uleb128 0x6
 2551 028b 52100000 		.4byte	.LASF77
 2552 028f 05       		.byte	0x5
 2553 0290 06       		.uleb128 0x6
 2554 0291 310A0000 		.4byte	.LASF78
ARM GAS  C:\Users\d3bug\AppData\Local\Temp\ccQAmDn0.s 			page 62


 2555 0295 06       		.byte	0x6
 2556 0296 00       		.byte	0
 2557 0297 05       		.uleb128 0x5
 2558 0298 01       		.byte	0x1
 2559 0299 37000000 		.4byte	0x37
 2560 029d 05       		.byte	0x5
 2561 029e 71       		.byte	0x71
 2562 029f F8020000 		.4byte	0x2f8
 2563 02a3 06       		.uleb128 0x6
 2564 02a4 A00E0000 		.4byte	.LASF79
 2565 02a8 00       		.byte	0
 2566 02a9 06       		.uleb128 0x6
 2567 02aa 580D0000 		.4byte	.LASF80
 2568 02ae 01       		.byte	0x1
 2569 02af 06       		.uleb128 0x6
 2570 02b0 F60A0000 		.4byte	.LASF81
 2571 02b4 00       		.byte	0
 2572 02b5 06       		.uleb128 0x6
 2573 02b6 C6060000 		.4byte	.LASF82
 2574 02ba 02       		.byte	0x2
 2575 02bb 06       		.uleb128 0x6
 2576 02bc 48010000 		.4byte	.LASF83
 2577 02c0 00       		.byte	0
 2578 02c1 06       		.uleb128 0x6
 2579 02c2 3A060000 		.4byte	.LASF84
 2580 02c6 04       		.byte	0x4
 2581 02c7 06       		.uleb128 0x6
 2582 02c8 230B0000 		.4byte	.LASF85
 2583 02cc 00       		.byte	0
 2584 02cd 06       		.uleb128 0x6
 2585 02ce 5F110000 		.4byte	.LASF86
 2586 02d2 08       		.byte	0x8
 2587 02d3 06       		.uleb128 0x6
 2588 02d4 0A0B0000 		.4byte	.LASF87
 2589 02d8 00       		.byte	0
 2590 02d9 06       		.uleb128 0x6
 2591 02da 8D130000 		.4byte	.LASF88
 2592 02de 10       		.byte	0x10
 2593 02df 06       		.uleb128 0x6
 2594 02e0 EF020000 		.4byte	.LASF89
 2595 02e4 00       		.byte	0
 2596 02e5 06       		.uleb128 0x6
 2597 02e6 180A0000 		.4byte	.LASF90
 2598 02ea 20       		.byte	0x20
 2599 02eb 06       		.uleb128 0x6
 2600 02ec 93100000 		.4byte	.LASF91
 2601 02f0 00       		.byte	0
 2602 02f1 06       		.uleb128 0x6
 2603 02f2 67040000 		.4byte	.LASF92
 2604 02f6 40       		.byte	0x40
 2605 02f7 00       		.byte	0
 2606 02f8 05       		.uleb128 0x5
 2607 02f9 01       		.byte	0x1
 2608 02fa 37000000 		.4byte	0x37
 2609 02fe 05       		.byte	0x5
 2610 02ff 83       		.byte	0x83
 2611 0300 29030000 		.4byte	0x329
ARM GAS  C:\Users\d3bug\AppData\Local\Temp\ccQAmDn0.s 			page 63


 2612 0304 06       		.uleb128 0x6
 2613 0305 06060000 		.4byte	.LASF93
 2614 0309 00       		.byte	0
 2615 030a 06       		.uleb128 0x6
 2616 030b 1C060000 		.4byte	.LASF94
 2617 030f 01       		.byte	0x1
 2618 0310 06       		.uleb128 0x6
 2619 0311 C60C0000 		.4byte	.LASF95
 2620 0315 02       		.byte	0x2
 2621 0316 06       		.uleb128 0x6
 2622 0317 DC0C0000 		.4byte	.LASF96
 2623 031b 03       		.byte	0x3
 2624 031c 06       		.uleb128 0x6
 2625 031d 50060000 		.4byte	.LASF97
 2626 0321 04       		.byte	0x4
 2627 0322 06       		.uleb128 0x6
 2628 0323 66060000 		.4byte	.LASF98
 2629 0327 05       		.byte	0x5
 2630 0328 00       		.byte	0
 2631 0329 05       		.uleb128 0x5
 2632 032a 01       		.byte	0x1
 2633 032b 37000000 		.4byte	0x37
 2634 032f 05       		.byte	0x5
 2635 0330 9C       		.byte	0x9c
 2636 0331 5A030000 		.4byte	0x35a
 2637 0335 06       		.uleb128 0x6
 2638 0336 B90F0000 		.4byte	.LASF99
 2639 033a 00       		.byte	0
 2640 033b 06       		.uleb128 0x6
 2641 033c 790B0000 		.4byte	.LASF100
 2642 0340 01       		.byte	0x1
 2643 0341 06       		.uleb128 0x6
 2644 0342 E00F0000 		.4byte	.LASF101
 2645 0346 02       		.byte	0x2
 2646 0347 06       		.uleb128 0x6
 2647 0348 F90F0000 		.4byte	.LASF102
 2648 034c 03       		.byte	0x3
 2649 034d 06       		.uleb128 0x6
 2650 034e 12100000 		.4byte	.LASF103
 2651 0352 04       		.byte	0x4
 2652 0353 06       		.uleb128 0x6
 2653 0354 2B100000 		.4byte	.LASF104
 2654 0358 05       		.byte	0x5
 2655 0359 00       		.byte	0
 2656 035a 05       		.uleb128 0x5
 2657 035b 01       		.byte	0x1
 2658 035c 37000000 		.4byte	0x37
 2659 0360 05       		.byte	0x5
 2660 0361 B5       		.byte	0xb5
 2661 0362 79030000 		.4byte	0x379
 2662 0366 06       		.uleb128 0x6
 2663 0367 64020000 		.4byte	.LASF105
 2664 036b 01       		.byte	0x1
 2665 036c 06       		.uleb128 0x6
 2666 036d 8C0E0000 		.4byte	.LASF106
 2667 0371 02       		.byte	0x2
 2668 0372 06       		.uleb128 0x6
ARM GAS  C:\Users\d3bug\AppData\Local\Temp\ccQAmDn0.s 			page 64


 2669 0373 B3070000 		.4byte	.LASF107
 2670 0377 03       		.byte	0x3
 2671 0378 00       		.byte	0
 2672 0379 03       		.uleb128 0x3
 2673 037a 8B0C0000 		.4byte	.LASF108
 2674 037e 05       		.byte	0x5
 2675 037f B9       		.byte	0xb9
 2676 0380 5A030000 		.4byte	0x35a
 2677 0384 05       		.uleb128 0x5
 2678 0385 01       		.byte	0x1
 2679 0386 37000000 		.4byte	0x37
 2680 038a 05       		.byte	0x5
 2681 038b BC       		.byte	0xbc
 2682 038c A3030000 		.4byte	0x3a3
 2683 0390 06       		.uleb128 0x6
 2684 0391 C40A0000 		.4byte	.LASF109
 2685 0395 03       		.byte	0x3
 2686 0396 06       		.uleb128 0x6
 2687 0397 46040000 		.4byte	.LASF110
 2688 039b 04       		.byte	0x4
 2689 039c 06       		.uleb128 0x6
 2690 039d B8100000 		.4byte	.LASF111
 2691 03a1 05       		.byte	0x5
 2692 03a2 00       		.byte	0
 2693 03a3 03       		.uleb128 0x3
 2694 03a4 570A0000 		.4byte	.LASF112
 2695 03a8 05       		.byte	0x5
 2696 03a9 C0       		.byte	0xc0
 2697 03aa 84030000 		.4byte	0x384
 2698 03ae 05       		.uleb128 0x5
 2699 03af 01       		.byte	0x1
 2700 03b0 37000000 		.4byte	0x37
 2701 03b4 05       		.byte	0x5
 2702 03b5 C3       		.byte	0xc3
 2703 03b6 C7030000 		.4byte	0x3c7
 2704 03ba 06       		.uleb128 0x6
 2705 03bb D3100000 		.4byte	.LASF113
 2706 03bf 00       		.byte	0
 2707 03c0 06       		.uleb128 0x6
 2708 03c1 EA100000 		.4byte	.LASF114
 2709 03c5 04       		.byte	0x4
 2710 03c6 00       		.byte	0
 2711 03c7 05       		.uleb128 0x5
 2712 03c8 01       		.byte	0x1
 2713 03c9 37000000 		.4byte	0x37
 2714 03cd 05       		.byte	0x5
 2715 03ce F1       		.byte	0xf1
 2716 03cf F8030000 		.4byte	0x3f8
 2717 03d3 06       		.uleb128 0x6
 2718 03d4 7B030000 		.4byte	.LASF115
 2719 03d8 01       		.byte	0x1
 2720 03d9 06       		.uleb128 0x6
 2721 03da 580E0000 		.4byte	.LASF116
 2722 03de 03       		.byte	0x3
 2723 03df 06       		.uleb128 0x6
 2724 03e0 7C060000 		.4byte	.LASF117
 2725 03e4 03       		.byte	0x3
ARM GAS  C:\Users\d3bug\AppData\Local\Temp\ccQAmDn0.s 			page 65


 2726 03e5 06       		.uleb128 0x6
 2727 03e6 93020000 		.4byte	.LASF118
 2728 03ea 04       		.byte	0x4
 2729 03eb 06       		.uleb128 0x6
 2730 03ec B90B0000 		.4byte	.LASF119
 2731 03f0 05       		.byte	0x5
 2732 03f1 06       		.uleb128 0x6
 2733 03f2 AF0D0000 		.4byte	.LASF120
 2734 03f6 07       		.byte	0x7
 2735 03f7 00       		.byte	0
 2736 03f8 07       		.uleb128 0x7
 2737 03f9 01       		.byte	0x1
 2738 03fa 37000000 		.4byte	0x37
 2739 03fe 05       		.byte	0x5
 2740 03ff 1001     		.2byte	0x110
 2741 0401 18040000 		.4byte	0x418
 2742 0405 06       		.uleb128 0x6
 2743 0406 08000000 		.4byte	.LASF121
 2744 040a 10       		.byte	0x10
 2745 040b 06       		.uleb128 0x6
 2746 040c 07030000 		.4byte	.LASF122
 2747 0410 20       		.byte	0x20
 2748 0411 06       		.uleb128 0x6
 2749 0412 BA010000 		.4byte	.LASF123
 2750 0416 40       		.byte	0x40
 2751 0417 00       		.byte	0
 2752 0418 07       		.uleb128 0x7
 2753 0419 01       		.byte	0x1
 2754 041a 37000000 		.4byte	0x37
 2755 041e 05       		.byte	0x5
 2756 041f 2701     		.2byte	0x127
 2757 0421 32040000 		.4byte	0x432
 2758 0425 06       		.uleb128 0x6
 2759 0426 B8050000 		.4byte	.LASF124
 2760 042a 00       		.byte	0
 2761 042b 06       		.uleb128 0x6
 2762 042c C1040000 		.4byte	.LASF125
 2763 0430 04       		.byte	0x4
 2764 0431 00       		.byte	0
 2765 0432 07       		.uleb128 0x7
 2766 0433 01       		.byte	0x1
 2767 0434 37000000 		.4byte	0x37
 2768 0438 05       		.byte	0x5
 2769 0439 2C01     		.2byte	0x12c
 2770 043b 4C040000 		.4byte	0x44c
 2771 043f 06       		.uleb128 0x6
 2772 0440 F10B0000 		.4byte	.LASF126
 2773 0444 0F       		.byte	0xf
 2774 0445 06       		.uleb128 0x6
 2775 0446 79120000 		.4byte	.LASF127
 2776 044a F0       		.byte	0xf0
 2777 044b 00       		.byte	0
 2778 044c 07       		.uleb128 0x7
 2779 044d 01       		.byte	0x1
 2780 044e 37000000 		.4byte	0x37
 2781 0452 05       		.byte	0x5
 2782 0453 3201     		.2byte	0x132
ARM GAS  C:\Users\d3bug\AppData\Local\Temp\ccQAmDn0.s 			page 66


 2783 0455 60040000 		.4byte	0x460
 2784 0459 06       		.uleb128 0x6
 2785 045a 2E000000 		.4byte	.LASF128
 2786 045e 00       		.byte	0
 2787 045f 00       		.byte	0
 2788 0460 07       		.uleb128 0x7
 2789 0461 01       		.byte	0x1
 2790 0462 37000000 		.4byte	0x37
 2791 0466 05       		.byte	0x5
 2792 0467 3C01     		.2byte	0x13c
 2793 0469 8C040000 		.4byte	0x48c
 2794 046d 06       		.uleb128 0x6
 2795 046e DD010000 		.4byte	.LASF129
 2796 0472 00       		.byte	0
 2797 0473 06       		.uleb128 0x6
 2798 0474 CD120000 		.4byte	.LASF130
 2799 0478 01       		.byte	0x1
 2800 0479 06       		.uleb128 0x6
 2801 047a EC0D0000 		.4byte	.LASF131
 2802 047e 04       		.byte	0x4
 2803 047f 06       		.uleb128 0x6
 2804 0480 10090000 		.4byte	.LASF132
 2805 0484 05       		.byte	0x5
 2806 0485 06       		.uleb128 0x6
 2807 0486 2C090000 		.4byte	.LASF133
 2808 048a 06       		.byte	0x6
 2809 048b 00       		.byte	0
 2810 048c 07       		.uleb128 0x7
 2811 048d 01       		.byte	0x1
 2812 048e 37000000 		.4byte	0x37
 2813 0492 05       		.byte	0x5
 2814 0493 4D01     		.2byte	0x14d
 2815 0495 BE040000 		.4byte	0x4be
 2816 0499 06       		.uleb128 0x6
 2817 049a 0D0C0000 		.4byte	.LASF134
 2818 049e 00       		.byte	0
 2819 049f 06       		.uleb128 0x6
 2820 04a0 220C0000 		.4byte	.LASF135
 2821 04a4 01       		.byte	0x1
 2822 04a5 06       		.uleb128 0x6
 2823 04a6 370C0000 		.4byte	.LASF136
 2824 04aa 02       		.byte	0x2
 2825 04ab 06       		.uleb128 0x6
 2826 04ac 4C0C0000 		.4byte	.LASF137
 2827 04b0 03       		.byte	0x3
 2828 04b1 06       		.uleb128 0x6
 2829 04b2 610C0000 		.4byte	.LASF138
 2830 04b6 04       		.byte	0x4
 2831 04b7 06       		.uleb128 0x6
 2832 04b8 760C0000 		.4byte	.LASF139
 2833 04bc 05       		.byte	0x5
 2834 04bd 00       		.byte	0
 2835 04be 07       		.uleb128 0x7
 2836 04bf 01       		.byte	0x1
 2837 04c0 37000000 		.4byte	0x37
 2838 04c4 05       		.byte	0x5
 2839 04c5 6601     		.2byte	0x166
ARM GAS  C:\Users\d3bug\AppData\Local\Temp\ccQAmDn0.s 			page 67


 2840 04c7 DE040000 		.4byte	0x4de
 2841 04cb 06       		.uleb128 0x6
 2842 04cc FD090000 		.4byte	.LASF140
 2843 04d0 00       		.byte	0
 2844 04d1 06       		.uleb128 0x6
 2845 04d2 0A080000 		.4byte	.LASF141
 2846 04d6 01       		.byte	0x1
 2847 04d7 06       		.uleb128 0x6
 2848 04d8 57090000 		.4byte	.LASF142
 2849 04dc 02       		.byte	0x2
 2850 04dd 00       		.byte	0
 2851 04de 07       		.uleb128 0x7
 2852 04df 01       		.byte	0x1
 2853 04e0 37000000 		.4byte	0x37
 2854 04e4 05       		.byte	0x5
 2855 04e5 8101     		.2byte	0x181
 2856 04e7 16050000 		.4byte	0x516
 2857 04eb 06       		.uleb128 0x6
 2858 04ec F9080000 		.4byte	.LASF143
 2859 04f0 01       		.byte	0x1
 2860 04f1 06       		.uleb128 0x6
 2861 04f2 6E0F0000 		.4byte	.LASF144
 2862 04f6 0F       		.byte	0xf
 2863 04f7 06       		.uleb128 0x6
 2864 04f8 A7130000 		.4byte	.LASF145
 2865 04fc 20       		.byte	0x20
 2866 04fd 06       		.uleb128 0x6
 2867 04fe 5C120000 		.4byte	.LASF146
 2868 0502 64       		.byte	0x64
 2869 0503 06       		.uleb128 0x6
 2870 0504 1A010000 		.4byte	.LASF147
 2871 0508 7D       		.byte	0x7d
 2872 0509 06       		.uleb128 0x6
 2873 050a 1F020000 		.4byte	.LASF148
 2874 050e 70       		.byte	0x70
 2875 050f 06       		.uleb128 0x6
 2876 0510 9D070000 		.4byte	.LASF149
 2877 0514 0E       		.byte	0xe
 2878 0515 00       		.byte	0
 2879 0516 05       		.uleb128 0x5
 2880 0517 01       		.byte	0x1
 2881 0518 37000000 		.4byte	0x37
 2882 051c 06       		.byte	0x6
 2883 051d 1F       		.byte	0x1f
 2884 051e 2F050000 		.4byte	0x52f
 2885 0522 06       		.uleb128 0x6
 2886 0523 53080000 		.4byte	.LASF150
 2887 0527 00       		.byte	0
 2888 0528 06       		.uleb128 0x6
 2889 0529 7B100000 		.4byte	.LASF151
 2890 052d 01       		.byte	0x1
 2891 052e 00       		.byte	0
 2892 052f 08       		.uleb128 0x8
 2893 0530 D1080000 		.4byte	.LASF249
 2894 0534 01       		.byte	0x1
 2895 0535 12       		.byte	0x12
 2896 0536 00000000 		.4byte	.LFB1
ARM GAS  C:\Users\d3bug\AppData\Local\Temp\ccQAmDn0.s 			page 68


 2897 053a 28000000 		.4byte	.LFE1-.LFB1
 2898 053e 01       		.uleb128 0x1
 2899 053f 9C       		.byte	0x9c
 2900 0540 52050000 		.4byte	0x552
 2901 0544 09       		.uleb128 0x9
 2902 0545 510F0000 		.4byte	.LASF162
 2903 0549 01       		.byte	0x1
 2904 054a 12       		.byte	0x12
 2905 054b 79030000 		.4byte	0x379
 2906 054f 01       		.uleb128 0x1
 2907 0550 50       		.byte	0x50
 2908 0551 00       		.byte	0
 2909 0552 0A       		.uleb128 0xa
 2910 0553 A40D0000 		.4byte	.LASF154
 2911 0557 01       		.byte	0x1
 2912 0558 46       		.byte	0x46
 2913 0559 00000000 		.4byte	.LFB3
 2914 055d 94000000 		.4byte	.LFE3-.LFB3
 2915 0561 01       		.uleb128 0x1
 2916 0562 9C       		.byte	0x9c
 2917 0563 B0060000 		.4byte	0x6b0
 2918 0567 0B       		.uleb128 0xb
 2919 0568 14000000 		.4byte	.LVL1
 2920 056c FE140000 		.4byte	0x14fe
 2921 0570 87050000 		.4byte	0x587
 2922 0574 0C       		.uleb128 0xc
 2923 0575 01       		.uleb128 0x1
 2924 0576 50       		.byte	0x50
 2925 0577 02       		.uleb128 0x2
 2926 0578 74       		.byte	0x74
 2927 0579 00       		.sleb128 0
 2928 057a 0C       		.uleb128 0xc
 2929 057b 01       		.uleb128 0x1
 2930 057c 51       		.byte	0x51
 2931 057d 02       		.uleb128 0x2
 2932 057e 7D       		.byte	0x7d
 2933 057f 00       		.sleb128 0
 2934 0580 0C       		.uleb128 0xc
 2935 0581 01       		.uleb128 0x1
 2936 0582 52       		.byte	0x52
 2937 0583 02       		.uleb128 0x2
 2938 0584 74       		.byte	0x74
 2939 0585 00       		.sleb128 0
 2940 0586 00       		.byte	0
 2941 0587 0B       		.uleb128 0xb
 2942 0588 20000000 		.4byte	.LVL2
 2943 058c FE140000 		.4byte	0x14fe
 2944 0590 A6050000 		.4byte	0x5a6
 2945 0594 0C       		.uleb128 0xc
 2946 0595 01       		.uleb128 0x1
 2947 0596 50       		.byte	0x50
 2948 0597 01       		.uleb128 0x1
 2949 0598 32       		.byte	0x32
 2950 0599 0C       		.uleb128 0xc
 2951 059a 01       		.uleb128 0x1
 2952 059b 51       		.byte	0x51
 2953 059c 02       		.uleb128 0x2
ARM GAS  C:\Users\d3bug\AppData\Local\Temp\ccQAmDn0.s 			page 69


 2954 059d 91       		.byte	0x91
 2955 059e 4C       		.sleb128 -52
 2956 059f 0C       		.uleb128 0xc
 2957 05a0 01       		.uleb128 0x1
 2958 05a1 52       		.byte	0x52
 2959 05a2 02       		.uleb128 0x2
 2960 05a3 74       		.byte	0x74
 2961 05a4 00       		.sleb128 0
 2962 05a5 00       		.byte	0
 2963 05a6 0B       		.uleb128 0xb
 2964 05a7 2E000000 		.4byte	.LVL3
 2965 05ab FE140000 		.4byte	0x14fe
 2966 05af C6050000 		.4byte	0x5c6
 2967 05b3 0C       		.uleb128 0xc
 2968 05b4 01       		.uleb128 0x1
 2969 05b5 50       		.byte	0x50
 2970 05b6 02       		.uleb128 0x2
 2971 05b7 75       		.byte	0x75
 2972 05b8 00       		.sleb128 0
 2973 05b9 0C       		.uleb128 0xc
 2974 05ba 01       		.uleb128 0x1
 2975 05bb 51       		.byte	0x51
 2976 05bc 02       		.uleb128 0x2
 2977 05bd 91       		.byte	0x91
 2978 05be 50       		.sleb128 -48
 2979 05bf 0C       		.uleb128 0xc
 2980 05c0 01       		.uleb128 0x1
 2981 05c1 52       		.byte	0x52
 2982 05c2 02       		.uleb128 0x2
 2983 05c3 74       		.byte	0x74
 2984 05c4 00       		.sleb128 0
 2985 05c5 00       		.byte	0
 2986 05c6 0B       		.uleb128 0xb
 2987 05c7 3A000000 		.4byte	.LVL4
 2988 05cb FE140000 		.4byte	0x14fe
 2989 05cf E5050000 		.4byte	0x5e5
 2990 05d3 0C       		.uleb128 0xc
 2991 05d4 01       		.uleb128 0x1
 2992 05d5 50       		.byte	0x50
 2993 05d6 01       		.uleb128 0x1
 2994 05d7 34       		.byte	0x34
 2995 05d8 0C       		.uleb128 0xc
 2996 05d9 01       		.uleb128 0x1
 2997 05da 51       		.byte	0x51
 2998 05db 02       		.uleb128 0x2
 2999 05dc 91       		.byte	0x91
 3000 05dd 54       		.sleb128 -44
 3001 05de 0C       		.uleb128 0xc
 3002 05df 01       		.uleb128 0x1
 3003 05e0 52       		.byte	0x52
 3004 05e1 02       		.uleb128 0x2
 3005 05e2 74       		.byte	0x74
 3006 05e3 00       		.sleb128 0
 3007 05e4 00       		.byte	0
 3008 05e5 0B       		.uleb128 0xb
 3009 05e6 48000000 		.4byte	.LVL5
 3010 05ea FE140000 		.4byte	0x14fe
ARM GAS  C:\Users\d3bug\AppData\Local\Temp\ccQAmDn0.s 			page 70


 3011 05ee 04060000 		.4byte	0x604
 3012 05f2 0C       		.uleb128 0xc
 3013 05f3 01       		.uleb128 0x1
 3014 05f4 50       		.byte	0x50
 3015 05f5 01       		.uleb128 0x1
 3016 05f6 35       		.byte	0x35
 3017 05f7 0C       		.uleb128 0xc
 3018 05f8 01       		.uleb128 0x1
 3019 05f9 51       		.byte	0x51
 3020 05fa 02       		.uleb128 0x2
 3021 05fb 91       		.byte	0x91
 3022 05fc 58       		.sleb128 -40
 3023 05fd 0C       		.uleb128 0xc
 3024 05fe 01       		.uleb128 0x1
 3025 05ff 52       		.byte	0x52
 3026 0600 02       		.uleb128 0x2
 3027 0601 74       		.byte	0x74
 3028 0602 00       		.sleb128 0
 3029 0603 00       		.byte	0
 3030 0604 0B       		.uleb128 0xb
 3031 0605 56000000 		.4byte	.LVL6
 3032 0609 FE140000 		.4byte	0x14fe
 3033 060d 23060000 		.4byte	0x623
 3034 0611 0C       		.uleb128 0xc
 3035 0612 01       		.uleb128 0x1
 3036 0613 50       		.byte	0x50
 3037 0614 01       		.uleb128 0x1
 3038 0615 36       		.byte	0x36
 3039 0616 0C       		.uleb128 0xc
 3040 0617 01       		.uleb128 0x1
 3041 0618 51       		.byte	0x51
 3042 0619 02       		.uleb128 0x2
 3043 061a 91       		.byte	0x91
 3044 061b 5C       		.sleb128 -36
 3045 061c 0C       		.uleb128 0xc
 3046 061d 01       		.uleb128 0x1
 3047 061e 52       		.byte	0x52
 3048 061f 02       		.uleb128 0x2
 3049 0620 74       		.byte	0x74
 3050 0621 00       		.sleb128 0
 3051 0622 00       		.byte	0
 3052 0623 0B       		.uleb128 0xb
 3053 0624 64000000 		.4byte	.LVL7
 3054 0628 FE140000 		.4byte	0x14fe
 3055 062c 42060000 		.4byte	0x642
 3056 0630 0C       		.uleb128 0xc
 3057 0631 01       		.uleb128 0x1
 3058 0632 50       		.byte	0x50
 3059 0633 01       		.uleb128 0x1
 3060 0634 4C       		.byte	0x4c
 3061 0635 0C       		.uleb128 0xc
 3062 0636 01       		.uleb128 0x1
 3063 0637 51       		.byte	0x51
 3064 0638 02       		.uleb128 0x2
 3065 0639 91       		.byte	0x91
 3066 063a 60       		.sleb128 -32
 3067 063b 0C       		.uleb128 0xc
ARM GAS  C:\Users\d3bug\AppData\Local\Temp\ccQAmDn0.s 			page 71


 3068 063c 01       		.uleb128 0x1
 3069 063d 52       		.byte	0x52
 3070 063e 02       		.uleb128 0x2
 3071 063f 74       		.byte	0x74
 3072 0640 00       		.sleb128 0
 3073 0641 00       		.byte	0
 3074 0642 0B       		.uleb128 0xb
 3075 0643 70000000 		.4byte	.LVL8
 3076 0647 FE140000 		.4byte	0x14fe
 3077 064b 61060000 		.4byte	0x661
 3078 064f 0C       		.uleb128 0xc
 3079 0650 01       		.uleb128 0x1
 3080 0651 50       		.byte	0x50
 3081 0652 01       		.uleb128 0x1
 3082 0653 4D       		.byte	0x4d
 3083 0654 0C       		.uleb128 0xc
 3084 0655 01       		.uleb128 0x1
 3085 0656 51       		.byte	0x51
 3086 0657 02       		.uleb128 0x2
 3087 0658 91       		.byte	0x91
 3088 0659 64       		.sleb128 -28
 3089 065a 0C       		.uleb128 0xc
 3090 065b 01       		.uleb128 0x1
 3091 065c 52       		.byte	0x52
 3092 065d 02       		.uleb128 0x2
 3093 065e 74       		.byte	0x74
 3094 065f 00       		.sleb128 0
 3095 0660 00       		.byte	0
 3096 0661 0B       		.uleb128 0xb
 3097 0662 7C000000 		.4byte	.LVL9
 3098 0666 FE140000 		.4byte	0x14fe
 3099 066a 80060000 		.4byte	0x680
 3100 066e 0C       		.uleb128 0xc
 3101 066f 01       		.uleb128 0x1
 3102 0670 50       		.byte	0x50
 3103 0671 01       		.uleb128 0x1
 3104 0672 41       		.byte	0x41
 3105 0673 0C       		.uleb128 0xc
 3106 0674 01       		.uleb128 0x1
 3107 0675 51       		.byte	0x51
 3108 0676 02       		.uleb128 0x2
 3109 0677 91       		.byte	0x91
 3110 0678 68       		.sleb128 -24
 3111 0679 0C       		.uleb128 0xc
 3112 067a 01       		.uleb128 0x1
 3113 067b 52       		.byte	0x52
 3114 067c 02       		.uleb128 0x2
 3115 067d 74       		.byte	0x74
 3116 067e 00       		.sleb128 0
 3117 067f 00       		.byte	0
 3118 0680 0B       		.uleb128 0xb
 3119 0681 8A000000 		.4byte	.LVL10
 3120 0685 FE140000 		.4byte	0x14fe
 3121 0689 A0060000 		.4byte	0x6a0
 3122 068d 0C       		.uleb128 0xc
 3123 068e 01       		.uleb128 0x1
 3124 068f 50       		.byte	0x50
ARM GAS  C:\Users\d3bug\AppData\Local\Temp\ccQAmDn0.s 			page 72


 3125 0690 02       		.uleb128 0x2
 3126 0691 75       		.byte	0x75
 3127 0692 00       		.sleb128 0
 3128 0693 0C       		.uleb128 0xc
 3129 0694 01       		.uleb128 0x1
 3130 0695 51       		.byte	0x51
 3131 0696 02       		.uleb128 0x2
 3132 0697 91       		.byte	0x91
 3133 0698 6C       		.sleb128 -20
 3134 0699 0C       		.uleb128 0xc
 3135 069a 01       		.uleb128 0x1
 3136 069b 52       		.byte	0x52
 3137 069c 02       		.uleb128 0x2
 3138 069d 74       		.byte	0x74
 3139 069e 00       		.sleb128 0
 3140 069f 00       		.byte	0
 3141 06a0 0D       		.uleb128 0xd
 3142 06a1 90000000 		.4byte	.LVL11
 3143 06a5 2F050000 		.4byte	0x52f
 3144 06a9 0C       		.uleb128 0xc
 3145 06aa 01       		.uleb128 0x1
 3146 06ab 50       		.byte	0x50
 3147 06ac 01       		.uleb128 0x1
 3148 06ad 33       		.byte	0x33
 3149 06ae 00       		.byte	0
 3150 06af 00       		.byte	0
 3151 06b0 0E       		.uleb128 0xe
 3152 06b1 9F050000 		.4byte	.LASF152
 3153 06b5 01       		.byte	0x1
 3154 06b6 74       		.byte	0x74
 3155 06b7 00000000 		.4byte	.LFB4
 3156 06bb 02000000 		.4byte	.LFE4-.LFB4
 3157 06bf 01       		.uleb128 0x1
 3158 06c0 9C       		.byte	0x9c
 3159 06c1 0E       		.uleb128 0xe
 3160 06c2 04050000 		.4byte	.LASF153
 3161 06c6 01       		.byte	0x1
 3162 06c7 7D       		.byte	0x7d
 3163 06c8 00000000 		.4byte	.LFB5
 3164 06cc 02000000 		.4byte	.LFE5-.LFB5
 3165 06d0 01       		.uleb128 0x1
 3166 06d1 9C       		.byte	0x9c
 3167 06d2 0A       		.uleb128 0xa
 3168 06d3 A7030000 		.4byte	.LASF155
 3169 06d7 01       		.byte	0x1
 3170 06d8 8E       		.byte	0x8e
 3171 06d9 00000000 		.4byte	.LFB7
 3172 06dd 12000000 		.4byte	.LFE7-.LFB7
 3173 06e1 01       		.uleb128 0x1
 3174 06e2 9C       		.byte	0x9c
 3175 06e3 0F070000 		.4byte	0x70f
 3176 06e7 0B       		.uleb128 0xb
 3177 06e8 0A000000 		.4byte	.LVL12
 3178 06ec 09150000 		.4byte	0x1509
 3179 06f0 FF060000 		.4byte	0x6ff
 3180 06f4 0C       		.uleb128 0xc
 3181 06f5 01       		.uleb128 0x1
ARM GAS  C:\Users\d3bug\AppData\Local\Temp\ccQAmDn0.s 			page 73


 3182 06f6 50       		.byte	0x50
 3183 06f7 01       		.uleb128 0x1
 3184 06f8 30       		.byte	0x30
 3185 06f9 0C       		.uleb128 0xc
 3186 06fa 01       		.uleb128 0x1
 3187 06fb 51       		.byte	0x51
 3188 06fc 01       		.uleb128 0x1
 3189 06fd 31       		.byte	0x31
 3190 06fe 00       		.byte	0
 3191 06ff 0D       		.uleb128 0xd
 3192 0700 10000000 		.4byte	.LVL13
 3193 0704 14150000 		.4byte	0x1514
 3194 0708 0C       		.uleb128 0xc
 3195 0709 01       		.uleb128 0x1
 3196 070a 50       		.byte	0x50
 3197 070b 01       		.uleb128 0x1
 3198 070c 35       		.byte	0x35
 3199 070d 00       		.byte	0
 3200 070e 00       		.byte	0
 3201 070f 0E       		.uleb128 0xe
 3202 0710 B4060000 		.4byte	.LASF156
 3203 0714 01       		.byte	0x1
 3204 0715 9B       		.byte	0x9b
 3205 0716 00000000 		.4byte	.LFB8
 3206 071a 02000000 		.4byte	.LFE8-.LFB8
 3207 071e 01       		.uleb128 0x1
 3208 071f 9C       		.byte	0x9c
 3209 0720 0E       		.uleb128 0xe
 3210 0721 640B0000 		.4byte	.LASF157
 3211 0725 01       		.byte	0x1
 3212 0726 A4       		.byte	0xa4
 3213 0727 00000000 		.4byte	.LFB9
 3214 072b 02000000 		.4byte	.LFE9-.LFB9
 3215 072f 01       		.uleb128 0x1
 3216 0730 9C       		.byte	0x9c
 3217 0731 0A       		.uleb128 0xa
 3218 0732 61030000 		.4byte	.LASF158
 3219 0736 01       		.byte	0x1
 3220 0737 BC       		.byte	0xbc
 3221 0738 00000000 		.4byte	.LFB11
 3222 073c 0C000000 		.4byte	.LFE11-.LFB11
 3223 0740 01       		.uleb128 0x1
 3224 0741 9C       		.byte	0x9c
 3225 0742 5B070000 		.4byte	0x75b
 3226 0746 0D       		.uleb128 0xd
 3227 0747 0A000000 		.4byte	.LVL14
 3228 074b 1F150000 		.4byte	0x151f
 3229 074f 0C       		.uleb128 0xc
 3230 0750 01       		.uleb128 0x1
 3231 0751 50       		.byte	0x50
 3232 0752 01       		.uleb128 0x1
 3233 0753 30       		.byte	0x30
 3234 0754 0C       		.uleb128 0xc
 3235 0755 01       		.uleb128 0x1
 3236 0756 51       		.byte	0x51
 3237 0757 01       		.uleb128 0x1
 3238 0758 31       		.byte	0x31
ARM GAS  C:\Users\d3bug\AppData\Local\Temp\ccQAmDn0.s 			page 74


 3239 0759 00       		.byte	0
 3240 075a 00       		.byte	0
 3241 075b 0A       		.uleb128 0xa
 3242 075c C3020000 		.4byte	.LASF159
 3243 0760 01       		.byte	0x1
 3244 0761 E7       		.byte	0xe7
 3245 0762 00000000 		.4byte	.LFB14
 3246 0766 0C000000 		.4byte	.LFE14-.LFB14
 3247 076a 01       		.uleb128 0x1
 3248 076b 9C       		.byte	0x9c
 3249 076c 85070000 		.4byte	0x785
 3250 0770 0D       		.uleb128 0xd
 3251 0771 0A000000 		.4byte	.LVL15
 3252 0775 09150000 		.4byte	0x1509
 3253 0779 0C       		.uleb128 0xc
 3254 077a 01       		.uleb128 0x1
 3255 077b 50       		.byte	0x50
 3256 077c 01       		.uleb128 0x1
 3257 077d 30       		.byte	0x30
 3258 077e 0C       		.uleb128 0xc
 3259 077f 01       		.uleb128 0x1
 3260 0780 51       		.byte	0x51
 3261 0781 01       		.uleb128 0x1
 3262 0782 30       		.byte	0x30
 3263 0783 00       		.byte	0
 3264 0784 00       		.byte	0
 3265 0785 0A       		.uleb128 0xa
 3266 0786 D3050000 		.4byte	.LASF160
 3267 078a 01       		.byte	0x1
 3268 078b F3       		.byte	0xf3
 3269 078c 00000000 		.4byte	.LFB15
 3270 0790 0C000000 		.4byte	.LFE15-.LFB15
 3271 0794 01       		.uleb128 0x1
 3272 0795 9C       		.byte	0x9c
 3273 0796 AF070000 		.4byte	0x7af
 3274 079a 0D       		.uleb128 0xd
 3275 079b 0A000000 		.4byte	.LVL16
 3276 079f 1F150000 		.4byte	0x151f
 3277 07a3 0C       		.uleb128 0xc
 3278 07a4 01       		.uleb128 0x1
 3279 07a5 50       		.byte	0x50
 3280 07a6 01       		.uleb128 0x1
 3281 07a7 30       		.byte	0x30
 3282 07a8 0C       		.uleb128 0xc
 3283 07a9 01       		.uleb128 0x1
 3284 07aa 51       		.byte	0x51
 3285 07ab 01       		.uleb128 0x1
 3286 07ac 30       		.byte	0x30
 3287 07ad 00       		.byte	0
 3288 07ae 00       		.byte	0
 3289 07af 0A       		.uleb128 0xa
 3290 07b0 C9110000 		.4byte	.LASF161
 3291 07b4 01       		.byte	0x1
 3292 07b5 AE       		.byte	0xae
 3293 07b6 00000000 		.4byte	.LFB10
 3294 07ba 12000000 		.4byte	.LFE10-.LFB10
 3295 07be 01       		.uleb128 0x1
ARM GAS  C:\Users\d3bug\AppData\Local\Temp\ccQAmDn0.s 			page 75


 3296 07bf 9C       		.byte	0x9c
 3297 07c0 E6070000 		.4byte	0x7e6
 3298 07c4 0F       		.uleb128 0xf
 3299 07c5 BE020000 		.4byte	.LASF163
 3300 07c9 01       		.byte	0x1
 3301 07ca AE       		.byte	0xae
 3302 07cb E6070000 		.4byte	0x7e6
 3303 07cf 00000000 		.4byte	.LLST0
 3304 07d3 10       		.uleb128 0x10
 3305 07d4 0A000000 		.4byte	.LVL18
 3306 07d8 5B070000 		.4byte	0x75b
 3307 07dc 10       		.uleb128 0x10
 3308 07dd 10000000 		.4byte	.LVL20
 3309 07e1 85070000 		.4byte	0x785
 3310 07e5 00       		.byte	0
 3311 07e6 11       		.uleb128 0x11
 3312 07e7 25020000 		.4byte	0x225
 3313 07eb 0A       		.uleb128 0xa
 3314 07ec B70E0000 		.4byte	.LASF164
 3315 07f0 01       		.byte	0x1
 3316 07f1 FD       		.byte	0xfd
 3317 07f2 00000000 		.4byte	.LFB16
 3318 07f6 0C000000 		.4byte	.LFE16-.LFB16
 3319 07fa 01       		.uleb128 0x1
 3320 07fb 9C       		.byte	0x9c
 3321 07fc 1F080000 		.4byte	0x81f
 3322 0800 0F       		.uleb128 0xf
 3323 0801 F8050000 		.4byte	.LASF165
 3324 0805 01       		.byte	0x1
 3325 0806 FD       		.byte	0xfd
 3326 0807 1F080000 		.4byte	0x81f
 3327 080b 3A000000 		.4byte	.LLST1
 3328 080f 0D       		.uleb128 0xd
 3329 0810 0A000000 		.4byte	.LVL23
 3330 0814 09150000 		.4byte	0x1509
 3331 0818 0C       		.uleb128 0xc
 3332 0819 01       		.uleb128 0x1
 3333 081a 50       		.byte	0x50
 3334 081b 01       		.uleb128 0x1
 3335 081c 31       		.byte	0x31
 3336 081d 00       		.byte	0
 3337 081e 00       		.byte	0
 3338 081f 11       		.uleb128 0x11
 3339 0820 89010000 		.4byte	0x189
 3340 0824 12       		.uleb128 0x12
 3341 0825 D1000000 		.4byte	.LASF166
 3342 0829 01       		.byte	0x1
 3343 082a 0701     		.2byte	0x107
 3344 082c 00000000 		.4byte	.LFB17
 3345 0830 0C000000 		.4byte	.LFE17-.LFB17
 3346 0834 01       		.uleb128 0x1
 3347 0835 9C       		.byte	0x9c
 3348 0836 5A080000 		.4byte	0x85a
 3349 083a 13       		.uleb128 0x13
 3350 083b F8050000 		.4byte	.LASF165
 3351 083f 01       		.byte	0x1
 3352 0840 0701     		.2byte	0x107
ARM GAS  C:\Users\d3bug\AppData\Local\Temp\ccQAmDn0.s 			page 76


 3353 0842 1F080000 		.4byte	0x81f
 3354 0846 5B000000 		.4byte	.LLST2
 3355 084a 0D       		.uleb128 0xd
 3356 084b 0A000000 		.4byte	.LVL26
 3357 084f 1F150000 		.4byte	0x151f
 3358 0853 0C       		.uleb128 0xc
 3359 0854 01       		.uleb128 0x1
 3360 0855 50       		.byte	0x50
 3361 0856 01       		.uleb128 0x1
 3362 0857 31       		.byte	0x31
 3363 0858 00       		.byte	0
 3364 0859 00       		.byte	0
 3365 085a 12       		.uleb128 0x12
 3366 085b 9B010000 		.4byte	.LASF167
 3367 085f 01       		.byte	0x1
 3368 0860 1101     		.2byte	0x111
 3369 0862 00000000 		.4byte	.LFB18
 3370 0866 2A000000 		.4byte	.LFE18-.LFB18
 3371 086a 01       		.uleb128 0x1
 3372 086b 9C       		.byte	0x9c
 3373 086c B1080000 		.4byte	0x8b1
 3374 0870 13       		.uleb128 0x13
 3375 0871 E90B0000 		.4byte	.LASF168
 3376 0875 01       		.byte	0x1
 3377 0876 1101     		.2byte	0x111
 3378 0878 76000000 		.4byte	0x76
 3379 087c 7C000000 		.4byte	.LLST3
 3380 0880 0B       		.uleb128 0xb
 3381 0881 1E000000 		.4byte	.LVL29
 3382 0885 FE140000 		.4byte	0x14fe
 3383 0889 9E080000 		.4byte	0x89e
 3384 088d 0C       		.uleb128 0xc
 3385 088e 01       		.uleb128 0x1
 3386 088f 50       		.byte	0x50
 3387 0890 01       		.uleb128 0x1
 3388 0891 35       		.byte	0x35
 3389 0892 0C       		.uleb128 0xc
 3390 0893 01       		.uleb128 0x1
 3391 0894 51       		.byte	0x51
 3392 0895 02       		.uleb128 0x2
 3393 0896 7D       		.byte	0x7d
 3394 0897 07       		.sleb128 7
 3395 0898 0C       		.uleb128 0xc
 3396 0899 01       		.uleb128 0x1
 3397 089a 52       		.byte	0x52
 3398 089b 01       		.uleb128 0x1
 3399 089c 31       		.byte	0x31
 3400 089d 00       		.byte	0
 3401 089e 10       		.uleb128 0x10
 3402 089f 22000000 		.4byte	.LVL30
 3403 08a3 2A150000 		.4byte	0x152a
 3404 08a7 10       		.uleb128 0x10
 3405 08a8 26000000 		.4byte	.LVL31
 3406 08ac 35150000 		.4byte	0x1535
 3407 08b0 00       		.byte	0
 3408 08b1 14       		.uleb128 0x14
 3409 08b2 9A0C0000 		.4byte	.LASF177
ARM GAS  C:\Users\d3bug\AppData\Local\Temp\ccQAmDn0.s 			page 77


 3410 08b6 01       		.byte	0x1
 3411 08b7 2201     		.2byte	0x122
 3412 08b9 76000000 		.4byte	0x76
 3413 08bd 00000000 		.4byte	.LFB19
 3414 08c1 18000000 		.4byte	.LFE19-.LFB19
 3415 08c5 01       		.uleb128 0x1
 3416 08c6 9C       		.byte	0x9c
 3417 08c7 F5080000 		.4byte	0x8f5
 3418 08cb 15       		.uleb128 0x15
 3419 08cc E90B0000 		.4byte	.LASF168
 3420 08d0 01       		.byte	0x1
 3421 08d1 2401     		.2byte	0x124
 3422 08d3 76000000 		.4byte	0x76
 3423 08d7 02       		.uleb128 0x2
 3424 08d8 91       		.byte	0x91
 3425 08d9 77       		.sleb128 -9
 3426 08da 0D       		.uleb128 0xd
 3427 08db 12000000 		.4byte	.LVL32
 3428 08df 40150000 		.4byte	0x1540
 3429 08e3 0C       		.uleb128 0xc
 3430 08e4 01       		.uleb128 0x1
 3431 08e5 50       		.byte	0x50
 3432 08e6 01       		.uleb128 0x1
 3433 08e7 35       		.byte	0x35
 3434 08e8 0C       		.uleb128 0xc
 3435 08e9 01       		.uleb128 0x1
 3436 08ea 51       		.byte	0x51
 3437 08eb 02       		.uleb128 0x2
 3438 08ec 74       		.byte	0x74
 3439 08ed 00       		.sleb128 0
 3440 08ee 0C       		.uleb128 0xc
 3441 08ef 01       		.uleb128 0x1
 3442 08f0 52       		.byte	0x52
 3443 08f1 01       		.uleb128 0x1
 3444 08f2 31       		.byte	0x31
 3445 08f3 00       		.byte	0
 3446 08f4 00       		.byte	0
 3447 08f5 12       		.uleb128 0x12
 3448 08f6 47110000 		.4byte	.LASF169
 3449 08fa 01       		.byte	0x1
 3450 08fb 2E01     		.2byte	0x12e
 3451 08fd 00000000 		.4byte	.LFB20
 3452 0901 1E000000 		.4byte	.LFE20-.LFB20
 3453 0905 01       		.uleb128 0x1
 3454 0906 9C       		.byte	0x9c
 3455 0907 43090000 		.4byte	0x943
 3456 090b 13       		.uleb128 0x13
 3457 090c 510F0000 		.4byte	.LASF162
 3458 0910 01       		.byte	0x1
 3459 0911 2E01     		.2byte	0x12e
 3460 0913 43090000 		.4byte	0x943
 3461 0917 9D000000 		.4byte	.LLST4
 3462 091b 0B       		.uleb128 0xb
 3463 091c 14000000 		.4byte	.LVL35
 3464 0920 FE140000 		.4byte	0x14fe
 3465 0924 39090000 		.4byte	0x939
 3466 0928 0C       		.uleb128 0xc
ARM GAS  C:\Users\d3bug\AppData\Local\Temp\ccQAmDn0.s 			page 78


 3467 0929 01       		.uleb128 0x1
 3468 092a 50       		.byte	0x50
 3469 092b 01       		.uleb128 0x1
 3470 092c 33       		.byte	0x33
 3471 092d 0C       		.uleb128 0xc
 3472 092e 01       		.uleb128 0x1
 3473 092f 51       		.byte	0x51
 3474 0930 02       		.uleb128 0x2
 3475 0931 74       		.byte	0x74
 3476 0932 00       		.sleb128 0
 3477 0933 0C       		.uleb128 0xc
 3478 0934 01       		.uleb128 0x1
 3479 0935 52       		.byte	0x52
 3480 0936 01       		.uleb128 0x1
 3481 0937 31       		.byte	0x31
 3482 0938 00       		.byte	0
 3483 0939 10       		.uleb128 0x10
 3484 093a 1A000000 		.4byte	.LVL36
 3485 093e 2F050000 		.4byte	0x52f
 3486 0942 00       		.byte	0
 3487 0943 11       		.uleb128 0x11
 3488 0944 79030000 		.4byte	0x379
 3489 0948 16       		.uleb128 0x16
 3490 0949 B5120000 		.4byte	.LASF250
 3491 094d 01       		.byte	0x1
 3492 094e 3B01     		.2byte	0x13b
 3493 0950 76000000 		.4byte	0x76
 3494 0954 00000000 		.4byte	.LFB21
 3495 0958 0C000000 		.4byte	.LFE21-.LFB21
 3496 095c 01       		.uleb128 0x1
 3497 095d 9C       		.byte	0x9c
 3498 095e 12       		.uleb128 0x12
 3499 095f E9120000 		.4byte	.LASF170
 3500 0963 01       		.byte	0x1
 3501 0964 4801     		.2byte	0x148
 3502 0966 00000000 		.4byte	.LFB22
 3503 096a 34000000 		.4byte	.LFE22-.LFB22
 3504 096e 01       		.uleb128 0x1
 3505 096f 9C       		.byte	0x9c
 3506 0970 BD090000 		.4byte	0x9bd
 3507 0974 13       		.uleb128 0x13
 3508 0975 F8050000 		.4byte	.LASF165
 3509 0979 01       		.byte	0x1
 3510 097a 4801     		.2byte	0x148
 3511 097c BD090000 		.4byte	0x9bd
 3512 0980 D4000000 		.4byte	.LLST5
 3513 0984 13       		.uleb128 0x13
 3514 0985 E40B0000 		.4byte	.LASF171
 3515 0989 01       		.byte	0x1
 3516 098a 4901     		.2byte	0x149
 3517 098c C2090000 		.4byte	0x9c2
 3518 0990 0E010000 		.4byte	.LLST6
 3519 0994 13       		.uleb128 0x13
 3520 0995 800A0000 		.4byte	.LASF172
 3521 0999 01       		.byte	0x1
 3522 099a 4901     		.2byte	0x149
 3523 099c 96000000 		.4byte	0x96
ARM GAS  C:\Users\d3bug\AppData\Local\Temp\ccQAmDn0.s 			page 79


 3524 09a0 48010000 		.4byte	.LLST7
 3525 09a4 10       		.uleb128 0x10
 3526 09a5 24000000 		.4byte	.LVL40
 3527 09a9 FE140000 		.4byte	0x14fe
 3528 09ad 0D       		.uleb128 0xd
 3529 09ae 2C000000 		.4byte	.LVL43
 3530 09b2 FE140000 		.4byte	0x14fe
 3531 09b6 0C       		.uleb128 0xc
 3532 09b7 01       		.uleb128 0x1
 3533 09b8 52       		.byte	0x52
 3534 09b9 01       		.uleb128 0x1
 3535 09ba 31       		.byte	0x31
 3536 09bb 00       		.byte	0
 3537 09bc 00       		.byte	0
 3538 09bd 11       		.uleb128 0x11
 3539 09be C5010000 		.4byte	0x1c5
 3540 09c2 17       		.uleb128 0x17
 3541 09c3 04       		.byte	0x4
 3542 09c4 C8090000 		.4byte	0x9c8
 3543 09c8 11       		.uleb128 0x11
 3544 09c9 76000000 		.4byte	0x76
 3545 09cd 12       		.uleb128 0x12
 3546 09ce 250D0000 		.4byte	.LASF173
 3547 09d2 01       		.byte	0x1
 3548 09d3 6E01     		.2byte	0x16e
 3549 09d5 00000000 		.4byte	.LFB23
 3550 09d9 48000000 		.4byte	.LFE23-.LFB23
 3551 09dd 01       		.uleb128 0x1
 3552 09de 9C       		.byte	0x9c
 3553 09df 6B0A0000 		.4byte	0xa6b
 3554 09e3 13       		.uleb128 0x13
 3555 09e4 F8050000 		.4byte	.LASF165
 3556 09e8 01       		.byte	0x1
 3557 09e9 6E01     		.2byte	0x16e
 3558 09eb BD090000 		.4byte	0x9bd
 3559 09ef 7F010000 		.4byte	.LLST8
 3560 09f3 13       		.uleb128 0x13
 3561 09f4 E40B0000 		.4byte	.LASF171
 3562 09f8 01       		.byte	0x1
 3563 09f9 6F01     		.2byte	0x16f
 3564 09fb 6B0A0000 		.4byte	0xa6b
 3565 09ff B9010000 		.4byte	.LLST9
 3566 0a03 13       		.uleb128 0x13
 3567 0a04 800A0000 		.4byte	.LASF172
 3568 0a08 01       		.byte	0x1
 3569 0a09 6F01     		.2byte	0x16f
 3570 0a0b 96000000 		.4byte	0x96
 3571 0a0f FB010000 		.4byte	.LLST10
 3572 0a13 0B       		.uleb128 0xb
 3573 0a14 2A000000 		.4byte	.LVL48
 3574 0a18 40150000 		.4byte	0x1540
 3575 0a1c 2D0A0000 		.4byte	0xa2d
 3576 0a20 0C       		.uleb128 0xc
 3577 0a21 01       		.uleb128 0x1
 3578 0a22 50       		.byte	0x50
 3579 0a23 02       		.uleb128 0x2
 3580 0a24 75       		.byte	0x75
ARM GAS  C:\Users\d3bug\AppData\Local\Temp\ccQAmDn0.s 			page 80


 3581 0a25 00       		.sleb128 0
 3582 0a26 0C       		.uleb128 0xc
 3583 0a27 01       		.uleb128 0x1
 3584 0a28 51       		.byte	0x51
 3585 0a29 02       		.uleb128 0x2
 3586 0a2a 76       		.byte	0x76
 3587 0a2b 00       		.sleb128 0
 3588 0a2c 00       		.byte	0
 3589 0a2d 0B       		.uleb128 0xb
 3590 0a2e 38000000 		.4byte	.LVL52
 3591 0a32 40150000 		.4byte	0x1540
 3592 0a36 4C0A0000 		.4byte	0xa4c
 3593 0a3a 0C       		.uleb128 0xc
 3594 0a3b 01       		.uleb128 0x1
 3595 0a3c 50       		.byte	0x50
 3596 0a3d 01       		.uleb128 0x1
 3597 0a3e 3B       		.byte	0x3b
 3598 0a3f 0C       		.uleb128 0xc
 3599 0a40 01       		.uleb128 0x1
 3600 0a41 51       		.byte	0x51
 3601 0a42 02       		.uleb128 0x2
 3602 0a43 76       		.byte	0x76
 3603 0a44 00       		.sleb128 0
 3604 0a45 0C       		.uleb128 0xc
 3605 0a46 01       		.uleb128 0x1
 3606 0a47 52       		.byte	0x52
 3607 0a48 02       		.uleb128 0x2
 3608 0a49 74       		.byte	0x74
 3609 0a4a 00       		.sleb128 0
 3610 0a4b 00       		.byte	0
 3611 0a4c 0D       		.uleb128 0xd
 3612 0a4d 42000000 		.4byte	.LVL53
 3613 0a51 40150000 		.4byte	0x1540
 3614 0a55 0C       		.uleb128 0xc
 3615 0a56 01       		.uleb128 0x1
 3616 0a57 50       		.byte	0x50
 3617 0a58 02       		.uleb128 0x2
 3618 0a59 75       		.byte	0x75
 3619 0a5a 00       		.sleb128 0
 3620 0a5b 0C       		.uleb128 0xc
 3621 0a5c 01       		.uleb128 0x1
 3622 0a5d 51       		.byte	0x51
 3623 0a5e 05       		.uleb128 0x5
 3624 0a5f 76       		.byte	0x76
 3625 0a60 00       		.sleb128 0
 3626 0a61 74       		.byte	0x74
 3627 0a62 00       		.sleb128 0
 3628 0a63 22       		.byte	0x22
 3629 0a64 0C       		.uleb128 0xc
 3630 0a65 01       		.uleb128 0x1
 3631 0a66 52       		.byte	0x52
 3632 0a67 01       		.uleb128 0x1
 3633 0a68 31       		.byte	0x31
 3634 0a69 00       		.byte	0
 3635 0a6a 00       		.byte	0
 3636 0a6b 17       		.uleb128 0x17
 3637 0a6c 04       		.byte	0x4
ARM GAS  C:\Users\d3bug\AppData\Local\Temp\ccQAmDn0.s 			page 81


 3638 0a6d 76000000 		.4byte	0x76
 3639 0a71 12       		.uleb128 0x12
 3640 0a72 C7070000 		.4byte	.LASF174
 3641 0a76 01       		.byte	0x1
 3642 0a77 9501     		.2byte	0x195
 3643 0a79 00000000 		.4byte	.LFB24
 3644 0a7d 20000000 		.4byte	.LFE24-.LFB24
 3645 0a81 01       		.uleb128 0x1
 3646 0a82 9C       		.byte	0x9c
 3647 0a83 BE0A0000 		.4byte	0xabe
 3648 0a87 13       		.uleb128 0x13
 3649 0a88 E40B0000 		.4byte	.LASF171
 3650 0a8c 01       		.byte	0x1
 3651 0a8d 9501     		.2byte	0x195
 3652 0a8f BE0A0000 		.4byte	0xabe
 3653 0a93 31020000 		.4byte	.LLST11
 3654 0a97 13       		.uleb128 0x13
 3655 0a98 800A0000 		.4byte	.LASF172
 3656 0a9c 01       		.byte	0x1
 3657 0a9d 9501     		.2byte	0x195
 3658 0a9f 96000000 		.4byte	0x96
 3659 0aa3 5D020000 		.4byte	.LLST12
 3660 0aa7 0D       		.uleb128 0xd
 3661 0aa8 18000000 		.4byte	.LVL58
 3662 0aac FE140000 		.4byte	0x14fe
 3663 0ab0 0C       		.uleb128 0xc
 3664 0ab1 01       		.uleb128 0x1
 3665 0ab2 50       		.byte	0x50
 3666 0ab3 01       		.uleb128 0x1
 3667 0ab4 40       		.byte	0x40
 3668 0ab5 0C       		.uleb128 0xc
 3669 0ab6 01       		.uleb128 0x1
 3670 0ab7 51       		.byte	0x51
 3671 0ab8 03       		.uleb128 0x3
 3672 0ab9 F3       		.byte	0xf3
 3673 0aba 01       		.uleb128 0x1
 3674 0abb 50       		.byte	0x50
 3675 0abc 00       		.byte	0
 3676 0abd 00       		.byte	0
 3677 0abe 11       		.uleb128 0x11
 3678 0abf C2090000 		.4byte	0x9c2
 3679 0ac3 12       		.uleb128 0x12
 3680 0ac4 6A080000 		.4byte	.LASF175
 3681 0ac8 01       		.byte	0x1
 3682 0ac9 A801     		.2byte	0x1a8
 3683 0acb 00000000 		.4byte	.LFB25
 3684 0acf 20000000 		.4byte	.LFE25-.LFB25
 3685 0ad3 01       		.uleb128 0x1
 3686 0ad4 9C       		.byte	0x9c
 3687 0ad5 100B0000 		.4byte	0xb10
 3688 0ad9 13       		.uleb128 0x13
 3689 0ada E40B0000 		.4byte	.LASF171
 3690 0ade 01       		.byte	0x1
 3691 0adf A801     		.2byte	0x1a8
 3692 0ae1 6B0A0000 		.4byte	0xa6b
 3693 0ae5 7B020000 		.4byte	.LLST13
 3694 0ae9 13       		.uleb128 0x13
ARM GAS  C:\Users\d3bug\AppData\Local\Temp\ccQAmDn0.s 			page 82


 3695 0aea 800A0000 		.4byte	.LASF172
 3696 0aee 01       		.byte	0x1
 3697 0aef A801     		.2byte	0x1a8
 3698 0af1 96000000 		.4byte	0x96
 3699 0af5 A7020000 		.4byte	.LLST14
 3700 0af9 0D       		.uleb128 0xd
 3701 0afa 18000000 		.4byte	.LVL62
 3702 0afe 40150000 		.4byte	0x1540
 3703 0b02 0C       		.uleb128 0xc
 3704 0b03 01       		.uleb128 0x1
 3705 0b04 50       		.byte	0x50
 3706 0b05 01       		.uleb128 0x1
 3707 0b06 40       		.byte	0x40
 3708 0b07 0C       		.uleb128 0xc
 3709 0b08 01       		.uleb128 0x1
 3710 0b09 51       		.byte	0x51
 3711 0b0a 03       		.uleb128 0x3
 3712 0b0b F3       		.byte	0xf3
 3713 0b0c 01       		.uleb128 0x1
 3714 0b0d 50       		.byte	0x50
 3715 0b0e 00       		.byte	0
 3716 0b0f 00       		.byte	0
 3717 0b10 12       		.uleb128 0x12
 3718 0b11 DB0E0000 		.4byte	.LASF176
 3719 0b15 01       		.byte	0x1
 3720 0b16 BD01     		.2byte	0x1bd
 3721 0b18 00000000 		.4byte	.LFB26
 3722 0b1c 20000000 		.4byte	.LFE26-.LFB26
 3723 0b20 01       		.uleb128 0x1
 3724 0b21 9C       		.byte	0x9c
 3725 0b22 5C0B0000 		.4byte	0xb5c
 3726 0b26 13       		.uleb128 0x13
 3727 0b27 F8050000 		.4byte	.LASF165
 3728 0b2b 01       		.byte	0x1
 3729 0b2c BD01     		.2byte	0x1bd
 3730 0b2e 5C0B0000 		.4byte	0xb5c
 3731 0b32 C5020000 		.4byte	.LLST15
 3732 0b36 13       		.uleb128 0x13
 3733 0b37 800A0000 		.4byte	.LASF172
 3734 0b3b 01       		.byte	0x1
 3735 0b3c BD01     		.2byte	0x1bd
 3736 0b3e 76000000 		.4byte	0x76
 3737 0b42 E6020000 		.4byte	.LLST16
 3738 0b46 0D       		.uleb128 0xd
 3739 0b47 1C000000 		.4byte	.LVL65
 3740 0b4b FE140000 		.4byte	0x14fe
 3741 0b4f 0C       		.uleb128 0xc
 3742 0b50 01       		.uleb128 0x1
 3743 0b51 51       		.byte	0x51
 3744 0b52 02       		.uleb128 0x2
 3745 0b53 7D       		.byte	0x7d
 3746 0b54 07       		.sleb128 7
 3747 0b55 0C       		.uleb128 0xc
 3748 0b56 01       		.uleb128 0x1
 3749 0b57 52       		.byte	0x52
 3750 0b58 01       		.uleb128 0x1
 3751 0b59 31       		.byte	0x31
ARM GAS  C:\Users\d3bug\AppData\Local\Temp\ccQAmDn0.s 			page 83


 3752 0b5a 00       		.byte	0
 3753 0b5b 00       		.byte	0
 3754 0b5c 11       		.uleb128 0x11
 3755 0b5d 01020000 		.4byte	0x201
 3756 0b61 14       		.uleb128 0x14
 3757 0b62 D8060000 		.4byte	.LASF178
 3758 0b66 01       		.byte	0x1
 3759 0b67 CD01     		.2byte	0x1cd
 3760 0b69 76000000 		.4byte	0x76
 3761 0b6d 00000000 		.4byte	.LFB27
 3762 0b71 16000000 		.4byte	.LFE27-.LFB27
 3763 0b75 01       		.uleb128 0x1
 3764 0b76 9C       		.byte	0x9c
 3765 0b77 B00B0000 		.4byte	0xbb0
 3766 0b7b 13       		.uleb128 0x13
 3767 0b7c F8050000 		.4byte	.LASF165
 3768 0b80 01       		.byte	0x1
 3769 0b81 CD01     		.2byte	0x1cd
 3770 0b83 5C0B0000 		.4byte	0xb5c
 3771 0b87 07030000 		.4byte	.LLST17
 3772 0b8b 15       		.uleb128 0x15
 3773 0b8c 80040000 		.4byte	.LASF179
 3774 0b90 01       		.byte	0x1
 3775 0b91 CF01     		.2byte	0x1cf
 3776 0b93 76000000 		.4byte	0x76
 3777 0b97 02       		.uleb128 0x2
 3778 0b98 91       		.byte	0x91
 3779 0b99 77       		.sleb128 -9
 3780 0b9a 0D       		.uleb128 0xd
 3781 0b9b 10000000 		.4byte	.LVL67
 3782 0b9f 40150000 		.4byte	0x1540
 3783 0ba3 0C       		.uleb128 0xc
 3784 0ba4 01       		.uleb128 0x1
 3785 0ba5 51       		.byte	0x51
 3786 0ba6 02       		.uleb128 0x2
 3787 0ba7 74       		.byte	0x74
 3788 0ba8 00       		.sleb128 0
 3789 0ba9 0C       		.uleb128 0xc
 3790 0baa 01       		.uleb128 0x1
 3791 0bab 52       		.byte	0x52
 3792 0bac 01       		.uleb128 0x1
 3793 0bad 31       		.byte	0x31
 3794 0bae 00       		.byte	0
 3795 0baf 00       		.byte	0
 3796 0bb0 12       		.uleb128 0x12
 3797 0bb1 3E000000 		.4byte	.LASF180
 3798 0bb5 01       		.byte	0x1
 3799 0bb6 E501     		.2byte	0x1e5
 3800 0bb8 00000000 		.4byte	.LFB29
 3801 0bbc 14000000 		.4byte	.LFE29-.LFB29
 3802 0bc0 01       		.uleb128 0x1
 3803 0bc1 9C       		.byte	0x9c
 3804 0bc2 F30B0000 		.4byte	0xbf3
 3805 0bc6 0B       		.uleb128 0xb
 3806 0bc7 0A000000 		.4byte	.LVL68
 3807 0bcb 09150000 		.4byte	0x1509
 3808 0bcf DE0B0000 		.4byte	0xbde
ARM GAS  C:\Users\d3bug\AppData\Local\Temp\ccQAmDn0.s 			page 84


 3809 0bd3 0C       		.uleb128 0xc
 3810 0bd4 01       		.uleb128 0x1
 3811 0bd5 50       		.byte	0x50
 3812 0bd6 01       		.uleb128 0x1
 3813 0bd7 4D       		.byte	0x4d
 3814 0bd8 0C       		.uleb128 0xc
 3815 0bd9 01       		.uleb128 0x1
 3816 0bda 51       		.byte	0x51
 3817 0bdb 01       		.uleb128 0x1
 3818 0bdc 31       		.byte	0x31
 3819 0bdd 00       		.byte	0
 3820 0bde 0D       		.uleb128 0xd
 3821 0bdf 12000000 		.4byte	.LVL69
 3822 0be3 09150000 		.4byte	0x1509
 3823 0be7 0C       		.uleb128 0xc
 3824 0be8 01       		.uleb128 0x1
 3825 0be9 50       		.byte	0x50
 3826 0bea 01       		.uleb128 0x1
 3827 0beb 4D       		.byte	0x4d
 3828 0bec 0C       		.uleb128 0xc
 3829 0bed 01       		.uleb128 0x1
 3830 0bee 51       		.byte	0x51
 3831 0bef 01       		.uleb128 0x1
 3832 0bf0 32       		.byte	0x32
 3833 0bf1 00       		.byte	0
 3834 0bf2 00       		.byte	0
 3835 0bf3 12       		.uleb128 0x12
 3836 0bf4 29130000 		.4byte	.LASF181
 3837 0bf8 01       		.byte	0x1
 3838 0bf9 F201     		.2byte	0x1f2
 3839 0bfb 00000000 		.4byte	.LFB30
 3840 0bff 16000000 		.4byte	.LFE30-.LFB30
 3841 0c03 01       		.uleb128 0x1
 3842 0c04 9C       		.byte	0x9c
 3843 0c05 480C0000 		.4byte	0xc48
 3844 0c09 13       		.uleb128 0x13
 3845 0c0a F8050000 		.4byte	.LASF165
 3846 0c0e 01       		.byte	0x1
 3847 0c0f F201     		.2byte	0x1f2
 3848 0c11 1F080000 		.4byte	0x81f
 3849 0c15 28030000 		.4byte	.LLST18
 3850 0c19 0B       		.uleb128 0xb
 3851 0c1a 0C000000 		.4byte	.LVL72
 3852 0c1e 09150000 		.4byte	0x1509
 3853 0c22 320C0000 		.4byte	0xc32
 3854 0c26 0C       		.uleb128 0xc
 3855 0c27 01       		.uleb128 0x1
 3856 0c28 50       		.byte	0x50
 3857 0c29 01       		.uleb128 0x1
 3858 0c2a 31       		.byte	0x31
 3859 0c2b 0C       		.uleb128 0xc
 3860 0c2c 01       		.uleb128 0x1
 3861 0c2d 51       		.byte	0x51
 3862 0c2e 02       		.uleb128 0x2
 3863 0c2f 74       		.byte	0x74
 3864 0c30 00       		.sleb128 0
 3865 0c31 00       		.byte	0
ARM GAS  C:\Users\d3bug\AppData\Local\Temp\ccQAmDn0.s 			page 85


 3866 0c32 0D       		.uleb128 0xd
 3867 0c33 14000000 		.4byte	.LVL73
 3868 0c37 09150000 		.4byte	0x1509
 3869 0c3b 0C       		.uleb128 0xc
 3870 0c3c 01       		.uleb128 0x1
 3871 0c3d 50       		.byte	0x50
 3872 0c3e 01       		.uleb128 0x1
 3873 0c3f 4C       		.byte	0x4c
 3874 0c40 0C       		.uleb128 0xc
 3875 0c41 01       		.uleb128 0x1
 3876 0c42 51       		.byte	0x51
 3877 0c43 02       		.uleb128 0x2
 3878 0c44 74       		.byte	0x74
 3879 0c45 00       		.sleb128 0
 3880 0c46 00       		.byte	0
 3881 0c47 00       		.byte	0
 3882 0c48 12       		.uleb128 0x12
 3883 0c49 63130000 		.4byte	.LASF182
 3884 0c4d 01       		.byte	0x1
 3885 0c4e FD01     		.2byte	0x1fd
 3886 0c50 00000000 		.4byte	.LFB31
 3887 0c54 14000000 		.4byte	.LFE31-.LFB31
 3888 0c58 01       		.uleb128 0x1
 3889 0c59 9C       		.byte	0x9c
 3890 0c5a 8B0C0000 		.4byte	0xc8b
 3891 0c5e 0B       		.uleb128 0xb
 3892 0c5f 0A000000 		.4byte	.LVL74
 3893 0c63 1F150000 		.4byte	0x151f
 3894 0c67 760C0000 		.4byte	0xc76
 3895 0c6b 0C       		.uleb128 0xc
 3896 0c6c 01       		.uleb128 0x1
 3897 0c6d 50       		.byte	0x50
 3898 0c6e 01       		.uleb128 0x1
 3899 0c6f 4D       		.byte	0x4d
 3900 0c70 0C       		.uleb128 0xc
 3901 0c71 01       		.uleb128 0x1
 3902 0c72 51       		.byte	0x51
 3903 0c73 01       		.uleb128 0x1
 3904 0c74 31       		.byte	0x31
 3905 0c75 00       		.byte	0
 3906 0c76 0D       		.uleb128 0xd
 3907 0c77 12000000 		.4byte	.LVL75
 3908 0c7b 1F150000 		.4byte	0x151f
 3909 0c7f 0C       		.uleb128 0xc
 3910 0c80 01       		.uleb128 0x1
 3911 0c81 50       		.byte	0x50
 3912 0c82 01       		.uleb128 0x1
 3913 0c83 4D       		.byte	0x4d
 3914 0c84 0C       		.uleb128 0xc
 3915 0c85 01       		.uleb128 0x1
 3916 0c86 51       		.byte	0x51
 3917 0c87 01       		.uleb128 0x1
 3918 0c88 32       		.byte	0x32
 3919 0c89 00       		.byte	0
 3920 0c8a 00       		.byte	0
 3921 0c8b 12       		.uleb128 0x12
 3922 0c8c 6A050000 		.4byte	.LASF183
ARM GAS  C:\Users\d3bug\AppData\Local\Temp\ccQAmDn0.s 			page 86


 3923 0c90 01       		.byte	0x1
 3924 0c91 0A02     		.2byte	0x20a
 3925 0c93 00000000 		.4byte	.LFB32
 3926 0c97 16000000 		.4byte	.LFE32-.LFB32
 3927 0c9b 01       		.uleb128 0x1
 3928 0c9c 9C       		.byte	0x9c
 3929 0c9d E00C0000 		.4byte	0xce0
 3930 0ca1 13       		.uleb128 0x13
 3931 0ca2 F8050000 		.4byte	.LASF165
 3932 0ca6 01       		.byte	0x1
 3933 0ca7 0A02     		.2byte	0x20a
 3934 0ca9 1F080000 		.4byte	0x81f
 3935 0cad 49030000 		.4byte	.LLST19
 3936 0cb1 0B       		.uleb128 0xb
 3937 0cb2 0C000000 		.4byte	.LVL78
 3938 0cb6 1F150000 		.4byte	0x151f
 3939 0cba CA0C0000 		.4byte	0xcca
 3940 0cbe 0C       		.uleb128 0xc
 3941 0cbf 01       		.uleb128 0x1
 3942 0cc0 50       		.byte	0x50
 3943 0cc1 01       		.uleb128 0x1
 3944 0cc2 31       		.byte	0x31
 3945 0cc3 0C       		.uleb128 0xc
 3946 0cc4 01       		.uleb128 0x1
 3947 0cc5 51       		.byte	0x51
 3948 0cc6 02       		.uleb128 0x2
 3949 0cc7 74       		.byte	0x74
 3950 0cc8 00       		.sleb128 0
 3951 0cc9 00       		.byte	0
 3952 0cca 0D       		.uleb128 0xd
 3953 0ccb 14000000 		.4byte	.LVL79
 3954 0ccf 1F150000 		.4byte	0x151f
 3955 0cd3 0C       		.uleb128 0xc
 3956 0cd4 01       		.uleb128 0x1
 3957 0cd5 50       		.byte	0x50
 3958 0cd6 01       		.uleb128 0x1
 3959 0cd7 4C       		.byte	0x4c
 3960 0cd8 0C       		.uleb128 0xc
 3961 0cd9 01       		.uleb128 0x1
 3962 0cda 51       		.byte	0x51
 3963 0cdb 02       		.uleb128 0x2
 3964 0cdc 74       		.byte	0x74
 3965 0cdd 00       		.sleb128 0
 3966 0cde 00       		.byte	0
 3967 0cdf 00       		.byte	0
 3968 0ce0 12       		.uleb128 0x12
 3969 0ce1 77010000 		.4byte	.LASF184
 3970 0ce5 01       		.byte	0x1
 3971 0ce6 1302     		.2byte	0x213
 3972 0ce8 00000000 		.4byte	.LFB33
 3973 0cec 0C000000 		.4byte	.LFE33-.LFB33
 3974 0cf0 01       		.uleb128 0x1
 3975 0cf1 9C       		.byte	0x9c
 3976 0cf2 0B0D0000 		.4byte	0xd0b
 3977 0cf6 0D       		.uleb128 0xd
 3978 0cf7 0A000000 		.4byte	.LVL80
 3979 0cfb 09150000 		.4byte	0x1509
ARM GAS  C:\Users\d3bug\AppData\Local\Temp\ccQAmDn0.s 			page 87


 3980 0cff 0C       		.uleb128 0xc
 3981 0d00 01       		.uleb128 0x1
 3982 0d01 50       		.byte	0x50
 3983 0d02 01       		.uleb128 0x1
 3984 0d03 4D       		.byte	0x4d
 3985 0d04 0C       		.uleb128 0xc
 3986 0d05 01       		.uleb128 0x1
 3987 0d06 51       		.byte	0x51
 3988 0d07 01       		.uleb128 0x1
 3989 0d08 32       		.byte	0x32
 3990 0d09 00       		.byte	0
 3991 0d0a 00       		.byte	0
 3992 0d0b 12       		.uleb128 0x12
 3993 0d0c 2C0F0000 		.4byte	.LASF185
 3994 0d10 01       		.byte	0x1
 3995 0d11 1B02     		.2byte	0x21b
 3996 0d13 00000000 		.4byte	.LFB34
 3997 0d17 0C000000 		.4byte	.LFE34-.LFB34
 3998 0d1b 01       		.uleb128 0x1
 3999 0d1c 9C       		.byte	0x9c
 4000 0d1d 360D0000 		.4byte	0xd36
 4001 0d21 0D       		.uleb128 0xd
 4002 0d22 0A000000 		.4byte	.LVL81
 4003 0d26 1F150000 		.4byte	0x151f
 4004 0d2a 0C       		.uleb128 0xc
 4005 0d2b 01       		.uleb128 0x1
 4006 0d2c 50       		.byte	0x50
 4007 0d2d 01       		.uleb128 0x1
 4008 0d2e 4D       		.byte	0x4d
 4009 0d2f 0C       		.uleb128 0xc
 4010 0d30 01       		.uleb128 0x1
 4011 0d31 51       		.byte	0x51
 4012 0d32 01       		.uleb128 0x1
 4013 0d33 32       		.byte	0x32
 4014 0d34 00       		.byte	0
 4015 0d35 00       		.byte	0
 4016 0d36 12       		.uleb128 0x12
 4017 0d37 050F0000 		.4byte	.LASF186
 4018 0d3b 01       		.byte	0x1
 4019 0d3c 2302     		.2byte	0x223
 4020 0d3e 00000000 		.4byte	.LFB35
 4021 0d42 0C000000 		.4byte	.LFE35-.LFB35
 4022 0d46 01       		.uleb128 0x1
 4023 0d47 9C       		.byte	0x9c
 4024 0d48 610D0000 		.4byte	0xd61
 4025 0d4c 0D       		.uleb128 0xd
 4026 0d4d 0A000000 		.4byte	.LVL82
 4027 0d51 09150000 		.4byte	0x1509
 4028 0d55 0C       		.uleb128 0xc
 4029 0d56 01       		.uleb128 0x1
 4030 0d57 50       		.byte	0x50
 4031 0d58 01       		.uleb128 0x1
 4032 0d59 4D       		.byte	0x4d
 4033 0d5a 0C       		.uleb128 0xc
 4034 0d5b 01       		.uleb128 0x1
 4035 0d5c 51       		.byte	0x51
 4036 0d5d 01       		.uleb128 0x1
ARM GAS  C:\Users\d3bug\AppData\Local\Temp\ccQAmDn0.s 			page 88


 4037 0d5e 31       		.byte	0x31
 4038 0d5f 00       		.byte	0
 4039 0d60 00       		.byte	0
 4040 0d61 12       		.uleb128 0x12
 4041 0d62 96120000 		.4byte	.LASF187
 4042 0d66 01       		.byte	0x1
 4043 0d67 2B02     		.2byte	0x22b
 4044 0d69 00000000 		.4byte	.LFB36
 4045 0d6d 0C000000 		.4byte	.LFE36-.LFB36
 4046 0d71 01       		.uleb128 0x1
 4047 0d72 9C       		.byte	0x9c
 4048 0d73 8C0D0000 		.4byte	0xd8c
 4049 0d77 0D       		.uleb128 0xd
 4050 0d78 0A000000 		.4byte	.LVL83
 4051 0d7c 1F150000 		.4byte	0x151f
 4052 0d80 0C       		.uleb128 0xc
 4053 0d81 01       		.uleb128 0x1
 4054 0d82 50       		.byte	0x50
 4055 0d83 01       		.uleb128 0x1
 4056 0d84 4D       		.byte	0x4d
 4057 0d85 0C       		.uleb128 0xc
 4058 0d86 01       		.uleb128 0x1
 4059 0d87 51       		.byte	0x51
 4060 0d88 01       		.uleb128 0x1
 4061 0d89 31       		.byte	0x31
 4062 0d8a 00       		.byte	0
 4063 0d8b 00       		.byte	0
 4064 0d8c 12       		.uleb128 0x12
 4065 0d8d A30A0000 		.4byte	.LASF188
 4066 0d91 01       		.byte	0x1
 4067 0d92 3302     		.2byte	0x233
 4068 0d94 00000000 		.4byte	.LFB37
 4069 0d98 0C000000 		.4byte	.LFE37-.LFB37
 4070 0d9c 01       		.uleb128 0x1
 4071 0d9d 9C       		.byte	0x9c
 4072 0d9e B70D0000 		.4byte	0xdb7
 4073 0da2 0D       		.uleb128 0xd
 4074 0da3 0A000000 		.4byte	.LVL84
 4075 0da7 09150000 		.4byte	0x1509
 4076 0dab 0C       		.uleb128 0xc
 4077 0dac 01       		.uleb128 0x1
 4078 0dad 50       		.byte	0x50
 4079 0dae 01       		.uleb128 0x1
 4080 0daf 4D       		.byte	0x4d
 4081 0db0 0C       		.uleb128 0xc
 4082 0db1 01       		.uleb128 0x1
 4083 0db2 51       		.byte	0x51
 4084 0db3 01       		.uleb128 0x1
 4085 0db4 30       		.byte	0x30
 4086 0db5 00       		.byte	0
 4087 0db6 00       		.byte	0
 4088 0db7 12       		.uleb128 0x12
 4089 0db8 CA0D0000 		.4byte	.LASF189
 4090 0dbc 01       		.byte	0x1
 4091 0dbd 3B02     		.2byte	0x23b
 4092 0dbf 00000000 		.4byte	.LFB38
 4093 0dc3 0C000000 		.4byte	.LFE38-.LFB38
ARM GAS  C:\Users\d3bug\AppData\Local\Temp\ccQAmDn0.s 			page 89


 4094 0dc7 01       		.uleb128 0x1
 4095 0dc8 9C       		.byte	0x9c
 4096 0dc9 E20D0000 		.4byte	0xde2
 4097 0dcd 0D       		.uleb128 0xd
 4098 0dce 0A000000 		.4byte	.LVL85
 4099 0dd2 1F150000 		.4byte	0x151f
 4100 0dd6 0C       		.uleb128 0xc
 4101 0dd7 01       		.uleb128 0x1
 4102 0dd8 50       		.byte	0x50
 4103 0dd9 01       		.uleb128 0x1
 4104 0dda 4D       		.byte	0x4d
 4105 0ddb 0C       		.uleb128 0xc
 4106 0ddc 01       		.uleb128 0x1
 4107 0ddd 51       		.byte	0x51
 4108 0dde 01       		.uleb128 0x1
 4109 0ddf 30       		.byte	0x30
 4110 0de0 00       		.byte	0
 4111 0de1 00       		.byte	0
 4112 0de2 12       		.uleb128 0x12
 4113 0de3 AB040000 		.4byte	.LASF190
 4114 0de7 01       		.byte	0x1
 4115 0de8 4602     		.2byte	0x246
 4116 0dea 00000000 		.4byte	.LFB39
 4117 0dee 0A000000 		.4byte	.LFE39-.LFB39
 4118 0df2 01       		.uleb128 0x1
 4119 0df3 9C       		.byte	0x9c
 4120 0df4 080E0000 		.4byte	0xe08
 4121 0df8 0D       		.uleb128 0xd
 4122 0df9 08000000 		.4byte	.LVL86
 4123 0dfd 4B150000 		.4byte	0x154b
 4124 0e01 0C       		.uleb128 0xc
 4125 0e02 01       		.uleb128 0x1
 4126 0e03 50       		.byte	0x50
 4127 0e04 01       		.uleb128 0x1
 4128 0e05 31       		.byte	0x31
 4129 0e06 00       		.byte	0
 4130 0e07 00       		.byte	0
 4131 0e08 0A       		.uleb128 0xa
 4132 0e09 1B110000 		.4byte	.LASF191
 4133 0e0d 01       		.byte	0x1
 4134 0e0e DA       		.byte	0xda
 4135 0e0f 00000000 		.4byte	.LFB13
 4136 0e13 10000000 		.4byte	.LFE13-.LFB13
 4137 0e17 01       		.uleb128 0x1
 4138 0e18 9C       		.byte	0x9c
 4139 0e19 3B0E0000 		.4byte	0xe3b
 4140 0e1d 10       		.uleb128 0x10
 4141 0e1e 06000000 		.4byte	.LVL87
 4142 0e22 E20D0000 		.4byte	0xde2
 4143 0e26 0D       		.uleb128 0xd
 4144 0e27 0E000000 		.4byte	.LVL88
 4145 0e2b 09150000 		.4byte	0x1509
 4146 0e2f 0C       		.uleb128 0xc
 4147 0e30 01       		.uleb128 0x1
 4148 0e31 50       		.byte	0x50
 4149 0e32 01       		.uleb128 0x1
 4150 0e33 30       		.byte	0x30
ARM GAS  C:\Users\d3bug\AppData\Local\Temp\ccQAmDn0.s 			page 90


 4151 0e34 0C       		.uleb128 0xc
 4152 0e35 01       		.uleb128 0x1
 4153 0e36 51       		.byte	0x51
 4154 0e37 01       		.uleb128 0x1
 4155 0e38 31       		.byte	0x31
 4156 0e39 00       		.byte	0
 4157 0e3a 00       		.byte	0
 4158 0e3b 12       		.uleb128 0x12
 4159 0e3c 100D0000 		.4byte	.LASF192
 4160 0e40 01       		.byte	0x1
 4161 0e41 5102     		.2byte	0x251
 4162 0e43 00000000 		.4byte	.LFB40
 4163 0e47 0A000000 		.4byte	.LFE40-.LFB40
 4164 0e4b 01       		.uleb128 0x1
 4165 0e4c 9C       		.byte	0x9c
 4166 0e4d 610E0000 		.4byte	0xe61
 4167 0e51 0D       		.uleb128 0xd
 4168 0e52 08000000 		.4byte	.LVL89
 4169 0e56 4B150000 		.4byte	0x154b
 4170 0e5a 0C       		.uleb128 0xc
 4171 0e5b 01       		.uleb128 0x1
 4172 0e5c 50       		.byte	0x50
 4173 0e5d 01       		.uleb128 0x1
 4174 0e5e 30       		.byte	0x30
 4175 0e5f 00       		.byte	0
 4176 0e60 00       		.byte	0
 4177 0e61 0A       		.uleb128 0xa
 4178 0e62 01010000 		.4byte	.LASF193
 4179 0e66 01       		.byte	0x1
 4180 0e67 CB       		.byte	0xcb
 4181 0e68 00000000 		.4byte	.LFB12
 4182 0e6c 10000000 		.4byte	.LFE12-.LFB12
 4183 0e70 01       		.uleb128 0x1
 4184 0e71 9C       		.byte	0x9c
 4185 0e72 940E0000 		.4byte	0xe94
 4186 0e76 10       		.uleb128 0x10
 4187 0e77 06000000 		.4byte	.LVL90
 4188 0e7b 3B0E0000 		.4byte	0xe3b
 4189 0e7f 0D       		.uleb128 0xd
 4190 0e80 0E000000 		.4byte	.LVL91
 4191 0e84 09150000 		.4byte	0x1509
 4192 0e88 0C       		.uleb128 0xc
 4193 0e89 01       		.uleb128 0x1
 4194 0e8a 50       		.byte	0x50
 4195 0e8b 01       		.uleb128 0x1
 4196 0e8c 30       		.byte	0x30
 4197 0e8d 0C       		.uleb128 0xc
 4198 0e8e 01       		.uleb128 0x1
 4199 0e8f 51       		.byte	0x51
 4200 0e90 01       		.uleb128 0x1
 4201 0e91 32       		.byte	0x32
 4202 0e92 00       		.byte	0
 4203 0e93 00       		.byte	0
 4204 0e94 0A       		.uleb128 0xa
 4205 0e95 3C010000 		.4byte	.LASF194
 4206 0e99 01       		.byte	0x1
 4207 0e9a 86       		.byte	0x86
ARM GAS  C:\Users\d3bug\AppData\Local\Temp\ccQAmDn0.s 			page 91


 4208 0e9b 00000000 		.4byte	.LFB6
 4209 0e9f 08000000 		.4byte	.LFE6-.LFB6
 4210 0ea3 01       		.uleb128 0x1
 4211 0ea4 9C       		.byte	0x9c
 4212 0ea5 B30E0000 		.4byte	0xeb3
 4213 0ea9 10       		.uleb128 0x10
 4214 0eaa 06000000 		.4byte	.LVL92
 4215 0eae 610E0000 		.4byte	0xe61
 4216 0eb2 00       		.byte	0
 4217 0eb3 12       		.uleb128 0x12
 4218 0eb4 7A0D0000 		.4byte	.LASF195
 4219 0eb8 01       		.byte	0x1
 4220 0eb9 5C02     		.2byte	0x25c
 4221 0ebb 00000000 		.4byte	.LFB41
 4222 0ebf 16000000 		.4byte	.LFE41-.LFB41
 4223 0ec3 01       		.uleb128 0x1
 4224 0ec4 9C       		.byte	0x9c
 4225 0ec5 FF0E0000 		.4byte	0xeff
 4226 0ec9 0B       		.uleb128 0xb
 4227 0eca 08000000 		.4byte	.LVL93
 4228 0ece 4B150000 		.4byte	0x154b
 4229 0ed2 DC0E0000 		.4byte	0xedc
 4230 0ed6 0C       		.uleb128 0xc
 4231 0ed7 01       		.uleb128 0x1
 4232 0ed8 50       		.byte	0x50
 4233 0ed9 01       		.uleb128 0x1
 4234 0eda 31       		.byte	0x31
 4235 0edb 00       		.byte	0
 4236 0edc 0B       		.uleb128 0xb
 4237 0edd 0E000000 		.4byte	.LVL94
 4238 0ee1 56150000 		.4byte	0x1556
 4239 0ee5 EF0E0000 		.4byte	0xeef
 4240 0ee9 0C       		.uleb128 0xc
 4241 0eea 01       		.uleb128 0x1
 4242 0eeb 50       		.byte	0x50
 4243 0eec 01       		.uleb128 0x1
 4244 0eed 3F       		.byte	0x3f
 4245 0eee 00       		.byte	0
 4246 0eef 0D       		.uleb128 0xd
 4247 0ef0 14000000 		.4byte	.LVL95
 4248 0ef4 4B150000 		.4byte	0x154b
 4249 0ef8 0C       		.uleb128 0xc
 4250 0ef9 01       		.uleb128 0x1
 4251 0efa 50       		.byte	0x50
 4252 0efb 01       		.uleb128 0x1
 4253 0efc 30       		.byte	0x30
 4254 0efd 00       		.byte	0
 4255 0efe 00       		.byte	0
 4256 0eff 12       		.uleb128 0x12
 4257 0f00 FA010000 		.4byte	.LASF196
 4258 0f04 01       		.byte	0x1
 4259 0f05 DA01     		.2byte	0x1da
 4260 0f07 00000000 		.4byte	.LFB28
 4261 0f0b 0C000000 		.4byte	.LFE28-.LFB28
 4262 0f0f 01       		.uleb128 0x1
 4263 0f10 9C       		.byte	0x9c
 4264 0f11 280F0000 		.4byte	0xf28
ARM GAS  C:\Users\d3bug\AppData\Local\Temp\ccQAmDn0.s 			page 92


 4265 0f15 10       		.uleb128 0x10
 4266 0f16 06000000 		.4byte	.LVL96
 4267 0f1a 61150000 		.4byte	0x1561
 4268 0f1e 10       		.uleb128 0x10
 4269 0f1f 0A000000 		.4byte	.LVL97
 4270 0f23 B30E0000 		.4byte	0xeb3
 4271 0f27 00       		.byte	0
 4272 0f28 14       		.uleb128 0x14
 4273 0f29 AD020000 		.4byte	.LASF197
 4274 0f2d 01       		.byte	0x1
 4275 0f2e 6802     		.2byte	0x268
 4276 0f30 76000000 		.4byte	0x76
 4277 0f34 00000000 		.4byte	.LFB42
 4278 0f38 08000000 		.4byte	.LFE42-.LFB42
 4279 0f3c 01       		.uleb128 0x1
 4280 0f3d 9C       		.byte	0x9c
 4281 0f3e 4C0F0000 		.4byte	0xf4c
 4282 0f42 10       		.uleb128 0x10
 4283 0f43 06000000 		.4byte	.LVL98
 4284 0f47 6C150000 		.4byte	0x156c
 4285 0f4b 00       		.byte	0
 4286 0f4c 14       		.uleb128 0x14
 4287 0f4d 25080000 		.4byte	.LASF198
 4288 0f51 01       		.byte	0x1
 4289 0f52 7202     		.2byte	0x272
 4290 0f54 76000000 		.4byte	0x76
 4291 0f58 00000000 		.4byte	.LFB43
 4292 0f5c 18000000 		.4byte	.LFE43-.LFB43
 4293 0f60 01       		.uleb128 0x1
 4294 0f61 9C       		.byte	0x9c
 4295 0f62 900F0000 		.4byte	0xf90
 4296 0f66 15       		.uleb128 0x15
 4297 0f67 4B0A0000 		.4byte	.LASF199
 4298 0f6b 01       		.byte	0x1
 4299 0f6c 7402     		.2byte	0x274
 4300 0f6e 76000000 		.4byte	0x76
 4301 0f72 02       		.uleb128 0x2
 4302 0f73 91       		.byte	0x91
 4303 0f74 77       		.sleb128 -9
 4304 0f75 0D       		.uleb128 0xd
 4305 0f76 12000000 		.4byte	.LVL99
 4306 0f7a 40150000 		.4byte	0x1540
 4307 0f7e 0C       		.uleb128 0xc
 4308 0f7f 01       		.uleb128 0x1
 4309 0f80 50       		.byte	0x50
 4310 0f81 01       		.uleb128 0x1
 4311 0f82 47       		.byte	0x47
 4312 0f83 0C       		.uleb128 0xc
 4313 0f84 01       		.uleb128 0x1
 4314 0f85 51       		.byte	0x51
 4315 0f86 02       		.uleb128 0x2
 4316 0f87 74       		.byte	0x74
 4317 0f88 00       		.sleb128 0
 4318 0f89 0C       		.uleb128 0xc
 4319 0f8a 01       		.uleb128 0x1
 4320 0f8b 52       		.byte	0x52
 4321 0f8c 01       		.uleb128 0x1
ARM GAS  C:\Users\d3bug\AppData\Local\Temp\ccQAmDn0.s 			page 93


 4322 0f8d 31       		.byte	0x31
 4323 0f8e 00       		.byte	0
 4324 0f8f 00       		.byte	0
 4325 0f90 14       		.uleb128 0x14
 4326 0f91 41030000 		.4byte	.LASF200
 4327 0f95 01       		.byte	0x1
 4328 0f96 7E02     		.2byte	0x27e
 4329 0f98 76000000 		.4byte	0x76
 4330 0f9c 00000000 		.4byte	.LFB44
 4331 0fa0 1C000000 		.4byte	.LFE44-.LFB44
 4332 0fa4 01       		.uleb128 0x1
 4333 0fa5 9C       		.byte	0x9c
 4334 0fa6 D40F0000 		.4byte	0xfd4
 4335 0faa 15       		.uleb128 0x15
 4336 0fab 61040000 		.4byte	.LASF201
 4337 0faf 01       		.byte	0x1
 4338 0fb0 8002     		.2byte	0x280
 4339 0fb2 76000000 		.4byte	0x76
 4340 0fb6 02       		.uleb128 0x2
 4341 0fb7 91       		.byte	0x91
 4342 0fb8 77       		.sleb128 -9
 4343 0fb9 0D       		.uleb128 0xd
 4344 0fba 12000000 		.4byte	.LVL100
 4345 0fbe 40150000 		.4byte	0x1540
 4346 0fc2 0C       		.uleb128 0xc
 4347 0fc3 01       		.uleb128 0x1
 4348 0fc4 50       		.byte	0x50
 4349 0fc5 01       		.uleb128 0x1
 4350 0fc6 38       		.byte	0x38
 4351 0fc7 0C       		.uleb128 0xc
 4352 0fc8 01       		.uleb128 0x1
 4353 0fc9 51       		.byte	0x51
 4354 0fca 02       		.uleb128 0x2
 4355 0fcb 74       		.byte	0x74
 4356 0fcc 00       		.sleb128 0
 4357 0fcd 0C       		.uleb128 0xc
 4358 0fce 01       		.uleb128 0x1
 4359 0fcf 52       		.byte	0x52
 4360 0fd0 01       		.uleb128 0x1
 4361 0fd1 31       		.byte	0x31
 4362 0fd2 00       		.byte	0
 4363 0fd3 00       		.byte	0
 4364 0fd4 14       		.uleb128 0x14
 4365 0fd5 E0090000 		.4byte	.LASF202
 4366 0fd9 01       		.byte	0x1
 4367 0fda 8A02     		.2byte	0x28a
 4368 0fdc 76000000 		.4byte	0x76
 4369 0fe0 00000000 		.4byte	.LFB45
 4370 0fe4 1E000000 		.4byte	.LFE45-.LFB45
 4371 0fe8 01       		.uleb128 0x1
 4372 0fe9 9C       		.byte	0x9c
 4373 0fea 19100000 		.4byte	0x1019
 4374 0fee 18       		.uleb128 0x18
 4375 0fef 81130000 		.4byte	.LASF203
 4376 0ff3 01       		.byte	0x1
 4377 0ff4 8C02     		.2byte	0x28c
 4378 0ff6 76000000 		.4byte	0x76
ARM GAS  C:\Users\d3bug\AppData\Local\Temp\ccQAmDn0.s 			page 94


 4379 0ffa 6A030000 		.4byte	.LLST20
 4380 0ffe 0D       		.uleb128 0xd
 4381 0fff 12000000 		.4byte	.LVL101
 4382 1003 40150000 		.4byte	0x1540
 4383 1007 0C       		.uleb128 0xc
 4384 1008 01       		.uleb128 0x1
 4385 1009 50       		.byte	0x50
 4386 100a 01       		.uleb128 0x1
 4387 100b 38       		.byte	0x38
 4388 100c 0C       		.uleb128 0xc
 4389 100d 01       		.uleb128 0x1
 4390 100e 51       		.byte	0x51
 4391 100f 02       		.uleb128 0x2
 4392 1010 74       		.byte	0x74
 4393 1011 00       		.sleb128 0
 4394 1012 0C       		.uleb128 0xc
 4395 1013 01       		.uleb128 0x1
 4396 1014 52       		.byte	0x52
 4397 1015 01       		.uleb128 0x1
 4398 1016 31       		.byte	0x31
 4399 1017 00       		.byte	0
 4400 1018 00       		.byte	0
 4401 1019 12       		.uleb128 0x12
 4402 101a 1D030000 		.4byte	.LASF204
 4403 101e 01       		.byte	0x1
 4404 101f 9802     		.2byte	0x298
 4405 1021 00000000 		.4byte	.LFB46
 4406 1025 12000000 		.4byte	.LFE46-.LFB46
 4407 1029 01       		.uleb128 0x1
 4408 102a 9C       		.byte	0x9c
 4409 102b 59100000 		.4byte	0x1059
 4410 102f 13       		.uleb128 0x13
 4411 1030 54120000 		.4byte	.LASF205
 4412 1034 01       		.byte	0x1
 4413 1035 9802     		.2byte	0x298
 4414 1037 C2090000 		.4byte	0x9c2
 4415 103b A9030000 		.4byte	.LLST21
 4416 103f 13       		.uleb128 0x13
 4417 1040 80040000 		.4byte	.LASF179
 4418 1044 01       		.byte	0x1
 4419 1045 9802     		.2byte	0x298
 4420 1047 96000000 		.4byte	0x96
 4421 104b CA030000 		.4byte	.LLST22
 4422 104f 10       		.uleb128 0x10
 4423 1050 10000000 		.4byte	.LVL107
 4424 1054 77150000 		.4byte	0x1577
 4425 1058 00       		.byte	0
 4426 1059 12       		.uleb128 0x12
 4427 105a 32030000 		.4byte	.LASF206
 4428 105e 01       		.byte	0x1
 4429 105f AB02     		.2byte	0x2ab
 4430 1061 00000000 		.4byte	.LFB47
 4431 1065 16000000 		.4byte	.LFE47-.LFB47
 4432 1069 01       		.uleb128 0x1
 4433 106a 9C       		.byte	0x9c
 4434 106b A2100000 		.4byte	0x10a2
 4435 106f 13       		.uleb128 0x13
ARM GAS  C:\Users\d3bug\AppData\Local\Temp\ccQAmDn0.s 			page 95


 4436 1070 54120000 		.4byte	.LASF205
 4437 1074 01       		.byte	0x1
 4438 1075 AB02     		.2byte	0x2ab
 4439 1077 C2090000 		.4byte	0x9c2
 4440 107b E8030000 		.4byte	.LLST23
 4441 107f 13       		.uleb128 0x13
 4442 1080 80040000 		.4byte	.LASF179
 4443 1084 01       		.byte	0x1
 4444 1085 AB02     		.2byte	0x2ab
 4445 1087 96000000 		.4byte	0x96
 4446 108b 09040000 		.4byte	.LLST24
 4447 108f 10       		.uleb128 0x10
 4448 1090 10000000 		.4byte	.LVL110
 4449 1094 19100000 		.4byte	0x1019
 4450 1098 10       		.uleb128 0x10
 4451 1099 14000000 		.4byte	.LVL111
 4452 109d B30E0000 		.4byte	0xeb3
 4453 10a1 00       		.byte	0
 4454 10a2 14       		.uleb128 0x14
 4455 10a3 7F080000 		.4byte	.LASF207
 4456 10a7 01       		.byte	0x1
 4457 10a8 BE02     		.2byte	0x2be
 4458 10aa C6100000 		.4byte	0x10c6
 4459 10ae 00000000 		.4byte	.LFB48
 4460 10b2 0E000000 		.4byte	.LFE48-.LFB48
 4461 10b6 01       		.uleb128 0x1
 4462 10b7 9C       		.byte	0x9c
 4463 10b8 C6100000 		.4byte	0x10c6
 4464 10bc 10       		.uleb128 0x10
 4465 10bd 06000000 		.4byte	.LVL112
 4466 10c1 280F0000 		.4byte	0xf28
 4467 10c5 00       		.byte	0
 4468 10c6 02       		.uleb128 0x2
 4469 10c7 01       		.byte	0x1
 4470 10c8 02       		.byte	0x2
 4471 10c9 8D020000 		.4byte	.LASF208
 4472 10cd 12       		.uleb128 0x12
 4473 10ce 8F0D0000 		.4byte	.LASF209
 4474 10d2 01       		.byte	0x1
 4475 10d3 C902     		.2byte	0x2c9
 4476 10d5 00000000 		.4byte	.LFB49
 4477 10d9 20000000 		.4byte	.LFE49-.LFB49
 4478 10dd 01       		.uleb128 0x1
 4479 10de 9C       		.byte	0x9c
 4480 10df 40110000 		.4byte	0x1140
 4481 10e3 13       		.uleb128 0x13
 4482 10e4 54120000 		.4byte	.LASF205
 4483 10e8 01       		.byte	0x1
 4484 10e9 C902     		.2byte	0x2c9
 4485 10eb 6B0A0000 		.4byte	0xa6b
 4486 10ef 27040000 		.4byte	.LLST25
 4487 10f3 13       		.uleb128 0x13
 4488 10f4 80040000 		.4byte	.LASF179
 4489 10f8 01       		.byte	0x1
 4490 10f9 C902     		.2byte	0x2c9
 4491 10fb 40110000 		.4byte	0x1140
 4492 10ff 53040000 		.4byte	.LLST26
ARM GAS  C:\Users\d3bug\AppData\Local\Temp\ccQAmDn0.s 			page 96


 4493 1103 0B       		.uleb128 0xb
 4494 1104 10000000 		.4byte	.LVL115
 4495 1108 4B150000 		.4byte	0x154b
 4496 110c 16110000 		.4byte	0x1116
 4497 1110 0C       		.uleb128 0xc
 4498 1111 01       		.uleb128 0x1
 4499 1112 50       		.byte	0x50
 4500 1113 01       		.uleb128 0x1
 4501 1114 30       		.byte	0x30
 4502 1115 00       		.byte	0
 4503 1116 0B       		.uleb128 0xb
 4504 1117 18000000 		.4byte	.LVL116
 4505 111b 82150000 		.4byte	0x1582
 4506 111f 30110000 		.4byte	0x1130
 4507 1123 0C       		.uleb128 0xc
 4508 1124 01       		.uleb128 0x1
 4509 1125 50       		.byte	0x50
 4510 1126 02       		.uleb128 0x2
 4511 1127 74       		.byte	0x74
 4512 1128 00       		.sleb128 0
 4513 1129 0C       		.uleb128 0xc
 4514 112a 01       		.uleb128 0x1
 4515 112b 51       		.byte	0x51
 4516 112c 02       		.uleb128 0x2
 4517 112d 75       		.byte	0x75
 4518 112e 00       		.sleb128 0
 4519 112f 00       		.byte	0
 4520 1130 0D       		.uleb128 0xd
 4521 1131 1E000000 		.4byte	.LVL117
 4522 1135 4B150000 		.4byte	0x154b
 4523 1139 0C       		.uleb128 0xc
 4524 113a 01       		.uleb128 0x1
 4525 113b 50       		.byte	0x50
 4526 113c 01       		.uleb128 0x1
 4527 113d 31       		.byte	0x31
 4528 113e 00       		.byte	0
 4529 113f 00       		.byte	0
 4530 1140 11       		.uleb128 0x11
 4531 1141 96000000 		.4byte	0x96
 4532 1145 12       		.uleb128 0x12
 4533 1146 8A0A0000 		.4byte	.LASF210
 4534 114a 01       		.byte	0x1
 4535 114b DA02     		.2byte	0x2da
 4536 114d 00000000 		.4byte	.LFB50
 4537 1151 14000000 		.4byte	.LFE50-.LFB50
 4538 1155 01       		.uleb128 0x1
 4539 1156 9C       		.byte	0x9c
 4540 1157 A1110000 		.4byte	0x11a1
 4541 115b 13       		.uleb128 0x13
 4542 115c 54120000 		.4byte	.LASF205
 4543 1160 01       		.byte	0x1
 4544 1161 DA02     		.2byte	0x2da
 4545 1163 C2090000 		.4byte	0x9c2
 4546 1167 7F040000 		.4byte	.LLST27
 4547 116b 13       		.uleb128 0x13
 4548 116c 80040000 		.4byte	.LASF179
 4549 1170 01       		.byte	0x1
ARM GAS  C:\Users\d3bug\AppData\Local\Temp\ccQAmDn0.s 			page 97


 4550 1171 DA02     		.2byte	0x2da
 4551 1173 96000000 		.4byte	0x96
 4552 1177 A0040000 		.4byte	.LLST28
 4553 117b 0B       		.uleb128 0xb
 4554 117c 0E000000 		.4byte	.LVL121
 4555 1180 8D150000 		.4byte	0x158d
 4556 1184 97110000 		.4byte	0x1197
 4557 1188 0C       		.uleb128 0xc
 4558 1189 01       		.uleb128 0x1
 4559 118a 50       		.byte	0x50
 4560 118b 03       		.uleb128 0x3
 4561 118c F3       		.byte	0xf3
 4562 118d 01       		.uleb128 0x1
 4563 118e 50       		.byte	0x50
 4564 118f 0C       		.uleb128 0xc
 4565 1190 01       		.uleb128 0x1
 4566 1191 51       		.byte	0x51
 4567 1192 03       		.uleb128 0x3
 4568 1193 F3       		.byte	0xf3
 4569 1194 01       		.uleb128 0x1
 4570 1195 51       		.byte	0x51
 4571 1196 00       		.byte	0
 4572 1197 10       		.uleb128 0x10
 4573 1198 12000000 		.4byte	.LVL122
 4574 119c B30E0000 		.4byte	0xeb3
 4575 11a0 00       		.byte	0
 4576 11a1 12       		.uleb128 0x12
 4577 11a2 DF0A0000 		.4byte	.LASF211
 4578 11a6 01       		.byte	0x1
 4579 11a7 EF02     		.2byte	0x2ef
 4580 11a9 00000000 		.4byte	.LFB51
 4581 11ad 12000000 		.4byte	.LFE51-.LFB51
 4582 11b1 01       		.uleb128 0x1
 4583 11b2 9C       		.byte	0x9c
 4584 11b3 F1110000 		.4byte	0x11f1
 4585 11b7 13       		.uleb128 0x13
 4586 11b8 F8050000 		.4byte	.LASF165
 4587 11bc 01       		.byte	0x1
 4588 11bd EF02     		.2byte	0x2ef
 4589 11bf 1F080000 		.4byte	0x81f
 4590 11c3 C1040000 		.4byte	.LLST29
 4591 11c7 13       		.uleb128 0x13
 4592 11c8 54120000 		.4byte	.LASF205
 4593 11cc 01       		.byte	0x1
 4594 11cd F002     		.2byte	0x2f0
 4595 11cf C2090000 		.4byte	0x9c2
 4596 11d3 E2040000 		.4byte	.LLST30
 4597 11d7 13       		.uleb128 0x13
 4598 11d8 80040000 		.4byte	.LASF179
 4599 11dc 01       		.byte	0x1
 4600 11dd F002     		.2byte	0x2f0
 4601 11df 96000000 		.4byte	0x96
 4602 11e3 03050000 		.4byte	.LLST31
 4603 11e7 10       		.uleb128 0x10
 4604 11e8 10000000 		.4byte	.LVL125
 4605 11ec 98150000 		.4byte	0x1598
 4606 11f0 00       		.byte	0
ARM GAS  C:\Users\d3bug\AppData\Local\Temp\ccQAmDn0.s 			page 98


 4607 11f1 14       		.uleb128 0x14
 4608 11f2 43020000 		.4byte	.LASF212
 4609 11f6 01       		.byte	0x1
 4610 11f7 0203     		.2byte	0x302
 4611 11f9 76000000 		.4byte	0x76
 4612 11fd 00000000 		.4byte	.LFB52
 4613 1201 1E000000 		.4byte	.LFE52-.LFB52
 4614 1205 01       		.uleb128 0x1
 4615 1206 9C       		.byte	0x9c
 4616 1207 35120000 		.4byte	0x1235
 4617 120b 15       		.uleb128 0x15
 4618 120c F8050000 		.4byte	.LASF165
 4619 1210 01       		.byte	0x1
 4620 1211 0403     		.2byte	0x304
 4621 1213 76000000 		.4byte	0x76
 4622 1217 02       		.uleb128 0x2
 4623 1218 91       		.byte	0x91
 4624 1219 77       		.sleb128 -9
 4625 121a 0D       		.uleb128 0xd
 4626 121b 12000000 		.4byte	.LVL126
 4627 121f 40150000 		.4byte	0x1540
 4628 1223 0C       		.uleb128 0xc
 4629 1224 01       		.uleb128 0x1
 4630 1225 50       		.byte	0x50
 4631 1226 01       		.uleb128 0x1
 4632 1227 37       		.byte	0x37
 4633 1228 0C       		.uleb128 0xc
 4634 1229 01       		.uleb128 0x1
 4635 122a 51       		.byte	0x51
 4636 122b 02       		.uleb128 0x2
 4637 122c 74       		.byte	0x74
 4638 122d 00       		.sleb128 0
 4639 122e 0C       		.uleb128 0xc
 4640 122f 01       		.uleb128 0x1
 4641 1230 52       		.byte	0x52
 4642 1231 01       		.uleb128 0x1
 4643 1232 31       		.byte	0x31
 4644 1233 00       		.byte	0
 4645 1234 00       		.byte	0
 4646 1235 14       		.uleb128 0x14
 4647 1236 F20C0000 		.4byte	.LASF213
 4648 123a 01       		.byte	0x1
 4649 123b 0E03     		.2byte	0x30e
 4650 123d 76000000 		.4byte	0x76
 4651 1241 00000000 		.4byte	.LFB53
 4652 1245 0C000000 		.4byte	.LFE53-.LFB53
 4653 1249 01       		.uleb128 0x1
 4654 124a 9C       		.byte	0x9c
 4655 124b 64120000 		.4byte	0x1264
 4656 124f 0D       		.uleb128 0xd
 4657 1250 0A000000 		.4byte	.LVL127
 4658 1254 A3150000 		.4byte	0x15a3
 4659 1258 0C       		.uleb128 0xc
 4660 1259 01       		.uleb128 0x1
 4661 125a 50       		.byte	0x50
 4662 125b 01       		.uleb128 0x1
 4663 125c 39       		.byte	0x39
ARM GAS  C:\Users\d3bug\AppData\Local\Temp\ccQAmDn0.s 			page 99


 4664 125d 0C       		.uleb128 0xc
 4665 125e 01       		.uleb128 0x1
 4666 125f 51       		.byte	0x51
 4667 1260 01       		.uleb128 0x1
 4668 1261 30       		.byte	0x30
 4669 1262 00       		.byte	0
 4670 1263 00       		.byte	0
 4671 1264 14       		.uleb128 0x14
 4672 1265 3E120000 		.4byte	.LASF214
 4673 1269 01       		.byte	0x1
 4674 126a 1703     		.2byte	0x317
 4675 126c C6100000 		.4byte	0x10c6
 4676 1270 00000000 		.4byte	.LFB54
 4677 1274 0C000000 		.4byte	.LFE54-.LFB54
 4678 1278 01       		.uleb128 0x1
 4679 1279 9C       		.byte	0x9c
 4680 127a 93120000 		.4byte	0x1293
 4681 127e 0D       		.uleb128 0xd
 4682 127f 0A000000 		.4byte	.LVL128
 4683 1283 A3150000 		.4byte	0x15a3
 4684 1287 0C       		.uleb128 0xc
 4685 1288 01       		.uleb128 0x1
 4686 1289 50       		.byte	0x50
 4687 128a 01       		.uleb128 0x1
 4688 128b 47       		.byte	0x47
 4689 128c 0C       		.uleb128 0xc
 4690 128d 01       		.uleb128 0x1
 4691 128e 51       		.byte	0x51
 4692 128f 01       		.uleb128 0x1
 4693 1290 35       		.byte	0x35
 4694 1291 00       		.byte	0
 4695 1292 00       		.byte	0
 4696 1293 14       		.uleb128 0x14
 4697 1294 85110000 		.4byte	.LASF215
 4698 1298 01       		.byte	0x1
 4699 1299 1F03     		.2byte	0x31f
 4700 129b C6100000 		.4byte	0x10c6
 4701 129f 00000000 		.4byte	.LFB55
 4702 12a3 0C000000 		.4byte	.LFE55-.LFB55
 4703 12a7 01       		.uleb128 0x1
 4704 12a8 9C       		.byte	0x9c
 4705 12a9 C2120000 		.4byte	0x12c2
 4706 12ad 0D       		.uleb128 0xd
 4707 12ae 0A000000 		.4byte	.LVL129
 4708 12b2 A3150000 		.4byte	0x15a3
 4709 12b6 0C       		.uleb128 0xc
 4710 12b7 01       		.uleb128 0x1
 4711 12b8 50       		.byte	0x50
 4712 12b9 01       		.uleb128 0x1
 4713 12ba 47       		.byte	0x47
 4714 12bb 0C       		.uleb128 0xc
 4715 12bc 01       		.uleb128 0x1
 4716 12bd 51       		.byte	0x51
 4717 12be 01       		.uleb128 0x1
 4718 12bf 30       		.byte	0x30
 4719 12c0 00       		.byte	0
 4720 12c1 00       		.byte	0
ARM GAS  C:\Users\d3bug\AppData\Local\Temp\ccQAmDn0.s 			page 100


 4721 12c2 14       		.uleb128 0x14
 4722 12c3 40080000 		.4byte	.LASF216
 4723 12c7 01       		.byte	0x1
 4724 12c8 2A03     		.2byte	0x32a
 4725 12ca C6100000 		.4byte	0x10c6
 4726 12ce 00000000 		.4byte	.LFB56
 4727 12d2 0C000000 		.4byte	.LFE56-.LFB56
 4728 12d6 01       		.uleb128 0x1
 4729 12d7 9C       		.byte	0x9c
 4730 12d8 F1120000 		.4byte	0x12f1
 4731 12dc 0D       		.uleb128 0xd
 4732 12dd 0A000000 		.4byte	.LVL130
 4733 12e1 A3150000 		.4byte	0x15a3
 4734 12e5 0C       		.uleb128 0xc
 4735 12e6 01       		.uleb128 0x1
 4736 12e7 50       		.byte	0x50
 4737 12e8 01       		.uleb128 0x1
 4738 12e9 39       		.byte	0x39
 4739 12ea 0C       		.uleb128 0xc
 4740 12eb 01       		.uleb128 0x1
 4741 12ec 51       		.byte	0x51
 4742 12ed 01       		.uleb128 0x1
 4743 12ee 30       		.byte	0x30
 4744 12ef 00       		.byte	0
 4745 12f0 00       		.byte	0
 4746 12f1 12       		.uleb128 0x12
 4747 12f2 78020000 		.4byte	.LASF217
 4748 12f6 01       		.byte	0x1
 4749 12f7 3303     		.2byte	0x333
 4750 12f9 00000000 		.4byte	.LFB57
 4751 12fd 18000000 		.4byte	.LFE57-.LFB57
 4752 1301 01       		.uleb128 0x1
 4753 1302 9C       		.byte	0x9c
 4754 1303 31130000 		.4byte	0x1331
 4755 1307 15       		.uleb128 0x15
 4756 1308 850A0000 		.4byte	.LASF218
 4757 130c 01       		.byte	0x1
 4758 130d 3503     		.2byte	0x335
 4759 130f 76000000 		.4byte	0x76
 4760 1313 02       		.uleb128 0x2
 4761 1314 91       		.byte	0x91
 4762 1315 77       		.sleb128 -9
 4763 1316 0D       		.uleb128 0xd
 4764 1317 14000000 		.4byte	.LVL131
 4765 131b FE140000 		.4byte	0x14fe
 4766 131f 0C       		.uleb128 0xc
 4767 1320 01       		.uleb128 0x1
 4768 1321 50       		.byte	0x50
 4769 1322 01       		.uleb128 0x1
 4770 1323 37       		.byte	0x37
 4771 1324 0C       		.uleb128 0xc
 4772 1325 01       		.uleb128 0x1
 4773 1326 51       		.byte	0x51
 4774 1327 02       		.uleb128 0x2
 4775 1328 7D       		.byte	0x7d
 4776 1329 07       		.sleb128 7
 4777 132a 0C       		.uleb128 0xc
ARM GAS  C:\Users\d3bug\AppData\Local\Temp\ccQAmDn0.s 			page 101


 4778 132b 01       		.uleb128 0x1
 4779 132c 52       		.byte	0x52
 4780 132d 01       		.uleb128 0x1
 4781 132e 31       		.byte	0x31
 4782 132f 00       		.byte	0
 4783 1330 00       		.byte	0
 4784 1331 0A       		.uleb128 0xa
 4785 1332 AC050000 		.4byte	.LASF219
 4786 1336 01       		.byte	0x1
 4787 1337 25       		.byte	0x25
 4788 1338 00000000 		.4byte	.LFB2
 4789 133c 30000000 		.4byte	.LFE2-.LFB2
 4790 1340 01       		.uleb128 0x1
 4791 1341 9C       		.byte	0x9c
 4792 1342 BE130000 		.4byte	0x13be
 4793 1346 0B       		.uleb128 0xb
 4794 1347 08000000 		.4byte	.LVL132
 4795 134b 14150000 		.4byte	0x1514
 4796 134f 5A130000 		.4byte	0x135a
 4797 1353 0C       		.uleb128 0xc
 4798 1354 01       		.uleb128 0x1
 4799 1355 50       		.byte	0x50
 4800 1356 02       		.uleb128 0x2
 4801 1357 08       		.byte	0x8
 4802 1358 64       		.byte	0x64
 4803 1359 00       		.byte	0
 4804 135a 10       		.uleb128 0x10
 4805 135b 0C000000 		.4byte	.LVL133
 4806 135f AE150000 		.4byte	0x15ae
 4807 1363 0B       		.uleb128 0xb
 4808 1364 12000000 		.4byte	.LVL134
 4809 1368 B9150000 		.4byte	0x15b9
 4810 136c 76130000 		.4byte	0x1376
 4811 1370 0C       		.uleb128 0xc
 4812 1371 01       		.uleb128 0x1
 4813 1372 50       		.byte	0x50
 4814 1373 01       		.uleb128 0x1
 4815 1374 31       		.byte	0x31
 4816 1375 00       		.byte	0
 4817 1376 0B       		.uleb128 0xb
 4818 1377 18000000 		.4byte	.LVL135
 4819 137b 4B150000 		.4byte	0x154b
 4820 137f 89130000 		.4byte	0x1389
 4821 1383 0C       		.uleb128 0xc
 4822 1384 01       		.uleb128 0x1
 4823 1385 50       		.byte	0x50
 4824 1386 01       		.uleb128 0x1
 4825 1387 30       		.byte	0x30
 4826 1388 00       		.byte	0
 4827 1389 10       		.uleb128 0x10
 4828 138a 1C000000 		.4byte	.LVL136
 4829 138e 2A150000 		.4byte	0x152a
 4830 1392 10       		.uleb128 0x10
 4831 1393 20000000 		.4byte	.LVL137
 4832 1397 35150000 		.4byte	0x1535
 4833 139b 10       		.uleb128 0x10
 4834 139c 24000000 		.4byte	.LVL138
ARM GAS  C:\Users\d3bug\AppData\Local\Temp\ccQAmDn0.s 			page 102


 4835 13a0 F1120000 		.4byte	0x12f1
 4836 13a4 10       		.uleb128 0x10
 4837 13a5 28000000 		.4byte	.LVL139
 4838 13a9 52050000 		.4byte	0x552
 4839 13ad 0D       		.uleb128 0xd
 4840 13ae 2E000000 		.4byte	.LVL140
 4841 13b2 56150000 		.4byte	0x1556
 4842 13b6 0C       		.uleb128 0xc
 4843 13b7 01       		.uleb128 0x1
 4844 13b8 50       		.byte	0x50
 4845 13b9 02       		.uleb128 0x2
 4846 13ba 08       		.byte	0x8
 4847 13bb 96       		.byte	0x96
 4848 13bc 00       		.byte	0
 4849 13bd 00       		.byte	0
 4850 13be 12       		.uleb128 0x12
 4851 13bf 98060000 		.4byte	.LASF220
 4852 13c3 01       		.byte	0x1
 4853 13c4 4003     		.2byte	0x340
 4854 13c6 00000000 		.4byte	.LFB58
 4855 13ca 1A000000 		.4byte	.LFE58-.LFB58
 4856 13ce 01       		.uleb128 0x1
 4857 13cf 9C       		.byte	0x9c
 4858 13d0 0E140000 		.4byte	0x140e
 4859 13d4 13       		.uleb128 0x13
 4860 13d5 6B0A0000 		.4byte	.LASF221
 4861 13d9 01       		.byte	0x1
 4862 13da 4003     		.2byte	0x340
 4863 13dc 0E140000 		.4byte	0x140e
 4864 13e0 21050000 		.4byte	.LLST32
 4865 13e4 15       		.uleb128 0x15
 4866 13e5 850A0000 		.4byte	.LASF218
 4867 13e9 01       		.byte	0x1
 4868 13ea 4203     		.2byte	0x342
 4869 13ec 76000000 		.4byte	0x76
 4870 13f0 02       		.uleb128 0x2
 4871 13f1 91       		.byte	0x91
 4872 13f2 77       		.sleb128 -9
 4873 13f3 0D       		.uleb128 0xd
 4874 13f4 16000000 		.4byte	.LVL143
 4875 13f8 FE140000 		.4byte	0x14fe
 4876 13fc 0C       		.uleb128 0xc
 4877 13fd 01       		.uleb128 0x1
 4878 13fe 50       		.byte	0x50
 4879 13ff 01       		.uleb128 0x1
 4880 1400 37       		.byte	0x37
 4881 1401 0C       		.uleb128 0xc
 4882 1402 01       		.uleb128 0x1
 4883 1403 51       		.byte	0x51
 4884 1404 02       		.uleb128 0x2
 4885 1405 7D       		.byte	0x7d
 4886 1406 07       		.sleb128 7
 4887 1407 0C       		.uleb128 0xc
 4888 1408 01       		.uleb128 0x1
 4889 1409 52       		.byte	0x52
 4890 140a 01       		.uleb128 0x1
 4891 140b 31       		.byte	0x31
ARM GAS  C:\Users\d3bug\AppData\Local\Temp\ccQAmDn0.s 			page 103


 4892 140c 00       		.byte	0
 4893 140d 00       		.byte	0
 4894 140e 11       		.uleb128 0x11
 4895 140f 55020000 		.4byte	0x255
 4896 1413 14       		.uleb128 0x14
 4897 1414 F20E0000 		.4byte	.LASF222
 4898 1418 01       		.byte	0x1
 4899 1419 4D03     		.2byte	0x34d
 4900 141b 55020000 		.4byte	0x255
 4901 141f 00000000 		.4byte	.LFB59
 4902 1423 28000000 		.4byte	.LFE59-.LFB59
 4903 1427 01       		.uleb128 0x1
 4904 1428 9C       		.byte	0x9c
 4905 1429 57140000 		.4byte	0x1457
 4906 142d 19       		.uleb128 0x19
 4907 142e 69727100 		.ascii	"irq\000"
 4908 1432 01       		.byte	0x1
 4909 1433 4F03     		.2byte	0x34f
 4910 1435 55020000 		.4byte	0x255
 4911 1439 42050000 		.4byte	.LLST33
 4912 143d 19       		.uleb128 0x19
 4913 143e 73747300 		.ascii	"sts\000"
 4914 1442 01       		.byte	0x1
 4915 1443 5203     		.2byte	0x352
 4916 1445 76000000 		.4byte	0x76
 4917 1449 86050000 		.4byte	.LLST34
 4918 144d 10       		.uleb128 0x10
 4919 144e 06000000 		.4byte	.LVL145
 4920 1452 6C150000 		.4byte	0x156c
 4921 1456 00       		.byte	0
 4922 1457 1A       		.uleb128 0x1a
 4923 1458 4E130000 		.4byte	.LASF223
 4924 145c 01       		.byte	0x1
 4925 145d 6703     		.2byte	0x367
 4926 145f 00000000 		.4byte	.LFB60
 4927 1463 02000000 		.4byte	.LFE60-.LFB60
 4928 1467 01       		.uleb128 0x1
 4929 1468 9C       		.byte	0x9c
 4930 1469 14       		.uleb128 0x14
 4931 146a 920B0000 		.4byte	.LASF224
 4932 146e 01       		.byte	0x1
 4933 146f 6C03     		.2byte	0x36c
 4934 1471 76000000 		.4byte	0x76
 4935 1475 00000000 		.4byte	.LFB61
 4936 1479 18000000 		.4byte	.LFE61-.LFB61
 4937 147d 01       		.uleb128 0x1
 4938 147e 9C       		.byte	0x9c
 4939 147f AD140000 		.4byte	0x14ad
 4940 1483 15       		.uleb128 0x15
 4941 1484 850A0000 		.4byte	.LASF218
 4942 1488 01       		.byte	0x1
 4943 1489 6E03     		.2byte	0x36e
 4944 148b 76000000 		.4byte	0x76
 4945 148f 02       		.uleb128 0x2
 4946 1490 91       		.byte	0x91
 4947 1491 77       		.sleb128 -9
 4948 1492 0D       		.uleb128 0xd
ARM GAS  C:\Users\d3bug\AppData\Local\Temp\ccQAmDn0.s 			page 104


 4949 1493 14000000 		.4byte	.LVL151
 4950 1497 FE140000 		.4byte	0x14fe
 4951 149b 0C       		.uleb128 0xc
 4952 149c 01       		.uleb128 0x1
 4953 149d 50       		.byte	0x50
 4954 149e 01       		.uleb128 0x1
 4955 149f 37       		.byte	0x37
 4956 14a0 0C       		.uleb128 0xc
 4957 14a1 01       		.uleb128 0x1
 4958 14a2 51       		.byte	0x51
 4959 14a3 02       		.uleb128 0x2
 4960 14a4 7D       		.byte	0x7d
 4961 14a5 07       		.sleb128 7
 4962 14a6 0C       		.uleb128 0xc
 4963 14a7 01       		.uleb128 0x1
 4964 14a8 52       		.byte	0x52
 4965 14a9 01       		.uleb128 0x1
 4966 14aa 31       		.byte	0x31
 4967 14ab 00       		.byte	0
 4968 14ac 00       		.byte	0
 4969 14ad 12       		.uleb128 0x12
 4970 14ae 6C100000 		.4byte	.LASF225
 4971 14b2 01       		.byte	0x1
 4972 14b3 7303     		.2byte	0x373
 4973 14b5 00000000 		.4byte	.LFB62
 4974 14b9 08000000 		.4byte	.LFE62-.LFB62
 4975 14bd 01       		.uleb128 0x1
 4976 14be 9C       		.byte	0x9c
 4977 14bf CD140000 		.4byte	0x14cd
 4978 14c3 10       		.uleb128 0x10
 4979 14c4 06000000 		.4byte	.LVL152
 4980 14c8 2A150000 		.4byte	0x152a
 4981 14cc 00       		.byte	0
 4982 14cd 12       		.uleb128 0x12
 4983 14ce 1A130000 		.4byte	.LASF226
 4984 14d2 01       		.byte	0x1
 4985 14d3 7803     		.2byte	0x378
 4986 14d5 00000000 		.4byte	.LFB63
 4987 14d9 08000000 		.4byte	.LFE63-.LFB63
 4988 14dd 01       		.uleb128 0x1
 4989 14de 9C       		.byte	0x9c
 4990 14df ED140000 		.4byte	0x14ed
 4991 14e3 10       		.uleb128 0x10
 4992 14e4 06000000 		.4byte	.LVL153
 4993 14e8 35150000 		.4byte	0x1535
 4994 14ec 00       		.byte	0
 4995 14ed 1B       		.uleb128 0x1b
 4996 14ee D40B0000 		.4byte	.LASF227
 4997 14f2 01       		.byte	0x1
 4998 14f3 0F       		.byte	0xf
 4999 14f4 A3030000 		.4byte	0x3a3
 5000 14f8 05       		.uleb128 0x5
 5001 14f9 03       		.byte	0x3
 5002 14fa 00000000 		.4byte	_nrf_addr_width
 5003 14fe 1C       		.uleb128 0x1c
 5004 14ff B60C0000 		.4byte	.LASF228
 5005 1503 B60C0000 		.4byte	.LASF228
ARM GAS  C:\Users\d3bug\AppData\Local\Temp\ccQAmDn0.s 			page 105


 5006 1507 06       		.byte	0x6
 5007 1508 18       		.byte	0x18
 5008 1509 1C       		.uleb128 0x1c
 5009 150a 93030000 		.4byte	.LASF229
 5010 150e 93030000 		.4byte	.LASF229
 5011 1512 06       		.byte	0x6
 5012 1513 1B       		.byte	0x1b
 5013 1514 1C       		.uleb128 0x1c
 5014 1515 00000000 		.4byte	.LASF230
 5015 1519 00000000 		.4byte	.LASF230
 5016 151d 07       		.byte	0x7
 5017 151e D9       		.byte	0xd9
 5018 151f 1C       		.uleb128 0x1c
 5019 1520 DD040000 		.4byte	.LASF231
 5020 1524 DD040000 		.4byte	.LASF231
 5021 1528 06       		.byte	0x6
 5022 1529 1A       		.byte	0x1a
 5023 152a 1C       		.uleb128 0x1c
 5024 152b 6F0E0000 		.4byte	.LASF232
 5025 152f 6F0E0000 		.4byte	.LASF232
 5026 1533 08       		.byte	0x8
 5027 1534 18       		.byte	0x18
 5028 1535 1C       		.uleb128 0x1c
 5029 1536 F7070000 		.4byte	.LASF233
 5030 153a F7070000 		.4byte	.LASF233
 5031 153e 08       		.byte	0x8
 5032 153f 19       		.byte	0x19
 5033 1540 1C       		.uleb128 0x1c
 5034 1541 84100000 		.4byte	.LASF234
 5035 1545 84100000 		.4byte	.LASF234
 5036 1549 06       		.byte	0x6
 5037 154a 17       		.byte	0x17
 5038 154b 1C       		.uleb128 0x1c
 5039 154c 1F000000 		.4byte	.LASF235
 5040 1550 1F000000 		.4byte	.LASF235
 5041 1554 06       		.byte	0x6
 5042 1555 25       		.byte	0x25
 5043 1556 1C       		.uleb128 0x1c
 5044 1557 A1040000 		.4byte	.LASF236
 5045 155b A1040000 		.4byte	.LASF236
 5046 155f 07       		.byte	0x7
 5047 1560 DA       		.byte	0xda
 5048 1561 1C       		.uleb128 0x1c
 5049 1562 490B0000 		.4byte	.LASF237
 5050 1566 490B0000 		.4byte	.LASF237
 5051 156a 08       		.byte	0x8
 5052 156b 15       		.byte	0x15
 5053 156c 1C       		.uleb128 0x1c
 5054 156d BB110000 		.4byte	.LASF238
 5055 1571 BB110000 		.4byte	.LASF238
 5056 1575 08       		.byte	0x8
 5057 1576 1D       		.byte	0x1d
 5058 1577 1C       		.uleb128 0x1c
 5059 1578 840F0000 		.4byte	.LASF239
 5060 157c 840F0000 		.4byte	.LASF239
 5061 1580 08       		.byte	0x8
 5062 1581 17       		.byte	0x17
ARM GAS  C:\Users\d3bug\AppData\Local\Temp\ccQAmDn0.s 			page 106


 5063 1582 1C       		.uleb128 0x1c
 5064 1583 01110000 		.4byte	.LASF240
 5065 1587 01110000 		.4byte	.LASF240
 5066 158b 08       		.byte	0x8
 5067 158c 16       		.byte	0x16
 5068 158d 1C       		.uleb128 0x1c
 5069 158e 5E010000 		.4byte	.LASF241
 5070 1592 5E010000 		.4byte	.LASF241
 5071 1596 08       		.byte	0x8
 5072 1597 1C       		.byte	0x1c
 5073 1598 1C       		.uleb128 0x1c
 5074 1599 B5000000 		.4byte	.LASF242
 5075 159d B5000000 		.4byte	.LASF242
 5076 15a1 08       		.byte	0x8
 5077 15a2 1B       		.byte	0x1b
 5078 15a3 1C       		.uleb128 0x1c
 5079 15a4 A4080000 		.4byte	.LASF243
 5080 15a8 A4080000 		.4byte	.LASF243
 5081 15ac 06       		.byte	0x6
 5082 15ad 19       		.byte	0x19
 5083 15ae 1C       		.uleb128 0x1c
 5084 15af F7000000 		.4byte	.LASF244
 5085 15b3 F7000000 		.4byte	.LASF244
 5086 15b7 09       		.byte	0x9
 5087 15b8 72       		.byte	0x72
 5088 15b9 1C       		.uleb128 0x1c
 5089 15ba 3A0B0000 		.4byte	.LASF245
 5090 15be 3A0B0000 		.4byte	.LASF245
 5091 15c2 06       		.byte	0x6
 5092 15c3 24       		.byte	0x24
 5093 15c4 00       		.byte	0
 5094              		.section	.debug_abbrev,"",%progbits
 5095              	.Ldebug_abbrev0:
 5096 0000 01       		.uleb128 0x1
 5097 0001 11       		.uleb128 0x11
 5098 0002 01       		.byte	0x1
 5099 0003 25       		.uleb128 0x25
 5100 0004 0E       		.uleb128 0xe
 5101 0005 13       		.uleb128 0x13
 5102 0006 0B       		.uleb128 0xb
 5103 0007 03       		.uleb128 0x3
 5104 0008 0E       		.uleb128 0xe
 5105 0009 1B       		.uleb128 0x1b
 5106 000a 0E       		.uleb128 0xe
 5107 000b 55       		.uleb128 0x55
 5108 000c 17       		.uleb128 0x17
 5109 000d 11       		.uleb128 0x11
 5110 000e 01       		.uleb128 0x1
 5111 000f 10       		.uleb128 0x10
 5112 0010 17       		.uleb128 0x17
 5113 0011 00       		.byte	0
 5114 0012 00       		.byte	0
 5115 0013 02       		.uleb128 0x2
 5116 0014 24       		.uleb128 0x24
 5117 0015 00       		.byte	0
 5118 0016 0B       		.uleb128 0xb
 5119 0017 0B       		.uleb128 0xb
ARM GAS  C:\Users\d3bug\AppData\Local\Temp\ccQAmDn0.s 			page 107


 5120 0018 3E       		.uleb128 0x3e
 5121 0019 0B       		.uleb128 0xb
 5122 001a 03       		.uleb128 0x3
 5123 001b 0E       		.uleb128 0xe
 5124 001c 00       		.byte	0
 5125 001d 00       		.byte	0
 5126 001e 03       		.uleb128 0x3
 5127 001f 16       		.uleb128 0x16
 5128 0020 00       		.byte	0
 5129 0021 03       		.uleb128 0x3
 5130 0022 0E       		.uleb128 0xe
 5131 0023 3A       		.uleb128 0x3a
 5132 0024 0B       		.uleb128 0xb
 5133 0025 3B       		.uleb128 0x3b
 5134 0026 0B       		.uleb128 0xb
 5135 0027 49       		.uleb128 0x49
 5136 0028 13       		.uleb128 0x13
 5137 0029 00       		.byte	0
 5138 002a 00       		.byte	0
 5139 002b 04       		.uleb128 0x4
 5140 002c 24       		.uleb128 0x24
 5141 002d 00       		.byte	0
 5142 002e 0B       		.uleb128 0xb
 5143 002f 0B       		.uleb128 0xb
 5144 0030 3E       		.uleb128 0x3e
 5145 0031 0B       		.uleb128 0xb
 5146 0032 03       		.uleb128 0x3
 5147 0033 08       		.uleb128 0x8
 5148 0034 00       		.byte	0
 5149 0035 00       		.byte	0
 5150 0036 05       		.uleb128 0x5
 5151 0037 04       		.uleb128 0x4
 5152 0038 01       		.byte	0x1
 5153 0039 0B       		.uleb128 0xb
 5154 003a 0B       		.uleb128 0xb
 5155 003b 49       		.uleb128 0x49
 5156 003c 13       		.uleb128 0x13
 5157 003d 3A       		.uleb128 0x3a
 5158 003e 0B       		.uleb128 0xb
 5159 003f 3B       		.uleb128 0x3b
 5160 0040 0B       		.uleb128 0xb
 5161 0041 01       		.uleb128 0x1
 5162 0042 13       		.uleb128 0x13
 5163 0043 00       		.byte	0
 5164 0044 00       		.byte	0
 5165 0045 06       		.uleb128 0x6
 5166 0046 28       		.uleb128 0x28
 5167 0047 00       		.byte	0
 5168 0048 03       		.uleb128 0x3
 5169 0049 0E       		.uleb128 0xe
 5170 004a 1C       		.uleb128 0x1c
 5171 004b 0B       		.uleb128 0xb
 5172 004c 00       		.byte	0
 5173 004d 00       		.byte	0
 5174 004e 07       		.uleb128 0x7
 5175 004f 04       		.uleb128 0x4
 5176 0050 01       		.byte	0x1
ARM GAS  C:\Users\d3bug\AppData\Local\Temp\ccQAmDn0.s 			page 108


 5177 0051 0B       		.uleb128 0xb
 5178 0052 0B       		.uleb128 0xb
 5179 0053 49       		.uleb128 0x49
 5180 0054 13       		.uleb128 0x13
 5181 0055 3A       		.uleb128 0x3a
 5182 0056 0B       		.uleb128 0xb
 5183 0057 3B       		.uleb128 0x3b
 5184 0058 05       		.uleb128 0x5
 5185 0059 01       		.uleb128 0x1
 5186 005a 13       		.uleb128 0x13
 5187 005b 00       		.byte	0
 5188 005c 00       		.byte	0
 5189 005d 08       		.uleb128 0x8
 5190 005e 2E       		.uleb128 0x2e
 5191 005f 01       		.byte	0x1
 5192 0060 03       		.uleb128 0x3
 5193 0061 0E       		.uleb128 0xe
 5194 0062 3A       		.uleb128 0x3a
 5195 0063 0B       		.uleb128 0xb
 5196 0064 3B       		.uleb128 0x3b
 5197 0065 0B       		.uleb128 0xb
 5198 0066 27       		.uleb128 0x27
 5199 0067 19       		.uleb128 0x19
 5200 0068 11       		.uleb128 0x11
 5201 0069 01       		.uleb128 0x1
 5202 006a 12       		.uleb128 0x12
 5203 006b 06       		.uleb128 0x6
 5204 006c 40       		.uleb128 0x40
 5205 006d 18       		.uleb128 0x18
 5206 006e 9742     		.uleb128 0x2117
 5207 0070 19       		.uleb128 0x19
 5208 0071 01       		.uleb128 0x1
 5209 0072 13       		.uleb128 0x13
 5210 0073 00       		.byte	0
 5211 0074 00       		.byte	0
 5212 0075 09       		.uleb128 0x9
 5213 0076 05       		.uleb128 0x5
 5214 0077 00       		.byte	0
 5215 0078 03       		.uleb128 0x3
 5216 0079 0E       		.uleb128 0xe
 5217 007a 3A       		.uleb128 0x3a
 5218 007b 0B       		.uleb128 0xb
 5219 007c 3B       		.uleb128 0x3b
 5220 007d 0B       		.uleb128 0xb
 5221 007e 49       		.uleb128 0x49
 5222 007f 13       		.uleb128 0x13
 5223 0080 02       		.uleb128 0x2
 5224 0081 18       		.uleb128 0x18
 5225 0082 00       		.byte	0
 5226 0083 00       		.byte	0
 5227 0084 0A       		.uleb128 0xa
 5228 0085 2E       		.uleb128 0x2e
 5229 0086 01       		.byte	0x1
 5230 0087 3F       		.uleb128 0x3f
 5231 0088 19       		.uleb128 0x19
 5232 0089 03       		.uleb128 0x3
 5233 008a 0E       		.uleb128 0xe
ARM GAS  C:\Users\d3bug\AppData\Local\Temp\ccQAmDn0.s 			page 109


 5234 008b 3A       		.uleb128 0x3a
 5235 008c 0B       		.uleb128 0xb
 5236 008d 3B       		.uleb128 0x3b
 5237 008e 0B       		.uleb128 0xb
 5238 008f 27       		.uleb128 0x27
 5239 0090 19       		.uleb128 0x19
 5240 0091 11       		.uleb128 0x11
 5241 0092 01       		.uleb128 0x1
 5242 0093 12       		.uleb128 0x12
 5243 0094 06       		.uleb128 0x6
 5244 0095 40       		.uleb128 0x40
 5245 0096 18       		.uleb128 0x18
 5246 0097 9742     		.uleb128 0x2117
 5247 0099 19       		.uleb128 0x19
 5248 009a 01       		.uleb128 0x1
 5249 009b 13       		.uleb128 0x13
 5250 009c 00       		.byte	0
 5251 009d 00       		.byte	0
 5252 009e 0B       		.uleb128 0xb
 5253 009f 898201   		.uleb128 0x4109
 5254 00a2 01       		.byte	0x1
 5255 00a3 11       		.uleb128 0x11
 5256 00a4 01       		.uleb128 0x1
 5257 00a5 31       		.uleb128 0x31
 5258 00a6 13       		.uleb128 0x13
 5259 00a7 01       		.uleb128 0x1
 5260 00a8 13       		.uleb128 0x13
 5261 00a9 00       		.byte	0
 5262 00aa 00       		.byte	0
 5263 00ab 0C       		.uleb128 0xc
 5264 00ac 8A8201   		.uleb128 0x410a
 5265 00af 00       		.byte	0
 5266 00b0 02       		.uleb128 0x2
 5267 00b1 18       		.uleb128 0x18
 5268 00b2 9142     		.uleb128 0x2111
 5269 00b4 18       		.uleb128 0x18
 5270 00b5 00       		.byte	0
 5271 00b6 00       		.byte	0
 5272 00b7 0D       		.uleb128 0xd
 5273 00b8 898201   		.uleb128 0x4109
 5274 00bb 01       		.byte	0x1
 5275 00bc 11       		.uleb128 0x11
 5276 00bd 01       		.uleb128 0x1
 5277 00be 31       		.uleb128 0x31
 5278 00bf 13       		.uleb128 0x13
 5279 00c0 00       		.byte	0
 5280 00c1 00       		.byte	0
 5281 00c2 0E       		.uleb128 0xe
 5282 00c3 2E       		.uleb128 0x2e
 5283 00c4 00       		.byte	0
 5284 00c5 3F       		.uleb128 0x3f
 5285 00c6 19       		.uleb128 0x19
 5286 00c7 03       		.uleb128 0x3
 5287 00c8 0E       		.uleb128 0xe
 5288 00c9 3A       		.uleb128 0x3a
 5289 00ca 0B       		.uleb128 0xb
 5290 00cb 3B       		.uleb128 0x3b
ARM GAS  C:\Users\d3bug\AppData\Local\Temp\ccQAmDn0.s 			page 110


 5291 00cc 0B       		.uleb128 0xb
 5292 00cd 27       		.uleb128 0x27
 5293 00ce 19       		.uleb128 0x19
 5294 00cf 11       		.uleb128 0x11
 5295 00d0 01       		.uleb128 0x1
 5296 00d1 12       		.uleb128 0x12
 5297 00d2 06       		.uleb128 0x6
 5298 00d3 40       		.uleb128 0x40
 5299 00d4 18       		.uleb128 0x18
 5300 00d5 9742     		.uleb128 0x2117
 5301 00d7 19       		.uleb128 0x19
 5302 00d8 00       		.byte	0
 5303 00d9 00       		.byte	0
 5304 00da 0F       		.uleb128 0xf
 5305 00db 05       		.uleb128 0x5
 5306 00dc 00       		.byte	0
 5307 00dd 03       		.uleb128 0x3
 5308 00de 0E       		.uleb128 0xe
 5309 00df 3A       		.uleb128 0x3a
 5310 00e0 0B       		.uleb128 0xb
 5311 00e1 3B       		.uleb128 0x3b
 5312 00e2 0B       		.uleb128 0xb
 5313 00e3 49       		.uleb128 0x49
 5314 00e4 13       		.uleb128 0x13
 5315 00e5 02       		.uleb128 0x2
 5316 00e6 17       		.uleb128 0x17
 5317 00e7 00       		.byte	0
 5318 00e8 00       		.byte	0
 5319 00e9 10       		.uleb128 0x10
 5320 00ea 898201   		.uleb128 0x4109
 5321 00ed 00       		.byte	0
 5322 00ee 11       		.uleb128 0x11
 5323 00ef 01       		.uleb128 0x1
 5324 00f0 31       		.uleb128 0x31
 5325 00f1 13       		.uleb128 0x13
 5326 00f2 00       		.byte	0
 5327 00f3 00       		.byte	0
 5328 00f4 11       		.uleb128 0x11
 5329 00f5 26       		.uleb128 0x26
 5330 00f6 00       		.byte	0
 5331 00f7 49       		.uleb128 0x49
 5332 00f8 13       		.uleb128 0x13
 5333 00f9 00       		.byte	0
 5334 00fa 00       		.byte	0
 5335 00fb 12       		.uleb128 0x12
 5336 00fc 2E       		.uleb128 0x2e
 5337 00fd 01       		.byte	0x1
 5338 00fe 3F       		.uleb128 0x3f
 5339 00ff 19       		.uleb128 0x19
 5340 0100 03       		.uleb128 0x3
 5341 0101 0E       		.uleb128 0xe
 5342 0102 3A       		.uleb128 0x3a
 5343 0103 0B       		.uleb128 0xb
 5344 0104 3B       		.uleb128 0x3b
 5345 0105 05       		.uleb128 0x5
 5346 0106 27       		.uleb128 0x27
 5347 0107 19       		.uleb128 0x19
ARM GAS  C:\Users\d3bug\AppData\Local\Temp\ccQAmDn0.s 			page 111


 5348 0108 11       		.uleb128 0x11
 5349 0109 01       		.uleb128 0x1
 5350 010a 12       		.uleb128 0x12
 5351 010b 06       		.uleb128 0x6
 5352 010c 40       		.uleb128 0x40
 5353 010d 18       		.uleb128 0x18
 5354 010e 9742     		.uleb128 0x2117
 5355 0110 19       		.uleb128 0x19
 5356 0111 01       		.uleb128 0x1
 5357 0112 13       		.uleb128 0x13
 5358 0113 00       		.byte	0
 5359 0114 00       		.byte	0
 5360 0115 13       		.uleb128 0x13
 5361 0116 05       		.uleb128 0x5
 5362 0117 00       		.byte	0
 5363 0118 03       		.uleb128 0x3
 5364 0119 0E       		.uleb128 0xe
 5365 011a 3A       		.uleb128 0x3a
 5366 011b 0B       		.uleb128 0xb
 5367 011c 3B       		.uleb128 0x3b
 5368 011d 05       		.uleb128 0x5
 5369 011e 49       		.uleb128 0x49
 5370 011f 13       		.uleb128 0x13
 5371 0120 02       		.uleb128 0x2
 5372 0121 17       		.uleb128 0x17
 5373 0122 00       		.byte	0
 5374 0123 00       		.byte	0
 5375 0124 14       		.uleb128 0x14
 5376 0125 2E       		.uleb128 0x2e
 5377 0126 01       		.byte	0x1
 5378 0127 3F       		.uleb128 0x3f
 5379 0128 19       		.uleb128 0x19
 5380 0129 03       		.uleb128 0x3
 5381 012a 0E       		.uleb128 0xe
 5382 012b 3A       		.uleb128 0x3a
 5383 012c 0B       		.uleb128 0xb
 5384 012d 3B       		.uleb128 0x3b
 5385 012e 05       		.uleb128 0x5
 5386 012f 27       		.uleb128 0x27
 5387 0130 19       		.uleb128 0x19
 5388 0131 49       		.uleb128 0x49
 5389 0132 13       		.uleb128 0x13
 5390 0133 11       		.uleb128 0x11
 5391 0134 01       		.uleb128 0x1
 5392 0135 12       		.uleb128 0x12
 5393 0136 06       		.uleb128 0x6
 5394 0137 40       		.uleb128 0x40
 5395 0138 18       		.uleb128 0x18
 5396 0139 9742     		.uleb128 0x2117
 5397 013b 19       		.uleb128 0x19
 5398 013c 01       		.uleb128 0x1
 5399 013d 13       		.uleb128 0x13
 5400 013e 00       		.byte	0
 5401 013f 00       		.byte	0
 5402 0140 15       		.uleb128 0x15
 5403 0141 34       		.uleb128 0x34
 5404 0142 00       		.byte	0
ARM GAS  C:\Users\d3bug\AppData\Local\Temp\ccQAmDn0.s 			page 112


 5405 0143 03       		.uleb128 0x3
 5406 0144 0E       		.uleb128 0xe
 5407 0145 3A       		.uleb128 0x3a
 5408 0146 0B       		.uleb128 0xb
 5409 0147 3B       		.uleb128 0x3b
 5410 0148 05       		.uleb128 0x5
 5411 0149 49       		.uleb128 0x49
 5412 014a 13       		.uleb128 0x13
 5413 014b 02       		.uleb128 0x2
 5414 014c 18       		.uleb128 0x18
 5415 014d 00       		.byte	0
 5416 014e 00       		.byte	0
 5417 014f 16       		.uleb128 0x16
 5418 0150 2E       		.uleb128 0x2e
 5419 0151 00       		.byte	0
 5420 0152 3F       		.uleb128 0x3f
 5421 0153 19       		.uleb128 0x19
 5422 0154 03       		.uleb128 0x3
 5423 0155 0E       		.uleb128 0xe
 5424 0156 3A       		.uleb128 0x3a
 5425 0157 0B       		.uleb128 0xb
 5426 0158 3B       		.uleb128 0x3b
 5427 0159 05       		.uleb128 0x5
 5428 015a 27       		.uleb128 0x27
 5429 015b 19       		.uleb128 0x19
 5430 015c 49       		.uleb128 0x49
 5431 015d 13       		.uleb128 0x13
 5432 015e 11       		.uleb128 0x11
 5433 015f 01       		.uleb128 0x1
 5434 0160 12       		.uleb128 0x12
 5435 0161 06       		.uleb128 0x6
 5436 0162 40       		.uleb128 0x40
 5437 0163 18       		.uleb128 0x18
 5438 0164 9742     		.uleb128 0x2117
 5439 0166 19       		.uleb128 0x19
 5440 0167 00       		.byte	0
 5441 0168 00       		.byte	0
 5442 0169 17       		.uleb128 0x17
 5443 016a 0F       		.uleb128 0xf
 5444 016b 00       		.byte	0
 5445 016c 0B       		.uleb128 0xb
 5446 016d 0B       		.uleb128 0xb
 5447 016e 49       		.uleb128 0x49
 5448 016f 13       		.uleb128 0x13
 5449 0170 00       		.byte	0
 5450 0171 00       		.byte	0
 5451 0172 18       		.uleb128 0x18
 5452 0173 34       		.uleb128 0x34
 5453 0174 00       		.byte	0
 5454 0175 03       		.uleb128 0x3
 5455 0176 0E       		.uleb128 0xe
 5456 0177 3A       		.uleb128 0x3a
 5457 0178 0B       		.uleb128 0xb
 5458 0179 3B       		.uleb128 0x3b
 5459 017a 05       		.uleb128 0x5
 5460 017b 49       		.uleb128 0x49
 5461 017c 13       		.uleb128 0x13
ARM GAS  C:\Users\d3bug\AppData\Local\Temp\ccQAmDn0.s 			page 113


 5462 017d 02       		.uleb128 0x2
 5463 017e 17       		.uleb128 0x17
 5464 017f 00       		.byte	0
 5465 0180 00       		.byte	0
 5466 0181 19       		.uleb128 0x19
 5467 0182 34       		.uleb128 0x34
 5468 0183 00       		.byte	0
 5469 0184 03       		.uleb128 0x3
 5470 0185 08       		.uleb128 0x8
 5471 0186 3A       		.uleb128 0x3a
 5472 0187 0B       		.uleb128 0xb
 5473 0188 3B       		.uleb128 0x3b
 5474 0189 05       		.uleb128 0x5
 5475 018a 49       		.uleb128 0x49
 5476 018b 13       		.uleb128 0x13
 5477 018c 02       		.uleb128 0x2
 5478 018d 17       		.uleb128 0x17
 5479 018e 00       		.byte	0
 5480 018f 00       		.byte	0
 5481 0190 1A       		.uleb128 0x1a
 5482 0191 2E       		.uleb128 0x2e
 5483 0192 00       		.byte	0
 5484 0193 3F       		.uleb128 0x3f
 5485 0194 19       		.uleb128 0x19
 5486 0195 03       		.uleb128 0x3
 5487 0196 0E       		.uleb128 0xe
 5488 0197 3A       		.uleb128 0x3a
 5489 0198 0B       		.uleb128 0xb
 5490 0199 3B       		.uleb128 0x3b
 5491 019a 05       		.uleb128 0x5
 5492 019b 27       		.uleb128 0x27
 5493 019c 19       		.uleb128 0x19
 5494 019d 11       		.uleb128 0x11
 5495 019e 01       		.uleb128 0x1
 5496 019f 12       		.uleb128 0x12
 5497 01a0 06       		.uleb128 0x6
 5498 01a1 40       		.uleb128 0x40
 5499 01a2 18       		.uleb128 0x18
 5500 01a3 9742     		.uleb128 0x2117
 5501 01a5 19       		.uleb128 0x19
 5502 01a6 00       		.byte	0
 5503 01a7 00       		.byte	0
 5504 01a8 1B       		.uleb128 0x1b
 5505 01a9 34       		.uleb128 0x34
 5506 01aa 00       		.byte	0
 5507 01ab 03       		.uleb128 0x3
 5508 01ac 0E       		.uleb128 0xe
 5509 01ad 3A       		.uleb128 0x3a
 5510 01ae 0B       		.uleb128 0xb
 5511 01af 3B       		.uleb128 0x3b
 5512 01b0 0B       		.uleb128 0xb
 5513 01b1 49       		.uleb128 0x49
 5514 01b2 13       		.uleb128 0x13
 5515 01b3 02       		.uleb128 0x2
 5516 01b4 18       		.uleb128 0x18
 5517 01b5 00       		.byte	0
 5518 01b6 00       		.byte	0
ARM GAS  C:\Users\d3bug\AppData\Local\Temp\ccQAmDn0.s 			page 114


 5519 01b7 1C       		.uleb128 0x1c
 5520 01b8 2E       		.uleb128 0x2e
 5521 01b9 00       		.byte	0
 5522 01ba 3F       		.uleb128 0x3f
 5523 01bb 19       		.uleb128 0x19
 5524 01bc 3C       		.uleb128 0x3c
 5525 01bd 19       		.uleb128 0x19
 5526 01be 6E       		.uleb128 0x6e
 5527 01bf 0E       		.uleb128 0xe
 5528 01c0 03       		.uleb128 0x3
 5529 01c1 0E       		.uleb128 0xe
 5530 01c2 3A       		.uleb128 0x3a
 5531 01c3 0B       		.uleb128 0xb
 5532 01c4 3B       		.uleb128 0x3b
 5533 01c5 0B       		.uleb128 0xb
 5534 01c6 00       		.byte	0
 5535 01c7 00       		.byte	0
 5536 01c8 00       		.byte	0
 5537              		.section	.debug_loc,"",%progbits
 5538              	.Ldebug_loc0:
 5539              	.LLST0:
 5540 0000 00000000 		.4byte	.LVL17
 5541 0004 09000000 		.4byte	.LVL18-1
 5542 0008 0100     		.2byte	0x1
 5543 000a 50       		.byte	0x50
 5544 000b 09000000 		.4byte	.LVL18-1
 5545 000f 0C000000 		.4byte	.LVL19
 5546 0013 0400     		.2byte	0x4
 5547 0015 F3       		.byte	0xf3
 5548 0016 01       		.uleb128 0x1
 5549 0017 50       		.byte	0x50
 5550 0018 9F       		.byte	0x9f
 5551 0019 0C000000 		.4byte	.LVL19
 5552 001d 0F000000 		.4byte	.LVL20-1
 5553 0021 0100     		.2byte	0x1
 5554 0023 50       		.byte	0x50
 5555 0024 0F000000 		.4byte	.LVL20-1
 5556 0028 12000000 		.4byte	.LFE10
 5557 002c 0400     		.2byte	0x4
 5558 002e F3       		.byte	0xf3
 5559 002f 01       		.uleb128 0x1
 5560 0030 50       		.byte	0x50
 5561 0031 9F       		.byte	0x9f
 5562 0032 00000000 		.4byte	0
 5563 0036 00000000 		.4byte	0
 5564              	.LLST1:
 5565 003a 00000000 		.4byte	.LVL21
 5566 003e 06000000 		.4byte	.LVL22
 5567 0042 0100     		.2byte	0x1
 5568 0044 50       		.byte	0x50
 5569 0045 06000000 		.4byte	.LVL22
 5570 0049 0C000000 		.4byte	.LFE16
 5571 004d 0400     		.2byte	0x4
 5572 004f F3       		.byte	0xf3
 5573 0050 01       		.uleb128 0x1
 5574 0051 50       		.byte	0x50
 5575 0052 9F       		.byte	0x9f
ARM GAS  C:\Users\d3bug\AppData\Local\Temp\ccQAmDn0.s 			page 115


 5576 0053 00000000 		.4byte	0
 5577 0057 00000000 		.4byte	0
 5578              	.LLST2:
 5579 005b 00000000 		.4byte	.LVL24
 5580 005f 06000000 		.4byte	.LVL25
 5581 0063 0100     		.2byte	0x1
 5582 0065 50       		.byte	0x50
 5583 0066 06000000 		.4byte	.LVL25
 5584 006a 0C000000 		.4byte	.LFE17
 5585 006e 0400     		.2byte	0x4
 5586 0070 F3       		.byte	0xf3
 5587 0071 01       		.uleb128 0x1
 5588 0072 50       		.byte	0x50
 5589 0073 9F       		.byte	0x9f
 5590 0074 00000000 		.4byte	0
 5591 0078 00000000 		.4byte	0
 5592              	.LLST3:
 5593 007c 00000000 		.4byte	.LVL27
 5594 0080 1A000000 		.4byte	.LVL28
 5595 0084 0100     		.2byte	0x1
 5596 0086 50       		.byte	0x50
 5597 0087 1A000000 		.4byte	.LVL28
 5598 008b 2A000000 		.4byte	.LFE18
 5599 008f 0400     		.2byte	0x4
 5600 0091 F3       		.byte	0xf3
 5601 0092 01       		.uleb128 0x1
 5602 0093 50       		.byte	0x50
 5603 0094 9F       		.byte	0x9f
 5604 0095 00000000 		.4byte	0
 5605 0099 00000000 		.4byte	0
 5606              	.LLST4:
 5607 009d 00000000 		.4byte	.LVL33
 5608 00a1 10000000 		.4byte	.LVL34
 5609 00a5 0100     		.2byte	0x1
 5610 00a7 50       		.byte	0x50
 5611 00a8 10000000 		.4byte	.LVL34
 5612 00ac 13000000 		.4byte	.LVL35-1
 5613 00b0 0200     		.2byte	0x2
 5614 00b2 71       		.byte	0x71
 5615 00b3 00       		.sleb128 0
 5616 00b4 13000000 		.4byte	.LVL35-1
 5617 00b8 1C000000 		.4byte	.LVL37
 5618 00bc 0200     		.2byte	0x2
 5619 00be 74       		.byte	0x74
 5620 00bf 00       		.sleb128 0
 5621 00c0 1C000000 		.4byte	.LVL37
 5622 00c4 1E000000 		.4byte	.LFE20
 5623 00c8 0200     		.2byte	0x2
 5624 00ca 91       		.byte	0x91
 5625 00cb 77       		.sleb128 -9
 5626 00cc 00000000 		.4byte	0
 5627 00d0 00000000 		.4byte	0
 5628              	.LLST5:
 5629 00d4 00000000 		.4byte	.LVL38
 5630 00d8 23000000 		.4byte	.LVL40-1
 5631 00dc 0100     		.2byte	0x1
 5632 00de 50       		.byte	0x50
ARM GAS  C:\Users\d3bug\AppData\Local\Temp\ccQAmDn0.s 			page 116


 5633 00df 23000000 		.4byte	.LVL40-1
 5634 00e3 26000000 		.4byte	.LVL41
 5635 00e7 0400     		.2byte	0x4
 5636 00e9 F3       		.byte	0xf3
 5637 00ea 01       		.uleb128 0x1
 5638 00eb 50       		.byte	0x50
 5639 00ec 9F       		.byte	0x9f
 5640 00ed 26000000 		.4byte	.LVL41
 5641 00f1 2B000000 		.4byte	.LVL43-1
 5642 00f5 0100     		.2byte	0x1
 5643 00f7 50       		.byte	0x50
 5644 00f8 2B000000 		.4byte	.LVL43-1
 5645 00fc 34000000 		.4byte	.LFE22
 5646 0100 0400     		.2byte	0x4
 5647 0102 F3       		.byte	0xf3
 5648 0103 01       		.uleb128 0x1
 5649 0104 50       		.byte	0x50
 5650 0105 9F       		.byte	0x9f
 5651 0106 00000000 		.4byte	0
 5652 010a 00000000 		.4byte	0
 5653              	.LLST6:
 5654 010e 00000000 		.4byte	.LVL38
 5655 0112 23000000 		.4byte	.LVL40-1
 5656 0116 0100     		.2byte	0x1
 5657 0118 51       		.byte	0x51
 5658 0119 23000000 		.4byte	.LVL40-1
 5659 011d 26000000 		.4byte	.LVL41
 5660 0121 0400     		.2byte	0x4
 5661 0123 F3       		.byte	0xf3
 5662 0124 01       		.uleb128 0x1
 5663 0125 51       		.byte	0x51
 5664 0126 9F       		.byte	0x9f
 5665 0127 26000000 		.4byte	.LVL41
 5666 012b 2B000000 		.4byte	.LVL43-1
 5667 012f 0100     		.2byte	0x1
 5668 0131 51       		.byte	0x51
 5669 0132 2B000000 		.4byte	.LVL43-1
 5670 0136 34000000 		.4byte	.LFE22
 5671 013a 0400     		.2byte	0x4
 5672 013c F3       		.byte	0xf3
 5673 013d 01       		.uleb128 0x1
 5674 013e 51       		.byte	0x51
 5675 013f 9F       		.byte	0x9f
 5676 0140 00000000 		.4byte	0
 5677 0144 00000000 		.4byte	0
 5678              	.LLST7:
 5679 0148 00000000 		.4byte	.LVL38
 5680 014c 1E000000 		.4byte	.LVL39
 5681 0150 0100     		.2byte	0x1
 5682 0152 52       		.byte	0x52
 5683 0153 1E000000 		.4byte	.LVL39
 5684 0157 23000000 		.4byte	.LVL40-1
 5685 015b 0100     		.2byte	0x1
 5686 015d 53       		.byte	0x53
 5687 015e 26000000 		.4byte	.LVL41
 5688 0162 28000000 		.4byte	.LVL42
 5689 0166 0100     		.2byte	0x1
ARM GAS  C:\Users\d3bug\AppData\Local\Temp\ccQAmDn0.s 			page 117


 5690 0168 52       		.byte	0x52
 5691 0169 28000000 		.4byte	.LVL42
 5692 016d 2C000000 		.4byte	.LVL43
 5693 0171 0400     		.2byte	0x4
 5694 0173 F3       		.byte	0xf3
 5695 0174 01       		.uleb128 0x1
 5696 0175 52       		.byte	0x52
 5697 0176 9F       		.byte	0x9f
 5698 0177 00000000 		.4byte	0
 5699 017b 00000000 		.4byte	0
 5700              	.LLST8:
 5701 017f 00000000 		.4byte	.LVL44
 5702 0183 26000000 		.4byte	.LVL47
 5703 0187 0100     		.2byte	0x1
 5704 0189 50       		.byte	0x50
 5705 018a 26000000 		.4byte	.LVL47
 5706 018e 2C000000 		.4byte	.LVL49
 5707 0192 0400     		.2byte	0x4
 5708 0194 F3       		.byte	0xf3
 5709 0195 01       		.uleb128 0x1
 5710 0196 50       		.byte	0x50
 5711 0197 9F       		.byte	0x9f
 5712 0198 2C000000 		.4byte	.LVL49
 5713 019c 34000000 		.4byte	.LVL51
 5714 01a0 0100     		.2byte	0x1
 5715 01a2 50       		.byte	0x50
 5716 01a3 34000000 		.4byte	.LVL51
 5717 01a7 48000000 		.4byte	.LFE23
 5718 01ab 0400     		.2byte	0x4
 5719 01ad F3       		.byte	0xf3
 5720 01ae 01       		.uleb128 0x1
 5721 01af 50       		.byte	0x50
 5722 01b0 9F       		.byte	0x9f
 5723 01b1 00000000 		.4byte	0
 5724 01b5 00000000 		.4byte	0
 5725              	.LLST9:
 5726 01b9 00000000 		.4byte	.LVL44
 5727 01bd 24000000 		.4byte	.LVL46
 5728 01c1 0100     		.2byte	0x1
 5729 01c3 51       		.byte	0x51
 5730 01c4 24000000 		.4byte	.LVL46
 5731 01c8 2C000000 		.4byte	.LVL49
 5732 01cc 0100     		.2byte	0x1
 5733 01ce 56       		.byte	0x56
 5734 01cf 2C000000 		.4byte	.LVL49
 5735 01d3 32000000 		.4byte	.LVL50
 5736 01d7 0100     		.2byte	0x1
 5737 01d9 51       		.byte	0x51
 5738 01da 32000000 		.4byte	.LVL50
 5739 01de 42000000 		.4byte	.LVL54
 5740 01e2 0100     		.2byte	0x1
 5741 01e4 56       		.byte	0x56
 5742 01e5 42000000 		.4byte	.LVL54
 5743 01e9 48000000 		.4byte	.LFE23
 5744 01ed 0400     		.2byte	0x4
 5745 01ef F3       		.byte	0xf3
 5746 01f0 01       		.uleb128 0x1
ARM GAS  C:\Users\d3bug\AppData\Local\Temp\ccQAmDn0.s 			page 118


 5747 01f1 51       		.byte	0x51
 5748 01f2 9F       		.byte	0x9f
 5749 01f3 00000000 		.4byte	0
 5750 01f7 00000000 		.4byte	0
 5751              	.LLST10:
 5752 01fb 00000000 		.4byte	.LVL44
 5753 01ff 12000000 		.4byte	.LVL45
 5754 0203 0100     		.2byte	0x1
 5755 0205 52       		.byte	0x52
 5756 0206 12000000 		.4byte	.LVL45
 5757 020a 29000000 		.4byte	.LVL48-1
 5758 020e 0100     		.2byte	0x1
 5759 0210 53       		.byte	0x53
 5760 0211 2C000000 		.4byte	.LVL49
 5761 0215 37000000 		.4byte	.LVL52-1
 5762 0219 0100     		.2byte	0x1
 5763 021b 53       		.byte	0x53
 5764 021c 37000000 		.4byte	.LVL52-1
 5765 0220 42000000 		.4byte	.LVL53
 5766 0224 0300     		.2byte	0x3
 5767 0226 74       		.byte	0x74
 5768 0227 01       		.sleb128 1
 5769 0228 9F       		.byte	0x9f
 5770 0229 00000000 		.4byte	0
 5771 022d 00000000 		.4byte	0
 5772              	.LLST11:
 5773 0231 00000000 		.4byte	.LVL55
 5774 0235 14000000 		.4byte	.LVL57
 5775 0239 0100     		.2byte	0x1
 5776 023b 50       		.byte	0x50
 5777 023c 14000000 		.4byte	.LVL57
 5778 0240 17000000 		.4byte	.LVL58-1
 5779 0244 0100     		.2byte	0x1
 5780 0246 51       		.byte	0x51
 5781 0247 17000000 		.4byte	.LVL58-1
 5782 024b 20000000 		.4byte	.LFE24
 5783 024f 0400     		.2byte	0x4
 5784 0251 F3       		.byte	0xf3
 5785 0252 01       		.uleb128 0x1
 5786 0253 50       		.byte	0x50
 5787 0254 9F       		.byte	0x9f
 5788 0255 00000000 		.4byte	0
 5789 0259 00000000 		.4byte	0
 5790              	.LLST12:
 5791 025d 00000000 		.4byte	.LVL55
 5792 0261 10000000 		.4byte	.LVL56
 5793 0265 0100     		.2byte	0x1
 5794 0267 51       		.byte	0x51
 5795 0268 10000000 		.4byte	.LVL56
 5796 026c 17000000 		.4byte	.LVL58-1
 5797 0270 0100     		.2byte	0x1
 5798 0272 52       		.byte	0x52
 5799 0273 00000000 		.4byte	0
 5800 0277 00000000 		.4byte	0
 5801              	.LLST13:
 5802 027b 00000000 		.4byte	.LVL59
 5803 027f 14000000 		.4byte	.LVL61
ARM GAS  C:\Users\d3bug\AppData\Local\Temp\ccQAmDn0.s 			page 119


 5804 0283 0100     		.2byte	0x1
 5805 0285 50       		.byte	0x50
 5806 0286 14000000 		.4byte	.LVL61
 5807 028a 17000000 		.4byte	.LVL62-1
 5808 028e 0100     		.2byte	0x1
 5809 0290 51       		.byte	0x51
 5810 0291 17000000 		.4byte	.LVL62-1
 5811 0295 20000000 		.4byte	.LFE25
 5812 0299 0400     		.2byte	0x4
 5813 029b F3       		.byte	0xf3
 5814 029c 01       		.uleb128 0x1
 5815 029d 50       		.byte	0x50
 5816 029e 9F       		.byte	0x9f
 5817 029f 00000000 		.4byte	0
 5818 02a3 00000000 		.4byte	0
 5819              	.LLST14:
 5820 02a7 00000000 		.4byte	.LVL59
 5821 02ab 10000000 		.4byte	.LVL60
 5822 02af 0100     		.2byte	0x1
 5823 02b1 51       		.byte	0x51
 5824 02b2 10000000 		.4byte	.LVL60
 5825 02b6 17000000 		.4byte	.LVL62-1
 5826 02ba 0100     		.2byte	0x1
 5827 02bc 52       		.byte	0x52
 5828 02bd 00000000 		.4byte	0
 5829 02c1 00000000 		.4byte	0
 5830              	.LLST15:
 5831 02c5 00000000 		.4byte	.LVL63
 5832 02c9 1B000000 		.4byte	.LVL65-1
 5833 02cd 0100     		.2byte	0x1
 5834 02cf 50       		.byte	0x50
 5835 02d0 1B000000 		.4byte	.LVL65-1
 5836 02d4 20000000 		.4byte	.LFE26
 5837 02d8 0400     		.2byte	0x4
 5838 02da F3       		.byte	0xf3
 5839 02db 01       		.uleb128 0x1
 5840 02dc 50       		.byte	0x50
 5841 02dd 9F       		.byte	0x9f
 5842 02de 00000000 		.4byte	0
 5843 02e2 00000000 		.4byte	0
 5844              	.LLST16:
 5845 02e6 00000000 		.4byte	.LVL63
 5846 02ea 18000000 		.4byte	.LVL64
 5847 02ee 0100     		.2byte	0x1
 5848 02f0 51       		.byte	0x51
 5849 02f1 18000000 		.4byte	.LVL64
 5850 02f5 20000000 		.4byte	.LFE26
 5851 02f9 0400     		.2byte	0x4
 5852 02fb F3       		.byte	0xf3
 5853 02fc 01       		.uleb128 0x1
 5854 02fd 51       		.byte	0x51
 5855 02fe 9F       		.byte	0x9f
 5856 02ff 00000000 		.4byte	0
 5857 0303 00000000 		.4byte	0
 5858              	.LLST17:
 5859 0307 00000000 		.4byte	.LVL66
 5860 030b 0F000000 		.4byte	.LVL67-1
ARM GAS  C:\Users\d3bug\AppData\Local\Temp\ccQAmDn0.s 			page 120


 5861 030f 0100     		.2byte	0x1
 5862 0311 50       		.byte	0x50
 5863 0312 0F000000 		.4byte	.LVL67-1
 5864 0316 16000000 		.4byte	.LFE27
 5865 031a 0400     		.2byte	0x4
 5866 031c F3       		.byte	0xf3
 5867 031d 01       		.uleb128 0x1
 5868 031e 50       		.byte	0x50
 5869 031f 9F       		.byte	0x9f
 5870 0320 00000000 		.4byte	0
 5871 0324 00000000 		.4byte	0
 5872              	.LLST18:
 5873 0328 00000000 		.4byte	.LVL70
 5874 032c 08000000 		.4byte	.LVL71
 5875 0330 0100     		.2byte	0x1
 5876 0332 50       		.byte	0x50
 5877 0333 08000000 		.4byte	.LVL71
 5878 0337 16000000 		.4byte	.LFE30
 5879 033b 0400     		.2byte	0x4
 5880 033d F3       		.byte	0xf3
 5881 033e 01       		.uleb128 0x1
 5882 033f 50       		.byte	0x50
 5883 0340 9F       		.byte	0x9f
 5884 0341 00000000 		.4byte	0
 5885 0345 00000000 		.4byte	0
 5886              	.LLST19:
 5887 0349 00000000 		.4byte	.LVL76
 5888 034d 08000000 		.4byte	.LVL77
 5889 0351 0100     		.2byte	0x1
 5890 0353 50       		.byte	0x50
 5891 0354 08000000 		.4byte	.LVL77
 5892 0358 16000000 		.4byte	.LFE32
 5893 035c 0400     		.2byte	0x4
 5894 035e F3       		.byte	0xf3
 5895 035f 01       		.uleb128 0x1
 5896 0360 50       		.byte	0x50
 5897 0361 9F       		.byte	0x9f
 5898 0362 00000000 		.4byte	0
 5899 0366 00000000 		.4byte	0
 5900              	.LLST20:
 5901 036a 18000000 		.4byte	.LVL102
 5902 036e 1A000000 		.4byte	.LVL103
 5903 0372 0100     		.2byte	0x1
 5904 0374 50       		.byte	0x50
 5905 0375 1A000000 		.4byte	.LVL103
 5906 0379 1C000000 		.4byte	.LVL104
 5907 037d 0C00     		.2byte	0xc
 5908 037f 73       		.byte	0x73
 5909 0380 00       		.sleb128 0
 5910 0381 20       		.byte	0x20
 5911 0382 74       		.byte	0x74
 5912 0383 00       		.sleb128 0
 5913 0384 94       		.byte	0x94
 5914 0385 01       		.byte	0x1
 5915 0386 08       		.byte	0x8
 5916 0387 FF       		.byte	0xff
 5917 0388 1A       		.byte	0x1a
ARM GAS  C:\Users\d3bug\AppData\Local\Temp\ccQAmDn0.s 			page 121


 5918 0389 1A       		.byte	0x1a
 5919 038a 9F       		.byte	0x9f
 5920 038b 1C000000 		.4byte	.LVL104
 5921 038f 1E000000 		.4byte	.LFE45
 5922 0393 0C00     		.2byte	0xc
 5923 0395 73       		.byte	0x73
 5924 0396 00       		.sleb128 0
 5925 0397 20       		.byte	0x20
 5926 0398 91       		.byte	0x91
 5927 0399 77       		.sleb128 -9
 5928 039a 94       		.byte	0x94
 5929 039b 01       		.byte	0x1
 5930 039c 08       		.byte	0x8
 5931 039d FF       		.byte	0xff
 5932 039e 1A       		.byte	0x1a
 5933 039f 1A       		.byte	0x1a
 5934 03a0 9F       		.byte	0x9f
 5935 03a1 00000000 		.4byte	0
 5936 03a5 00000000 		.4byte	0
 5937              	.LLST21:
 5938 03a9 00000000 		.4byte	.LVL105
 5939 03ad 0F000000 		.4byte	.LVL107-1
 5940 03b1 0100     		.2byte	0x1
 5941 03b3 50       		.byte	0x50
 5942 03b4 0F000000 		.4byte	.LVL107-1
 5943 03b8 12000000 		.4byte	.LFE46
 5944 03bc 0400     		.2byte	0x4
 5945 03be F3       		.byte	0xf3
 5946 03bf 01       		.uleb128 0x1
 5947 03c0 50       		.byte	0x50
 5948 03c1 9F       		.byte	0x9f
 5949 03c2 00000000 		.4byte	0
 5950 03c6 00000000 		.4byte	0
 5951              	.LLST22:
 5952 03ca 00000000 		.4byte	.LVL105
 5953 03ce 0C000000 		.4byte	.LVL106
 5954 03d2 0100     		.2byte	0x1
 5955 03d4 51       		.byte	0x51
 5956 03d5 0C000000 		.4byte	.LVL106
 5957 03d9 0F000000 		.4byte	.LVL107-1
 5958 03dd 0100     		.2byte	0x1
 5959 03df 51       		.byte	0x51
 5960 03e0 00000000 		.4byte	0
 5961 03e4 00000000 		.4byte	0
 5962              	.LLST23:
 5963 03e8 00000000 		.4byte	.LVL108
 5964 03ec 0F000000 		.4byte	.LVL110-1
 5965 03f0 0100     		.2byte	0x1
 5966 03f2 50       		.byte	0x50
 5967 03f3 0F000000 		.4byte	.LVL110-1
 5968 03f7 16000000 		.4byte	.LFE47
 5969 03fb 0400     		.2byte	0x4
 5970 03fd F3       		.byte	0xf3
 5971 03fe 01       		.uleb128 0x1
 5972 03ff 50       		.byte	0x50
 5973 0400 9F       		.byte	0x9f
 5974 0401 00000000 		.4byte	0
ARM GAS  C:\Users\d3bug\AppData\Local\Temp\ccQAmDn0.s 			page 122


 5975 0405 00000000 		.4byte	0
 5976              	.LLST24:
 5977 0409 00000000 		.4byte	.LVL108
 5978 040d 0C000000 		.4byte	.LVL109
 5979 0411 0100     		.2byte	0x1
 5980 0413 51       		.byte	0x51
 5981 0414 0C000000 		.4byte	.LVL109
 5982 0418 0F000000 		.4byte	.LVL110-1
 5983 041c 0100     		.2byte	0x1
 5984 041e 51       		.byte	0x51
 5985 041f 00000000 		.4byte	0
 5986 0423 00000000 		.4byte	0
 5987              	.LLST25:
 5988 0427 00000000 		.4byte	.LVL113
 5989 042b 0C000000 		.4byte	.LVL114
 5990 042f 0100     		.2byte	0x1
 5991 0431 50       		.byte	0x50
 5992 0432 0C000000 		.4byte	.LVL114
 5993 0436 1E000000 		.4byte	.LVL118
 5994 043a 0100     		.2byte	0x1
 5995 043c 54       		.byte	0x54
 5996 043d 1E000000 		.4byte	.LVL118
 5997 0441 20000000 		.4byte	.LFE49
 5998 0445 0400     		.2byte	0x4
 5999 0447 F3       		.byte	0xf3
 6000 0448 01       		.uleb128 0x1
 6001 0449 50       		.byte	0x50
 6002 044a 9F       		.byte	0x9f
 6003 044b 00000000 		.4byte	0
 6004 044f 00000000 		.4byte	0
 6005              	.LLST26:
 6006 0453 00000000 		.4byte	.LVL113
 6007 0457 0F000000 		.4byte	.LVL115-1
 6008 045b 0100     		.2byte	0x1
 6009 045d 51       		.byte	0x51
 6010 045e 0F000000 		.4byte	.LVL115-1
 6011 0462 1E000000 		.4byte	.LVL119
 6012 0466 0100     		.2byte	0x1
 6013 0468 55       		.byte	0x55
 6014 0469 1E000000 		.4byte	.LVL119
 6015 046d 20000000 		.4byte	.LFE49
 6016 0471 0400     		.2byte	0x4
 6017 0473 F3       		.byte	0xf3
 6018 0474 01       		.uleb128 0x1
 6019 0475 51       		.byte	0x51
 6020 0476 9F       		.byte	0x9f
 6021 0477 00000000 		.4byte	0
 6022 047b 00000000 		.4byte	0
 6023              	.LLST27:
 6024 047f 00000000 		.4byte	.LVL120
 6025 0483 0D000000 		.4byte	.LVL121-1
 6026 0487 0100     		.2byte	0x1
 6027 0489 50       		.byte	0x50
 6028 048a 0D000000 		.4byte	.LVL121-1
 6029 048e 14000000 		.4byte	.LFE50
 6030 0492 0400     		.2byte	0x4
 6031 0494 F3       		.byte	0xf3
ARM GAS  C:\Users\d3bug\AppData\Local\Temp\ccQAmDn0.s 			page 123


 6032 0495 01       		.uleb128 0x1
 6033 0496 50       		.byte	0x50
 6034 0497 9F       		.byte	0x9f
 6035 0498 00000000 		.4byte	0
 6036 049c 00000000 		.4byte	0
 6037              	.LLST28:
 6038 04a0 00000000 		.4byte	.LVL120
 6039 04a4 0D000000 		.4byte	.LVL121-1
 6040 04a8 0100     		.2byte	0x1
 6041 04aa 51       		.byte	0x51
 6042 04ab 0D000000 		.4byte	.LVL121-1
 6043 04af 14000000 		.4byte	.LFE50
 6044 04b3 0400     		.2byte	0x4
 6045 04b5 F3       		.byte	0xf3
 6046 04b6 01       		.uleb128 0x1
 6047 04b7 51       		.byte	0x51
 6048 04b8 9F       		.byte	0x9f
 6049 04b9 00000000 		.4byte	0
 6050 04bd 00000000 		.4byte	0
 6051              	.LLST29:
 6052 04c1 00000000 		.4byte	.LVL123
 6053 04c5 0F000000 		.4byte	.LVL125-1
 6054 04c9 0100     		.2byte	0x1
 6055 04cb 50       		.byte	0x50
 6056 04cc 0F000000 		.4byte	.LVL125-1
 6057 04d0 12000000 		.4byte	.LFE51
 6058 04d4 0400     		.2byte	0x4
 6059 04d6 F3       		.byte	0xf3
 6060 04d7 01       		.uleb128 0x1
 6061 04d8 50       		.byte	0x50
 6062 04d9 9F       		.byte	0x9f
 6063 04da 00000000 		.4byte	0
 6064 04de 00000000 		.4byte	0
 6065              	.LLST30:
 6066 04e2 00000000 		.4byte	.LVL123
 6067 04e6 0F000000 		.4byte	.LVL125-1
 6068 04ea 0100     		.2byte	0x1
 6069 04ec 51       		.byte	0x51
 6070 04ed 0F000000 		.4byte	.LVL125-1
 6071 04f1 12000000 		.4byte	.LFE51
 6072 04f5 0400     		.2byte	0x4
 6073 04f7 F3       		.byte	0xf3
 6074 04f8 01       		.uleb128 0x1
 6075 04f9 51       		.byte	0x51
 6076 04fa 9F       		.byte	0x9f
 6077 04fb 00000000 		.4byte	0
 6078 04ff 00000000 		.4byte	0
 6079              	.LLST31:
 6080 0503 00000000 		.4byte	.LVL123
 6081 0507 0C000000 		.4byte	.LVL124
 6082 050b 0100     		.2byte	0x1
 6083 050d 52       		.byte	0x52
 6084 050e 0C000000 		.4byte	.LVL124
 6085 0512 0F000000 		.4byte	.LVL125-1
 6086 0516 0100     		.2byte	0x1
 6087 0518 52       		.byte	0x52
 6088 0519 00000000 		.4byte	0
ARM GAS  C:\Users\d3bug\AppData\Local\Temp\ccQAmDn0.s 			page 124


 6089 051d 00000000 		.4byte	0
 6090              	.LLST32:
 6091 0521 00000000 		.4byte	.LVL141
 6092 0525 12000000 		.4byte	.LVL142
 6093 0529 0100     		.2byte	0x1
 6094 052b 50       		.byte	0x50
 6095 052c 12000000 		.4byte	.LVL142
 6096 0530 1A000000 		.4byte	.LFE58
 6097 0534 0400     		.2byte	0x4
 6098 0536 F3       		.byte	0xf3
 6099 0537 01       		.uleb128 0x1
 6100 0538 50       		.byte	0x50
 6101 0539 9F       		.byte	0x9f
 6102 053a 00000000 		.4byte	0
 6103 053e 00000000 		.4byte	0
 6104              	.LLST33:
 6105 0542 02000000 		.4byte	.LVL144
 6106 0546 1C000000 		.4byte	.LVL147
 6107 054a 0200     		.2byte	0x2
 6108 054c 30       		.byte	0x30
 6109 054d 9F       		.byte	0x9f
 6110 054e 1C000000 		.4byte	.LVL147
 6111 0552 20000000 		.4byte	.LVL148
 6112 0556 0200     		.2byte	0x2
 6113 0558 34       		.byte	0x34
 6114 0559 9F       		.byte	0x9f
 6115 055a 20000000 		.4byte	.LVL148
 6116 055e 24000000 		.4byte	.LVL149
 6117 0562 0300     		.2byte	0x3
 6118 0564 08       		.byte	0x8
 6119 0565 70       		.byte	0x70
 6120 0566 9F       		.byte	0x9f
 6121 0567 24000000 		.4byte	.LVL149
 6122 056b 26000000 		.4byte	.LVL150
 6123 056f 0200     		.2byte	0x2
 6124 0571 30       		.byte	0x30
 6125 0572 9F       		.byte	0x9f
 6126 0573 26000000 		.4byte	.LVL150
 6127 0577 28000000 		.4byte	.LFE59
 6128 057b 0100     		.2byte	0x1
 6129 057d 50       		.byte	0x50
 6130 057e 00000000 		.4byte	0
 6131 0582 00000000 		.4byte	0
 6132              	.LLST34:
 6133 0586 06000000 		.4byte	.LVL145
 6134 058a 0A000000 		.4byte	.LVL146
 6135 058e 0100     		.2byte	0x1
 6136 0590 50       		.byte	0x50
 6137 0591 00000000 		.4byte	0
 6138 0595 00000000 		.4byte	0
 6139              		.section	.debug_aranges,"",%progbits
 6140 0000 0C020000 		.4byte	0x20c
 6141 0004 0200     		.2byte	0x2
 6142 0006 00000000 		.4byte	.Ldebug_info0
 6143 000a 04       		.byte	0x4
 6144 000b 00       		.byte	0
 6145 000c 0000     		.2byte	0
ARM GAS  C:\Users\d3bug\AppData\Local\Temp\ccQAmDn0.s 			page 125


 6146 000e 0000     		.2byte	0
 6147 0010 00000000 		.4byte	.LFB1
 6148 0014 28000000 		.4byte	.LFE1-.LFB1
 6149 0018 00000000 		.4byte	.LFB3
 6150 001c 94000000 		.4byte	.LFE3-.LFB3
 6151 0020 00000000 		.4byte	.LFB4
 6152 0024 02000000 		.4byte	.LFE4-.LFB4
 6153 0028 00000000 		.4byte	.LFB5
 6154 002c 02000000 		.4byte	.LFE5-.LFB5
 6155 0030 00000000 		.4byte	.LFB7
 6156 0034 12000000 		.4byte	.LFE7-.LFB7
 6157 0038 00000000 		.4byte	.LFB8
 6158 003c 02000000 		.4byte	.LFE8-.LFB8
 6159 0040 00000000 		.4byte	.LFB9
 6160 0044 02000000 		.4byte	.LFE9-.LFB9
 6161 0048 00000000 		.4byte	.LFB11
 6162 004c 0C000000 		.4byte	.LFE11-.LFB11
 6163 0050 00000000 		.4byte	.LFB14
 6164 0054 0C000000 		.4byte	.LFE14-.LFB14
 6165 0058 00000000 		.4byte	.LFB15
 6166 005c 0C000000 		.4byte	.LFE15-.LFB15
 6167 0060 00000000 		.4byte	.LFB10
 6168 0064 12000000 		.4byte	.LFE10-.LFB10
 6169 0068 00000000 		.4byte	.LFB16
 6170 006c 0C000000 		.4byte	.LFE16-.LFB16
 6171 0070 00000000 		.4byte	.LFB17
 6172 0074 0C000000 		.4byte	.LFE17-.LFB17
 6173 0078 00000000 		.4byte	.LFB18
 6174 007c 2A000000 		.4byte	.LFE18-.LFB18
 6175 0080 00000000 		.4byte	.LFB19
 6176 0084 18000000 		.4byte	.LFE19-.LFB19
 6177 0088 00000000 		.4byte	.LFB20
 6178 008c 1E000000 		.4byte	.LFE20-.LFB20
 6179 0090 00000000 		.4byte	.LFB21
 6180 0094 0C000000 		.4byte	.LFE21-.LFB21
 6181 0098 00000000 		.4byte	.LFB22
 6182 009c 34000000 		.4byte	.LFE22-.LFB22
 6183 00a0 00000000 		.4byte	.LFB23
 6184 00a4 48000000 		.4byte	.LFE23-.LFB23
 6185 00a8 00000000 		.4byte	.LFB24
 6186 00ac 20000000 		.4byte	.LFE24-.LFB24
 6187 00b0 00000000 		.4byte	.LFB25
 6188 00b4 20000000 		.4byte	.LFE25-.LFB25
 6189 00b8 00000000 		.4byte	.LFB26
 6190 00bc 20000000 		.4byte	.LFE26-.LFB26
 6191 00c0 00000000 		.4byte	.LFB27
 6192 00c4 16000000 		.4byte	.LFE27-.LFB27
 6193 00c8 00000000 		.4byte	.LFB29
 6194 00cc 14000000 		.4byte	.LFE29-.LFB29
 6195 00d0 00000000 		.4byte	.LFB30
 6196 00d4 16000000 		.4byte	.LFE30-.LFB30
 6197 00d8 00000000 		.4byte	.LFB31
 6198 00dc 14000000 		.4byte	.LFE31-.LFB31
 6199 00e0 00000000 		.4byte	.LFB32
 6200 00e4 16000000 		.4byte	.LFE32-.LFB32
 6201 00e8 00000000 		.4byte	.LFB33
 6202 00ec 0C000000 		.4byte	.LFE33-.LFB33
ARM GAS  C:\Users\d3bug\AppData\Local\Temp\ccQAmDn0.s 			page 126


 6203 00f0 00000000 		.4byte	.LFB34
 6204 00f4 0C000000 		.4byte	.LFE34-.LFB34
 6205 00f8 00000000 		.4byte	.LFB35
 6206 00fc 0C000000 		.4byte	.LFE35-.LFB35
 6207 0100 00000000 		.4byte	.LFB36
 6208 0104 0C000000 		.4byte	.LFE36-.LFB36
 6209 0108 00000000 		.4byte	.LFB37
 6210 010c 0C000000 		.4byte	.LFE37-.LFB37
 6211 0110 00000000 		.4byte	.LFB38
 6212 0114 0C000000 		.4byte	.LFE38-.LFB38
 6213 0118 00000000 		.4byte	.LFB39
 6214 011c 0A000000 		.4byte	.LFE39-.LFB39
 6215 0120 00000000 		.4byte	.LFB13
 6216 0124 10000000 		.4byte	.LFE13-.LFB13
 6217 0128 00000000 		.4byte	.LFB40
 6218 012c 0A000000 		.4byte	.LFE40-.LFB40
 6219 0130 00000000 		.4byte	.LFB12
 6220 0134 10000000 		.4byte	.LFE12-.LFB12
 6221 0138 00000000 		.4byte	.LFB6
 6222 013c 08000000 		.4byte	.LFE6-.LFB6
 6223 0140 00000000 		.4byte	.LFB41
 6224 0144 16000000 		.4byte	.LFE41-.LFB41
 6225 0148 00000000 		.4byte	.LFB28
 6226 014c 0C000000 		.4byte	.LFE28-.LFB28
 6227 0150 00000000 		.4byte	.LFB42
 6228 0154 08000000 		.4byte	.LFE42-.LFB42
 6229 0158 00000000 		.4byte	.LFB43
 6230 015c 18000000 		.4byte	.LFE43-.LFB43
 6231 0160 00000000 		.4byte	.LFB44
 6232 0164 1C000000 		.4byte	.LFE44-.LFB44
 6233 0168 00000000 		.4byte	.LFB45
 6234 016c 1E000000 		.4byte	.LFE45-.LFB45
 6235 0170 00000000 		.4byte	.LFB46
 6236 0174 12000000 		.4byte	.LFE46-.LFB46
 6237 0178 00000000 		.4byte	.LFB47
 6238 017c 16000000 		.4byte	.LFE47-.LFB47
 6239 0180 00000000 		.4byte	.LFB48
 6240 0184 0E000000 		.4byte	.LFE48-.LFB48
 6241 0188 00000000 		.4byte	.LFB49
 6242 018c 20000000 		.4byte	.LFE49-.LFB49
 6243 0190 00000000 		.4byte	.LFB50
 6244 0194 14000000 		.4byte	.LFE50-.LFB50
 6245 0198 00000000 		.4byte	.LFB51
 6246 019c 12000000 		.4byte	.LFE51-.LFB51
 6247 01a0 00000000 		.4byte	.LFB52
 6248 01a4 1E000000 		.4byte	.LFE52-.LFB52
 6249 01a8 00000000 		.4byte	.LFB53
 6250 01ac 0C000000 		.4byte	.LFE53-.LFB53
 6251 01b0 00000000 		.4byte	.LFB54
 6252 01b4 0C000000 		.4byte	.LFE54-.LFB54
 6253 01b8 00000000 		.4byte	.LFB55
 6254 01bc 0C000000 		.4byte	.LFE55-.LFB55
 6255 01c0 00000000 		.4byte	.LFB56
 6256 01c4 0C000000 		.4byte	.LFE56-.LFB56
 6257 01c8 00000000 		.4byte	.LFB57
 6258 01cc 18000000 		.4byte	.LFE57-.LFB57
 6259 01d0 00000000 		.4byte	.LFB2
ARM GAS  C:\Users\d3bug\AppData\Local\Temp\ccQAmDn0.s 			page 127


 6260 01d4 30000000 		.4byte	.LFE2-.LFB2
 6261 01d8 00000000 		.4byte	.LFB58
 6262 01dc 1A000000 		.4byte	.LFE58-.LFB58
 6263 01e0 00000000 		.4byte	.LFB59
 6264 01e4 28000000 		.4byte	.LFE59-.LFB59
 6265 01e8 00000000 		.4byte	.LFB60
 6266 01ec 02000000 		.4byte	.LFE60-.LFB60
 6267 01f0 00000000 		.4byte	.LFB61
 6268 01f4 18000000 		.4byte	.LFE61-.LFB61
 6269 01f8 00000000 		.4byte	.LFB62
 6270 01fc 08000000 		.4byte	.LFE62-.LFB62
 6271 0200 00000000 		.4byte	.LFB63
 6272 0204 08000000 		.4byte	.LFE63-.LFB63
 6273 0208 00000000 		.4byte	0
 6274 020c 00000000 		.4byte	0
 6275              		.section	.debug_ranges,"",%progbits
 6276              	.Ldebug_ranges0:
 6277 0000 00000000 		.4byte	.LFB1
 6278 0004 28000000 		.4byte	.LFE1
 6279 0008 00000000 		.4byte	.LFB3
 6280 000c 94000000 		.4byte	.LFE3
 6281 0010 00000000 		.4byte	.LFB4
 6282 0014 02000000 		.4byte	.LFE4
 6283 0018 00000000 		.4byte	.LFB5
 6284 001c 02000000 		.4byte	.LFE5
 6285 0020 00000000 		.4byte	.LFB7
 6286 0024 12000000 		.4byte	.LFE7
 6287 0028 00000000 		.4byte	.LFB8
 6288 002c 02000000 		.4byte	.LFE8
 6289 0030 00000000 		.4byte	.LFB9
 6290 0034 02000000 		.4byte	.LFE9
 6291 0038 00000000 		.4byte	.LFB11
 6292 003c 0C000000 		.4byte	.LFE11
 6293 0040 00000000 		.4byte	.LFB14
 6294 0044 0C000000 		.4byte	.LFE14
 6295 0048 00000000 		.4byte	.LFB15
 6296 004c 0C000000 		.4byte	.LFE15
 6297 0050 00000000 		.4byte	.LFB10
 6298 0054 12000000 		.4byte	.LFE10
 6299 0058 00000000 		.4byte	.LFB16
 6300 005c 0C000000 		.4byte	.LFE16
 6301 0060 00000000 		.4byte	.LFB17
 6302 0064 0C000000 		.4byte	.LFE17
 6303 0068 00000000 		.4byte	.LFB18
 6304 006c 2A000000 		.4byte	.LFE18
 6305 0070 00000000 		.4byte	.LFB19
 6306 0074 18000000 		.4byte	.LFE19
 6307 0078 00000000 		.4byte	.LFB20
 6308 007c 1E000000 		.4byte	.LFE20
 6309 0080 00000000 		.4byte	.LFB21
 6310 0084 0C000000 		.4byte	.LFE21
 6311 0088 00000000 		.4byte	.LFB22
 6312 008c 34000000 		.4byte	.LFE22
 6313 0090 00000000 		.4byte	.LFB23
 6314 0094 48000000 		.4byte	.LFE23
 6315 0098 00000000 		.4byte	.LFB24
 6316 009c 20000000 		.4byte	.LFE24
ARM GAS  C:\Users\d3bug\AppData\Local\Temp\ccQAmDn0.s 			page 128


 6317 00a0 00000000 		.4byte	.LFB25
 6318 00a4 20000000 		.4byte	.LFE25
 6319 00a8 00000000 		.4byte	.LFB26
 6320 00ac 20000000 		.4byte	.LFE26
 6321 00b0 00000000 		.4byte	.LFB27
 6322 00b4 16000000 		.4byte	.LFE27
 6323 00b8 00000000 		.4byte	.LFB29
 6324 00bc 14000000 		.4byte	.LFE29
 6325 00c0 00000000 		.4byte	.LFB30
 6326 00c4 16000000 		.4byte	.LFE30
 6327 00c8 00000000 		.4byte	.LFB31
 6328 00cc 14000000 		.4byte	.LFE31
 6329 00d0 00000000 		.4byte	.LFB32
 6330 00d4 16000000 		.4byte	.LFE32
 6331 00d8 00000000 		.4byte	.LFB33
 6332 00dc 0C000000 		.4byte	.LFE33
 6333 00e0 00000000 		.4byte	.LFB34
 6334 00e4 0C000000 		.4byte	.LFE34
 6335 00e8 00000000 		.4byte	.LFB35
 6336 00ec 0C000000 		.4byte	.LFE35
 6337 00f0 00000000 		.4byte	.LFB36
 6338 00f4 0C000000 		.4byte	.LFE36
 6339 00f8 00000000 		.4byte	.LFB37
 6340 00fc 0C000000 		.4byte	.LFE37
 6341 0100 00000000 		.4byte	.LFB38
 6342 0104 0C000000 		.4byte	.LFE38
 6343 0108 00000000 		.4byte	.LFB39
 6344 010c 0A000000 		.4byte	.LFE39
 6345 0110 00000000 		.4byte	.LFB13
 6346 0114 10000000 		.4byte	.LFE13
 6347 0118 00000000 		.4byte	.LFB40
 6348 011c 0A000000 		.4byte	.LFE40
 6349 0120 00000000 		.4byte	.LFB12
 6350 0124 10000000 		.4byte	.LFE12
 6351 0128 00000000 		.4byte	.LFB6
 6352 012c 08000000 		.4byte	.LFE6
 6353 0130 00000000 		.4byte	.LFB41
 6354 0134 16000000 		.4byte	.LFE41
 6355 0138 00000000 		.4byte	.LFB28
 6356 013c 0C000000 		.4byte	.LFE28
 6357 0140 00000000 		.4byte	.LFB42
 6358 0144 08000000 		.4byte	.LFE42
 6359 0148 00000000 		.4byte	.LFB43
 6360 014c 18000000 		.4byte	.LFE43
 6361 0150 00000000 		.4byte	.LFB44
 6362 0154 1C000000 		.4byte	.LFE44
 6363 0158 00000000 		.4byte	.LFB45
 6364 015c 1E000000 		.4byte	.LFE45
 6365 0160 00000000 		.4byte	.LFB46
 6366 0164 12000000 		.4byte	.LFE46
 6367 0168 00000000 		.4byte	.LFB47
 6368 016c 16000000 		.4byte	.LFE47
 6369 0170 00000000 		.4byte	.LFB48
 6370 0174 0E000000 		.4byte	.LFE48
 6371 0178 00000000 		.4byte	.LFB49
 6372 017c 20000000 		.4byte	.LFE49
 6373 0180 00000000 		.4byte	.LFB50
ARM GAS  C:\Users\d3bug\AppData\Local\Temp\ccQAmDn0.s 			page 129


 6374 0184 14000000 		.4byte	.LFE50
 6375 0188 00000000 		.4byte	.LFB51
 6376 018c 12000000 		.4byte	.LFE51
 6377 0190 00000000 		.4byte	.LFB52
 6378 0194 1E000000 		.4byte	.LFE52
 6379 0198 00000000 		.4byte	.LFB53
 6380 019c 0C000000 		.4byte	.LFE53
 6381 01a0 00000000 		.4byte	.LFB54
 6382 01a4 0C000000 		.4byte	.LFE54
 6383 01a8 00000000 		.4byte	.LFB55
 6384 01ac 0C000000 		.4byte	.LFE55
 6385 01b0 00000000 		.4byte	.LFB56
 6386 01b4 0C000000 		.4byte	.LFE56
 6387 01b8 00000000 		.4byte	.LFB57
 6388 01bc 18000000 		.4byte	.LFE57
 6389 01c0 00000000 		.4byte	.LFB2
 6390 01c4 30000000 		.4byte	.LFE2
 6391 01c8 00000000 		.4byte	.LFB58
 6392 01cc 1A000000 		.4byte	.LFE58
 6393 01d0 00000000 		.4byte	.LFB59
 6394 01d4 28000000 		.4byte	.LFE59
 6395 01d8 00000000 		.4byte	.LFB60
 6396 01dc 02000000 		.4byte	.LFE60
 6397 01e0 00000000 		.4byte	.LFB61
 6398 01e4 18000000 		.4byte	.LFE61
 6399 01e8 00000000 		.4byte	.LFB62
 6400 01ec 08000000 		.4byte	.LFE62
 6401 01f0 00000000 		.4byte	.LFB63
 6402 01f4 08000000 		.4byte	.LFE63
 6403 01f8 00000000 		.4byte	0
 6404 01fc 00000000 		.4byte	0
 6405              		.section	.debug_line,"",%progbits
 6406              	.Ldebug_line0:
 6407 0000 DE060000 		.section	.debug_str,"MS",%progbits,1
 6407      02000102 
 6407      00000201 
 6407      FB0E0D00 
 6407      01010101 
 6408              	.LASF230:
 6409 0000 43794465 		.ascii	"CyDelay\000"
 6409      6C617900 
 6410              	.LASF121:
 6411 0008 4E52465F 		.ascii	"NRF_STATUS_MAX_RT_MASK\000"
 6411      53544154 
 6411      55535F4D 
 6411      41585F52 
 6411      545F4D41 
 6412              	.LASF235:
 6413 001f 6E524632 		.ascii	"nRF24_ce_write\000"
 6413      345F6365 
 6413      5F777269 
 6413      746500
 6414              	.LASF128:
 6415 002e 4E52465F 		.ascii	"NRF_RPD_BIT_RPD\000"
 6415      5250445F 
 6415      4249545F 
 6415      52504400 
ARM GAS  C:\Users\d3bug\AppData\Local\Temp\ccQAmDn0.s 			page 130


 6416              	.LASF180:
 6417 003e 6E524632 		.ascii	"nRF24_enable_dynamic_payload\000"
 6417      345F656E 
 6417      61626C65 
 6417      5F64796E 
 6417      616D6963 
 6418              	.LASF50:
 6419 005b 4E52465F 		.ascii	"NRF_ADDR_PIPE0\000"
 6419      41444452 
 6419      5F504950 
 6419      453000
 6420              	.LASF51:
 6421 006a 4E52465F 		.ascii	"NRF_ADDR_PIPE1\000"
 6421      41444452 
 6421      5F504950 
 6421      453100
 6422              	.LASF52:
 6423 0079 4E52465F 		.ascii	"NRF_ADDR_PIPE2\000"
 6423      41444452 
 6423      5F504950 
 6423      453200
 6424              	.LASF53:
 6425 0088 4E52465F 		.ascii	"NRF_ADDR_PIPE3\000"
 6425      41444452 
 6425      5F504950 
 6425      453300
 6426              	.LASF54:
 6427 0097 4E52465F 		.ascii	"NRF_ADDR_PIPE4\000"
 6427      41444452 
 6427      5F504950 
 6427      453400
 6428              	.LASF55:
 6429 00a6 4E52465F 		.ascii	"NRF_ADDR_PIPE5\000"
 6429      41444452 
 6429      5F504950 
 6429      453500
 6430              	.LASF242:
 6431 00b5 6E524632 		.ascii	"nRF24_cmd_write_ack_payload\000"
 6431      345F636D 
 6431      645F7772 
 6431      6974655F 
 6431      61636B5F 
 6432              	.LASF166:
 6433 00d1 6E524632 		.ascii	"nRF24_disable_auto_ack\000"
 6433      345F6469 
 6433      7361626C 
 6433      655F6175 
 6433      746F5F61 
 6434              	.LASF68:
 6435 00e8 4E52465F 		.ascii	"NRF_MAX_RT_IRQ\000"
 6435      4D41585F 
 6435      52545F49 
 6435      525100
 6436              	.LASF244:
 6437 00f7 5350495F 		.ascii	"SPI_Start\000"
 6437      53746172 
 6437      7400
ARM GAS  C:\Users\d3bug\AppData\Local\Temp\ccQAmDn0.s 			page 131


 6438              	.LASF193:
 6439 0101 6E524632 		.ascii	"nRF24_set_standby_i_mode\000"
 6439      345F7365 
 6439      745F7374 
 6439      616E6462 
 6439      795F695F 
 6440              	.LASF147:
 6441 011a 4E52465F 		.ascii	"NRF_MAX_RF_CHANNEL\000"
 6441      4D41585F 
 6441      52465F43 
 6441      48414E4E 
 6441      454C00
 6442              	.LASF24:
 6443 012d 4E52465F 		.ascii	"NRF_REG_STATUS\000"
 6443      5245475F 
 6443      53544154 
 6443      555300
 6444              	.LASF194:
 6445 013c 6E524632 		.ascii	"nRF24_sleep\000"
 6445      345F736C 
 6445      65657000 
 6446              	.LASF83:
 6447 0148 4E52465F 		.ascii	"NRF_CONFIG_1_BYTE_CRC\000"
 6447      434F4E46 
 6447      49475F31 
 6447      5F425954 
 6447      455F4352 
 6448              	.LASF241:
 6449 015e 6E524632 		.ascii	"nRF24_cmd_no_ack_payload\000"
 6449      345F636D 
 6449      645F6E6F 
 6449      5F61636B 
 6449      5F706179 
 6450              	.LASF184:
 6451 0177 6E524632 		.ascii	"nRF24_enable_dynamic_payload_length\000"
 6451      345F656E 
 6451      61626C65 
 6451      5F64796E 
 6451      616D6963 
 6452              	.LASF167:
 6453 019b 6E524632 		.ascii	"nRF24_set_channel\000"
 6453      345F7365 
 6453      745F6368 
 6453      616E6E65 
 6453      6C00
 6454              	.LASF8:
 6455 01ad 756E7369 		.ascii	"unsigned int\000"
 6455      676E6564 
 6455      20696E74 
 6455      00
 6456              	.LASF123:
 6457 01ba 4E52465F 		.ascii	"NRF_STATUS_RX_DR_MASK\000"
 6457      53544154 
 6457      55535F52 
 6457      585F4452 
 6457      5F4D4153 
 6458              	.LASF67:
ARM GAS  C:\Users\d3bug\AppData\Local\Temp\ccQAmDn0.s 			page 132


 6459 01d0 4E52465F 		.ascii	"NRF_NONE_IRQ\000"
 6459      4E4F4E45 
 6459      5F495251 
 6459      00
 6460              	.LASF129:
 6461 01dd 4E52465F 		.ascii	"NRF_FIFO_STATUS_BIT_RX_EMPTY\000"
 6461      4649464F 
 6461      5F535441 
 6461      5455535F 
 6461      4249545F 
 6462              	.LASF196:
 6463 01fa 6E524632 		.ascii	"nRF24_reuse_last_transmitted_payload\000"
 6463      345F7265 
 6463      7573655F 
 6463      6C617374 
 6463      5F747261 
 6464              	.LASF148:
 6465 021f 4E52465F 		.ascii	"NRF_ALL_IRQ_MASK\000"
 6465      414C4C5F 
 6465      4952515F 
 6465      4D41534B 
 6465      00
 6466              	.LASF21:
 6467 0230 4E52465F 		.ascii	"NRF_REG_SETUP_RETR\000"
 6467      5245475F 
 6467      53455455 
 6467      505F5245 
 6467      545200
 6468              	.LASF212:
 6469 0243 6E524632 		.ascii	"nRF24_get_data_pipe_with_payload\000"
 6469      345F6765 
 6469      745F6461 
 6469      74615F70 
 6469      6970655F 
 6470              	.LASF105:
 6471 0264 4E52465F 		.ascii	"NRF_SETUP_AW_3BYTES\000"
 6471      53455455 
 6471      505F4157 
 6471      5F334259 
 6471      54455300 
 6472              	.LASF217:
 6473 0278 6E524632 		.ascii	"nRF24_clear_all_irqs\000"
 6473      345F636C 
 6473      6561725F 
 6473      616C6C5F 
 6473      69727173 
 6474              	.LASF208:
 6475 028d 5F426F6F 		.ascii	"_Bool\000"
 6475      6C00
 6476              	.LASF118:
 6477 0293 4E52465F 		.ascii	"NRF_RF_SETUP_BIT_PLL_LOCK\000"
 6477      52465F53 
 6477      45545550 
 6477      5F424954 
 6477      5F504C4C 
 6478              	.LASF197:
 6479 02ad 6E524632 		.ascii	"nRF24_get_status\000"
ARM GAS  C:\Users\d3bug\AppData\Local\Temp\ccQAmDn0.s 			page 133


 6479      345F6765 
 6479      745F7374 
 6479      61747573 
 6479      00
 6480              	.LASF163:
 6481 02be 6D6F6465 		.ascii	"mode\000"
 6481      00
 6482              	.LASF159:
 6483 02c3 6E524632 		.ascii	"nRF24_set_rx_mode\000"
 6483      345F7365 
 6483      745F7278 
 6483      5F6D6F64 
 6483      6500
 6484              	.LASF56:
 6485 02d5 6E72665F 		.ascii	"nrf_addr_rx_pipe\000"
 6485      61646472 
 6485      5F72785F 
 6485      70697065 
 6485      00
 6486              	.LASF66:
 6487 02e6 6E72665F 		.ascii	"nrf_mode\000"
 6487      6D6F6465 
 6487      00
 6488              	.LASF89:
 6489 02ef 4E52465F 		.ascii	"NRF_CONFIG_ENABLE_TX_DS\000"
 6489      434F4E46 
 6489      49475F45 
 6489      4E41424C 
 6489      455F5458 
 6490              	.LASF122:
 6491 0307 4E52465F 		.ascii	"NRF_STATUS_TX_DS_MASK\000"
 6491      53544154 
 6491      55535F54 
 6491      585F4453 
 6491      5F4D4153 
 6492              	.LASF204:
 6493 031d 6E524632 		.ascii	"nRF24_put_in_tx_fifo\000"
 6493      345F7075 
 6493      745F696E 
 6493      5F74785F 
 6493      6669666F 
 6494              	.LASF206:
 6495 0332 6E524632 		.ascii	"nRF24_transmit\000"
 6495      345F7472 
 6495      616E736D 
 6495      697400
 6496              	.LASF200:
 6497 0341 6E524632 		.ascii	"nRF24_get_retransmissions_count\000"
 6497      345F6765 
 6497      745F7265 
 6497      7472616E 
 6497      736D6973 
 6498              	.LASF158:
 6499 0361 6E524632 		.ascii	"nRF24_set_power_down_mode\000"
 6499      345F7365 
 6499      745F706F 
 6499      7765725F 
ARM GAS  C:\Users\d3bug\AppData\Local\Temp\ccQAmDn0.s 			page 134


 6499      646F776E 
 6500              	.LASF115:
 6501 037b 4E52465F 		.ascii	"NRF_RF_SETUP_BIT_RF_PWR\000"
 6501      52465F53 
 6501      45545550 
 6501      5F424954 
 6501      5F52465F 
 6502              	.LASF229:
 6503 0393 6E524632 		.ascii	"nRF24_set_bit\000"
 6503      345F7365 
 6503      745F6269 
 6503      7400
 6504              	.LASF11:
 6505 03a1 666C6F61 		.ascii	"float\000"
 6505      7400
 6506              	.LASF155:
 6507 03a7 6E524632 		.ascii	"nRF24_wakeup\000"
 6507      345F7761 
 6507      6B657570 
 6507      00
 6508              	.LASF246:
 6509 03b4 474E5520 		.ascii	"GNU C11 5.4.1 20160609 (release) [ARM/embedded-5-br"
 6509      43313120 
 6509      352E342E 
 6509      31203230 
 6509      31363036 
 6510 03e7 616E6368 		.ascii	"anch revision 237715] -mcpu=cortex-m0plus -mthumb -"
 6510      20726576 
 6510      6973696F 
 6510      6E203233 
 6510      37373135 
 6511 041a 67202D4F 		.ascii	"g -Og -ffunction-sections -ffat-lto-objects\000"
 6511      67202D66 
 6511      66756E63 
 6511      74696F6E 
 6511      2D736563 
 6512              	.LASF110:
 6513 0446 4E52465F 		.ascii	"NRF_PIPE_ADDR_WIDTH_4BYTES\000"
 6513      50495045 
 6513      5F414444 
 6513      525F5749 
 6513      4454485F 
 6514              	.LASF201:
 6515 0461 636F756E 		.ascii	"count\000"
 6515      7400
 6516              	.LASF92:
 6517 0467 4E52465F 		.ascii	"NRF_CONFIG_DISABLE_RX_DR\000"
 6517      434F4E46 
 6517      49475F44 
 6517      49534142 
 6517      4C455F52 
 6518              	.LASF179:
 6519 0480 7061796C 		.ascii	"payload_size\000"
 6519      6F61645F 
 6519      73697A65 
 6519      00
 6520              	.LASF74:
ARM GAS  C:\Users\d3bug\AppData\Local\Temp\ccQAmDn0.s 			page 135


 6521 048d 4E52465F 		.ascii	"NRF_CONFIG_BIT_CRCO\000"
 6521      434F4E46 
 6521      49475F42 
 6521      49545F43 
 6521      52434F00 
 6522              	.LASF236:
 6523 04a1 43794465 		.ascii	"CyDelayUs\000"
 6523      6C617955 
 6523      7300
 6524              	.LASF190:
 6525 04ab 6E524632 		.ascii	"nRF24_start_listening\000"
 6525      345F7374 
 6525      6172745F 
 6525      6C697374 
 6525      656E696E 
 6526              	.LASF125:
 6527 04c1 4E52465F 		.ascii	"NRF_OBSERVE_TX_BIT_PLOS_CNT\000"
 6527      4F425345 
 6527      5256455F 
 6527      54585F42 
 6527      49545F50 
 6528              	.LASF231:
 6529 04dd 6E524632 		.ascii	"nRF24_clear_bit\000"
 6529      345F636C 
 6529      6561725F 
 6529      62697400 
 6530              	.LASF7:
 6531 04ed 6C6F6E67 		.ascii	"long long unsigned int\000"
 6531      206C6F6E 
 6531      6720756E 
 6531      7369676E 
 6531      65642069 
 6532              	.LASF153:
 6533 0504 6E524632 		.ascii	"nRF24_stop\000"
 6533      345F7374 
 6533      6F7000
 6534              	.LASF20:
 6535 050f 4E52465F 		.ascii	"NRF_REG_SETUP_AW\000"
 6535      5245475F 
 6535      53455455 
 6535      505F4157 
 6535      00
 6536              	.LASF248:
 6537 0520 433A5C55 		.ascii	"C:\\Users\\d3bug\\Documents\\Creator\\nRF24_Example"
 6537      73657273 
 6537      5C643362 
 6537      75675C44 
 6537      6F63756D 
 6538 054e 5F50726F 		.ascii	"_Projects\\00_Basic_Rx.cydsn\000"
 6538      6A656374 
 6538      735C3030 
 6538      5F426173 
 6538      69635F52 
 6539              	.LASF183:
 6540 056a 6E524632 		.ascii	"nRF24_disable_dynamic_payload_on_pipe\000"
 6540      345F6469 
 6540      7361626C 
ARM GAS  C:\Users\d3bug\AppData\Local\Temp\ccQAmDn0.s 			page 136


 6540      655F6479 
 6540      6E616D69 
 6541              	.LASF17:
 6542 0590 4E52465F 		.ascii	"NRF_REG_CONFIG\000"
 6542      5245475F 
 6542      434F4E46 
 6542      494700
 6543              	.LASF152:
 6544 059f 6E524632 		.ascii	"nRF24_enable\000"
 6544      345F656E 
 6544      61626C65 
 6544      00
 6545              	.LASF219:
 6546 05ac 6E524632 		.ascii	"nRF24_start\000"
 6546      345F7374 
 6546      61727400 
 6547              	.LASF124:
 6548 05b8 4E52465F 		.ascii	"NRF_OBSERVE_TX_BIT_ARC_CNT\000"
 6548      4F425345 
 6548      5256455F 
 6548      54585F42 
 6548      49545F41 
 6549              	.LASF160:
 6550 05d3 6E524632 		.ascii	"nRF24_set_tx_mode\000"
 6550      345F7365 
 6550      745F7478 
 6550      5F6D6F64 
 6550      6500
 6551              	.LASF25:
 6552 05e5 4E52465F 		.ascii	"NRF_REG_OBSERVE_TX\000"
 6552      5245475F 
 6552      4F425345 
 6552      5256455F 
 6552      545800
 6553              	.LASF165:
 6554 05f8 70697065 		.ascii	"pipe\000"
 6554      00
 6555              	.LASF49:
 6556 05fd 6E72665F 		.ascii	"nrf_pipe\000"
 6556      70697065 
 6556      00
 6557              	.LASF93:
 6558 0606 4E52465F 		.ascii	"NRF_EN_AA_BIT_ENAA_P0\000"
 6558      454E5F41 
 6558      415F4249 
 6558      545F454E 
 6558      41415F50 
 6559              	.LASF94:
 6560 061c 4E52465F 		.ascii	"NRF_EN_AA_BIT_ENAA_P1\000"
 6560      454E5F41 
 6560      415F4249 
 6560      545F454E 
 6560      41415F50 
 6561              	.LASF71:
 6562 0632 6E72665F 		.ascii	"nrf_irq\000"
 6562      69727100 
 6563              	.LASF84:
ARM GAS  C:\Users\d3bug\AppData\Local\Temp\ccQAmDn0.s 			page 137


 6564 063a 4E52465F 		.ascii	"NRF_CONFIG_2_BYTE_CRC\000"
 6564      434F4E46 
 6564      49475F32 
 6564      5F425954 
 6564      455F4352 
 6565              	.LASF97:
 6566 0650 4E52465F 		.ascii	"NRF_EN_AA_BIT_ENAA_P4\000"
 6566      454E5F41 
 6566      415F4249 
 6566      545F454E 
 6566      41415F50 
 6567              	.LASF98:
 6568 0666 4E52465F 		.ascii	"NRF_EN_AA_BIT_ENAA_P5\000"
 6568      454E5F41 
 6568      415F4249 
 6568      545F454E 
 6568      41415F50 
 6569              	.LASF117:
 6570 067c 4E52465F 		.ascii	"NRF_RF_SETUP_BIT_RF_DR_HIGH\000"
 6570      52465F53 
 6570      45545550 
 6570      5F424954 
 6570      5F52465F 
 6571              	.LASF220:
 6572 0698 6E524632 		.ascii	"nRF24_clear_irq_flag\000"
 6572      345F636C 
 6572      6561725F 
 6572      6972715F 
 6572      666C6167 
 6573              	.LASF14:
 6574 06ad 73697A65 		.ascii	"size_t\000"
 6574      5F7400
 6575              	.LASF156:
 6576 06b4 6E524632 		.ascii	"nRF24_save_config\000"
 6576      345F7361 
 6576      76655F63 
 6576      6F6E6669 
 6576      6700
 6577              	.LASF82:
 6578 06c6 4E52465F 		.ascii	"NRF_CONFIG_PWR_UP\000"
 6578      434F4E46 
 6578      49475F50 
 6578      57525F55 
 6578      5000
 6579              	.LASF178:
 6580 06d8 6E524632 		.ascii	"nRF24_get_payload_size\000"
 6580      345F6765 
 6580      745F7061 
 6580      796C6F61 
 6580      645F7369 
 6581              	.LASF43:
 6582 06ef 4E52465F 		.ascii	"NRF_PIPE0\000"
 6582      50495045 
 6582      3000
 6583              	.LASF44:
 6584 06f9 4E52465F 		.ascii	"NRF_PIPE1\000"
 6584      50495045 
ARM GAS  C:\Users\d3bug\AppData\Local\Temp\ccQAmDn0.s 			page 138


 6584      3100
 6585              	.LASF45:
 6586 0703 4E52465F 		.ascii	"NRF_PIPE2\000"
 6586      50495045 
 6586      3200
 6587              	.LASF46:
 6588 070d 4E52465F 		.ascii	"NRF_PIPE3\000"
 6588      50495045 
 6588      3300
 6589              	.LASF47:
 6590 0717 4E52465F 		.ascii	"NRF_PIPE4\000"
 6590      50495045 
 6590      3400
 6591              	.LASF48:
 6592 0721 4E52465F 		.ascii	"NRF_PIPE5\000"
 6592      50495045 
 6592      3500
 6593              	.LASF27:
 6594 072b 4E52465F 		.ascii	"NRF_REG_RX_ADDR_P0\000"
 6594      5245475F 
 6594      52585F41 
 6594      4444525F 
 6594      503000
 6595              	.LASF28:
 6596 073e 4E52465F 		.ascii	"NRF_REG_RX_ADDR_P1\000"
 6596      5245475F 
 6596      52585F41 
 6596      4444525F 
 6596      503100
 6597              	.LASF29:
 6598 0751 4E52465F 		.ascii	"NRF_REG_RX_ADDR_P2\000"
 6598      5245475F 
 6598      52585F41 
 6598      4444525F 
 6598      503200
 6599              	.LASF30:
 6600 0764 4E52465F 		.ascii	"NRF_REG_RX_ADDR_P3\000"
 6600      5245475F 
 6600      52585F41 
 6600      4444525F 
 6600      503300
 6601              	.LASF31:
 6602 0777 4E52465F 		.ascii	"NRF_REG_RX_ADDR_P4\000"
 6602      5245475F 
 6602      52585F41 
 6602      4444525F 
 6602      503400
 6603              	.LASF32:
 6604 078a 4E52465F 		.ascii	"NRF_REG_RX_ADDR_P5\000"
 6604      5245475F 
 6604      52585F41 
 6604      4444525F 
 6604      503500
 6605              	.LASF149:
 6606 079d 4E52465F 		.ascii	"NRF_STATUS_PIPES_MASK\000"
 6606      53544154 
 6606      55535F50 
ARM GAS  C:\Users\d3bug\AppData\Local\Temp\ccQAmDn0.s 			page 139


 6606      49504553 
 6606      5F4D4153 
 6607              	.LASF107:
 6608 07b3 4E52465F 		.ascii	"NRF_SETUP_AW_5BYTES\000"
 6608      53455455 
 6608      505F4157 
 6608      5F354259 
 6608      54455300 
 6609              	.LASF174:
 6610 07c7 6E524632 		.ascii	"nRF24_set_tx_address\000"
 6610      345F7365 
 6610      745F7478 
 6610      5F616464 
 6610      72657373 
 6611              	.LASF76:
 6612 07dc 4E52465F 		.ascii	"NRF_CONFIG_BIT_MASK_MAX_RT\000"
 6612      434F4E46 
 6612      49475F42 
 6612      49545F4D 
 6612      41534B5F 
 6613              	.LASF233:
 6614 07f7 6E524632 		.ascii	"nRF24_cmd_flush_tx\000"
 6614      345F636D 
 6614      645F666C 
 6614      7573685F 
 6614      747800
 6615              	.LASF141:
 6616 080a 4E52465F 		.ascii	"NRF_FEATURE_BIT_EN_ACK_PAY\000"
 6616      46454154 
 6616      5552455F 
 6616      4249545F 
 6616      454E5F41 
 6617              	.LASF198:
 6618 0825 6E524632 		.ascii	"nRF24_get_fifo_status\000"
 6618      345F6765 
 6618      745F6669 
 6618      666F5F73 
 6618      74617475 
 6619              	.LASF13:
 6620 083b 63686172 		.ascii	"char\000"
 6620      00
 6621              	.LASF216:
 6622 0840 6E524632 		.ascii	"nRF24_test_carrier\000"
 6622      345F7465 
 6622      73745F63 
 6622      61727269 
 6622      657200
 6623              	.LASF150:
 6624 0853 4750494F 		.ascii	"GPIO_CLEAR\000"
 6624      5F434C45 
 6624      415200
 6625              	.LASF65:
 6626 085e 4E52465F 		.ascii	"NRF_MODE_RX\000"
 6626      4D4F4445 
 6626      5F525800 
 6627              	.LASF175:
 6628 086a 6E524632 		.ascii	"nRF24_get_tx_address\000"
ARM GAS  C:\Users\d3bug\AppData\Local\Temp\ccQAmDn0.s 			page 140


 6628      345F6765 
 6628      745F7478 
 6628      5F616464 
 6628      72657373 
 6629              	.LASF207:
 6630 087f 6E524632 		.ascii	"nRF24_is_data_ready\000"
 6630      345F6973 
 6630      5F646174 
 6630      615F7265 
 6630      61647900 
 6631              	.LASF23:
 6632 0893 4E52465F 		.ascii	"NRF_REG_RF_SETUP\000"
 6632      5245475F 
 6632      52465F53 
 6632      45545550 
 6632      00
 6633              	.LASF243:
 6634 08a4 6E524632 		.ascii	"nRF24_read_bit\000"
 6634      345F7265 
 6634      61645F62 
 6634      697400
 6635              	.LASF10:
 6636 08b3 75696E74 		.ascii	"uint8_t\000"
 6636      385F7400 
 6637              	.LASF75:
 6638 08bb 4E52465F 		.ascii	"NRF_CONFIG_BIT_EN_CRC\000"
 6638      434F4E46 
 6638      49475F42 
 6638      49545F45 
 6638      4E5F4352 
 6639              	.LASF249:
 6640 08d1 5F616464 		.ascii	"_addr_width_conf_to_bytes\000"
 6640      725F7769 
 6640      6474685F 
 6640      636F6E66 
 6640      5F746F5F 
 6641              	.LASF70:
 6642 08eb 4E52465F 		.ascii	"NRF_RX_DR_IRQ\000"
 6642      52585F44 
 6642      525F4952 
 6642      5100
 6643              	.LASF143:
 6644 08f9 4E52465F 		.ascii	"NRF_STATUS_PIPES_SHIFT\000"
 6644      53544154 
 6644      55535F50 
 6644      49504553 
 6644      5F534849 
 6645              	.LASF132:
 6646 0910 4E52465F 		.ascii	"NRF_FIFO_STATUS_BIT_TX_FULL\000"
 6646      4649464F 
 6646      5F535441 
 6646      5455535F 
 6646      4249545F 
 6647              	.LASF133:
 6648 092c 4E52465F 		.ascii	"NRF_FIFO_STATUS_BIT_TX_REUSE\000"
 6648      4649464F 
 6648      5F535441 
ARM GAS  C:\Users\d3bug\AppData\Local\Temp\ccQAmDn0.s 			page 141


 6648      5455535F 
 6648      4249545F 
 6649              	.LASF6:
 6650 0949 6C6F6E67 		.ascii	"long long int\000"
 6650      206C6F6E 
 6650      6720696E 
 6650      7400
 6651              	.LASF142:
 6652 0957 4E52465F 		.ascii	"NRF_FEATURE_BIT_EN_DPL\000"
 6652      46454154 
 6652      5552455F 
 6652      4249545F 
 6652      454E5F44 
 6653              	.LASF57:
 6654 096e 4E52465F 		.ascii	"NRF_PLD_SIZE_PIPE0\000"
 6654      504C445F 
 6654      53495A45 
 6654      5F504950 
 6654      453000
 6655              	.LASF58:
 6656 0981 4E52465F 		.ascii	"NRF_PLD_SIZE_PIPE1\000"
 6656      504C445F 
 6656      53495A45 
 6656      5F504950 
 6656      453100
 6657              	.LASF59:
 6658 0994 4E52465F 		.ascii	"NRF_PLD_SIZE_PIPE2\000"
 6658      504C445F 
 6658      53495A45 
 6658      5F504950 
 6658      453200
 6659              	.LASF60:
 6660 09a7 4E52465F 		.ascii	"NRF_PLD_SIZE_PIPE3\000"
 6660      504C445F 
 6660      53495A45 
 6660      5F504950 
 6660      453300
 6661              	.LASF61:
 6662 09ba 4E52465F 		.ascii	"NRF_PLD_SIZE_PIPE4\000"
 6662      504C445F 
 6662      53495A45 
 6662      5F504950 
 6662      453400
 6663              	.LASF62:
 6664 09cd 4E52465F 		.ascii	"NRF_PLD_SIZE_PIPE5\000"
 6664      504C445F 
 6664      53495A45 
 6664      5F504950 
 6664      453500
 6665              	.LASF202:
 6666 09e0 6E524632 		.ascii	"nRF24_get_lost_packets_count\000"
 6666      345F6765 
 6666      745F6C6F 
 6666      73745F70 
 6666      61636B65 
 6667              	.LASF140:
 6668 09fd 4E52465F 		.ascii	"NRF_FEATURE_BIT_EN_DYN_ACK\000"
ARM GAS  C:\Users\d3bug\AppData\Local\Temp\ccQAmDn0.s 			page 142


 6668      46454154 
 6668      5552455F 
 6668      4249545F 
 6668      454E5F44 
 6669              	.LASF90:
 6670 0a18 4E52465F 		.ascii	"NRF_CONFIG_DISABLE_TX_DS\000"
 6670      434F4E46 
 6670      49475F44 
 6670      49534142 
 6670      4C455F54 
 6671              	.LASF78:
 6672 0a31 4E52465F 		.ascii	"NRF_CONFIG_BIT_MASK_RX_DR\000"
 6672      434F4E46 
 6672      49475F42 
 6672      49545F4D 
 6672      41534B5F 
 6673              	.LASF199:
 6674 0a4b 6669666F 		.ascii	"fifo_status\000"
 6674      5F737461 
 6674      74757300 
 6675              	.LASF112:
 6676 0a57 6E72665F 		.ascii	"nrf_pipe_addr_width\000"
 6676      70697065 
 6676      5F616464 
 6676      725F7769 
 6676      64746800 
 6677              	.LASF221:
 6678 0a6b 6972715F 		.ascii	"irq_flag\000"
 6678      666C6167 
 6678      00
 6679              	.LASF64:
 6680 0a74 4E52465F 		.ascii	"NRF_MODE_TX\000"
 6680      4D4F4445 
 6680      5F545800 
 6681              	.LASF172:
 6682 0a80 73697A65 		.ascii	"size\000"
 6682      00
 6683              	.LASF218:
 6684 0a85 6D61736B 		.ascii	"mask\000"
 6684      00
 6685              	.LASF210:
 6686 0a8a 6E524632 		.ascii	"nRF24_tx_transmit_no_ack\000"
 6686      345F7478 
 6686      5F747261 
 6686      6E736D69 
 6686      745F6E6F 
 6687              	.LASF188:
 6688 0aa3 6E524632 		.ascii	"nRF24_enable_payload_with_no_ack\000"
 6688      345F656E 
 6688      61626C65 
 6688      5F706179 
 6688      6C6F6164 
 6689              	.LASF109:
 6690 0ac4 4E52465F 		.ascii	"NRF_PIPE_ADDR_WIDTH_3BYTES\000"
 6690      50495045 
 6690      5F414444 
 6690      525F5749 
ARM GAS  C:\Users\d3bug\AppData\Local\Temp\ccQAmDn0.s 			page 143


 6690      4454485F 
 6691              	.LASF211:
 6692 0adf 6E524632 		.ascii	"nRF24_rx_write_payload\000"
 6692      345F7278 
 6692      5F777269 
 6692      74655F70 
 6692      61796C6F 
 6693              	.LASF81:
 6694 0af6 4E52465F 		.ascii	"NRF_CONFIG_PWR_DOWN\000"
 6694      434F4E46 
 6694      49475F50 
 6694      57525F44 
 6694      4F574E00 
 6695              	.LASF87:
 6696 0b0a 4E52465F 		.ascii	"NRF_CONFIG_ENABLE_MAX_RT\000"
 6696      434F4E46 
 6696      49475F45 
 6696      4E41424C 
 6696      455F4D41 
 6697              	.LASF85:
 6698 0b23 4E52465F 		.ascii	"NRF_CONFIG_DISABLE_CRC\000"
 6698      434F4E46 
 6698      49475F44 
 6698      49534142 
 6698      4C455F43 
 6699              	.LASF245:
 6700 0b3a 6E524632 		.ascii	"nRF24_ss_write\000"
 6700      345F7373 
 6700      5F777269 
 6700      746500
 6701              	.LASF237:
 6702 0b49 6E524632 		.ascii	"nRF24_cmd_reuse_tx_payload\000"
 6702      345F636D 
 6702      645F7265 
 6702      7573655F 
 6702      74785F70 
 6703              	.LASF157:
 6704 0b64 6E524632 		.ascii	"nRF24_restore_config\000"
 6704      345F7265 
 6704      73746F72 
 6704      655F636F 
 6704      6E666967 
 6705              	.LASF100:
 6706 0b79 4E52465F 		.ascii	"NRF_EN_RXADDR_BIT_ERX_P1\000"
 6706      454E5F52 
 6706      58414444 
 6706      525F4249 
 6706      545F4552 
 6707              	.LASF224:
 6708 0b92 6E524632 		.ascii	"nRF24_get_status_clear_irq\000"
 6708      345F6765 
 6708      745F7374 
 6708      61747573 
 6708      5F636C65 
 6709              	.LASF15:
 6710 0bad 6C6F6E67 		.ascii	"long double\000"
 6710      20646F75 
ARM GAS  C:\Users\d3bug\AppData\Local\Temp\ccQAmDn0.s 			page 144


 6710      626C6500 
 6711              	.LASF119:
 6712 0bb9 4E52465F 		.ascii	"NRF_RF_SETUP_BIT_RF_DR_LOW\000"
 6712      52465F53 
 6712      45545550 
 6712      5F424954 
 6712      5F52465F 
 6713              	.LASF227:
 6714 0bd4 5F6E7266 		.ascii	"_nrf_addr_width\000"
 6714      5F616464 
 6714      725F7769 
 6714      64746800 
 6715              	.LASF171:
 6716 0be4 61646472 		.ascii	"addr\000"
 6716      00
 6717              	.LASF168:
 6718 0be9 6368616E 		.ascii	"channel\000"
 6718      6E656C00 
 6719              	.LASF126:
 6720 0bf1 4E52465F 		.ascii	"NRF_OBSERVE_TX_ARC_CNT_MASK\000"
 6720      4F425345 
 6720      5256455F 
 6720      54585F41 
 6720      52435F43 
 6721              	.LASF134:
 6722 0c0d 4E52465F 		.ascii	"NRF_DYNPD_BIT_DPL_P0\000"
 6722      44594E50 
 6722      445F4249 
 6722      545F4450 
 6722      4C5F5030 
 6723              	.LASF135:
 6724 0c22 4E52465F 		.ascii	"NRF_DYNPD_BIT_DPL_P1\000"
 6724      44594E50 
 6724      445F4249 
 6724      545F4450 
 6724      4C5F5031 
 6725              	.LASF136:
 6726 0c37 4E52465F 		.ascii	"NRF_DYNPD_BIT_DPL_P2\000"
 6726      44594E50 
 6726      445F4249 
 6726      545F4450 
 6726      4C5F5032 
 6727              	.LASF137:
 6728 0c4c 4E52465F 		.ascii	"NRF_DYNPD_BIT_DPL_P3\000"
 6728      44594E50 
 6728      445F4249 
 6728      545F4450 
 6728      4C5F5033 
 6729              	.LASF138:
 6730 0c61 4E52465F 		.ascii	"NRF_DYNPD_BIT_DPL_P4\000"
 6730      44594E50 
 6730      445F4249 
 6730      545F4450 
 6730      4C5F5034 
 6731              	.LASF139:
 6732 0c76 4E52465F 		.ascii	"NRF_DYNPD_BIT_DPL_P5\000"
 6732      44594E50 
ARM GAS  C:\Users\d3bug\AppData\Local\Temp\ccQAmDn0.s 			page 145


 6732      445F4249 
 6732      545F4450 
 6732      4C5F5035 
 6733              	.LASF108:
 6734 0c8b 6E72665F 		.ascii	"nrf_addr_width\000"
 6734      61646472 
 6734      5F776964 
 6734      746800
 6735              	.LASF177:
 6736 0c9a 6E524632 		.ascii	"nRF24_get_channel\000"
 6736      345F6765 
 6736      745F6368 
 6736      616E6E65 
 6736      6C00
 6737              	.LASF2:
 6738 0cac 73686F72 		.ascii	"short int\000"
 6738      7420696E 
 6738      7400
 6739              	.LASF228:
 6740 0cb6 6E524632 		.ascii	"nRF24_write_reg\000"
 6740      345F7772 
 6740      6974655F 
 6740      72656700 
 6741              	.LASF95:
 6742 0cc6 4E52465F 		.ascii	"NRF_EN_AA_BIT_ENAA_P2\000"
 6742      454E5F41 
 6742      415F4249 
 6742      545F454E 
 6742      41415F50 
 6743              	.LASF96:
 6744 0cdc 4E52465F 		.ascii	"NRF_EN_AA_BIT_ENAA_P3\000"
 6744      454E5F41 
 6744      415F4249 
 6744      545F454E 
 6744      41415F50 
 6745              	.LASF213:
 6746 0cf2 6E524632 		.ascii	"nRF24_received_power_detector\000"
 6746      345F7265 
 6746      63656976 
 6746      65645F70 
 6746      6F776572 
 6747              	.LASF192:
 6748 0d10 6E524632 		.ascii	"nRF24_stop_listening\000"
 6748      345F7374 
 6748      6F705F6C 
 6748      69737465 
 6748      6E696E67 
 6749              	.LASF173:
 6750 0d25 6E524632 		.ascii	"nRF24_get_rx_pipe_address\000"
 6750      345F6765 
 6750      745F7278 
 6750      5F706970 
 6750      655F6164 
 6751              	.LASF4:
 6752 0d3f 6C6F6E67 		.ascii	"long int\000"
 6752      20696E74 
 6752      00
ARM GAS  C:\Users\d3bug\AppData\Local\Temp\ccQAmDn0.s 			page 146


 6753              	.LASF42:
 6754 0d48 4E52465F 		.ascii	"NRF_REG_FEATURE\000"
 6754      5245475F 
 6754      46454154 
 6754      55524500 
 6755              	.LASF80:
 6756 0d58 4E52465F 		.ascii	"NRF_CONFIG_RECEIVER\000"
 6756      434F4E46 
 6756      49475F52 
 6756      45434549 
 6756      56455200 
 6757              	.LASF69:
 6758 0d6c 4E52465F 		.ascii	"NRF_TX_DS_IRQ\000"
 6758      54585F44 
 6758      535F4952 
 6758      5100
 6759              	.LASF195:
 6760 0d7a 6E524632 		.ascii	"nRF24_transmit_pulse\000"
 6760      345F7472 
 6760      616E736D 
 6760      69745F70 
 6760      756C7365 
 6761              	.LASF209:
 6762 0d8f 6E524632 		.ascii	"nRF24_get_rx_payload\000"
 6762      345F6765 
 6762      745F7278 
 6762      5F706179 
 6762      6C6F6164 
 6763              	.LASF154:
 6764 0da4 6E524632 		.ascii	"nRF24_init\000"
 6764      345F696E 
 6764      697400
 6765              	.LASF120:
 6766 0daf 4E52465F 		.ascii	"NRF_RF_SETUP_BIT_CONT_WAVE\000"
 6766      52465F53 
 6766      45545550 
 6766      5F424954 
 6766      5F434F4E 
 6767              	.LASF189:
 6768 0dca 6E524632 		.ascii	"nRF24_disable_payload_with_no_ack\000"
 6768      345F6469 
 6768      7361626C 
 6768      655F7061 
 6768      796C6F61 
 6769              	.LASF131:
 6770 0dec 4E52465F 		.ascii	"NRF_FIFO_STATUS_BIT_TX_EMPTY\000"
 6770      4649464F 
 6770      5F535441 
 6770      5455535F 
 6770      4249545F 
 6771              	.LASF40:
 6772 0e09 4E52465F 		.ascii	"NRF_REG_FIFO_STATUS\000"
 6772      5245475F 
 6772      4649464F 
 6772      5F535441 
 6772      54555300 
 6773              	.LASF73:
ARM GAS  C:\Users\d3bug\AppData\Local\Temp\ccQAmDn0.s 			page 147


 6774 0e1d 4E52465F 		.ascii	"NRF_CONFIG_BIT_PWR_UP\000"
 6774      434F4E46 
 6774      49475F42 
 6774      49545F50 
 6774      57525F55 
 6775              	.LASF247:
 6776 0e33 47656E65 		.ascii	"Generated_Source\\PSoC4\\nRF24_FUNCS.c\000"
 6776      72617465 
 6776      645F536F 
 6776      75726365 
 6776      5C50536F 
 6777              	.LASF116:
 6778 0e58 4E52465F 		.ascii	"NRF_RF_SETUP_BIT_RF_DR\000"
 6778      52465F53 
 6778      45545550 
 6778      5F424954 
 6778      5F52465F 
 6779              	.LASF232:
 6780 0e6f 6E524632 		.ascii	"nRF24_cmd_flush_rx\000"
 6780      345F636D 
 6780      645F666C 
 6780      7573685F 
 6780      727800
 6781              	.LASF9:
 6782 0e82 5F5F7569 		.ascii	"__uint8_t\000"
 6782      6E74385F 
 6782      7400
 6783              	.LASF106:
 6784 0e8c 4E52465F 		.ascii	"NRF_SETUP_AW_4BYTES\000"
 6784      53455455 
 6784      505F4157 
 6784      5F344259 
 6784      54455300 
 6785              	.LASF79:
 6786 0ea0 4E52465F 		.ascii	"NRF_CONFIG_TRANSMITTER\000"
 6786      434F4E46 
 6786      49475F54 
 6786      52414E53 
 6786      4D495454 
 6787              	.LASF164:
 6788 0eb7 6E524632 		.ascii	"nRF24_enable_auto_ack\000"
 6788      345F656E 
 6788      61626C65 
 6788      5F617574 
 6788      6F5F6163 
 6789              	.LASF41:
 6790 0ecd 4E52465F 		.ascii	"NRF_REG_DYNPD\000"
 6790      5245475F 
 6790      44594E50 
 6790      4400
 6791              	.LASF176:
 6792 0edb 6E524632 		.ascii	"nRF24_set_payload_size\000"
 6792      345F7365 
 6792      745F7061 
 6792      796C6F61 
 6792      645F7369 
 6793              	.LASF222:
ARM GAS  C:\Users\d3bug\AppData\Local\Temp\ccQAmDn0.s 			page 148


 6794 0ef2 6E524632 		.ascii	"nRF24_get_irq_flag\000"
 6794      345F6765 
 6794      745F6972 
 6794      715F666C 
 6794      616700
 6795              	.LASF186:
 6796 0f05 6E524632 		.ascii	"nRF24_enable_payload_with_ack\000"
 6796      345F656E 
 6796      61626C65 
 6796      5F706179 
 6796      6C6F6164 
 6797              	.LASF16:
 6798 0f23 73697A65 		.ascii	"sizetype\000"
 6798      74797065 
 6798      00
 6799              	.LASF185:
 6800 0f2c 6E524632 		.ascii	"nRF24_disable_dynamic_payload_length\000"
 6800      345F6469 
 6800      7361626C 
 6800      655F6479 
 6800      6E616D69 
 6801              	.LASF162:
 6802 0f51 61646472 		.ascii	"addr_width\000"
 6802      5F776964 
 6802      746800
 6803              	.LASF5:
 6804 0f5c 6C6F6E67 		.ascii	"long unsigned int\000"
 6804      20756E73 
 6804      69676E65 
 6804      6420696E 
 6804      7400
 6805              	.LASF144:
 6806 0f6e 4E52465F 		.ascii	"NRF_CE_PULSE_WIDTH_US\000"
 6806      43455F50 
 6806      554C5345 
 6806      5F574944 
 6806      54485F55 
 6807              	.LASF239:
 6808 0f84 6E524632 		.ascii	"nRF24_cmd_write_tx_payload\000"
 6808      345F636D 
 6808      645F7772 
 6808      6974655F 
 6808      74785F70 
 6809              	.LASF26:
 6810 0f9f 4E52465F 		.ascii	"NRF_REG_RPD\000"
 6810      5245475F 
 6810      52504400 
 6811              	.LASF22:
 6812 0fab 4E52465F 		.ascii	"NRF_REG_RF_CH\000"
 6812      5245475F 
 6812      52465F43 
 6812      4800
 6813              	.LASF99:
 6814 0fb9 4E52465F 		.ascii	"NRF_EN_RXADDR_BIT_ERX_P0\000"
 6814      454E5F52 
 6814      58414444 
 6814      525F4249 
ARM GAS  C:\Users\d3bug\AppData\Local\Temp\ccQAmDn0.s 			page 149


 6814      545F4552 
 6815              	.LASF1:
 6816 0fd2 756E7369 		.ascii	"unsigned char\000"
 6816      676E6564 
 6816      20636861 
 6816      7200
 6817              	.LASF101:
 6818 0fe0 4E52465F 		.ascii	"NRF_EN_RXADDR_BIT_ERX_P2\000"
 6818      454E5F52 
 6818      58414444 
 6818      525F4249 
 6818      545F4552 
 6819              	.LASF102:
 6820 0ff9 4E52465F 		.ascii	"NRF_EN_RXADDR_BIT_ERX_P3\000"
 6820      454E5F52 
 6820      58414444 
 6820      525F4249 
 6820      545F4552 
 6821              	.LASF103:
 6822 1012 4E52465F 		.ascii	"NRF_EN_RXADDR_BIT_ERX_P4\000"
 6822      454E5F52 
 6822      58414444 
 6822      525F4249 
 6822      545F4552 
 6823              	.LASF104:
 6824 102b 4E52465F 		.ascii	"NRF_EN_RXADDR_BIT_ERX_P5\000"
 6824      454E5F52 
 6824      58414444 
 6824      525F4249 
 6824      545F4552 
 6825              	.LASF18:
 6826 1044 4E52465F 		.ascii	"NRF_REG_EN_AA\000"
 6826      5245475F 
 6826      454E5F41 
 6826      4100
 6827              	.LASF77:
 6828 1052 4E52465F 		.ascii	"NRF_CONFIG_BIT_MASK_TX_DS\000"
 6828      434F4E46 
 6828      49475F42 
 6828      49545F4D 
 6828      41534B5F 
 6829              	.LASF225:
 6830 106c 6E524632 		.ascii	"nRF24_flush_rx\000"
 6830      345F666C 
 6830      7573685F 
 6830      727800
 6831              	.LASF151:
 6832 107b 4750494F 		.ascii	"GPIO_SET\000"
 6832      5F534554 
 6832      00
 6833              	.LASF234:
 6834 1084 6E524632 		.ascii	"nRF24_read_reg\000"
 6834      345F7265 
 6834      61645F72 
 6834      656700
 6835              	.LASF91:
 6836 1093 4E52465F 		.ascii	"NRF_CONFIG_ENABLE_RX_DR\000"
ARM GAS  C:\Users\d3bug\AppData\Local\Temp\ccQAmDn0.s 			page 150


 6836      434F4E46 
 6836      49475F45 
 6836      4E41424C 
 6836      455F5258 
 6837              	.LASF63:
 6838 10ab 6E72665F 		.ascii	"nrf_pld_size\000"
 6838      706C645F 
 6838      73697A65 
 6838      00
 6839              	.LASF111:
 6840 10b8 4E52465F 		.ascii	"NRF_PIPE_ADDR_WIDTH_5BYTES\000"
 6840      50495045 
 6840      5F414444 
 6840      525F5749 
 6840      4454485F 
 6841              	.LASF113:
 6842 10d3 4E52465F 		.ascii	"NRF_SETUP_RETR_BIT_ARC\000"
 6842      53455455 
 6842      505F5245 
 6842      54525F42 
 6842      49545F41 
 6843              	.LASF114:
 6844 10ea 4E52465F 		.ascii	"NRF_SETUP_RETR_BIT_ARD\000"
 6844      53455455 
 6844      505F5245 
 6844      54525F42 
 6844      49545F41 
 6845              	.LASF240:
 6846 1101 6E524632 		.ascii	"nRF24_cmd_read_rx_payload\000"
 6846      345F636D 
 6846      645F7265 
 6846      61645F72 
 6846      785F7061 
 6847              	.LASF191:
 6848 111b 6E524632 		.ascii	"nRF24_set_standby_ii_mode\000"
 6848      345F7365 
 6848      745F7374 
 6848      616E6462 
 6848      795F6969 
 6849              	.LASF19:
 6850 1135 4E52465F 		.ascii	"NRF_REG_EN_RXADDR\000"
 6850      5245475F 
 6850      454E5F52 
 6850      58414444 
 6850      5200
 6851              	.LASF169:
 6852 1147 6E524632 		.ascii	"nRF24_set_address_width\000"
 6852      345F7365 
 6852      745F6164 
 6852      64726573 
 6852      735F7769 
 6853              	.LASF86:
 6854 115f 4E52465F 		.ascii	"NRF_CONFIG_ENABLE_CRC\000"
 6854      434F4E46 
 6854      49475F45 
 6854      4E41424C 
 6854      455F4352 
ARM GAS  C:\Users\d3bug\AppData\Local\Temp\ccQAmDn0.s 			page 151


 6855              	.LASF33:
 6856 1175 4E52465F 		.ascii	"NRF_REG_TX_ADDR\000"
 6856      5245475F 
 6856      54585F41 
 6856      44445200 
 6857              	.LASF215:
 6858 1185 6E524632 		.ascii	"nRF24_is_rx_fifo_empty\000"
 6858      345F6973 
 6858      5F72785F 
 6858      6669666F 
 6858      5F656D70 
 6859              	.LASF0:
 6860 119c 7369676E 		.ascii	"signed char\000"
 6860      65642063 
 6860      68617200 
 6861              	.LASF3:
 6862 11a8 73686F72 		.ascii	"short unsigned int\000"
 6862      7420756E 
 6862      7369676E 
 6862      65642069 
 6862      6E7400
 6863              	.LASF238:
 6864 11bb 6E524632 		.ascii	"nRF24_cmd_nop\000"
 6864      345F636D 
 6864      645F6E6F 
 6864      7000
 6865              	.LASF161:
 6866 11c9 6E524632 		.ascii	"nRF24_set_mode\000"
 6866      345F7365 
 6866      745F6D6F 
 6866      646500
 6867              	.LASF34:
 6868 11d8 4E52465F 		.ascii	"NRF_REG_RX_PW_P0\000"
 6868      5245475F 
 6868      52585F50 
 6868      575F5030 
 6868      00
 6869              	.LASF35:
 6870 11e9 4E52465F 		.ascii	"NRF_REG_RX_PW_P1\000"
 6870      5245475F 
 6870      52585F50 
 6870      575F5031 
 6870      00
 6871              	.LASF36:
 6872 11fa 4E52465F 		.ascii	"NRF_REG_RX_PW_P2\000"
 6872      5245475F 
 6872      52585F50 
 6872      575F5032 
 6872      00
 6873              	.LASF37:
 6874 120b 4E52465F 		.ascii	"NRF_REG_RX_PW_P3\000"
 6874      5245475F 
 6874      52585F50 
 6874      575F5033 
 6874      00
 6875              	.LASF38:
 6876 121c 4E52465F 		.ascii	"NRF_REG_RX_PW_P4\000"
ARM GAS  C:\Users\d3bug\AppData\Local\Temp\ccQAmDn0.s 			page 152


 6876      5245475F 
 6876      52585F50 
 6876      575F5034 
 6876      00
 6877              	.LASF39:
 6878 122d 4E52465F 		.ascii	"NRF_REG_RX_PW_P5\000"
 6878      5245475F 
 6878      52585F50 
 6878      575F5035 
 6878      00
 6879              	.LASF214:
 6880 123e 6E524632 		.ascii	"nRF24_is_tx_fifo_full\000"
 6880      345F6973 
 6880      5F74785F 
 6880      6669666F 
 6880      5F66756C 
 6881              	.LASF205:
 6882 1254 7061796C 		.ascii	"payload\000"
 6882      6F616400 
 6883              	.LASF146:
 6884 125c 4E52465F 		.ascii	"NRF_POWER_UP_DELAY_MS\000"
 6884      504F5745 
 6884      525F5550 
 6884      5F44454C 
 6884      41595F4D 
 6885              	.LASF12:
 6886 1272 646F7562 		.ascii	"double\000"
 6886      6C6500
 6887              	.LASF127:
 6888 1279 4E52465F 		.ascii	"NRF_OBSERVE_TX_PLOS_CNT_MASK\000"
 6888      4F425345 
 6888      5256455F 
 6888      54585F50 
 6888      4C4F535F 
 6889              	.LASF187:
 6890 1296 6E524632 		.ascii	"nRF24_disable_payload_with_ack\000"
 6890      345F6469 
 6890      7361626C 
 6890      655F7061 
 6890      796C6F61 
 6891              	.LASF250:
 6892 12b5 6E524632 		.ascii	"nRF24_get_address_width\000"
 6892      345F6765 
 6892      745F6164 
 6892      64726573 
 6892      735F7769 
 6893              	.LASF130:
 6894 12cd 4E52465F 		.ascii	"NRF_FIFO_STATUS_BIT_RX_FULL\000"
 6894      4649464F 
 6894      5F535441 
 6894      5455535F 
 6894      4249545F 
 6895              	.LASF170:
 6896 12e9 6E524632 		.ascii	"nRF24_set_rx_pipe_address\000"
 6896      345F7365 
 6896      745F7278 
 6896      5F706970 
ARM GAS  C:\Users\d3bug\AppData\Local\Temp\ccQAmDn0.s 			page 153


 6896      655F6164 
 6897              	.LASF72:
 6898 1303 4E52465F 		.ascii	"NRF_CONFIG_BIT_PRIM_RX\000"
 6898      434F4E46 
 6898      49475F42 
 6898      49545F50 
 6898      52494D5F 
 6899              	.LASF226:
 6900 131a 6E524632 		.ascii	"nRF24_flush_tx\000"
 6900      345F666C 
 6900      7573685F 
 6900      747800
 6901              	.LASF181:
 6902 1329 6E524632 		.ascii	"nRF24_enable_dynamic_payload_on_pipe\000"
 6902      345F656E 
 6902      61626C65 
 6902      5F64796E 
 6902      616D6963 
 6903              	.LASF223:
 6904 134e 6E524632 		.ascii	"nRF24_poll_interrupt\000"
 6904      345F706F 
 6904      6C6C5F69 
 6904      6E746572 
 6904      72757074 
 6905              	.LASF182:
 6906 1363 6E524632 		.ascii	"nRF24_disable_dynamic_payload\000"
 6906      345F6469 
 6906      7361626C 
 6906      655F6479 
 6906      6E616D69 
 6907              	.LASF203:
 6908 1381 6C6F7374 		.ascii	"lostPackets\000"
 6908      5061636B 
 6908      65747300 
 6909              	.LASF88:
 6910 138d 4E52465F 		.ascii	"NRF_CONFIG_DISABLE_MAX_RT\000"
 6910      434F4E46 
 6910      49475F44 
 6910      49534142 
 6910      4C455F4D 
 6911              	.LASF145:
 6912 13a7 4E52465F 		.ascii	"NRF_PAYLOAD_SIZE_MAX\000"
 6912      5041594C 
 6912      4F41445F 
 6912      53495A45 
 6912      5F4D4158 
 6913              		.ident	"GCC: (GNU Tools for ARM Embedded Processors) 5.4.1 20160609 (release) [ARM/embedded-5-bran
