ARM GAS  C:\Users\Xwx47\AppData\Local\Temp\ccUdC8ee.s 			page 1


   1              		.syntax unified
   2              		.cpu cortex-m0plus
   3              		.fpu softvfp
   4              		.eabi_attribute 20, 1
   5              		.eabi_attribute 21, 1
   6              		.eabi_attribute 23, 3
   7              		.eabi_attribute 24, 1
   8              		.eabi_attribute 25, 1
   9              		.eabi_attribute 26, 1
  10              		.eabi_attribute 30, 1
  11              		.eabi_attribute 34, 0
  12              		.eabi_attribute 18, 4
  13              		.thumb
  14              		.syntax unified
  15              		.file	"nRF24_NRF_FUNCS.c"
  16              		.text
  17              	.Ltext0:
  18              		.cfi_sections	.debug_frame
  19              		.section	.text.nRF24_init,"ax",%progbits
  20              		.align	2
  21              		.global	nRF24_init
  22              		.code	16
  23              		.thumb_func
  24              		.type	nRF24_init, %function
  25              	nRF24_init:
  26              	.LFB34:
  27              		.file 1 "Generated_Source\\PSoC4\\nRF24_NRF_FUNCS.c"
   1:Generated_Source\PSoC4/nRF24_NRF_FUNCS.c **** /****************************************************************************
   2:Generated_Source\PSoC4/nRF24_NRF_FUNCS.c **** * This file is part of the nRF24 Custom Component for PSoC Devices.
   3:Generated_Source\PSoC4/nRF24_NRF_FUNCS.c **** *
   4:Generated_Source\PSoC4/nRF24_NRF_FUNCS.c **** * Copyright (C) 2017 Carlos Diaz <carlos.santiago.diaz@gmail.com>
   5:Generated_Source\PSoC4/nRF24_NRF_FUNCS.c **** *
   6:Generated_Source\PSoC4/nRF24_NRF_FUNCS.c **** * Permission to use, copy, modify, and/or distribute this software for any
   7:Generated_Source\PSoC4/nRF24_NRF_FUNCS.c **** * purpose with or without fee is hereby granted, provided that the above
   8:Generated_Source\PSoC4/nRF24_NRF_FUNCS.c **** * copyright notice and this permission notice appear in all copies.
   9:Generated_Source\PSoC4/nRF24_NRF_FUNCS.c **** *
  10:Generated_Source\PSoC4/nRF24_NRF_FUNCS.c **** * THE SOFTWARE IS PROVIDED "AS IS" AND THE AUTHOR DISCLAIMS ALL WARRANTIES
  11:Generated_Source\PSoC4/nRF24_NRF_FUNCS.c **** * WITH REGARD TO THIS SOFTWARE INCLUDING ALL IMPLIED WARRANTIES OF
  12:Generated_Source\PSoC4/nRF24_NRF_FUNCS.c **** * MERCHANTABILITY AND FITNESS. IN NO EVENT SHALL THE AUTHOR BE LIABLE FOR
  13:Generated_Source\PSoC4/nRF24_NRF_FUNCS.c **** * ANY SPECIAL, DIRECT, INDIRECT, OR CONSEQUENTIAL DAMAGES OR ANY DAMAGES
  14:Generated_Source\PSoC4/nRF24_NRF_FUNCS.c **** * WHATSOEVER RESULTING FROM LOSS OF USE, DATA OR PROFITS, WHETHER IN AN
  15:Generated_Source\PSoC4/nRF24_NRF_FUNCS.c **** * ACTION OF CONTRACT, NEGLIGENCE OR OTHER TORTIOUS ACTION, ARISING OUT OF
  16:Generated_Source\PSoC4/nRF24_NRF_FUNCS.c **** * OR IN CONNECTION WITH THE USE OR PERFORMANCE OF THIS SOFTWARE.
  17:Generated_Source\PSoC4/nRF24_NRF_FUNCS.c **** ****************************************************************************/
  18:Generated_Source\PSoC4/nRF24_NRF_FUNCS.c **** 
  19:Generated_Source\PSoC4/nRF24_NRF_FUNCS.c **** /**
  20:Generated_Source\PSoC4/nRF24_NRF_FUNCS.c **** * @file nRF24_NRF_FUNCS.c
  21:Generated_Source\PSoC4/nRF24_NRF_FUNCS.c **** *
  22:Generated_Source\PSoC4/nRF24_NRF_FUNCS.c **** * @brief This file define all the functions available to the user.
  23:Generated_Source\PSoC4/nRF24_NRF_FUNCS.c **** */
  24:Generated_Source\PSoC4/nRF24_NRF_FUNCS.c **** 
  25:Generated_Source\PSoC4/nRF24_NRF_FUNCS.c **** #include "nRF24_NRF_CONFIG.h"
  26:Generated_Source\PSoC4/nRF24_NRF_FUNCS.c **** #include "nRF24_LL_SPI.h"
  27:Generated_Source\PSoC4/nRF24_NRF_FUNCS.c **** #include "nRF24_NRF_COMMANDS.h"
  28:Generated_Source\PSoC4/nRF24_NRF_FUNCS.c **** #include "nRF24_NRF_FUNCS.h"
  29:Generated_Source\PSoC4/nRF24_NRF_FUNCS.c **** #include "nRF24_NRF_REGS.h"
  30:Generated_Source\PSoC4/nRF24_NRF_FUNCS.c **** 
ARM GAS  C:\Users\Xwx47\AppData\Local\Temp\ccUdC8ee.s 			page 2


  31:Generated_Source\PSoC4/nRF24_NRF_FUNCS.c **** /**
  32:Generated_Source\PSoC4/nRF24_NRF_FUNCS.c ****  * @brief Configure the radio and clear IRQs, TX and RX FIFOs.
  33:Generated_Source\PSoC4/nRF24_NRF_FUNCS.c ****  */
  34:Generated_Source\PSoC4/nRF24_NRF_FUNCS.c **** void nRF24_start(void)
  35:Generated_Source\PSoC4/nRF24_NRF_FUNCS.c **** {
  36:Generated_Source\PSoC4/nRF24_NRF_FUNCS.c ****     // Recommended delay to start using the nRF24
  37:Generated_Source\PSoC4/nRF24_NRF_FUNCS.c ****     CyDelay(NRF_POWER_UP_DELAY);
  38:Generated_Source\PSoC4/nRF24_NRF_FUNCS.c ****     
  39:Generated_Source\PSoC4/nRF24_NRF_FUNCS.c ****     // Now the radio is in Power Down mode
  40:Generated_Source\PSoC4/nRF24_NRF_FUNCS.c ****     
  41:Generated_Source\PSoC4/nRF24_NRF_FUNCS.c ****     // Set SS to logic 1, CE to logic 0 and Start the SPI
  42:Generated_Source\PSoC4/nRF24_NRF_FUNCS.c **** #if defined(CY_GPIO_H)
  43:Generated_Source\PSoC4/nRF24_NRF_FUNCS.c ****     Cy_GPIO_Clr(CE_PORT, CE_NUM);
  44:Generated_Source\PSoC4/nRF24_NRF_FUNCS.c ****     Cy_GPIO_Set(SS_PORT, SS_NUM);
  45:Generated_Source\PSoC4/nRF24_NRF_FUNCS.c **** #else
  46:Generated_Source\PSoC4/nRF24_NRF_FUNCS.c ****     CE_Write(0);
  47:Generated_Source\PSoC4/nRF24_NRF_FUNCS.c ****     SS_Write(1);
  48:Generated_Source\PSoC4/nRF24_NRF_FUNCS.c **** #endif
  49:Generated_Source\PSoC4/nRF24_NRF_FUNCS.c ****     SPI_Start();
  50:Generated_Source\PSoC4/nRF24_NRF_FUNCS.c **** 
  51:Generated_Source\PSoC4/nRF24_NRF_FUNCS.c ****     // Flush both nRF24 FIFOs
  52:Generated_Source\PSoC4/nRF24_NRF_FUNCS.c ****     nRF24_flushRxCmd();
  53:Generated_Source\PSoC4/nRF24_NRF_FUNCS.c ****     nRF24_flushTxCmd();
  54:Generated_Source\PSoC4/nRF24_NRF_FUNCS.c ****     // Clear IRQ flags
  55:Generated_Source\PSoC4/nRF24_NRF_FUNCS.c ****     nRF24_clearAllIRQs();
  56:Generated_Source\PSoC4/nRF24_NRF_FUNCS.c ****     
  57:Generated_Source\PSoC4/nRF24_NRF_FUNCS.c ****     // Configure the nRF24 with the data from the customizer
  58:Generated_Source\PSoC4/nRF24_NRF_FUNCS.c ****     nRF24_init();
  59:Generated_Source\PSoC4/nRF24_NRF_FUNCS.c ****     
  60:Generated_Source\PSoC4/nRF24_NRF_FUNCS.c ****     // After PWR_UP = 1 the radio is in Standby-I mode, 130us of delay for settling
  61:Generated_Source\PSoC4/nRF24_NRF_FUNCS.c ****     CyDelayUs(150);
  62:Generated_Source\PSoC4/nRF24_NRF_FUNCS.c **** }
  63:Generated_Source\PSoC4/nRF24_NRF_FUNCS.c **** 
  64:Generated_Source\PSoC4/nRF24_NRF_FUNCS.c **** /**
  65:Generated_Source\PSoC4/nRF24_NRF_FUNCS.c ****  * Write data from the customizer to the nRF radio.
  66:Generated_Source\PSoC4/nRF24_NRF_FUNCS.c ****  */
  67:Generated_Source\PSoC4/nRF24_NRF_FUNCS.c **** void nRF24_init(void)
  68:Generated_Source\PSoC4/nRF24_NRF_FUNCS.c **** {
  28              		.loc 1 68 0
  29              		.cfi_startproc
  30              		@ args = 0, pretend = 0, frame = 0
  31              		@ frame_needed = 0, uses_anonymous_args = 0
  32 0000 10B5     		push	{r4, lr}
  33              		.cfi_def_cfa_offset 8
  34              		.cfi_offset 4, -8
  35              		.cfi_offset 14, -4
  69:Generated_Source\PSoC4/nRF24_NRF_FUNCS.c ****     nRF24_writeRegister(NRF_EN_AA_REG, CUSTOMIZER_EN_AA);
  36              		.loc 1 69 0
  37 0002 0121     		movs	r1, #1
  38 0004 0120     		movs	r0, #1
  39 0006 FFF7FEFF 		bl	nRF24_writeRegister
  40              	.LVL0:
  70:Generated_Source\PSoC4/nRF24_NRF_FUNCS.c ****     nRF24_writeRegister(NRF_EN_RXADDR_REG, CUSTOMIZER_EN_RXADDR);
  41              		.loc 1 70 0
  42 000a 0121     		movs	r1, #1
  43 000c 0220     		movs	r0, #2
  44 000e FFF7FEFF 		bl	nRF24_writeRegister
ARM GAS  C:\Users\Xwx47\AppData\Local\Temp\ccUdC8ee.s 			page 3


  45              	.LVL1:
  71:Generated_Source\PSoC4/nRF24_NRF_FUNCS.c ****     nRF24_writeRegister(NRF_SETUP_AW_REG, CUSTOMIZER_SETUP_AW);
  46              		.loc 1 71 0
  47 0012 0321     		movs	r1, #3
  48 0014 0320     		movs	r0, #3
  49 0016 FFF7FEFF 		bl	nRF24_writeRegister
  50              	.LVL2:
  72:Generated_Source\PSoC4/nRF24_NRF_FUNCS.c ****     nRF24_writeRegister(NRF_SETUP_RETR_REG, CUSTOMIZER_SETUP_RETR);
  51              		.loc 1 72 0
  52 001a 0321     		movs	r1, #3
  53 001c 0420     		movs	r0, #4
  54 001e FFF7FEFF 		bl	nRF24_writeRegister
  55              	.LVL3:
  73:Generated_Source\PSoC4/nRF24_NRF_FUNCS.c ****     nRF24_writeRegister(NRF_RF_CH_REG, CUSTOMIZER_RF_CH);
  56              		.loc 1 73 0
  57 0022 4B21     		movs	r1, #75
  58 0024 0520     		movs	r0, #5
  59 0026 FFF7FEFF 		bl	nRF24_writeRegister
  60              	.LVL4:
  74:Generated_Source\PSoC4/nRF24_NRF_FUNCS.c ****     nRF24_writeRegister(NRF_RF_SETUP_REG, CUSTOMIZER_RF_SETUP);
  61              		.loc 1 74 0
  62 002a 2621     		movs	r1, #38
  63 002c 0620     		movs	r0, #6
  64 002e FFF7FEFF 		bl	nRF24_writeRegister
  65              	.LVL5:
  75:Generated_Source\PSoC4/nRF24_NRF_FUNCS.c ****     nRF24_writeRegister(NRF_DYNPD_REG, CUSTOMIZER_DYNPD);
  66              		.loc 1 75 0
  67 0032 0021     		movs	r1, #0
  68 0034 1C20     		movs	r0, #28
  69 0036 FFF7FEFF 		bl	nRF24_writeRegister
  70              	.LVL6:
  76:Generated_Source\PSoC4/nRF24_NRF_FUNCS.c ****     nRF24_writeRegister(NRF_FEATURE_REG, CUSTOMIZER_FEATURE);
  71              		.loc 1 76 0
  72 003a 0021     		movs	r1, #0
  73 003c 1D20     		movs	r0, #29
  74 003e FFF7FEFF 		bl	nRF24_writeRegister
  75              	.LVL7:
  77:Generated_Source\PSoC4/nRF24_NRF_FUNCS.c **** 
  78:Generated_Source\PSoC4/nRF24_NRF_FUNCS.c **** // Configuring data pipes
  79:Generated_Source\PSoC4/nRF24_NRF_FUNCS.c **** #if (ENABLE_PIPE0 == 1)
  80:Generated_Source\PSoC4/nRF24_NRF_FUNCS.c ****     nRF24_writeRegister(NRF_RX_PW_P0_REG, CUSTOMIZER_RX_PW_P0);
  76              		.loc 1 80 0
  77 0042 0121     		movs	r1, #1
  78 0044 1120     		movs	r0, #17
  79 0046 FFF7FEFF 		bl	nRF24_writeRegister
  80              	.LVL8:
  81:Generated_Source\PSoC4/nRF24_NRF_FUNCS.c **** #endif
  82:Generated_Source\PSoC4/nRF24_NRF_FUNCS.c **** #if (ENABLE_PIPE1 == 1)
  83:Generated_Source\PSoC4/nRF24_NRF_FUNCS.c ****     nRF24_writeRegister(NRF_RX_PW_P1_REG, CUSTOMIZER_RX_PW_P0);
  84:Generated_Source\PSoC4/nRF24_NRF_FUNCS.c **** #endif
  85:Generated_Source\PSoC4/nRF24_NRF_FUNCS.c **** #if (ENABLE_PIPE2 == 1)
  86:Generated_Source\PSoC4/nRF24_NRF_FUNCS.c ****     nRF24_writeRegister(NRF_RX_ADDR_P2_REG, CUSTOMIZER_RX_ADDR_P2);
  87:Generated_Source\PSoC4/nRF24_NRF_FUNCS.c ****     nRF24_writeRegister(NRF_RX_PW_P2_REG, CUSTOMIZER_RX_PW_P0);
  88:Generated_Source\PSoC4/nRF24_NRF_FUNCS.c **** #endif
  89:Generated_Source\PSoC4/nRF24_NRF_FUNCS.c **** #if (ENABLE_PIPE3 == 1)
  90:Generated_Source\PSoC4/nRF24_NRF_FUNCS.c ****     nRF24_writeRegister(NRF_RX_ADDR_P3_REG, CUSTOMIZER_RX_ADDR_P3);
  91:Generated_Source\PSoC4/nRF24_NRF_FUNCS.c ****     nRF24_writeRegister(NRF_RX_PW_P3_REG, CUSTOMIZER_RX_PW_P0);
ARM GAS  C:\Users\Xwx47\AppData\Local\Temp\ccUdC8ee.s 			page 4


  92:Generated_Source\PSoC4/nRF24_NRF_FUNCS.c **** #endif
  93:Generated_Source\PSoC4/nRF24_NRF_FUNCS.c **** #if (ENABLE_PIPE4 == 1)
  94:Generated_Source\PSoC4/nRF24_NRF_FUNCS.c ****     nRF24_writeRegister(NRF_RX_ADDR_P4_REG, CUSTOMIZER_RX_ADDR_P4);
  95:Generated_Source\PSoC4/nRF24_NRF_FUNCS.c ****     nRF24_writeRegister(NRF_RX_PW_P4_REG, CUSTOMIZER_RX_PW_P0);
  96:Generated_Source\PSoC4/nRF24_NRF_FUNCS.c **** #endif
  97:Generated_Source\PSoC4/nRF24_NRF_FUNCS.c **** #if (ENABLE_PIPE5 == 1)
  98:Generated_Source\PSoC4/nRF24_NRF_FUNCS.c ****     nRF24_writeRegister(NRF_RX_ADDR_P5_REG, CUSTOMIZER_RX_ADDR_P5);
  99:Generated_Source\PSoC4/nRF24_NRF_FUNCS.c ****     nRF24_writeRegister(NRF_RX_PW_P5_REG, CUSTOMIZER_RX_PW_P0);
 100:Generated_Source\PSoC4/nRF24_NRF_FUNCS.c **** #endif
 101:Generated_Source\PSoC4/nRF24_NRF_FUNCS.c **** 
 102:Generated_Source\PSoC4/nRF24_NRF_FUNCS.c ****     nRF24_writeRegister( NRF_CONFIG_REG, CUSTOMIZER_CONFIG);
  81              		.loc 1 102 0
  82 004a 3B21     		movs	r1, #59
  83 004c 0020     		movs	r0, #0
  84 004e FFF7FEFF 		bl	nRF24_writeRegister
  85              	.LVL9:
 103:Generated_Source\PSoC4/nRF24_NRF_FUNCS.c **** }
  86              		.loc 1 103 0
  87              		@ sp needed
  88 0052 10BD     		pop	{r4, pc}
  89              		.cfi_endproc
  90              	.LFE34:
  91              		.size	nRF24_init, .-nRF24_init
  92              		.section	.text.nRF24_enable,"ax",%progbits
  93              		.align	2
  94              		.global	nRF24_enable
  95              		.code	16
  96              		.thumb_func
  97              		.type	nRF24_enable, %function
  98              	nRF24_enable:
  99              	.LFB35:
 104:Generated_Source\PSoC4/nRF24_NRF_FUNCS.c **** 
 105:Generated_Source\PSoC4/nRF24_NRF_FUNCS.c **** /**
 106:Generated_Source\PSoC4/nRF24_NRF_FUNCS.c ****  * Enable the nRF24 radio.
 107:Generated_Source\PSoC4/nRF24_NRF_FUNCS.c ****  *
 108:Generated_Source\PSoC4/nRF24_NRF_FUNCS.c ****  * @todo Implement this function
 109:Generated_Source\PSoC4/nRF24_NRF_FUNCS.c ****  */
 110:Generated_Source\PSoC4/nRF24_NRF_FUNCS.c **** void nRF24_enable(void)
 111:Generated_Source\PSoC4/nRF24_NRF_FUNCS.c **** {
 100              		.loc 1 111 0
 101              		.cfi_startproc
 102              		@ args = 0, pretend = 0, frame = 0
 103              		@ frame_needed = 0, uses_anonymous_args = 0
 104              		@ link register save eliminated.
 112:Generated_Source\PSoC4/nRF24_NRF_FUNCS.c **** }
 105              		.loc 1 112 0
 106              		@ sp needed
 107 0000 7047     		bx	lr
 108              		.cfi_endproc
 109              	.LFE35:
 110              		.size	nRF24_enable, .-nRF24_enable
 111 0002 C046     		.section	.text.nRF24_stop,"ax",%progbits
 112              		.align	2
 113              		.global	nRF24_stop
 114              		.code	16
 115              		.thumb_func
 116              		.type	nRF24_stop, %function
ARM GAS  C:\Users\Xwx47\AppData\Local\Temp\ccUdC8ee.s 			page 5


 117              	nRF24_stop:
 118              	.LFB36:
 113:Generated_Source\PSoC4/nRF24_NRF_FUNCS.c **** 
 114:Generated_Source\PSoC4/nRF24_NRF_FUNCS.c **** /**
 115:Generated_Source\PSoC4/nRF24_NRF_FUNCS.c ****  * Stop the nRF24 radio.
 116:Generated_Source\PSoC4/nRF24_NRF_FUNCS.c ****  *
 117:Generated_Source\PSoC4/nRF24_NRF_FUNCS.c ****  * @todo Implement this function
 118:Generated_Source\PSoC4/nRF24_NRF_FUNCS.c ****  */
 119:Generated_Source\PSoC4/nRF24_NRF_FUNCS.c **** void nRF24_stop(void)
 120:Generated_Source\PSoC4/nRF24_NRF_FUNCS.c **** {
 119              		.loc 1 120 0
 120              		.cfi_startproc
 121              		@ args = 0, pretend = 0, frame = 0
 122              		@ frame_needed = 0, uses_anonymous_args = 0
 123              		@ link register save eliminated.
 121:Generated_Source\PSoC4/nRF24_NRF_FUNCS.c **** }
 124              		.loc 1 121 0
 125              		@ sp needed
 126 0000 7047     		bx	lr
 127              		.cfi_endproc
 128              	.LFE36:
 129              		.size	nRF24_stop, .-nRF24_stop
 130 0002 C046     		.section	.text.nRF24_sleep,"ax",%progbits
 131              		.align	2
 132              		.global	nRF24_sleep
 133              		.code	16
 134              		.thumb_func
 135              		.type	nRF24_sleep, %function
 136              	nRF24_sleep:
 137              	.LFB37:
 122:Generated_Source\PSoC4/nRF24_NRF_FUNCS.c **** 
 123:Generated_Source\PSoC4/nRF24_NRF_FUNCS.c **** /**
 124:Generated_Source\PSoC4/nRF24_NRF_FUNCS.c ****  * Put the nRF24 radio on Sleep mode.
 125:Generated_Source\PSoC4/nRF24_NRF_FUNCS.c ****  *
 126:Generated_Source\PSoC4/nRF24_NRF_FUNCS.c ****  * @todo Implement this function.
 127:Generated_Source\PSoC4/nRF24_NRF_FUNCS.c ****  */
 128:Generated_Source\PSoC4/nRF24_NRF_FUNCS.c **** void nRF24_sleep(void)
 129:Generated_Source\PSoC4/nRF24_NRF_FUNCS.c **** {
 138              		.loc 1 129 0
 139              		.cfi_startproc
 140              		@ args = 0, pretend = 0, frame = 0
 141              		@ frame_needed = 0, uses_anonymous_args = 0
 142              		@ link register save eliminated.
 130:Generated_Source\PSoC4/nRF24_NRF_FUNCS.c **** }
 143              		.loc 1 130 0
 144              		@ sp needed
 145 0000 7047     		bx	lr
 146              		.cfi_endproc
 147              	.LFE37:
 148              		.size	nRF24_sleep, .-nRF24_sleep
 149 0002 C046     		.section	.text.nRF24_wakeup,"ax",%progbits
 150              		.align	2
 151              		.global	nRF24_wakeup
 152              		.code	16
 153              		.thumb_func
 154              		.type	nRF24_wakeup, %function
 155              	nRF24_wakeup:
ARM GAS  C:\Users\Xwx47\AppData\Local\Temp\ccUdC8ee.s 			page 6


 156              	.LFB38:
 131:Generated_Source\PSoC4/nRF24_NRF_FUNCS.c **** 
 132:Generated_Source\PSoC4/nRF24_NRF_FUNCS.c **** /**
 133:Generated_Source\PSoC4/nRF24_NRF_FUNCS.c ****  * Wakeup the nRF24 radio, and restore the configuration.
 134:Generated_Source\PSoC4/nRF24_NRF_FUNCS.c ****  *
 135:Generated_Source\PSoC4/nRF24_NRF_FUNCS.c ****  * @todo Implement this function.
 136:Generated_Source\PSoC4/nRF24_NRF_FUNCS.c ****  */
 137:Generated_Source\PSoC4/nRF24_NRF_FUNCS.c **** void nRF24_wakeup(void)
 138:Generated_Source\PSoC4/nRF24_NRF_FUNCS.c **** {
 157              		.loc 1 138 0
 158              		.cfi_startproc
 159              		@ args = 0, pretend = 0, frame = 0
 160              		@ frame_needed = 0, uses_anonymous_args = 0
 161              		@ link register save eliminated.
 139:Generated_Source\PSoC4/nRF24_NRF_FUNCS.c **** }
 162              		.loc 1 139 0
 163              		@ sp needed
 164 0000 7047     		bx	lr
 165              		.cfi_endproc
 166              	.LFE38:
 167              		.size	nRF24_wakeup, .-nRF24_wakeup
 168 0002 C046     		.section	.text.nRF24_saveConfig,"ax",%progbits
 169              		.align	2
 170              		.global	nRF24_saveConfig
 171              		.code	16
 172              		.thumb_func
 173              		.type	nRF24_saveConfig, %function
 174              	nRF24_saveConfig:
 175              	.LFB39:
 140:Generated_Source\PSoC4/nRF24_NRF_FUNCS.c **** 
 141:Generated_Source\PSoC4/nRF24_NRF_FUNCS.c **** /**
 142:Generated_Source\PSoC4/nRF24_NRF_FUNCS.c ****  * Save the nRF24 radio configuration.
 143:Generated_Source\PSoC4/nRF24_NRF_FUNCS.c ****  *
 144:Generated_Source\PSoC4/nRF24_NRF_FUNCS.c ****  * @todo Implement this function.
 145:Generated_Source\PSoC4/nRF24_NRF_FUNCS.c ****  */
 146:Generated_Source\PSoC4/nRF24_NRF_FUNCS.c **** void nRF24_saveConfig(void)
 147:Generated_Source\PSoC4/nRF24_NRF_FUNCS.c **** {
 176              		.loc 1 147 0
 177              		.cfi_startproc
 178              		@ args = 0, pretend = 0, frame = 0
 179              		@ frame_needed = 0, uses_anonymous_args = 0
 180              		@ link register save eliminated.
 148:Generated_Source\PSoC4/nRF24_NRF_FUNCS.c **** }
 181              		.loc 1 148 0
 182              		@ sp needed
 183 0000 7047     		bx	lr
 184              		.cfi_endproc
 185              	.LFE39:
 186              		.size	nRF24_saveConfig, .-nRF24_saveConfig
 187 0002 C046     		.section	.text.nRF24_restoreConfig,"ax",%progbits
 188              		.align	2
 189              		.global	nRF24_restoreConfig
 190              		.code	16
 191              		.thumb_func
 192              		.type	nRF24_restoreConfig, %function
 193              	nRF24_restoreConfig:
 194              	.LFB40:
ARM GAS  C:\Users\Xwx47\AppData\Local\Temp\ccUdC8ee.s 			page 7


 149:Generated_Source\PSoC4/nRF24_NRF_FUNCS.c **** 
 150:Generated_Source\PSoC4/nRF24_NRF_FUNCS.c **** /**
 151:Generated_Source\PSoC4/nRF24_NRF_FUNCS.c ****  * Restore the nRF24 radio configuration.
 152:Generated_Source\PSoC4/nRF24_NRF_FUNCS.c ****  *
 153:Generated_Source\PSoC4/nRF24_NRF_FUNCS.c ****  * @todo Implement this function.
 154:Generated_Source\PSoC4/nRF24_NRF_FUNCS.c ****  */
 155:Generated_Source\PSoC4/nRF24_NRF_FUNCS.c **** void nRF24_restoreConfig(void)
 156:Generated_Source\PSoC4/nRF24_NRF_FUNCS.c **** {
 195              		.loc 1 156 0
 196              		.cfi_startproc
 197              		@ args = 0, pretend = 0, frame = 0
 198              		@ frame_needed = 0, uses_anonymous_args = 0
 199              		@ link register save eliminated.
 157:Generated_Source\PSoC4/nRF24_NRF_FUNCS.c **** }
 200              		.loc 1 157 0
 201              		@ sp needed
 202 0000 7047     		bx	lr
 203              		.cfi_endproc
 204              	.LFE40:
 205              		.size	nRF24_restoreConfig, .-nRF24_restoreConfig
 206 0002 C046     		.section	.text.nRF24_setPowerDownMode,"ax",%progbits
 207              		.align	2
 208              		.global	nRF24_setPowerDownMode
 209              		.code	16
 210              		.thumb_func
 211              		.type	nRF24_setPowerDownMode, %function
 212              	nRF24_setPowerDownMode:
 213              	.LFB42:
 158:Generated_Source\PSoC4/nRF24_NRF_FUNCS.c **** 
 159:Generated_Source\PSoC4/nRF24_NRF_FUNCS.c **** /**
 160:Generated_Source\PSoC4/nRF24_NRF_FUNCS.c ****  * Configure the radio as Receiver or Transmitter.
 161:Generated_Source\PSoC4/nRF24_NRF_FUNCS.c ****  *
 162:Generated_Source\PSoC4/nRF24_NRF_FUNCS.c ****  * @param const NrfMode mode: The radio can be configured as Receiver (PRX)
 163:Generated_Source\PSoC4/nRF24_NRF_FUNCS.c ****  * or Transmitter (PTX).
 164:Generated_Source\PSoC4/nRF24_NRF_FUNCS.c ****  */
 165:Generated_Source\PSoC4/nRF24_NRF_FUNCS.c **** void nRF24_setMode(const NrfMode mode)
 166:Generated_Source\PSoC4/nRF24_NRF_FUNCS.c **** {
 167:Generated_Source\PSoC4/nRF24_NRF_FUNCS.c ****     mode ? nRF24_setRxMode() : nRF24_setTxMode();
 168:Generated_Source\PSoC4/nRF24_NRF_FUNCS.c **** }
 169:Generated_Source\PSoC4/nRF24_NRF_FUNCS.c **** 
 170:Generated_Source\PSoC4/nRF24_NRF_FUNCS.c **** /**
 171:Generated_Source\PSoC4/nRF24_NRF_FUNCS.c ****  * @brief Set radio in Power Down Mode.
 172:Generated_Source\PSoC4/nRF24_NRF_FUNCS.c ****  *
 173:Generated_Source\PSoC4/nRF24_NRF_FUNCS.c ****  * In power down mode nRF24 is disabled using minimal current consumption.
 174:Generated_Source\PSoC4/nRF24_NRF_FUNCS.c ****  * All register values available are maintained and the SPI is kept active,
 175:Generated_Source\PSoC4/nRF24_NRF_FUNCS.c ****  * enabling change of configuration and the uploading/downloading of data
 176:Generated_Source\PSoC4/nRF24_NRF_FUNCS.c ****  * registers.
 177:Generated_Source\PSoC4/nRF24_NRF_FUNCS.c ****  * Power down mode is entered by setting the PWR_UP bit in the CONFIG register
 178:Generated_Source\PSoC4/nRF24_NRF_FUNCS.c ****  * low.
 179:Generated_Source\PSoC4/nRF24_NRF_FUNCS.c ****  */
 180:Generated_Source\PSoC4/nRF24_NRF_FUNCS.c **** void nRF24_setPowerDownMode(void)
 181:Generated_Source\PSoC4/nRF24_NRF_FUNCS.c **** {
 214              		.loc 1 181 0
 215              		.cfi_startproc
 216              		@ args = 0, pretend = 0, frame = 0
 217              		@ frame_needed = 0, uses_anonymous_args = 0
 218 0000 10B5     		push	{r4, lr}
ARM GAS  C:\Users\Xwx47\AppData\Local\Temp\ccUdC8ee.s 			page 8


 219              		.cfi_def_cfa_offset 8
 220              		.cfi_offset 4, -8
 221              		.cfi_offset 14, -4
 182:Generated_Source\PSoC4/nRF24_NRF_FUNCS.c ****     nRF24_clearBit(NRF_CONFIG_REG, NRF_CONFIG_PWR_UP);
 222              		.loc 1 182 0
 223 0002 0121     		movs	r1, #1
 224 0004 0020     		movs	r0, #0
 225 0006 FFF7FEFF 		bl	nRF24_clearBit
 226              	.LVL10:
 183:Generated_Source\PSoC4/nRF24_NRF_FUNCS.c **** }
 227              		.loc 1 183 0
 228              		@ sp needed
 229 000a 10BD     		pop	{r4, pc}
 230              		.cfi_endproc
 231              	.LFE42:
 232              		.size	nRF24_setPowerDownMode, .-nRF24_setPowerDownMode
 233              		.section	.text.nRF24_setRxMode,"ax",%progbits
 234              		.align	2
 235              		.global	nRF24_setRxMode
 236              		.code	16
 237              		.thumb_func
 238              		.type	nRF24_setRxMode, %function
 239              	nRF24_setRxMode:
 240              	.LFB45:
 184:Generated_Source\PSoC4/nRF24_NRF_FUNCS.c **** 
 185:Generated_Source\PSoC4/nRF24_NRF_FUNCS.c **** /**
 186:Generated_Source\PSoC4/nRF24_NRF_FUNCS.c ****  * @brief Set the radio in Standby I Mode.
 187:Generated_Source\PSoC4/nRF24_NRF_FUNCS.c ****  *
 188:Generated_Source\PSoC4/nRF24_NRF_FUNCS.c ****  * By setting the PWR_UP bit in the CONFIG register to 1, the device enters
 189:Generated_Source\PSoC4/nRF24_NRF_FUNCS.c ****  * standby-I mode. Standby-I mode is used to minimize average current
 190:Generated_Source\PSoC4/nRF24_NRF_FUNCS.c ****  * consumption while maintaining short start up times.
 191:Generated_Source\PSoC4/nRF24_NRF_FUNCS.c ****  * In this mode only part of the crystal oscillator is active. Change to
 192:Generated_Source\PSoC4/nRF24_NRF_FUNCS.c ****  * active modes only happens if CE is set high and when CE is set low,
 193:Generated_Source\PSoC4/nRF24_NRF_FUNCS.c ****  * the nRF24 returns to standby-I mode from both the TX and RX modes.
 194:Generated_Source\PSoC4/nRF24_NRF_FUNCS.c ****  */
 195:Generated_Source\PSoC4/nRF24_NRF_FUNCS.c **** void nRF24_setStandbyIMode(void)
 196:Generated_Source\PSoC4/nRF24_NRF_FUNCS.c **** {
 197:Generated_Source\PSoC4/nRF24_NRF_FUNCS.c ****     nRF24_listen(false);
 198:Generated_Source\PSoC4/nRF24_NRF_FUNCS.c ****     nRF24_clearBit(NRF_CONFIG_REG, NRF_CONFIG_PWR_UP);
 199:Generated_Source\PSoC4/nRF24_NRF_FUNCS.c **** }
 200:Generated_Source\PSoC4/nRF24_NRF_FUNCS.c **** 
 201:Generated_Source\PSoC4/nRF24_NRF_FUNCS.c **** /**
 202:Generated_Source\PSoC4/nRF24_NRF_FUNCS.c ****  * @brief Set the radio in Standby II Mode.
 203:Generated_Source\PSoC4/nRF24_NRF_FUNCS.c ****  *
 204:Generated_Source\PSoC4/nRF24_NRF_FUNCS.c ****  * In standby-II mode extra clock buffers are active and more current is used
 205:Generated_Source\PSoC4/nRF24_NRF_FUNCS.c ****  * compared to standby-I mode. nRF24 enters standby-II mode if CE is held high
 206:Generated_Source\PSoC4/nRF24_NRF_FUNCS.c ****  * on a TX device with an empty TX FIFO.
 207:Generated_Source\PSoC4/nRF24_NRF_FUNCS.c ****  * If a new packet is uploaded to the TX FIFO, the PLL immediately starts and
 208:Generated_Source\PSoC4/nRF24_NRF_FUNCS.c ****  * the packet is transmitted after the normal PLL settling  delay (130us).
 209:Generated_Source\PSoC4/nRF24_NRF_FUNCS.c ****  */
 210:Generated_Source\PSoC4/nRF24_NRF_FUNCS.c **** void nRF24_setStandbyIIMode(void)
 211:Generated_Source\PSoC4/nRF24_NRF_FUNCS.c **** {
 212:Generated_Source\PSoC4/nRF24_NRF_FUNCS.c ****     nRF24_listen(true);
 213:Generated_Source\PSoC4/nRF24_NRF_FUNCS.c ****     nRF24_setBit(NRF_CONFIG_REG, NRF_CONFIG_PWR_UP);
 214:Generated_Source\PSoC4/nRF24_NRF_FUNCS.c **** }
 215:Generated_Source\PSoC4/nRF24_NRF_FUNCS.c **** 
 216:Generated_Source\PSoC4/nRF24_NRF_FUNCS.c **** /**
ARM GAS  C:\Users\Xwx47\AppData\Local\Temp\ccUdC8ee.s 			page 9


 217:Generated_Source\PSoC4/nRF24_NRF_FUNCS.c ****  * @brief Set the radio in Receiver (Rx) Mode.
 218:Generated_Source\PSoC4/nRF24_NRF_FUNCS.c ****  *
 219:Generated_Source\PSoC4/nRF24_NRF_FUNCS.c ****  * RX mode is an active mode where the nRF24 radio is used as receiver. To
 220:Generated_Source\PSoC4/nRF24_NRF_FUNCS.c ****  * enter this mode, the nRF24 must have the PWR_UP bit, PRIM_RX bit and the CE
 221:Generated_Source\PSoC4/nRF24_NRF_FUNCS.c ****  * pin set high.
 222:Generated_Source\PSoC4/nRF24_NRF_FUNCS.c ****  */
 223:Generated_Source\PSoC4/nRF24_NRF_FUNCS.c **** void nRF24_setRxMode(void)
 224:Generated_Source\PSoC4/nRF24_NRF_FUNCS.c **** {
 241              		.loc 1 224 0
 242              		.cfi_startproc
 243              		@ args = 0, pretend = 0, frame = 0
 244              		@ frame_needed = 0, uses_anonymous_args = 0
 245 0000 10B5     		push	{r4, lr}
 246              		.cfi_def_cfa_offset 8
 247              		.cfi_offset 4, -8
 248              		.cfi_offset 14, -4
 225:Generated_Source\PSoC4/nRF24_NRF_FUNCS.c ****     nRF24_setBit(NRF_CONFIG_REG, NRF_CONFIG_PRIM_RX);
 249              		.loc 1 225 0
 250 0002 0021     		movs	r1, #0
 251 0004 0020     		movs	r0, #0
 252 0006 FFF7FEFF 		bl	nRF24_setBit
 253              	.LVL11:
 226:Generated_Source\PSoC4/nRF24_NRF_FUNCS.c **** }
 254              		.loc 1 226 0
 255              		@ sp needed
 256 000a 10BD     		pop	{r4, pc}
 257              		.cfi_endproc
 258              	.LFE45:
 259              		.size	nRF24_setRxMode, .-nRF24_setRxMode
 260              		.section	.text.nRF24_setTxMode,"ax",%progbits
 261              		.align	2
 262              		.global	nRF24_setTxMode
 263              		.code	16
 264              		.thumb_func
 265              		.type	nRF24_setTxMode, %function
 266              	nRF24_setTxMode:
 267              	.LFB46:
 227:Generated_Source\PSoC4/nRF24_NRF_FUNCS.c **** 
 228:Generated_Source\PSoC4/nRF24_NRF_FUNCS.c **** /**
 229:Generated_Source\PSoC4/nRF24_NRF_FUNCS.c ****  * @brief Set the radio in Transmitted (Tx) Mode.
 230:Generated_Source\PSoC4/nRF24_NRF_FUNCS.c ****  *
 231:Generated_Source\PSoC4/nRF24_NRF_FUNCS.c ****  * TX mode is an active mode for transmitting packets. To enter this mode,
 232:Generated_Source\PSoC4/nRF24_NRF_FUNCS.c ****  * the nRF24 must have the PWR_UP bit set high, PRIM_RX bit set low, a payload
 233:Generated_Source\PSoC4/nRF24_NRF_FUNCS.c ****  * in the TX FIFO and a high pulse on the CE for more than 10us.
 234:Generated_Source\PSoC4/nRF24_NRF_FUNCS.c ****  */
 235:Generated_Source\PSoC4/nRF24_NRF_FUNCS.c **** void nRF24_setTxMode(void)
 236:Generated_Source\PSoC4/nRF24_NRF_FUNCS.c **** {
 268              		.loc 1 236 0
 269              		.cfi_startproc
 270              		@ args = 0, pretend = 0, frame = 0
 271              		@ frame_needed = 0, uses_anonymous_args = 0
 272 0000 10B5     		push	{r4, lr}
 273              		.cfi_def_cfa_offset 8
 274              		.cfi_offset 4, -8
 275              		.cfi_offset 14, -4
 237:Generated_Source\PSoC4/nRF24_NRF_FUNCS.c ****     nRF24_clearBit(NRF_CONFIG_REG, NRF_CONFIG_PRIM_RX);
 276              		.loc 1 237 0
ARM GAS  C:\Users\Xwx47\AppData\Local\Temp\ccUdC8ee.s 			page 10


 277 0002 0021     		movs	r1, #0
 278 0004 0020     		movs	r0, #0
 279 0006 FFF7FEFF 		bl	nRF24_clearBit
 280              	.LVL12:
 238:Generated_Source\PSoC4/nRF24_NRF_FUNCS.c **** }
 281              		.loc 1 238 0
 282              		@ sp needed
 283 000a 10BD     		pop	{r4, pc}
 284              		.cfi_endproc
 285              	.LFE46:
 286              		.size	nRF24_setTxMode, .-nRF24_setTxMode
 287              		.section	.text.nRF24_setMode,"ax",%progbits
 288              		.align	2
 289              		.global	nRF24_setMode
 290              		.code	16
 291              		.thumb_func
 292              		.type	nRF24_setMode, %function
 293              	nRF24_setMode:
 294              	.LFB41:
 166:Generated_Source\PSoC4/nRF24_NRF_FUNCS.c ****     mode ? nRF24_setRxMode() : nRF24_setTxMode();
 295              		.loc 1 166 0
 296              		.cfi_startproc
 297              		@ args = 0, pretend = 0, frame = 0
 298              		@ frame_needed = 0, uses_anonymous_args = 0
 299              	.LVL13:
 300 0000 10B5     		push	{r4, lr}
 301              		.cfi_def_cfa_offset 8
 302              		.cfi_offset 4, -8
 303              		.cfi_offset 14, -4
 167:Generated_Source\PSoC4/nRF24_NRF_FUNCS.c **** }
 304              		.loc 1 167 0
 305 0002 0028     		cmp	r0, #0
 306 0004 02D0     		beq	.L12
 167:Generated_Source\PSoC4/nRF24_NRF_FUNCS.c **** }
 307              		.loc 1 167 0 is_stmt 0 discriminator 1
 308 0006 FFF7FEFF 		bl	nRF24_setRxMode
 309              	.LVL14:
 310 000a 01E0     		b	.L11
 311              	.LVL15:
 312              	.L12:
 167:Generated_Source\PSoC4/nRF24_NRF_FUNCS.c **** }
 313              		.loc 1 167 0 discriminator 2
 314 000c FFF7FEFF 		bl	nRF24_setTxMode
 315              	.LVL16:
 316              	.L11:
 168:Generated_Source\PSoC4/nRF24_NRF_FUNCS.c **** 
 317              		.loc 1 168 0 is_stmt 1
 318              		@ sp needed
 319 0010 10BD     		pop	{r4, pc}
 320              		.cfi_endproc
 321              	.LFE41:
 322              		.size	nRF24_setMode, .-nRF24_setMode
 323 0012 C046     		.section	.text.nRF24_enableAutoACK,"ax",%progbits
 324              		.align	2
 325              		.global	nRF24_enableAutoACK
 326              		.code	16
 327              		.thumb_func
ARM GAS  C:\Users\Xwx47\AppData\Local\Temp\ccUdC8ee.s 			page 11


 328              		.type	nRF24_enableAutoACK, %function
 329              	nRF24_enableAutoACK:
 330              	.LFB47:
 239:Generated_Source\PSoC4/nRF24_NRF_FUNCS.c **** 
 240:Generated_Source\PSoC4/nRF24_NRF_FUNCS.c **** /**
 241:Generated_Source\PSoC4/nRF24_NRF_FUNCS.c ****  * @brief Enable AutoACK in the given pipe.
 242:Generated_Source\PSoC4/nRF24_NRF_FUNCS.c ****  *
 243:Generated_Source\PSoC4/nRF24_NRF_FUNCS.c ****  * @param pipe: Enable AutoACK in the given pipe.
 244:Generated_Source\PSoC4/nRF24_NRF_FUNCS.c ****  */
 245:Generated_Source\PSoC4/nRF24_NRF_FUNCS.c **** void nRF24_enableAutoACK(const NrfPipe pipe)
 246:Generated_Source\PSoC4/nRF24_NRF_FUNCS.c **** {
 331              		.loc 1 246 0
 332              		.cfi_startproc
 333              		@ args = 0, pretend = 0, frame = 0
 334              		@ frame_needed = 0, uses_anonymous_args = 0
 335              	.LVL17:
 336 0000 10B5     		push	{r4, lr}
 337              		.cfi_def_cfa_offset 8
 338              		.cfi_offset 4, -8
 339              		.cfi_offset 14, -4
 340 0002 0100     		movs	r1, r0
 247:Generated_Source\PSoC4/nRF24_NRF_FUNCS.c ****     nRF24_setBit(NRF_EN_AA_REG, pipe);
 341              		.loc 1 247 0
 342 0004 0120     		movs	r0, #1
 343              	.LVL18:
 344 0006 FFF7FEFF 		bl	nRF24_setBit
 345              	.LVL19:
 248:Generated_Source\PSoC4/nRF24_NRF_FUNCS.c **** }
 346              		.loc 1 248 0
 347              		@ sp needed
 348 000a 10BD     		pop	{r4, pc}
 349              		.cfi_endproc
 350              	.LFE47:
 351              		.size	nRF24_enableAutoACK, .-nRF24_enableAutoACK
 352              		.section	.text.nRF24_disableAutoACK,"ax",%progbits
 353              		.align	2
 354              		.global	nRF24_disableAutoACK
 355              		.code	16
 356              		.thumb_func
 357              		.type	nRF24_disableAutoACK, %function
 358              	nRF24_disableAutoACK:
 359              	.LFB48:
 249:Generated_Source\PSoC4/nRF24_NRF_FUNCS.c **** 
 250:Generated_Source\PSoC4/nRF24_NRF_FUNCS.c **** /**
 251:Generated_Source\PSoC4/nRF24_NRF_FUNCS.c ****  * @brief Disable AutoACK in the given pipe.
 252:Generated_Source\PSoC4/nRF24_NRF_FUNCS.c ****  *
 253:Generated_Source\PSoC4/nRF24_NRF_FUNCS.c ****  * @param pipe: Disable AutoACK in the given pipe.
 254:Generated_Source\PSoC4/nRF24_NRF_FUNCS.c ****  */
 255:Generated_Source\PSoC4/nRF24_NRF_FUNCS.c **** void nRF24_disableAutoACK(const NrfPipe pipe)
 256:Generated_Source\PSoC4/nRF24_NRF_FUNCS.c **** {
 360              		.loc 1 256 0
 361              		.cfi_startproc
 362              		@ args = 0, pretend = 0, frame = 0
 363              		@ frame_needed = 0, uses_anonymous_args = 0
 364              	.LVL20:
 365 0000 10B5     		push	{r4, lr}
 366              		.cfi_def_cfa_offset 8
ARM GAS  C:\Users\Xwx47\AppData\Local\Temp\ccUdC8ee.s 			page 12


 367              		.cfi_offset 4, -8
 368              		.cfi_offset 14, -4
 369 0002 0100     		movs	r1, r0
 257:Generated_Source\PSoC4/nRF24_NRF_FUNCS.c ****     nRF24_clearBit(NRF_EN_AA_REG, pipe);
 370              		.loc 1 257 0
 371 0004 0120     		movs	r0, #1
 372              	.LVL21:
 373 0006 FFF7FEFF 		bl	nRF24_clearBit
 374              	.LVL22:
 258:Generated_Source\PSoC4/nRF24_NRF_FUNCS.c **** }
 375              		.loc 1 258 0
 376              		@ sp needed
 377 000a 10BD     		pop	{r4, pc}
 378              		.cfi_endproc
 379              	.LFE48:
 380              		.size	nRF24_disableAutoACK, .-nRF24_disableAutoACK
 381              		.section	.text.nRF24_setChannel,"ax",%progbits
 382              		.align	2
 383              		.global	nRF24_setChannel
 384              		.code	16
 385              		.thumb_func
 386              		.type	nRF24_setChannel, %function
 387              	nRF24_setChannel:
 388              	.LFB49:
 259:Generated_Source\PSoC4/nRF24_NRF_FUNCS.c **** 
 260:Generated_Source\PSoC4/nRF24_NRF_FUNCS.c **** /**
 261:Generated_Source\PSoC4/nRF24_NRF_FUNCS.c ****  * @brief Set the channel where the radio will work.
 262:Generated_Source\PSoC4/nRF24_NRF_FUNCS.c ****  *
 263:Generated_Source\PSoC4/nRF24_NRF_FUNCS.c ****  * @param uint8_t channel: Channel where the radio will work.
 264:Generated_Source\PSoC4/nRF24_NRF_FUNCS.c ****  */
 265:Generated_Source\PSoC4/nRF24_NRF_FUNCS.c **** void nRF24_setChannel(uint8_t channel)
 266:Generated_Source\PSoC4/nRF24_NRF_FUNCS.c **** {
 389              		.loc 1 266 0
 390              		.cfi_startproc
 391              		@ args = 0, pretend = 0, frame = 0
 392              		@ frame_needed = 0, uses_anonymous_args = 0
 393              	.LVL23:
 394 0000 10B5     		push	{r4, lr}
 395              		.cfi_def_cfa_offset 8
 396              		.cfi_offset 4, -8
 397              		.cfi_offset 14, -4
 398 0002 0100     		movs	r1, r0
 267:Generated_Source\PSoC4/nRF24_NRF_FUNCS.c ****     if (NRF_MAX_RF_CHANNEL < channel) {
 399              		.loc 1 267 0
 400 0004 7D28     		cmp	r0, #125
 401 0006 00D9     		bls	.L17
 268:Generated_Source\PSoC4/nRF24_NRF_FUNCS.c ****         channel = NRF_MAX_RF_CHANNEL;
 402              		.loc 1 268 0
 403 0008 7D21     		movs	r1, #125
 404              	.L17:
 405              	.LVL24:
 269:Generated_Source\PSoC4/nRF24_NRF_FUNCS.c ****     }
 270:Generated_Source\PSoC4/nRF24_NRF_FUNCS.c **** 
 271:Generated_Source\PSoC4/nRF24_NRF_FUNCS.c ****     nRF24_writeRegister(NRF_RF_CH_REG, channel);
 406              		.loc 1 271 0
 407 000a 0520     		movs	r0, #5
 408 000c FFF7FEFF 		bl	nRF24_writeRegister
ARM GAS  C:\Users\Xwx47\AppData\Local\Temp\ccUdC8ee.s 			page 13


 409              	.LVL25:
 272:Generated_Source\PSoC4/nRF24_NRF_FUNCS.c **** }
 410              		.loc 1 272 0
 411              		@ sp needed
 412 0010 10BD     		pop	{r4, pc}
 413              		.cfi_endproc
 414              	.LFE49:
 415              		.size	nRF24_setChannel, .-nRF24_setChannel
 416 0012 C046     		.section	.text.nRF24_setAddressWidth,"ax",%progbits
 417              		.align	2
 418              		.global	nRF24_setAddressWidth
 419              		.code	16
 420              		.thumb_func
 421              		.type	nRF24_setAddressWidth, %function
 422              	nRF24_setAddressWidth:
 423              	.LFB50:
 273:Generated_Source\PSoC4/nRF24_NRF_FUNCS.c **** 
 274:Generated_Source\PSoC4/nRF24_NRF_FUNCS.c **** /**
 275:Generated_Source\PSoC4/nRF24_NRF_FUNCS.c ****  * @brief Set the data pipes address width.
 276:Generated_Source\PSoC4/nRF24_NRF_FUNCS.c ****  *
 277:Generated_Source\PSoC4/nRF24_NRF_FUNCS.c ****  * @param const NrfSetupAddressWidth addr_width:
 278:Generated_Source\PSoC4/nRF24_NRF_FUNCS.c ****  */
 279:Generated_Source\PSoC4/nRF24_NRF_FUNCS.c **** void nRF24_setAddressWidth(const NrfSetupAddressWidth addr_width)
 280:Generated_Source\PSoC4/nRF24_NRF_FUNCS.c **** {
 424              		.loc 1 280 0
 425              		.cfi_startproc
 426              		@ args = 0, pretend = 0, frame = 0
 427              		@ frame_needed = 0, uses_anonymous_args = 0
 428              	.LVL26:
 429 0000 10B5     		push	{r4, lr}
 430              		.cfi_def_cfa_offset 8
 431              		.cfi_offset 4, -8
 432              		.cfi_offset 14, -4
 433 0002 0100     		movs	r1, r0
 281:Generated_Source\PSoC4/nRF24_NRF_FUNCS.c ****     nRF24_writeRegister(NRF_SETUP_AW_REG, (uint8_t)addr_width);
 434              		.loc 1 281 0
 435 0004 0320     		movs	r0, #3
 436              	.LVL27:
 437 0006 FFF7FEFF 		bl	nRF24_writeRegister
 438              	.LVL28:
 282:Generated_Source\PSoC4/nRF24_NRF_FUNCS.c **** }
 439              		.loc 1 282 0
 440              		@ sp needed
 441 000a 10BD     		pop	{r4, pc}
 442              		.cfi_endproc
 443              	.LFE50:
 444              		.size	nRF24_setAddressWidth, .-nRF24_setAddressWidth
 445              		.section	.text.nRF24_getAddressWidth,"ax",%progbits
 446              		.align	2
 447              		.global	nRF24_getAddressWidth
 448              		.code	16
 449              		.thumb_func
 450              		.type	nRF24_getAddressWidth, %function
 451              	nRF24_getAddressWidth:
 452              	.LFB51:
 283:Generated_Source\PSoC4/nRF24_NRF_FUNCS.c **** 
 284:Generated_Source\PSoC4/nRF24_NRF_FUNCS.c **** /**
ARM GAS  C:\Users\Xwx47\AppData\Local\Temp\ccUdC8ee.s 			page 14


 285:Generated_Source\PSoC4/nRF24_NRF_FUNCS.c ****  * @brief Get the data pipes address width.
 286:Generated_Source\PSoC4/nRF24_NRF_FUNCS.c ****  *
 287:Generated_Source\PSoC4/nRF24_NRF_FUNCS.c ****  * @return uint8_t: Address width in bytes.
 288:Generated_Source\PSoC4/nRF24_NRF_FUNCS.c ****  */
 289:Generated_Source\PSoC4/nRF24_NRF_FUNCS.c **** uint8_t nRF24_getAddressWidth(void)
 290:Generated_Source\PSoC4/nRF24_NRF_FUNCS.c **** {
 453              		.loc 1 290 0
 454              		.cfi_startproc
 455              		@ args = 0, pretend = 0, frame = 0
 456              		@ frame_needed = 0, uses_anonymous_args = 0
 457 0000 10B5     		push	{r4, lr}
 458              		.cfi_def_cfa_offset 8
 459              		.cfi_offset 4, -8
 460              		.cfi_offset 14, -4
 461              	.LVL29:
 291:Generated_Source\PSoC4/nRF24_NRF_FUNCS.c ****     uint8_t addr_width = 0;
 292:Generated_Source\PSoC4/nRF24_NRF_FUNCS.c ****     uint8_t reg = nRF24_readRegister(NRF_SETUP_AW_REG);
 462              		.loc 1 292 0
 463 0002 0320     		movs	r0, #3
 464 0004 FFF7FEFF 		bl	nRF24_readRegister
 465              	.LVL30:
 293:Generated_Source\PSoC4/nRF24_NRF_FUNCS.c **** 
 294:Generated_Source\PSoC4/nRF24_NRF_FUNCS.c ****     switch (reg) {
 466              		.loc 1 294 0
 467 0008 0228     		cmp	r0, #2
 468 000a 05D0     		beq	.L22
 469 000c 0328     		cmp	r0, #3
 470 000e 05D0     		beq	.L23
 471 0010 0128     		cmp	r0, #1
 472 0012 05D0     		beq	.L25
 291:Generated_Source\PSoC4/nRF24_NRF_FUNCS.c ****     uint8_t addr_width = 0;
 473              		.loc 1 291 0
 474 0014 0020     		movs	r0, #0
 475              	.LVL31:
 476 0016 04E0     		b	.L24
 477              	.LVL32:
 478              	.L22:
 295:Generated_Source\PSoC4/nRF24_NRF_FUNCS.c ****     case NRF_SETUP_AW_3BYTES:
 296:Generated_Source\PSoC4/nRF24_NRF_FUNCS.c ****         addr_width = 3;
 297:Generated_Source\PSoC4/nRF24_NRF_FUNCS.c ****         break;
 298:Generated_Source\PSoC4/nRF24_NRF_FUNCS.c ****     case NRF_SETUP_AW_4BYTES:
 299:Generated_Source\PSoC4/nRF24_NRF_FUNCS.c ****         addr_width = 4;
 479              		.loc 1 299 0
 480 0018 0420     		movs	r0, #4
 481              	.LVL33:
 300:Generated_Source\PSoC4/nRF24_NRF_FUNCS.c ****         break;
 482              		.loc 1 300 0
 483 001a 02E0     		b	.L24
 484              	.LVL34:
 485              	.L23:
 301:Generated_Source\PSoC4/nRF24_NRF_FUNCS.c ****     case NRF_SETUP_AW_5BYTES:
 302:Generated_Source\PSoC4/nRF24_NRF_FUNCS.c ****         addr_width = 5;
 486              		.loc 1 302 0
 487 001c 0520     		movs	r0, #5
 488              	.LVL35:
 303:Generated_Source\PSoC4/nRF24_NRF_FUNCS.c ****         break;
 489              		.loc 1 303 0
ARM GAS  C:\Users\Xwx47\AppData\Local\Temp\ccUdC8ee.s 			page 15


 490 001e 00E0     		b	.L24
 491              	.LVL36:
 492              	.L25:
 296:Generated_Source\PSoC4/nRF24_NRF_FUNCS.c ****         break;
 493              		.loc 1 296 0
 494 0020 0320     		movs	r0, #3
 495              	.LVL37:
 496              	.L24:
 304:Generated_Source\PSoC4/nRF24_NRF_FUNCS.c ****     default:
 305:Generated_Source\PSoC4/nRF24_NRF_FUNCS.c ****         break;
 306:Generated_Source\PSoC4/nRF24_NRF_FUNCS.c ****     }
 307:Generated_Source\PSoC4/nRF24_NRF_FUNCS.c ****     
 308:Generated_Source\PSoC4/nRF24_NRF_FUNCS.c ****     return addr_width;
 309:Generated_Source\PSoC4/nRF24_NRF_FUNCS.c **** }
 497              		.loc 1 309 0
 498              		@ sp needed
 499 0022 10BD     		pop	{r4, pc}
 500              		.cfi_endproc
 501              	.LFE51:
 502              		.size	nRF24_getAddressWidth, .-nRF24_getAddressWidth
 503              		.section	.text.nRF24_setRxPipe0Address,"ax",%progbits
 504              		.align	2
 505              		.global	nRF24_setRxPipe0Address
 506              		.code	16
 507              		.thumb_func
 508              		.type	nRF24_setRxPipe0Address, %function
 509              	nRF24_setRxPipe0Address:
 510              	.LFB52:
 310:Generated_Source\PSoC4/nRF24_NRF_FUNCS.c **** 
 311:Generated_Source\PSoC4/nRF24_NRF_FUNCS.c **** /**
 312:Generated_Source\PSoC4/nRF24_NRF_FUNCS.c ****  * @brief Set the address of the RX Pipe 0 in the radio.
 313:Generated_Source\PSoC4/nRF24_NRF_FUNCS.c ****  *
 314:Generated_Source\PSoC4/nRF24_NRF_FUNCS.c ****  * This function configure the address of the Rx Pipe 0 of the radio.
 315:Generated_Source\PSoC4/nRF24_NRF_FUNCS.c ****  *
 316:Generated_Source\PSoC4/nRF24_NRF_FUNCS.c ****  * @param const uint8_t* addr:
 317:Generated_Source\PSoC4/nRF24_NRF_FUNCS.c ****  * @param size_t size:
 318:Generated_Source\PSoC4/nRF24_NRF_FUNCS.c ****  */
 319:Generated_Source\PSoC4/nRF24_NRF_FUNCS.c **** void nRF24_setRxPipe0Address(const uint8_t* addr, size_t size)
 320:Generated_Source\PSoC4/nRF24_NRF_FUNCS.c **** {
 511              		.loc 1 320 0
 512              		.cfi_startproc
 513              		@ args = 0, pretend = 0, frame = 0
 514              		@ frame_needed = 0, uses_anonymous_args = 0
 515              	.LVL38:
 516 0000 10B5     		push	{r4, lr}
 517              		.cfi_def_cfa_offset 8
 518              		.cfi_offset 4, -8
 519              		.cfi_offset 14, -4
 321:Generated_Source\PSoC4/nRF24_NRF_FUNCS.c ****     if (NULL == addr) {
 520              		.loc 1 321 0
 521 0002 0028     		cmp	r0, #0
 522 0004 07D0     		beq	.L26
 322:Generated_Source\PSoC4/nRF24_NRF_FUNCS.c ****         return;
 323:Generated_Source\PSoC4/nRF24_NRF_FUNCS.c ****     }
 324:Generated_Source\PSoC4/nRF24_NRF_FUNCS.c **** 
 325:Generated_Source\PSoC4/nRF24_NRF_FUNCS.c ****     // TODO: Replace NRF_MAX_ADDR_SIZE with ADD_WIDTH
 326:Generated_Source\PSoC4/nRF24_NRF_FUNCS.c ****     if (NRF_MAX_ADDR_SIZE < size) {
ARM GAS  C:\Users\Xwx47\AppData\Local\Temp\ccUdC8ee.s 			page 16


 523              		.loc 1 326 0
 524 0006 0529     		cmp	r1, #5
 525 0008 00D9     		bls	.L28
 327:Generated_Source\PSoC4/nRF24_NRF_FUNCS.c ****         size = NRF_MAX_ADDR_SIZE;
 526              		.loc 1 327 0
 527 000a 0521     		movs	r1, #5
 528              	.LVL39:
 529              	.L28:
 328:Generated_Source\PSoC4/nRF24_NRF_FUNCS.c ****     }
 329:Generated_Source\PSoC4/nRF24_NRF_FUNCS.c ****     
 330:Generated_Source\PSoC4/nRF24_NRF_FUNCS.c ****     nRF24_writeLongRegister(NRF_RX_ADDR_P0_REG, addr, size);
 530              		.loc 1 330 0
 531 000c 0A00     		movs	r2, r1
 532 000e 0100     		movs	r1, r0
 533              	.LVL40:
 534 0010 0A20     		movs	r0, #10
 535              	.LVL41:
 536 0012 FFF7FEFF 		bl	nRF24_writeLongRegister
 537              	.LVL42:
 538              	.L26:
 331:Generated_Source\PSoC4/nRF24_NRF_FUNCS.c **** }
 539              		.loc 1 331 0
 540              		@ sp needed
 541 0016 10BD     		pop	{r4, pc}
 542              		.cfi_endproc
 543              	.LFE52:
 544              		.size	nRF24_setRxPipe0Address, .-nRF24_setRxPipe0Address
 545              		.section	.text.nRF24_getRxPipe0Address,"ax",%progbits
 546              		.align	2
 547              		.global	nRF24_getRxPipe0Address
 548              		.code	16
 549              		.thumb_func
 550              		.type	nRF24_getRxPipe0Address, %function
 551              	nRF24_getRxPipe0Address:
 552              	.LFB53:
 332:Generated_Source\PSoC4/nRF24_NRF_FUNCS.c **** 
 333:Generated_Source\PSoC4/nRF24_NRF_FUNCS.c **** /**
 334:Generated_Source\PSoC4/nRF24_NRF_FUNCS.c ****  * @brief Get the address of the RX Pipe 0 in the radio.
 335:Generated_Source\PSoC4/nRF24_NRF_FUNCS.c ****  *
 336:Generated_Source\PSoC4/nRF24_NRF_FUNCS.c ****  * @param uint8_t* addr:
 337:Generated_Source\PSoC4/nRF24_NRF_FUNCS.c ****  * @param size_t size:
 338:Generated_Source\PSoC4/nRF24_NRF_FUNCS.c ****  */
 339:Generated_Source\PSoC4/nRF24_NRF_FUNCS.c **** void nRF24_getRxPipe0Address(uint8_t* addr, size_t size)
 340:Generated_Source\PSoC4/nRF24_NRF_FUNCS.c **** {
 553              		.loc 1 340 0
 554              		.cfi_startproc
 555              		@ args = 0, pretend = 0, frame = 0
 556              		@ frame_needed = 0, uses_anonymous_args = 0
 557              	.LVL43:
 558 0000 10B5     		push	{r4, lr}
 559              		.cfi_def_cfa_offset 8
 560              		.cfi_offset 4, -8
 561              		.cfi_offset 14, -4
 341:Generated_Source\PSoC4/nRF24_NRF_FUNCS.c ****     if (NULL == addr) {
 562              		.loc 1 341 0
 563 0002 0028     		cmp	r0, #0
 564 0004 07D0     		beq	.L30
ARM GAS  C:\Users\Xwx47\AppData\Local\Temp\ccUdC8ee.s 			page 17


 342:Generated_Source\PSoC4/nRF24_NRF_FUNCS.c ****         return;
 343:Generated_Source\PSoC4/nRF24_NRF_FUNCS.c ****     }
 344:Generated_Source\PSoC4/nRF24_NRF_FUNCS.c **** 
 345:Generated_Source\PSoC4/nRF24_NRF_FUNCS.c ****     if (NRF_MAX_ADDR_SIZE < size) {
 565              		.loc 1 345 0
 566 0006 0529     		cmp	r1, #5
 567 0008 00D9     		bls	.L32
 346:Generated_Source\PSoC4/nRF24_NRF_FUNCS.c ****         size = NRF_MAX_ADDR_SIZE;
 568              		.loc 1 346 0
 569 000a 0521     		movs	r1, #5
 570              	.LVL44:
 571              	.L32:
 347:Generated_Source\PSoC4/nRF24_NRF_FUNCS.c ****     }
 348:Generated_Source\PSoC4/nRF24_NRF_FUNCS.c ****     
 349:Generated_Source\PSoC4/nRF24_NRF_FUNCS.c ****     nRF24_readLongRegister(NRF_RX_ADDR_P0_REG, addr, size);
 572              		.loc 1 349 0
 573 000c 0A00     		movs	r2, r1
 574 000e 0100     		movs	r1, r0
 575              	.LVL45:
 576 0010 0A20     		movs	r0, #10
 577              	.LVL46:
 578 0012 FFF7FEFF 		bl	nRF24_readLongRegister
 579              	.LVL47:
 580              	.L30:
 350:Generated_Source\PSoC4/nRF24_NRF_FUNCS.c **** }
 581              		.loc 1 350 0
 582              		@ sp needed
 583 0016 10BD     		pop	{r4, pc}
 584              		.cfi_endproc
 585              	.LFE53:
 586              		.size	nRF24_getRxPipe0Address, .-nRF24_getRxPipe0Address
 587              		.section	.text.nRF24_setRxPipe1Address,"ax",%progbits
 588              		.align	2
 589              		.global	nRF24_setRxPipe1Address
 590              		.code	16
 591              		.thumb_func
 592              		.type	nRF24_setRxPipe1Address, %function
 593              	nRF24_setRxPipe1Address:
 594              	.LFB54:
 351:Generated_Source\PSoC4/nRF24_NRF_FUNCS.c **** 
 352:Generated_Source\PSoC4/nRF24_NRF_FUNCS.c **** /**
 353:Generated_Source\PSoC4/nRF24_NRF_FUNCS.c ****  * @brief Set the address of the RX Pipe 1 in the radio.
 354:Generated_Source\PSoC4/nRF24_NRF_FUNCS.c ****  *
 355:Generated_Source\PSoC4/nRF24_NRF_FUNCS.c ****  * This function configure the address of the Rx Pipe 1 of the radio.
 356:Generated_Source\PSoC4/nRF24_NRF_FUNCS.c ****  *
 357:Generated_Source\PSoC4/nRF24_NRF_FUNCS.c ****  * @param const uint8_t* addr:
 358:Generated_Source\PSoC4/nRF24_NRF_FUNCS.c ****  * @param size_t size:
 359:Generated_Source\PSoC4/nRF24_NRF_FUNCS.c ****  */
 360:Generated_Source\PSoC4/nRF24_NRF_FUNCS.c **** void nRF24_setRxPipe1Address(const uint8_t* addr, size_t size)
 361:Generated_Source\PSoC4/nRF24_NRF_FUNCS.c **** {
 595              		.loc 1 361 0
 596              		.cfi_startproc
 597              		@ args = 0, pretend = 0, frame = 0
 598              		@ frame_needed = 0, uses_anonymous_args = 0
 599              	.LVL48:
 600 0000 10B5     		push	{r4, lr}
 601              		.cfi_def_cfa_offset 8
ARM GAS  C:\Users\Xwx47\AppData\Local\Temp\ccUdC8ee.s 			page 18


 602              		.cfi_offset 4, -8
 603              		.cfi_offset 14, -4
 362:Generated_Source\PSoC4/nRF24_NRF_FUNCS.c ****     if (NULL == addr) {
 604              		.loc 1 362 0
 605 0002 0028     		cmp	r0, #0
 606 0004 07D0     		beq	.L34
 363:Generated_Source\PSoC4/nRF24_NRF_FUNCS.c ****         return;
 364:Generated_Source\PSoC4/nRF24_NRF_FUNCS.c ****     }
 365:Generated_Source\PSoC4/nRF24_NRF_FUNCS.c **** 
 366:Generated_Source\PSoC4/nRF24_NRF_FUNCS.c ****     if (NRF_MAX_ADDR_SIZE < size) {
 607              		.loc 1 366 0
 608 0006 0529     		cmp	r1, #5
 609 0008 00D9     		bls	.L36
 367:Generated_Source\PSoC4/nRF24_NRF_FUNCS.c ****         size = NRF_MAX_ADDR_SIZE;
 610              		.loc 1 367 0
 611 000a 0521     		movs	r1, #5
 612              	.LVL49:
 613              	.L36:
 368:Generated_Source\PSoC4/nRF24_NRF_FUNCS.c ****     }
 369:Generated_Source\PSoC4/nRF24_NRF_FUNCS.c ****     
 370:Generated_Source\PSoC4/nRF24_NRF_FUNCS.c ****     nRF24_writeLongRegister(NRF_RX_ADDR_P1_REG, addr, size);
 614              		.loc 1 370 0
 615 000c 0A00     		movs	r2, r1
 616 000e 0100     		movs	r1, r0
 617              	.LVL50:
 618 0010 0B20     		movs	r0, #11
 619              	.LVL51:
 620 0012 FFF7FEFF 		bl	nRF24_writeLongRegister
 621              	.LVL52:
 622              	.L34:
 371:Generated_Source\PSoC4/nRF24_NRF_FUNCS.c **** }
 623              		.loc 1 371 0
 624              		@ sp needed
 625 0016 10BD     		pop	{r4, pc}
 626              		.cfi_endproc
 627              	.LFE54:
 628              		.size	nRF24_setRxPipe1Address, .-nRF24_setRxPipe1Address
 629              		.section	.text.nRF24_getRxPipe1Address,"ax",%progbits
 630              		.align	2
 631              		.global	nRF24_getRxPipe1Address
 632              		.code	16
 633              		.thumb_func
 634              		.type	nRF24_getRxPipe1Address, %function
 635              	nRF24_getRxPipe1Address:
 636              	.LFB55:
 372:Generated_Source\PSoC4/nRF24_NRF_FUNCS.c **** 
 373:Generated_Source\PSoC4/nRF24_NRF_FUNCS.c **** /**
 374:Generated_Source\PSoC4/nRF24_NRF_FUNCS.c ****  * @brief Get the address of the RX Pipe 1 in the radio.
 375:Generated_Source\PSoC4/nRF24_NRF_FUNCS.c ****  *
 376:Generated_Source\PSoC4/nRF24_NRF_FUNCS.c ****  * @param uint8_t* addr:
 377:Generated_Source\PSoC4/nRF24_NRF_FUNCS.c ****  * @param size_t size:
 378:Generated_Source\PSoC4/nRF24_NRF_FUNCS.c ****  */
 379:Generated_Source\PSoC4/nRF24_NRF_FUNCS.c **** void nRF24_getRxPipe1Address(uint8_t* addr, size_t size)
 380:Generated_Source\PSoC4/nRF24_NRF_FUNCS.c **** {
 637              		.loc 1 380 0
 638              		.cfi_startproc
 639              		@ args = 0, pretend = 0, frame = 0
ARM GAS  C:\Users\Xwx47\AppData\Local\Temp\ccUdC8ee.s 			page 19


 640              		@ frame_needed = 0, uses_anonymous_args = 0
 641              	.LVL53:
 642 0000 10B5     		push	{r4, lr}
 643              		.cfi_def_cfa_offset 8
 644              		.cfi_offset 4, -8
 645              		.cfi_offset 14, -4
 381:Generated_Source\PSoC4/nRF24_NRF_FUNCS.c ****     if (NULL == addr) {
 646              		.loc 1 381 0
 647 0002 0028     		cmp	r0, #0
 648 0004 07D0     		beq	.L38
 382:Generated_Source\PSoC4/nRF24_NRF_FUNCS.c ****         return;
 383:Generated_Source\PSoC4/nRF24_NRF_FUNCS.c ****     }
 384:Generated_Source\PSoC4/nRF24_NRF_FUNCS.c **** 
 385:Generated_Source\PSoC4/nRF24_NRF_FUNCS.c ****     if (NRF_MAX_ADDR_SIZE < size) {
 649              		.loc 1 385 0
 650 0006 0529     		cmp	r1, #5
 651 0008 00D9     		bls	.L40
 386:Generated_Source\PSoC4/nRF24_NRF_FUNCS.c ****         size = NRF_MAX_ADDR_SIZE;
 652              		.loc 1 386 0
 653 000a 0521     		movs	r1, #5
 654              	.LVL54:
 655              	.L40:
 387:Generated_Source\PSoC4/nRF24_NRF_FUNCS.c ****     }
 388:Generated_Source\PSoC4/nRF24_NRF_FUNCS.c ****     
 389:Generated_Source\PSoC4/nRF24_NRF_FUNCS.c ****     nRF24_readLongRegister(NRF_RX_ADDR_P1_REG, addr, size);
 656              		.loc 1 389 0
 657 000c 0A00     		movs	r2, r1
 658 000e 0100     		movs	r1, r0
 659              	.LVL55:
 660 0010 0B20     		movs	r0, #11
 661              	.LVL56:
 662 0012 FFF7FEFF 		bl	nRF24_readLongRegister
 663              	.LVL57:
 664              	.L38:
 390:Generated_Source\PSoC4/nRF24_NRF_FUNCS.c **** }
 665              		.loc 1 390 0
 666              		@ sp needed
 667 0016 10BD     		pop	{r4, pc}
 668              		.cfi_endproc
 669              	.LFE55:
 670              		.size	nRF24_getRxPipe1Address, .-nRF24_getRxPipe1Address
 671              		.section	.text.nRF24_setRxPipe2Address,"ax",%progbits
 672              		.align	2
 673              		.global	nRF24_setRxPipe2Address
 674              		.code	16
 675              		.thumb_func
 676              		.type	nRF24_setRxPipe2Address, %function
 677              	nRF24_setRxPipe2Address:
 678              	.LFB56:
 391:Generated_Source\PSoC4/nRF24_NRF_FUNCS.c **** 
 392:Generated_Source\PSoC4/nRF24_NRF_FUNCS.c **** /**
 393:Generated_Source\PSoC4/nRF24_NRF_FUNCS.c ****  * Set the address of the least significant byte of the Rx Pipe 2 in the radio.
 394:Generated_Source\PSoC4/nRF24_NRF_FUNCS.c ****  *
 395:Generated_Source\PSoC4/nRF24_NRF_FUNCS.c ****  * @param const uint8_t addr_lsb:
 396:Generated_Source\PSoC4/nRF24_NRF_FUNCS.c ****  */
 397:Generated_Source\PSoC4/nRF24_NRF_FUNCS.c **** void nRF24_setRxPipe2Address(const uint8_t addr_lsb)
 398:Generated_Source\PSoC4/nRF24_NRF_FUNCS.c **** {
ARM GAS  C:\Users\Xwx47\AppData\Local\Temp\ccUdC8ee.s 			page 20


 679              		.loc 1 398 0
 680              		.cfi_startproc
 681              		@ args = 0, pretend = 0, frame = 0
 682              		@ frame_needed = 0, uses_anonymous_args = 0
 683              	.LVL58:
 684 0000 10B5     		push	{r4, lr}
 685              		.cfi_def_cfa_offset 8
 686              		.cfi_offset 4, -8
 687              		.cfi_offset 14, -4
 688 0002 0100     		movs	r1, r0
 399:Generated_Source\PSoC4/nRF24_NRF_FUNCS.c ****     nRF24_writeRegister(NRF_RX_ADDR_P2_REG, addr_lsb);
 689              		.loc 1 399 0
 690 0004 0C20     		movs	r0, #12
 691              	.LVL59:
 692 0006 FFF7FEFF 		bl	nRF24_writeRegister
 693              	.LVL60:
 400:Generated_Source\PSoC4/nRF24_NRF_FUNCS.c **** }
 694              		.loc 1 400 0
 695              		@ sp needed
 696 000a 10BD     		pop	{r4, pc}
 697              		.cfi_endproc
 698              	.LFE56:
 699              		.size	nRF24_setRxPipe2Address, .-nRF24_setRxPipe2Address
 700              		.section	.text.nRF24_getRxPipe2Address,"ax",%progbits
 701              		.align	2
 702              		.global	nRF24_getRxPipe2Address
 703              		.code	16
 704              		.thumb_func
 705              		.type	nRF24_getRxPipe2Address, %function
 706              	nRF24_getRxPipe2Address:
 707              	.LFB57:
 401:Generated_Source\PSoC4/nRF24_NRF_FUNCS.c **** 
 402:Generated_Source\PSoC4/nRF24_NRF_FUNCS.c **** /**
 403:Generated_Source\PSoC4/nRF24_NRF_FUNCS.c ****  * Get the address of the Rx Pipe 2.
 404:Generated_Source\PSoC4/nRF24_NRF_FUNCS.c ****  *
 405:Generated_Source\PSoC4/nRF24_NRF_FUNCS.c ****  * @param uint8_t* addr:
 406:Generated_Source\PSoC4/nRF24_NRF_FUNCS.c ****  * @param size_t size:
 407:Generated_Source\PSoC4/nRF24_NRF_FUNCS.c ****  */
 408:Generated_Source\PSoC4/nRF24_NRF_FUNCS.c **** void nRF24_getRxPipe2Address(uint8_t* addr, size_t size)
 409:Generated_Source\PSoC4/nRF24_NRF_FUNCS.c **** {
 708              		.loc 1 409 0
 709              		.cfi_startproc
 710              		@ args = 0, pretend = 0, frame = 0
 711              		@ frame_needed = 0, uses_anonymous_args = 0
 712              	.LVL61:
 713 0000 70B5     		push	{r4, r5, r6, lr}
 714              		.cfi_def_cfa_offset 16
 715              		.cfi_offset 4, -16
 716              		.cfi_offset 5, -12
 717              		.cfi_offset 6, -8
 718              		.cfi_offset 14, -4
 719 0002 051E     		subs	r5, r0, #0
 410:Generated_Source\PSoC4/nRF24_NRF_FUNCS.c ****     if (NULL == addr) {
 720              		.loc 1 410 0
 721 0004 0DD0     		beq	.L43
 411:Generated_Source\PSoC4/nRF24_NRF_FUNCS.c ****         return;
 412:Generated_Source\PSoC4/nRF24_NRF_FUNCS.c ****     }
ARM GAS  C:\Users\Xwx47\AppData\Local\Temp\ccUdC8ee.s 			page 21


 413:Generated_Source\PSoC4/nRF24_NRF_FUNCS.c **** 
 414:Generated_Source\PSoC4/nRF24_NRF_FUNCS.c ****     if (NRF_MAX_ADDR_SIZE < size) {
 722              		.loc 1 414 0
 723 0006 0529     		cmp	r1, #5
 724 0008 00D9     		bls	.L45
 415:Generated_Source\PSoC4/nRF24_NRF_FUNCS.c ****         size = NRF_MAX_ADDR_SIZE;
 725              		.loc 1 415 0
 726 000a 0521     		movs	r1, #5
 727              	.LVL62:
 728              	.L45:
 416:Generated_Source\PSoC4/nRF24_NRF_FUNCS.c ****     }
 417:Generated_Source\PSoC4/nRF24_NRF_FUNCS.c ****     
 418:Generated_Source\PSoC4/nRF24_NRF_FUNCS.c ****     // The pipe2 address is the same as the pipe1 address except the LSB
 419:Generated_Source\PSoC4/nRF24_NRF_FUNCS.c ****     nRF24_readLongRegister(NRF_RX_ADDR_P1_REG, addr, size - 1);
 729              		.loc 1 419 0
 730 000c 4C1E     		subs	r4, r1, #1
 731 000e 2200     		movs	r2, r4
 732 0010 2900     		movs	r1, r5
 733              	.LVL63:
 734 0012 0B20     		movs	r0, #11
 735              	.LVL64:
 736 0014 FFF7FEFF 		bl	nRF24_readLongRegister
 737              	.LVL65:
 420:Generated_Source\PSoC4/nRF24_NRF_FUNCS.c ****     addr[size - 1] = nRF24_readRegister(NRF_RX_ADDR_P2_REG);
 738              		.loc 1 420 0
 739 0018 2C19     		adds	r4, r5, r4
 740              	.LVL66:
 741 001a 0C20     		movs	r0, #12
 742 001c FFF7FEFF 		bl	nRF24_readRegister
 743              	.LVL67:
 744 0020 2070     		strb	r0, [r4]
 745              	.L43:
 421:Generated_Source\PSoC4/nRF24_NRF_FUNCS.c **** }
 746              		.loc 1 421 0
 747              		@ sp needed
 748              	.LVL68:
 749 0022 70BD     		pop	{r4, r5, r6, pc}
 750              		.cfi_endproc
 751              	.LFE57:
 752              		.size	nRF24_getRxPipe2Address, .-nRF24_getRxPipe2Address
 753              		.section	.text.nRF24_setRxPipe3Address,"ax",%progbits
 754              		.align	2
 755              		.global	nRF24_setRxPipe3Address
 756              		.code	16
 757              		.thumb_func
 758              		.type	nRF24_setRxPipe3Address, %function
 759              	nRF24_setRxPipe3Address:
 760              	.LFB58:
 422:Generated_Source\PSoC4/nRF24_NRF_FUNCS.c **** 
 423:Generated_Source\PSoC4/nRF24_NRF_FUNCS.c **** /**
 424:Generated_Source\PSoC4/nRF24_NRF_FUNCS.c ****  * Set the address of the least significant byte of the Rx Pipe 3 in the radio.
 425:Generated_Source\PSoC4/nRF24_NRF_FUNCS.c ****  *
 426:Generated_Source\PSoC4/nRF24_NRF_FUNCS.c ****  * @param const uint8_t addr_lsb:
 427:Generated_Source\PSoC4/nRF24_NRF_FUNCS.c ****  */
 428:Generated_Source\PSoC4/nRF24_NRF_FUNCS.c **** void nRF24_setRxPipe3Address(const uint8_t addr_lsb)
 429:Generated_Source\PSoC4/nRF24_NRF_FUNCS.c **** {
 761              		.loc 1 429 0
ARM GAS  C:\Users\Xwx47\AppData\Local\Temp\ccUdC8ee.s 			page 22


 762              		.cfi_startproc
 763              		@ args = 0, pretend = 0, frame = 0
 764              		@ frame_needed = 0, uses_anonymous_args = 0
 765              	.LVL69:
 766 0000 10B5     		push	{r4, lr}
 767              		.cfi_def_cfa_offset 8
 768              		.cfi_offset 4, -8
 769              		.cfi_offset 14, -4
 770 0002 0100     		movs	r1, r0
 430:Generated_Source\PSoC4/nRF24_NRF_FUNCS.c ****     nRF24_writeRegister(NRF_RX_ADDR_P3_REG, addr_lsb);
 771              		.loc 1 430 0
 772 0004 0D20     		movs	r0, #13
 773              	.LVL70:
 774 0006 FFF7FEFF 		bl	nRF24_writeRegister
 775              	.LVL71:
 431:Generated_Source\PSoC4/nRF24_NRF_FUNCS.c **** }
 776              		.loc 1 431 0
 777              		@ sp needed
 778 000a 10BD     		pop	{r4, pc}
 779              		.cfi_endproc
 780              	.LFE58:
 781              		.size	nRF24_setRxPipe3Address, .-nRF24_setRxPipe3Address
 782              		.section	.text.nRF24_getRxPipe3Address,"ax",%progbits
 783              		.align	2
 784              		.global	nRF24_getRxPipe3Address
 785              		.code	16
 786              		.thumb_func
 787              		.type	nRF24_getRxPipe3Address, %function
 788              	nRF24_getRxPipe3Address:
 789              	.LFB59:
 432:Generated_Source\PSoC4/nRF24_NRF_FUNCS.c **** 
 433:Generated_Source\PSoC4/nRF24_NRF_FUNCS.c **** /**
 434:Generated_Source\PSoC4/nRF24_NRF_FUNCS.c ****  * Get the address of the Rx Pipe 3.
 435:Generated_Source\PSoC4/nRF24_NRF_FUNCS.c ****  *
 436:Generated_Source\PSoC4/nRF24_NRF_FUNCS.c ****  * @param uint8_t* addr:
 437:Generated_Source\PSoC4/nRF24_NRF_FUNCS.c ****  * @param size_t size:
 438:Generated_Source\PSoC4/nRF24_NRF_FUNCS.c ****  */
 439:Generated_Source\PSoC4/nRF24_NRF_FUNCS.c **** void nRF24_getRxPipe3Address(uint8_t* addr, size_t size)
 440:Generated_Source\PSoC4/nRF24_NRF_FUNCS.c **** {
 790              		.loc 1 440 0
 791              		.cfi_startproc
 792              		@ args = 0, pretend = 0, frame = 0
 793              		@ frame_needed = 0, uses_anonymous_args = 0
 794              	.LVL72:
 795 0000 70B5     		push	{r4, r5, r6, lr}
 796              		.cfi_def_cfa_offset 16
 797              		.cfi_offset 4, -16
 798              		.cfi_offset 5, -12
 799              		.cfi_offset 6, -8
 800              		.cfi_offset 14, -4
 801 0002 051E     		subs	r5, r0, #0
 441:Generated_Source\PSoC4/nRF24_NRF_FUNCS.c ****     if (NULL == addr) {
 802              		.loc 1 441 0
 803 0004 0DD0     		beq	.L48
 442:Generated_Source\PSoC4/nRF24_NRF_FUNCS.c ****         return;
 443:Generated_Source\PSoC4/nRF24_NRF_FUNCS.c ****     }
 444:Generated_Source\PSoC4/nRF24_NRF_FUNCS.c **** 
ARM GAS  C:\Users\Xwx47\AppData\Local\Temp\ccUdC8ee.s 			page 23


 445:Generated_Source\PSoC4/nRF24_NRF_FUNCS.c ****     if (NRF_MAX_ADDR_SIZE < size) {
 804              		.loc 1 445 0
 805 0006 0529     		cmp	r1, #5
 806 0008 00D9     		bls	.L50
 446:Generated_Source\PSoC4/nRF24_NRF_FUNCS.c ****         size = NRF_MAX_ADDR_SIZE;
 807              		.loc 1 446 0
 808 000a 0521     		movs	r1, #5
 809              	.LVL73:
 810              	.L50:
 447:Generated_Source\PSoC4/nRF24_NRF_FUNCS.c ****     }
 448:Generated_Source\PSoC4/nRF24_NRF_FUNCS.c ****     
 449:Generated_Source\PSoC4/nRF24_NRF_FUNCS.c ****     // The pipe3 address is the same as the pipe1 address except the LSB
 450:Generated_Source\PSoC4/nRF24_NRF_FUNCS.c ****     nRF24_readLongRegister(NRF_RX_ADDR_P1_REG, addr, size - 1);
 811              		.loc 1 450 0
 812 000c 4C1E     		subs	r4, r1, #1
 813 000e 2200     		movs	r2, r4
 814 0010 2900     		movs	r1, r5
 815              	.LVL74:
 816 0012 0B20     		movs	r0, #11
 817              	.LVL75:
 818 0014 FFF7FEFF 		bl	nRF24_readLongRegister
 819              	.LVL76:
 451:Generated_Source\PSoC4/nRF24_NRF_FUNCS.c ****     addr[size - 1] = nRF24_readRegister(NRF_RX_ADDR_P3_REG);
 820              		.loc 1 451 0
 821 0018 2C19     		adds	r4, r5, r4
 822              	.LVL77:
 823 001a 0D20     		movs	r0, #13
 824 001c FFF7FEFF 		bl	nRF24_readRegister
 825              	.LVL78:
 826 0020 2070     		strb	r0, [r4]
 827              	.L48:
 452:Generated_Source\PSoC4/nRF24_NRF_FUNCS.c **** }
 828              		.loc 1 452 0
 829              		@ sp needed
 830              	.LVL79:
 831 0022 70BD     		pop	{r4, r5, r6, pc}
 832              		.cfi_endproc
 833              	.LFE59:
 834              		.size	nRF24_getRxPipe3Address, .-nRF24_getRxPipe3Address
 835              		.section	.text.nRF24_setRxPipe4Address,"ax",%progbits
 836              		.align	2
 837              		.global	nRF24_setRxPipe4Address
 838              		.code	16
 839              		.thumb_func
 840              		.type	nRF24_setRxPipe4Address, %function
 841              	nRF24_setRxPipe4Address:
 842              	.LFB60:
 453:Generated_Source\PSoC4/nRF24_NRF_FUNCS.c **** 
 454:Generated_Source\PSoC4/nRF24_NRF_FUNCS.c **** /**
 455:Generated_Source\PSoC4/nRF24_NRF_FUNCS.c ****  * Set the address of the least significant byte of the Rx Pipe 4 in the radio.
 456:Generated_Source\PSoC4/nRF24_NRF_FUNCS.c ****  *
 457:Generated_Source\PSoC4/nRF24_NRF_FUNCS.c ****  * @param const uint8_t addr_lsb:
 458:Generated_Source\PSoC4/nRF24_NRF_FUNCS.c ****  */
 459:Generated_Source\PSoC4/nRF24_NRF_FUNCS.c **** void nRF24_setRxPipe4Address(const uint8_t addr_lsb)
 460:Generated_Source\PSoC4/nRF24_NRF_FUNCS.c **** {
 843              		.loc 1 460 0
 844              		.cfi_startproc
ARM GAS  C:\Users\Xwx47\AppData\Local\Temp\ccUdC8ee.s 			page 24


 845              		@ args = 0, pretend = 0, frame = 0
 846              		@ frame_needed = 0, uses_anonymous_args = 0
 847              	.LVL80:
 848 0000 10B5     		push	{r4, lr}
 849              		.cfi_def_cfa_offset 8
 850              		.cfi_offset 4, -8
 851              		.cfi_offset 14, -4
 852 0002 0100     		movs	r1, r0
 461:Generated_Source\PSoC4/nRF24_NRF_FUNCS.c ****     nRF24_writeRegister(NRF_RX_ADDR_P4_REG, addr_lsb);
 853              		.loc 1 461 0
 854 0004 0E20     		movs	r0, #14
 855              	.LVL81:
 856 0006 FFF7FEFF 		bl	nRF24_writeRegister
 857              	.LVL82:
 462:Generated_Source\PSoC4/nRF24_NRF_FUNCS.c **** }
 858              		.loc 1 462 0
 859              		@ sp needed
 860 000a 10BD     		pop	{r4, pc}
 861              		.cfi_endproc
 862              	.LFE60:
 863              		.size	nRF24_setRxPipe4Address, .-nRF24_setRxPipe4Address
 864              		.section	.text.nRF24_getRxPipe4Address,"ax",%progbits
 865              		.align	2
 866              		.global	nRF24_getRxPipe4Address
 867              		.code	16
 868              		.thumb_func
 869              		.type	nRF24_getRxPipe4Address, %function
 870              	nRF24_getRxPipe4Address:
 871              	.LFB61:
 463:Generated_Source\PSoC4/nRF24_NRF_FUNCS.c **** 
 464:Generated_Source\PSoC4/nRF24_NRF_FUNCS.c **** /**
 465:Generated_Source\PSoC4/nRF24_NRF_FUNCS.c ****  * Get the address of the Rx Pipe 4.
 466:Generated_Source\PSoC4/nRF24_NRF_FUNCS.c ****  *
 467:Generated_Source\PSoC4/nRF24_NRF_FUNCS.c ****  * @param uint8_t* addr:
 468:Generated_Source\PSoC4/nRF24_NRF_FUNCS.c ****  * @param size_t size:
 469:Generated_Source\PSoC4/nRF24_NRF_FUNCS.c ****  */
 470:Generated_Source\PSoC4/nRF24_NRF_FUNCS.c **** void nRF24_getRxPipe4Address(uint8_t* addr, size_t size)
 471:Generated_Source\PSoC4/nRF24_NRF_FUNCS.c **** {
 872              		.loc 1 471 0
 873              		.cfi_startproc
 874              		@ args = 0, pretend = 0, frame = 0
 875              		@ frame_needed = 0, uses_anonymous_args = 0
 876              	.LVL83:
 877 0000 70B5     		push	{r4, r5, r6, lr}
 878              		.cfi_def_cfa_offset 16
 879              		.cfi_offset 4, -16
 880              		.cfi_offset 5, -12
 881              		.cfi_offset 6, -8
 882              		.cfi_offset 14, -4
 883 0002 051E     		subs	r5, r0, #0
 472:Generated_Source\PSoC4/nRF24_NRF_FUNCS.c ****     if (NULL == addr) {
 884              		.loc 1 472 0
 885 0004 0DD0     		beq	.L53
 473:Generated_Source\PSoC4/nRF24_NRF_FUNCS.c ****         return;
 474:Generated_Source\PSoC4/nRF24_NRF_FUNCS.c ****     }
 475:Generated_Source\PSoC4/nRF24_NRF_FUNCS.c **** 
 476:Generated_Source\PSoC4/nRF24_NRF_FUNCS.c ****     if (NRF_MAX_ADDR_SIZE < size) {
ARM GAS  C:\Users\Xwx47\AppData\Local\Temp\ccUdC8ee.s 			page 25


 886              		.loc 1 476 0
 887 0006 0529     		cmp	r1, #5
 888 0008 00D9     		bls	.L55
 477:Generated_Source\PSoC4/nRF24_NRF_FUNCS.c ****         size = NRF_MAX_ADDR_SIZE;
 889              		.loc 1 477 0
 890 000a 0521     		movs	r1, #5
 891              	.LVL84:
 892              	.L55:
 478:Generated_Source\PSoC4/nRF24_NRF_FUNCS.c ****     }
 479:Generated_Source\PSoC4/nRF24_NRF_FUNCS.c ****     
 480:Generated_Source\PSoC4/nRF24_NRF_FUNCS.c ****     // The pipe4 address is the same as the pipe1 address except the LSB
 481:Generated_Source\PSoC4/nRF24_NRF_FUNCS.c ****     nRF24_readLongRegister(NRF_RX_ADDR_P1_REG, addr, size - 1);
 893              		.loc 1 481 0
 894 000c 4C1E     		subs	r4, r1, #1
 895 000e 2200     		movs	r2, r4
 896 0010 2900     		movs	r1, r5
 897              	.LVL85:
 898 0012 0B20     		movs	r0, #11
 899              	.LVL86:
 900 0014 FFF7FEFF 		bl	nRF24_readLongRegister
 901              	.LVL87:
 482:Generated_Source\PSoC4/nRF24_NRF_FUNCS.c ****     addr[size - 1] = nRF24_readRegister(NRF_RX_ADDR_P4_REG);
 902              		.loc 1 482 0
 903 0018 2C19     		adds	r4, r5, r4
 904              	.LVL88:
 905 001a 0E20     		movs	r0, #14
 906 001c FFF7FEFF 		bl	nRF24_readRegister
 907              	.LVL89:
 908 0020 2070     		strb	r0, [r4]
 909              	.L53:
 483:Generated_Source\PSoC4/nRF24_NRF_FUNCS.c **** }
 910              		.loc 1 483 0
 911              		@ sp needed
 912              	.LVL90:
 913 0022 70BD     		pop	{r4, r5, r6, pc}
 914              		.cfi_endproc
 915              	.LFE61:
 916              		.size	nRF24_getRxPipe4Address, .-nRF24_getRxPipe4Address
 917              		.section	.text.nRF24_setRxPipe5Address,"ax",%progbits
 918              		.align	2
 919              		.global	nRF24_setRxPipe5Address
 920              		.code	16
 921              		.thumb_func
 922              		.type	nRF24_setRxPipe5Address, %function
 923              	nRF24_setRxPipe5Address:
 924              	.LFB62:
 484:Generated_Source\PSoC4/nRF24_NRF_FUNCS.c **** 
 485:Generated_Source\PSoC4/nRF24_NRF_FUNCS.c **** /**
 486:Generated_Source\PSoC4/nRF24_NRF_FUNCS.c ****  * Set the address of the least significant byte of the Rx Pipe 5 in the radio.
 487:Generated_Source\PSoC4/nRF24_NRF_FUNCS.c ****  *
 488:Generated_Source\PSoC4/nRF24_NRF_FUNCS.c ****  * @param const uint8_t addr_lsb:
 489:Generated_Source\PSoC4/nRF24_NRF_FUNCS.c ****  */
 490:Generated_Source\PSoC4/nRF24_NRF_FUNCS.c **** void nRF24_setRxPipe5Address(const uint8_t addr_lsb)
 491:Generated_Source\PSoC4/nRF24_NRF_FUNCS.c **** {
 925              		.loc 1 491 0
 926              		.cfi_startproc
 927              		@ args = 0, pretend = 0, frame = 0
ARM GAS  C:\Users\Xwx47\AppData\Local\Temp\ccUdC8ee.s 			page 26


 928              		@ frame_needed = 0, uses_anonymous_args = 0
 929              	.LVL91:
 930 0000 10B5     		push	{r4, lr}
 931              		.cfi_def_cfa_offset 8
 932              		.cfi_offset 4, -8
 933              		.cfi_offset 14, -4
 934 0002 0100     		movs	r1, r0
 492:Generated_Source\PSoC4/nRF24_NRF_FUNCS.c ****     nRF24_writeRegister(NRF_RX_ADDR_P5_REG, addr_lsb);
 935              		.loc 1 492 0
 936 0004 0F20     		movs	r0, #15
 937              	.LVL92:
 938 0006 FFF7FEFF 		bl	nRF24_writeRegister
 939              	.LVL93:
 493:Generated_Source\PSoC4/nRF24_NRF_FUNCS.c **** }
 940              		.loc 1 493 0
 941              		@ sp needed
 942 000a 10BD     		pop	{r4, pc}
 943              		.cfi_endproc
 944              	.LFE62:
 945              		.size	nRF24_setRxPipe5Address, .-nRF24_setRxPipe5Address
 946              		.section	.text.nRF24_getRxPipe5Address,"ax",%progbits
 947              		.align	2
 948              		.global	nRF24_getRxPipe5Address
 949              		.code	16
 950              		.thumb_func
 951              		.type	nRF24_getRxPipe5Address, %function
 952              	nRF24_getRxPipe5Address:
 953              	.LFB63:
 494:Generated_Source\PSoC4/nRF24_NRF_FUNCS.c **** 
 495:Generated_Source\PSoC4/nRF24_NRF_FUNCS.c **** /**
 496:Generated_Source\PSoC4/nRF24_NRF_FUNCS.c ****  * Get the address of the Rx Pipe 5.
 497:Generated_Source\PSoC4/nRF24_NRF_FUNCS.c ****  *
 498:Generated_Source\PSoC4/nRF24_NRF_FUNCS.c ****  * @param uint8_t* addr:
 499:Generated_Source\PSoC4/nRF24_NRF_FUNCS.c ****  * @param size_t size:
 500:Generated_Source\PSoC4/nRF24_NRF_FUNCS.c ****  */
 501:Generated_Source\PSoC4/nRF24_NRF_FUNCS.c **** void nRF24_getRxPipe5Address(uint8_t* addr, size_t size)
 502:Generated_Source\PSoC4/nRF24_NRF_FUNCS.c **** {
 954              		.loc 1 502 0
 955              		.cfi_startproc
 956              		@ args = 0, pretend = 0, frame = 0
 957              		@ frame_needed = 0, uses_anonymous_args = 0
 958              	.LVL94:
 959 0000 70B5     		push	{r4, r5, r6, lr}
 960              		.cfi_def_cfa_offset 16
 961              		.cfi_offset 4, -16
 962              		.cfi_offset 5, -12
 963              		.cfi_offset 6, -8
 964              		.cfi_offset 14, -4
 965 0002 051E     		subs	r5, r0, #0
 503:Generated_Source\PSoC4/nRF24_NRF_FUNCS.c ****     if (NULL == addr) {
 966              		.loc 1 503 0
 967 0004 0DD0     		beq	.L58
 504:Generated_Source\PSoC4/nRF24_NRF_FUNCS.c ****         return;
 505:Generated_Source\PSoC4/nRF24_NRF_FUNCS.c ****     }
 506:Generated_Source\PSoC4/nRF24_NRF_FUNCS.c **** 
 507:Generated_Source\PSoC4/nRF24_NRF_FUNCS.c ****     if (NRF_MAX_ADDR_SIZE < size) {
 968              		.loc 1 507 0
ARM GAS  C:\Users\Xwx47\AppData\Local\Temp\ccUdC8ee.s 			page 27


 969 0006 0529     		cmp	r1, #5
 970 0008 00D9     		bls	.L60
 508:Generated_Source\PSoC4/nRF24_NRF_FUNCS.c ****         size = NRF_MAX_ADDR_SIZE;
 971              		.loc 1 508 0
 972 000a 0521     		movs	r1, #5
 973              	.LVL95:
 974              	.L60:
 509:Generated_Source\PSoC4/nRF24_NRF_FUNCS.c ****     }
 510:Generated_Source\PSoC4/nRF24_NRF_FUNCS.c ****     
 511:Generated_Source\PSoC4/nRF24_NRF_FUNCS.c ****     // The pipe5 address is the same as the pipe1 address except the LSB
 512:Generated_Source\PSoC4/nRF24_NRF_FUNCS.c ****     nRF24_readLongRegister(NRF_RX_ADDR_P1_REG, addr, size - 1);
 975              		.loc 1 512 0
 976 000c 4C1E     		subs	r4, r1, #1
 977 000e 2200     		movs	r2, r4
 978 0010 2900     		movs	r1, r5
 979              	.LVL96:
 980 0012 0B20     		movs	r0, #11
 981              	.LVL97:
 982 0014 FFF7FEFF 		bl	nRF24_readLongRegister
 983              	.LVL98:
 513:Generated_Source\PSoC4/nRF24_NRF_FUNCS.c ****     addr[size - 1] = nRF24_readRegister(NRF_RX_ADDR_P5_REG);
 984              		.loc 1 513 0
 985 0018 2C19     		adds	r4, r5, r4
 986              	.LVL99:
 987 001a 0F20     		movs	r0, #15
 988 001c FFF7FEFF 		bl	nRF24_readRegister
 989              	.LVL100:
 990 0020 2070     		strb	r0, [r4]
 991              	.L58:
 514:Generated_Source\PSoC4/nRF24_NRF_FUNCS.c **** }
 992              		.loc 1 514 0
 993              		@ sp needed
 994              	.LVL101:
 995 0022 70BD     		pop	{r4, r5, r6, pc}
 996              		.cfi_endproc
 997              	.LFE63:
 998              		.size	nRF24_getRxPipe5Address, .-nRF24_getRxPipe5Address
 999              		.section	.text.nRF24_setTxAddress,"ax",%progbits
 1000              		.align	2
 1001              		.global	nRF24_setTxAddress
 1002              		.code	16
 1003              		.thumb_func
 1004              		.type	nRF24_setTxAddress, %function
 1005              	nRF24_setTxAddress:
 1006              	.LFB64:
 515:Generated_Source\PSoC4/nRF24_NRF_FUNCS.c **** 
 516:Generated_Source\PSoC4/nRF24_NRF_FUNCS.c **** /**
 517:Generated_Source\PSoC4/nRF24_NRF_FUNCS.c ****  * @brief Set the TX Address of the radio.
 518:Generated_Source\PSoC4/nRF24_NRF_FUNCS.c ****  *
 519:Generated_Source\PSoC4/nRF24_NRF_FUNCS.c ****  * @param const uint8_t* addr:
 520:Generated_Source\PSoC4/nRF24_NRF_FUNCS.c ****  * @param size_t size:
 521:Generated_Source\PSoC4/nRF24_NRF_FUNCS.c ****  */
 522:Generated_Source\PSoC4/nRF24_NRF_FUNCS.c **** void nRF24_setTxAddress(const uint8_t* addr, size_t size)
 523:Generated_Source\PSoC4/nRF24_NRF_FUNCS.c **** {
 1007              		.loc 1 523 0
 1008              		.cfi_startproc
 1009              		@ args = 0, pretend = 0, frame = 0
ARM GAS  C:\Users\Xwx47\AppData\Local\Temp\ccUdC8ee.s 			page 28


 1010              		@ frame_needed = 0, uses_anonymous_args = 0
 1011              	.LVL102:
 1012 0000 10B5     		push	{r4, lr}
 1013              		.cfi_def_cfa_offset 8
 1014              		.cfi_offset 4, -8
 1015              		.cfi_offset 14, -4
 524:Generated_Source\PSoC4/nRF24_NRF_FUNCS.c ****     if (NULL == addr) {
 1016              		.loc 1 524 0
 1017 0002 0028     		cmp	r0, #0
 1018 0004 07D0     		beq	.L62
 525:Generated_Source\PSoC4/nRF24_NRF_FUNCS.c ****         return;
 526:Generated_Source\PSoC4/nRF24_NRF_FUNCS.c ****     }
 527:Generated_Source\PSoC4/nRF24_NRF_FUNCS.c **** 
 528:Generated_Source\PSoC4/nRF24_NRF_FUNCS.c ****     if (NRF_MAX_ADDR_SIZE < size) {
 1019              		.loc 1 528 0
 1020 0006 0529     		cmp	r1, #5
 1021 0008 00D9     		bls	.L64
 529:Generated_Source\PSoC4/nRF24_NRF_FUNCS.c ****         size = NRF_MAX_ADDR_SIZE;
 1022              		.loc 1 529 0
 1023 000a 0521     		movs	r1, #5
 1024              	.LVL103:
 1025              	.L64:
 530:Generated_Source\PSoC4/nRF24_NRF_FUNCS.c ****     }
 531:Generated_Source\PSoC4/nRF24_NRF_FUNCS.c ****     
 532:Generated_Source\PSoC4/nRF24_NRF_FUNCS.c ****     nRF24_writeLongRegister(NRF_TX_ADDR_REG, addr, size);
 1026              		.loc 1 532 0
 1027 000c 0A00     		movs	r2, r1
 1028 000e 0100     		movs	r1, r0
 1029              	.LVL104:
 1030 0010 1020     		movs	r0, #16
 1031              	.LVL105:
 1032 0012 FFF7FEFF 		bl	nRF24_writeLongRegister
 1033              	.LVL106:
 1034              	.L62:
 533:Generated_Source\PSoC4/nRF24_NRF_FUNCS.c **** }
 1035              		.loc 1 533 0
 1036              		@ sp needed
 1037 0016 10BD     		pop	{r4, pc}
 1038              		.cfi_endproc
 1039              	.LFE64:
 1040              		.size	nRF24_setTxAddress, .-nRF24_setTxAddress
 1041              		.section	.text.nRF24_getTxAddress,"ax",%progbits
 1042              		.align	2
 1043              		.global	nRF24_getTxAddress
 1044              		.code	16
 1045              		.thumb_func
 1046              		.type	nRF24_getTxAddress, %function
 1047              	nRF24_getTxAddress:
 1048              	.LFB65:
 534:Generated_Source\PSoC4/nRF24_NRF_FUNCS.c **** 
 535:Generated_Source\PSoC4/nRF24_NRF_FUNCS.c **** /**
 536:Generated_Source\PSoC4/nRF24_NRF_FUNCS.c ****  * @brief Get the TX Address of the radio.
 537:Generated_Source\PSoC4/nRF24_NRF_FUNCS.c ****  *
 538:Generated_Source\PSoC4/nRF24_NRF_FUNCS.c ****  * @param const uint8_t* addr:
 539:Generated_Source\PSoC4/nRF24_NRF_FUNCS.c ****  * @param const size_t size:
 540:Generated_Source\PSoC4/nRF24_NRF_FUNCS.c ****  */
 541:Generated_Source\PSoC4/nRF24_NRF_FUNCS.c **** void nRF24_getTxAddress(uint8_t* addr, size_t size)
ARM GAS  C:\Users\Xwx47\AppData\Local\Temp\ccUdC8ee.s 			page 29


 542:Generated_Source\PSoC4/nRF24_NRF_FUNCS.c **** {
 1049              		.loc 1 542 0
 1050              		.cfi_startproc
 1051              		@ args = 0, pretend = 0, frame = 0
 1052              		@ frame_needed = 0, uses_anonymous_args = 0
 1053              	.LVL107:
 1054 0000 10B5     		push	{r4, lr}
 1055              		.cfi_def_cfa_offset 8
 1056              		.cfi_offset 4, -8
 1057              		.cfi_offset 14, -4
 543:Generated_Source\PSoC4/nRF24_NRF_FUNCS.c ****     if (NULL == addr) {
 1058              		.loc 1 543 0
 1059 0002 0028     		cmp	r0, #0
 1060 0004 07D0     		beq	.L66
 544:Generated_Source\PSoC4/nRF24_NRF_FUNCS.c ****         return;
 545:Generated_Source\PSoC4/nRF24_NRF_FUNCS.c ****     }
 546:Generated_Source\PSoC4/nRF24_NRF_FUNCS.c **** 
 547:Generated_Source\PSoC4/nRF24_NRF_FUNCS.c ****     if (NRF_MAX_ADDR_SIZE < size) {
 1061              		.loc 1 547 0
 1062 0006 0529     		cmp	r1, #5
 1063 0008 00D9     		bls	.L68
 548:Generated_Source\PSoC4/nRF24_NRF_FUNCS.c ****         size = NRF_MAX_ADDR_SIZE;
 1064              		.loc 1 548 0
 1065 000a 0521     		movs	r1, #5
 1066              	.LVL108:
 1067              	.L68:
 549:Generated_Source\PSoC4/nRF24_NRF_FUNCS.c ****     }
 550:Generated_Source\PSoC4/nRF24_NRF_FUNCS.c ****     
 551:Generated_Source\PSoC4/nRF24_NRF_FUNCS.c ****     nRF24_readLongRegister(NRF_TX_ADDR_REG, addr, size);
 1068              		.loc 1 551 0
 1069 000c 0A00     		movs	r2, r1
 1070 000e 0100     		movs	r1, r0
 1071              	.LVL109:
 1072 0010 1020     		movs	r0, #16
 1073              	.LVL110:
 1074 0012 FFF7FEFF 		bl	nRF24_readLongRegister
 1075              	.LVL111:
 1076              	.L66:
 552:Generated_Source\PSoC4/nRF24_NRF_FUNCS.c **** }
 1077              		.loc 1 552 0
 1078              		@ sp needed
 1079 0016 10BD     		pop	{r4, pc}
 1080              		.cfi_endproc
 1081              	.LFE65:
 1082              		.size	nRF24_getTxAddress, .-nRF24_getTxAddress
 1083              		.section	.text.nRF24_setPayloadSize,"ax",%progbits
 1084              		.align	2
 1085              		.global	nRF24_setPayloadSize
 1086              		.code	16
 1087              		.thumb_func
 1088              		.type	nRF24_setPayloadSize, %function
 1089              	nRF24_setPayloadSize:
 1090              	.LFB66:
 553:Generated_Source\PSoC4/nRF24_NRF_FUNCS.c **** 
 554:Generated_Source\PSoC4/nRF24_NRF_FUNCS.c **** /**
 555:Generated_Source\PSoC4/nRF24_NRF_FUNCS.c ****  * @brief Set the payload size of the given pipe.
 556:Generated_Source\PSoC4/nRF24_NRF_FUNCS.c ****  *
ARM GAS  C:\Users\Xwx47\AppData\Local\Temp\ccUdC8ee.s 			page 30


 557:Generated_Source\PSoC4/nRF24_NRF_FUNCS.c ****  * Configure the payload size of the given pipe.
 558:Generated_Source\PSoC4/nRF24_NRF_FUNCS.c ****  *
 559:Generated_Source\PSoC4/nRF24_NRF_FUNCS.c ****  * @param const NrfPipe pipe:
 560:Generated_Source\PSoC4/nRF24_NRF_FUNCS.c ****  * @param uint8_t size:
 561:Generated_Source\PSoC4/nRF24_NRF_FUNCS.c ****  */
 562:Generated_Source\PSoC4/nRF24_NRF_FUNCS.c **** void nRF24_setPayloadSize(const NrfPipePayloadSize pipe, uint8_t size)
 563:Generated_Source\PSoC4/nRF24_NRF_FUNCS.c **** {
 1091              		.loc 1 563 0
 1092              		.cfi_startproc
 1093              		@ args = 0, pretend = 0, frame = 0
 1094              		@ frame_needed = 0, uses_anonymous_args = 0
 1095              	.LVL112:
 1096 0000 10B5     		push	{r4, lr}
 1097              		.cfi_def_cfa_offset 8
 1098              		.cfi_offset 4, -8
 1099              		.cfi_offset 14, -4
 564:Generated_Source\PSoC4/nRF24_NRF_FUNCS.c ****     if (NRF_MAX_PAYLOAD_SIZE < size) {
 1100              		.loc 1 564 0
 1101 0002 2029     		cmp	r1, #32
 1102 0004 00D9     		bls	.L71
 565:Generated_Source\PSoC4/nRF24_NRF_FUNCS.c ****         size = NRF_MAX_PAYLOAD_SIZE;
 1103              		.loc 1 565 0
 1104 0006 2021     		movs	r1, #32
 1105              	.LVL113:
 1106              	.L71:
 566:Generated_Source\PSoC4/nRF24_NRF_FUNCS.c ****     }
 567:Generated_Source\PSoC4/nRF24_NRF_FUNCS.c ****     
 568:Generated_Source\PSoC4/nRF24_NRF_FUNCS.c ****     nRF24_writeRegister(pipe, size);
 1107              		.loc 1 568 0
 1108 0008 FFF7FEFF 		bl	nRF24_writeRegister
 1109              	.LVL114:
 569:Generated_Source\PSoC4/nRF24_NRF_FUNCS.c **** }
 1110              		.loc 1 569 0
 1111              		@ sp needed
 1112 000c 10BD     		pop	{r4, pc}
 1113              		.cfi_endproc
 1114              	.LFE66:
 1115              		.size	nRF24_setPayloadSize, .-nRF24_setPayloadSize
 1116 000e C046     		.section	.text.nRF24_getPayloadSize,"ax",%progbits
 1117              		.align	2
 1118              		.global	nRF24_getPayloadSize
 1119              		.code	16
 1120              		.thumb_func
 1121              		.type	nRF24_getPayloadSize, %function
 1122              	nRF24_getPayloadSize:
 1123              	.LFB67:
 570:Generated_Source\PSoC4/nRF24_NRF_FUNCS.c **** 
 571:Generated_Source\PSoC4/nRF24_NRF_FUNCS.c **** /**
 572:Generated_Source\PSoC4/nRF24_NRF_FUNCS.c ****  * Get the payload size of the given pipe.
 573:Generated_Source\PSoC4/nRF24_NRF_FUNCS.c ****  *
 574:Generated_Source\PSoC4/nRF24_NRF_FUNCS.c ****  * @param const NrfPipe pipe: Pipe to be read.
 575:Generated_Source\PSoC4/nRF24_NRF_FUNCS.c ****  *
 576:Generated_Source\PSoC4/nRF24_NRF_FUNCS.c ****  * @return uint8_t: Configured payload size of the given pipe.
 577:Generated_Source\PSoC4/nRF24_NRF_FUNCS.c ****  */
 578:Generated_Source\PSoC4/nRF24_NRF_FUNCS.c **** uint8_t nRF24_getPayloadSize(const NrfPipePayloadSize pipe)
 579:Generated_Source\PSoC4/nRF24_NRF_FUNCS.c **** {
 1124              		.loc 1 579 0
ARM GAS  C:\Users\Xwx47\AppData\Local\Temp\ccUdC8ee.s 			page 31


 1125              		.cfi_startproc
 1126              		@ args = 0, pretend = 0, frame = 0
 1127              		@ frame_needed = 0, uses_anonymous_args = 0
 1128              	.LVL115:
 1129 0000 10B5     		push	{r4, lr}
 1130              		.cfi_def_cfa_offset 8
 1131              		.cfi_offset 4, -8
 1132              		.cfi_offset 14, -4
 580:Generated_Source\PSoC4/nRF24_NRF_FUNCS.c ****     return nRF24_readRegister(pipe);
 1133              		.loc 1 580 0
 1134 0002 FFF7FEFF 		bl	nRF24_readRegister
 1135              	.LVL116:
 581:Generated_Source\PSoC4/nRF24_NRF_FUNCS.c **** }
 1136              		.loc 1 581 0
 1137              		@ sp needed
 1138 0006 10BD     		pop	{r4, pc}
 1139              		.cfi_endproc
 1140              	.LFE67:
 1141              		.size	nRF24_getPayloadSize, .-nRF24_getPayloadSize
 1142              		.section	.text.nRF24_enableDynamicPayload,"ax",%progbits
 1143              		.align	2
 1144              		.global	nRF24_enableDynamicPayload
 1145              		.code	16
 1146              		.thumb_func
 1147              		.type	nRF24_enableDynamicPayload, %function
 1148              	nRF24_enableDynamicPayload:
 1149              	.LFB69:
 582:Generated_Source\PSoC4/nRF24_NRF_FUNCS.c **** 
 583:Generated_Source\PSoC4/nRF24_NRF_FUNCS.c **** /**
 584:Generated_Source\PSoC4/nRF24_NRF_FUNCS.c ****  * @brief Reuse last transmitted payload.
 585:Generated_Source\PSoC4/nRF24_NRF_FUNCS.c ****  *
 586:Generated_Source\PSoC4/nRF24_NRF_FUNCS.c ****  * This function issue the command ReuseTxPayload and then toggle the CE pin
 587:Generated_Source\PSoC4/nRF24_NRF_FUNCS.c ****  * to transmit the last transmitted payload.
 588:Generated_Source\PSoC4/nRF24_NRF_FUNCS.c ****  */
 589:Generated_Source\PSoC4/nRF24_NRF_FUNCS.c **** void nRF24_PTX_reuseLastTransmittedPayload(void)
 590:Generated_Source\PSoC4/nRF24_NRF_FUNCS.c **** {
 591:Generated_Source\PSoC4/nRF24_NRF_FUNCS.c ****     nRF24_reuseTxPayloadCmd();
 592:Generated_Source\PSoC4/nRF24_NRF_FUNCS.c ****     nRF24_transmitPulse();
 593:Generated_Source\PSoC4/nRF24_NRF_FUNCS.c **** }
 594:Generated_Source\PSoC4/nRF24_NRF_FUNCS.c **** 
 595:Generated_Source\PSoC4/nRF24_NRF_FUNCS.c **** /**
 596:Generated_Source\PSoC4/nRF24_NRF_FUNCS.c ****  * @brief Enable dynamic payload on the given pipe.
 597:Generated_Source\PSoC4/nRF24_NRF_FUNCS.c ****  *
 598:Generated_Source\PSoC4/nRF24_NRF_FUNCS.c ****  * @param const NrfPipe pipe:
 599:Generated_Source\PSoC4/nRF24_NRF_FUNCS.c ****  */
 600:Generated_Source\PSoC4/nRF24_NRF_FUNCS.c **** void nRF24_enableDynamicPayload(const NrfPipe pipe)
 601:Generated_Source\PSoC4/nRF24_NRF_FUNCS.c **** {
 1150              		.loc 1 601 0
 1151              		.cfi_startproc
 1152              		@ args = 0, pretend = 0, frame = 0
 1153              		@ frame_needed = 0, uses_anonymous_args = 0
 1154              	.LVL117:
 1155 0000 10B5     		push	{r4, lr}
 1156              		.cfi_def_cfa_offset 8
 1157              		.cfi_offset 4, -8
 1158              		.cfi_offset 14, -4
 1159 0002 0400     		movs	r4, r0
ARM GAS  C:\Users\Xwx47\AppData\Local\Temp\ccUdC8ee.s 			page 32


 602:Generated_Source\PSoC4/nRF24_NRF_FUNCS.c ****     nRF24_setBit(NRF_EN_AA_REG, pipe);
 1160              		.loc 1 602 0
 1161 0004 0100     		movs	r1, r0
 1162 0006 0120     		movs	r0, #1
 1163              	.LVL118:
 1164 0008 FFF7FEFF 		bl	nRF24_setBit
 1165              	.LVL119:
 603:Generated_Source\PSoC4/nRF24_NRF_FUNCS.c ****     nRF24_setBit(NRF_FEATURE_REG, NRF_FEATURE_EN_ACK_PAY);
 1166              		.loc 1 603 0
 1167 000c 0121     		movs	r1, #1
 1168 000e 1D20     		movs	r0, #29
 1169 0010 FFF7FEFF 		bl	nRF24_setBit
 1170              	.LVL120:
 604:Generated_Source\PSoC4/nRF24_NRF_FUNCS.c ****     nRF24_setBit(NRF_FEATURE_REG, NRF_FEATURE_EN_DPL);
 1171              		.loc 1 604 0
 1172 0014 0221     		movs	r1, #2
 1173 0016 1D20     		movs	r0, #29
 1174 0018 FFF7FEFF 		bl	nRF24_setBit
 1175              	.LVL121:
 605:Generated_Source\PSoC4/nRF24_NRF_FUNCS.c ****     nRF24_setBit(NRF_DYNPD_REG, pipe);
 1176              		.loc 1 605 0
 1177 001c 2100     		movs	r1, r4
 1178 001e 1C20     		movs	r0, #28
 1179 0020 FFF7FEFF 		bl	nRF24_setBit
 1180              	.LVL122:
 606:Generated_Source\PSoC4/nRF24_NRF_FUNCS.c **** }
 1181              		.loc 1 606 0
 1182              		@ sp needed
 1183 0024 10BD     		pop	{r4, pc}
 1184              		.cfi_endproc
 1185              	.LFE69:
 1186              		.size	nRF24_enableDynamicPayload, .-nRF24_enableDynamicPayload
 1187 0026 C046     		.section	.text.nRF24_disableDynamicPayload,"ax",%progbits
 1188              		.align	2
 1189              		.global	nRF24_disableDynamicPayload
 1190              		.code	16
 1191              		.thumb_func
 1192              		.type	nRF24_disableDynamicPayload, %function
 1193              	nRF24_disableDynamicPayload:
 1194              	.LFB70:
 607:Generated_Source\PSoC4/nRF24_NRF_FUNCS.c **** 
 608:Generated_Source\PSoC4/nRF24_NRF_FUNCS.c **** /**
 609:Generated_Source\PSoC4/nRF24_NRF_FUNCS.c ****  * @brief Disable dynamic payload on the given pipe.
 610:Generated_Source\PSoC4/nRF24_NRF_FUNCS.c ****  *
 611:Generated_Source\PSoC4/nRF24_NRF_FUNCS.c ****  * @param const NrfPipe pipe:
 612:Generated_Source\PSoC4/nRF24_NRF_FUNCS.c ****  */
 613:Generated_Source\PSoC4/nRF24_NRF_FUNCS.c **** void nRF24_disableDynamicPayload(const NrfPipe pipe)
 614:Generated_Source\PSoC4/nRF24_NRF_FUNCS.c **** {
 1195              		.loc 1 614 0
 1196              		.cfi_startproc
 1197              		@ args = 0, pretend = 0, frame = 0
 1198              		@ frame_needed = 0, uses_anonymous_args = 0
 1199              	.LVL123:
 1200 0000 10B5     		push	{r4, lr}
 1201              		.cfi_def_cfa_offset 8
 1202              		.cfi_offset 4, -8
 1203              		.cfi_offset 14, -4
ARM GAS  C:\Users\Xwx47\AppData\Local\Temp\ccUdC8ee.s 			page 33


 1204 0002 0400     		movs	r4, r0
 615:Generated_Source\PSoC4/nRF24_NRF_FUNCS.c ****     nRF24_clearBit(NRF_EN_AA_REG, pipe);
 1205              		.loc 1 615 0
 1206 0004 0100     		movs	r1, r0
 1207 0006 0120     		movs	r0, #1
 1208              	.LVL124:
 1209 0008 FFF7FEFF 		bl	nRF24_clearBit
 1210              	.LVL125:
 616:Generated_Source\PSoC4/nRF24_NRF_FUNCS.c ****     nRF24_clearBit(NRF_FEATURE_REG, NRF_FEATURE_EN_ACK_PAY);
 1211              		.loc 1 616 0
 1212 000c 0121     		movs	r1, #1
 1213 000e 1D20     		movs	r0, #29
 1214 0010 FFF7FEFF 		bl	nRF24_clearBit
 1215              	.LVL126:
 617:Generated_Source\PSoC4/nRF24_NRF_FUNCS.c ****     nRF24_clearBit(NRF_FEATURE_REG, NRF_FEATURE_EN_DPL);
 1216              		.loc 1 617 0
 1217 0014 0221     		movs	r1, #2
 1218 0016 1D20     		movs	r0, #29
 1219 0018 FFF7FEFF 		bl	nRF24_clearBit
 1220              	.LVL127:
 618:Generated_Source\PSoC4/nRF24_NRF_FUNCS.c ****     nRF24_clearBit(NRF_DYNPD_REG, pipe);
 1221              		.loc 1 618 0
 1222 001c 2100     		movs	r1, r4
 1223 001e 1C20     		movs	r0, #28
 1224 0020 FFF7FEFF 		bl	nRF24_clearBit
 1225              	.LVL128:
 619:Generated_Source\PSoC4/nRF24_NRF_FUNCS.c **** }
 1226              		.loc 1 619 0
 1227              		@ sp needed
 1228 0024 10BD     		pop	{r4, pc}
 1229              		.cfi_endproc
 1230              	.LFE70:
 1231              		.size	nRF24_disableDynamicPayload, .-nRF24_disableDynamicPayload
 1232 0026 C046     		.section	.text.nRF24_enableDynamicPayloadLength,"ax",%progbits
 1233              		.align	2
 1234              		.global	nRF24_enableDynamicPayloadLength
 1235              		.code	16
 1236              		.thumb_func
 1237              		.type	nRF24_enableDynamicPayloadLength, %function
 1238              	nRF24_enableDynamicPayloadLength:
 1239              	.LFB71:
 620:Generated_Source\PSoC4/nRF24_NRF_FUNCS.c **** 
 621:Generated_Source\PSoC4/nRF24_NRF_FUNCS.c **** /**
 622:Generated_Source\PSoC4/nRF24_NRF_FUNCS.c ****  * @brief Enable dinamic payload length.
 623:Generated_Source\PSoC4/nRF24_NRF_FUNCS.c ****  */
 624:Generated_Source\PSoC4/nRF24_NRF_FUNCS.c **** void nRF24_enableDynamicPayloadLength(void)
 625:Generated_Source\PSoC4/nRF24_NRF_FUNCS.c **** {
 1240              		.loc 1 625 0
 1241              		.cfi_startproc
 1242              		@ args = 0, pretend = 0, frame = 0
 1243              		@ frame_needed = 0, uses_anonymous_args = 0
 1244 0000 10B5     		push	{r4, lr}
 1245              		.cfi_def_cfa_offset 8
 1246              		.cfi_offset 4, -8
 1247              		.cfi_offset 14, -4
 626:Generated_Source\PSoC4/nRF24_NRF_FUNCS.c ****     nRF24_setBit(NRF_FEATURE_REG, NRF_FEATURE_EN_DPL);
 1248              		.loc 1 626 0
ARM GAS  C:\Users\Xwx47\AppData\Local\Temp\ccUdC8ee.s 			page 34


 1249 0002 0221     		movs	r1, #2
 1250 0004 1D20     		movs	r0, #29
 1251 0006 FFF7FEFF 		bl	nRF24_setBit
 1252              	.LVL129:
 627:Generated_Source\PSoC4/nRF24_NRF_FUNCS.c **** }
 1253              		.loc 1 627 0
 1254              		@ sp needed
 1255 000a 10BD     		pop	{r4, pc}
 1256              		.cfi_endproc
 1257              	.LFE71:
 1258              		.size	nRF24_enableDynamicPayloadLength, .-nRF24_enableDynamicPayloadLength
 1259              		.section	.text.nRF24_disableDynamicPayloadLength,"ax",%progbits
 1260              		.align	2
 1261              		.global	nRF24_disableDynamicPayloadLength
 1262              		.code	16
 1263              		.thumb_func
 1264              		.type	nRF24_disableDynamicPayloadLength, %function
 1265              	nRF24_disableDynamicPayloadLength:
 1266              	.LFB72:
 628:Generated_Source\PSoC4/nRF24_NRF_FUNCS.c **** 
 629:Generated_Source\PSoC4/nRF24_NRF_FUNCS.c **** /**
 630:Generated_Source\PSoC4/nRF24_NRF_FUNCS.c ****  * @brief Disable dynamic payload length.
 631:Generated_Source\PSoC4/nRF24_NRF_FUNCS.c ****  */
 632:Generated_Source\PSoC4/nRF24_NRF_FUNCS.c **** void nRF24_disableDynamicPayloadLength(void)
 633:Generated_Source\PSoC4/nRF24_NRF_FUNCS.c **** {
 1267              		.loc 1 633 0
 1268              		.cfi_startproc
 1269              		@ args = 0, pretend = 0, frame = 0
 1270              		@ frame_needed = 0, uses_anonymous_args = 0
 1271 0000 10B5     		push	{r4, lr}
 1272              		.cfi_def_cfa_offset 8
 1273              		.cfi_offset 4, -8
 1274              		.cfi_offset 14, -4
 634:Generated_Source\PSoC4/nRF24_NRF_FUNCS.c ****     nRF24_clearBit(NRF_FEATURE_REG, NRF_FEATURE_EN_DPL);
 1275              		.loc 1 634 0
 1276 0002 0221     		movs	r1, #2
 1277 0004 1D20     		movs	r0, #29
 1278 0006 FFF7FEFF 		bl	nRF24_clearBit
 1279              	.LVL130:
 635:Generated_Source\PSoC4/nRF24_NRF_FUNCS.c **** }
 1280              		.loc 1 635 0
 1281              		@ sp needed
 1282 000a 10BD     		pop	{r4, pc}
 1283              		.cfi_endproc
 1284              	.LFE72:
 1285              		.size	nRF24_disableDynamicPayloadLength, .-nRF24_disableDynamicPayloadLength
 1286              		.section	.text.nRF24_enablePayloadWithACK,"ax",%progbits
 1287              		.align	2
 1288              		.global	nRF24_enablePayloadWithACK
 1289              		.code	16
 1290              		.thumb_func
 1291              		.type	nRF24_enablePayloadWithACK, %function
 1292              	nRF24_enablePayloadWithACK:
 1293              	.LFB73:
 636:Generated_Source\PSoC4/nRF24_NRF_FUNCS.c **** 
 637:Generated_Source\PSoC4/nRF24_NRF_FUNCS.c **** /**
 638:Generated_Source\PSoC4/nRF24_NRF_FUNCS.c ****  * @brief Enable payload with ACK.
ARM GAS  C:\Users\Xwx47\AppData\Local\Temp\ccUdC8ee.s 			page 35


 639:Generated_Source\PSoC4/nRF24_NRF_FUNCS.c ****  */
 640:Generated_Source\PSoC4/nRF24_NRF_FUNCS.c **** void nRF24_enablePayloadWithACK(void)
 641:Generated_Source\PSoC4/nRF24_NRF_FUNCS.c **** {
 1294              		.loc 1 641 0
 1295              		.cfi_startproc
 1296              		@ args = 0, pretend = 0, frame = 0
 1297              		@ frame_needed = 0, uses_anonymous_args = 0
 1298 0000 10B5     		push	{r4, lr}
 1299              		.cfi_def_cfa_offset 8
 1300              		.cfi_offset 4, -8
 1301              		.cfi_offset 14, -4
 642:Generated_Source\PSoC4/nRF24_NRF_FUNCS.c ****     nRF24_setBit(NRF_FEATURE_REG, NRF_FEATURE_EN_ACK_PAY);
 1302              		.loc 1 642 0
 1303 0002 0121     		movs	r1, #1
 1304 0004 1D20     		movs	r0, #29
 1305 0006 FFF7FEFF 		bl	nRF24_setBit
 1306              	.LVL131:
 643:Generated_Source\PSoC4/nRF24_NRF_FUNCS.c **** }
 1307              		.loc 1 643 0
 1308              		@ sp needed
 1309 000a 10BD     		pop	{r4, pc}
 1310              		.cfi_endproc
 1311              	.LFE73:
 1312              		.size	nRF24_enablePayloadWithACK, .-nRF24_enablePayloadWithACK
 1313              		.section	.text.nRF24_disablePayloadWithACK,"ax",%progbits
 1314              		.align	2
 1315              		.global	nRF24_disablePayloadWithACK
 1316              		.code	16
 1317              		.thumb_func
 1318              		.type	nRF24_disablePayloadWithACK, %function
 1319              	nRF24_disablePayloadWithACK:
 1320              	.LFB74:
 644:Generated_Source\PSoC4/nRF24_NRF_FUNCS.c **** 
 645:Generated_Source\PSoC4/nRF24_NRF_FUNCS.c **** /**
 646:Generated_Source\PSoC4/nRF24_NRF_FUNCS.c ****  * @brief Disable Payload with ACK.
 647:Generated_Source\PSoC4/nRF24_NRF_FUNCS.c ****  */
 648:Generated_Source\PSoC4/nRF24_NRF_FUNCS.c **** void nRF24_disablePayloadWithACK(void)
 649:Generated_Source\PSoC4/nRF24_NRF_FUNCS.c **** {
 1321              		.loc 1 649 0
 1322              		.cfi_startproc
 1323              		@ args = 0, pretend = 0, frame = 0
 1324              		@ frame_needed = 0, uses_anonymous_args = 0
 1325 0000 10B5     		push	{r4, lr}
 1326              		.cfi_def_cfa_offset 8
 1327              		.cfi_offset 4, -8
 1328              		.cfi_offset 14, -4
 650:Generated_Source\PSoC4/nRF24_NRF_FUNCS.c ****     nRF24_clearBit(NRF_FEATURE_REG, NRF_FEATURE_EN_ACK_PAY);
 1329              		.loc 1 650 0
 1330 0002 0121     		movs	r1, #1
 1331 0004 1D20     		movs	r0, #29
 1332 0006 FFF7FEFF 		bl	nRF24_clearBit
 1333              	.LVL132:
 651:Generated_Source\PSoC4/nRF24_NRF_FUNCS.c **** }
 1334              		.loc 1 651 0
 1335              		@ sp needed
 1336 000a 10BD     		pop	{r4, pc}
 1337              		.cfi_endproc
ARM GAS  C:\Users\Xwx47\AppData\Local\Temp\ccUdC8ee.s 			page 36


 1338              	.LFE74:
 1339              		.size	nRF24_disablePayloadWithACK, .-nRF24_disablePayloadWithACK
 1340              		.section	.text.nRF24_enablePayloadWithNoACKCmd,"ax",%progbits
 1341              		.align	2
 1342              		.global	nRF24_enablePayloadWithNoACKCmd
 1343              		.code	16
 1344              		.thumb_func
 1345              		.type	nRF24_enablePayloadWithNoACKCmd, %function
 1346              	nRF24_enablePayloadWithNoACKCmd:
 1347              	.LFB75:
 652:Generated_Source\PSoC4/nRF24_NRF_FUNCS.c **** 
 653:Generated_Source\PSoC4/nRF24_NRF_FUNCS.c **** /**
 654:Generated_Source\PSoC4/nRF24_NRF_FUNCS.c ****  * @brief Enable dynamic payload length.
 655:Generated_Source\PSoC4/nRF24_NRF_FUNCS.c ****  */
 656:Generated_Source\PSoC4/nRF24_NRF_FUNCS.c **** void nRF24_enablePayloadWithNoACKCmd(void)
 657:Generated_Source\PSoC4/nRF24_NRF_FUNCS.c **** {
 1348              		.loc 1 657 0
 1349              		.cfi_startproc
 1350              		@ args = 0, pretend = 0, frame = 0
 1351              		@ frame_needed = 0, uses_anonymous_args = 0
 1352 0000 10B5     		push	{r4, lr}
 1353              		.cfi_def_cfa_offset 8
 1354              		.cfi_offset 4, -8
 1355              		.cfi_offset 14, -4
 658:Generated_Source\PSoC4/nRF24_NRF_FUNCS.c ****     nRF24_setBit(NRF_FEATURE_REG, NRF_FEATURE_EN_DYN_ACK);
 1356              		.loc 1 658 0
 1357 0002 0021     		movs	r1, #0
 1358 0004 1D20     		movs	r0, #29
 1359 0006 FFF7FEFF 		bl	nRF24_setBit
 1360              	.LVL133:
 659:Generated_Source\PSoC4/nRF24_NRF_FUNCS.c **** }
 1361              		.loc 1 659 0
 1362              		@ sp needed
 1363 000a 10BD     		pop	{r4, pc}
 1364              		.cfi_endproc
 1365              	.LFE75:
 1366              		.size	nRF24_enablePayloadWithNoACKCmd, .-nRF24_enablePayloadWithNoACKCmd
 1367              		.section	.text.nRF24_disablePayloadWithNoACKCmd,"ax",%progbits
 1368              		.align	2
 1369              		.global	nRF24_disablePayloadWithNoACKCmd
 1370              		.code	16
 1371              		.thumb_func
 1372              		.type	nRF24_disablePayloadWithNoACKCmd, %function
 1373              	nRF24_disablePayloadWithNoACKCmd:
 1374              	.LFB76:
 660:Generated_Source\PSoC4/nRF24_NRF_FUNCS.c **** 
 661:Generated_Source\PSoC4/nRF24_NRF_FUNCS.c **** /**
 662:Generated_Source\PSoC4/nRF24_NRF_FUNCS.c ****  * @brief Disable Payload with no ACK.
 663:Generated_Source\PSoC4/nRF24_NRF_FUNCS.c ****  */
 664:Generated_Source\PSoC4/nRF24_NRF_FUNCS.c **** void nRF24_disablePayloadWithNoACKCmd(void)
 665:Generated_Source\PSoC4/nRF24_NRF_FUNCS.c **** {
 1375              		.loc 1 665 0
 1376              		.cfi_startproc
 1377              		@ args = 0, pretend = 0, frame = 0
 1378              		@ frame_needed = 0, uses_anonymous_args = 0
 1379 0000 10B5     		push	{r4, lr}
 1380              		.cfi_def_cfa_offset 8
ARM GAS  C:\Users\Xwx47\AppData\Local\Temp\ccUdC8ee.s 			page 37


 1381              		.cfi_offset 4, -8
 1382              		.cfi_offset 14, -4
 666:Generated_Source\PSoC4/nRF24_NRF_FUNCS.c ****     nRF24_clearBit(NRF_FEATURE_REG, NRF_FEATURE_EN_DYN_ACK);
 1383              		.loc 1 666 0
 1384 0002 0021     		movs	r1, #0
 1385 0004 1D20     		movs	r0, #29
 1386 0006 FFF7FEFF 		bl	nRF24_clearBit
 1387              	.LVL134:
 667:Generated_Source\PSoC4/nRF24_NRF_FUNCS.c **** }
 1388              		.loc 1 667 0
 1389              		@ sp needed
 1390 000a 10BD     		pop	{r4, pc}
 1391              		.cfi_endproc
 1392              	.LFE76:
 1393              		.size	nRF24_disablePayloadWithNoACKCmd, .-nRF24_disablePayloadWithNoACKCmd
 1394              		.section	.text.nRF24_listen,"ax",%progbits
 1395              		.align	2
 1396              		.global	nRF24_listen
 1397              		.code	16
 1398              		.thumb_func
 1399              		.type	nRF24_listen, %function
 1400              	nRF24_listen:
 1401              	.LFB77:
 668:Generated_Source\PSoC4/nRF24_NRF_FUNCS.c **** 
 669:Generated_Source\PSoC4/nRF24_NRF_FUNCS.c **** /**
 670:Generated_Source\PSoC4/nRF24_NRF_FUNCS.c ****  * @brief Set the value of the CE pin to listen or not.
 671:Generated_Source\PSoC4/nRF24_NRF_FUNCS.c ****  *
 672:Generated_Source\PSoC4/nRF24_NRF_FUNCS.c ****  * @param const bool listen: If @listen is set to true, then the radio will
 673:Generated_Source\PSoC4/nRF24_NRF_FUNCS.c ****  * listen, if set to false the radio will stop listening.
 674:Generated_Source\PSoC4/nRF24_NRF_FUNCS.c ****  */
 675:Generated_Source\PSoC4/nRF24_NRF_FUNCS.c **** void nRF24_listen(const bool listen)
 676:Generated_Source\PSoC4/nRF24_NRF_FUNCS.c **** {
 1402              		.loc 1 676 0
 1403              		.cfi_startproc
 1404              		@ args = 0, pretend = 0, frame = 0
 1405              		@ frame_needed = 0, uses_anonymous_args = 0
 1406              	.LVL135:
 1407 0000 10B5     		push	{r4, lr}
 1408              		.cfi_def_cfa_offset 8
 1409              		.cfi_offset 4, -8
 1410              		.cfi_offset 14, -4
 677:Generated_Source\PSoC4/nRF24_NRF_FUNCS.c **** #if defined(CY_GPIO_H)
 678:Generated_Source\PSoC4/nRF24_NRF_FUNCS.c ****     listen ? Cy_GPIO_Set(CE_PORT, CE_NUM) : 
 679:Generated_Source\PSoC4/nRF24_NRF_FUNCS.c ****             Cy_GPIO_Clr(CE_PORT, CE_NUM);
 680:Generated_Source\PSoC4/nRF24_NRF_FUNCS.c **** #else
 681:Generated_Source\PSoC4/nRF24_NRF_FUNCS.c ****     listen ? CE_Write(1) : CE_Write(0);
 1411              		.loc 1 681 0
 1412 0002 0028     		cmp	r0, #0
 1413 0004 03D0     		beq	.L83
 1414              		.loc 1 681 0 is_stmt 0 discriminator 1
 1415 0006 0120     		movs	r0, #1
 1416              	.LVL136:
 1417 0008 FFF7FEFF 		bl	CE_Write
 1418              	.LVL137:
 1419 000c 02E0     		b	.L82
 1420              	.LVL138:
 1421              	.L83:
ARM GAS  C:\Users\Xwx47\AppData\Local\Temp\ccUdC8ee.s 			page 38


 1422              		.loc 1 681 0 discriminator 2
 1423 000e 0020     		movs	r0, #0
 1424              	.LVL139:
 1425 0010 FFF7FEFF 		bl	CE_Write
 1426              	.LVL140:
 1427              	.L82:
 682:Generated_Source\PSoC4/nRF24_NRF_FUNCS.c **** #endif
 683:Generated_Source\PSoC4/nRF24_NRF_FUNCS.c **** }
 1428              		.loc 1 683 0 is_stmt 1
 1429              		@ sp needed
 1430 0014 10BD     		pop	{r4, pc}
 1431              		.cfi_endproc
 1432              	.LFE77:
 1433              		.size	nRF24_listen, .-nRF24_listen
 1434 0016 C046     		.section	.text.nRF24_setStandbyIMode,"ax",%progbits
 1435              		.align	2
 1436              		.global	nRF24_setStandbyIMode
 1437              		.code	16
 1438              		.thumb_func
 1439              		.type	nRF24_setStandbyIMode, %function
 1440              	nRF24_setStandbyIMode:
 1441              	.LFB43:
 196:Generated_Source\PSoC4/nRF24_NRF_FUNCS.c ****     nRF24_listen(false);
 1442              		.loc 1 196 0
 1443              		.cfi_startproc
 1444              		@ args = 0, pretend = 0, frame = 0
 1445              		@ frame_needed = 0, uses_anonymous_args = 0
 1446 0000 10B5     		push	{r4, lr}
 1447              		.cfi_def_cfa_offset 8
 1448              		.cfi_offset 4, -8
 1449              		.cfi_offset 14, -4
 197:Generated_Source\PSoC4/nRF24_NRF_FUNCS.c ****     nRF24_clearBit(NRF_CONFIG_REG, NRF_CONFIG_PWR_UP);
 1450              		.loc 1 197 0
 1451 0002 0020     		movs	r0, #0
 1452 0004 FFF7FEFF 		bl	nRF24_listen
 1453              	.LVL141:
 198:Generated_Source\PSoC4/nRF24_NRF_FUNCS.c **** }
 1454              		.loc 1 198 0
 1455 0008 0121     		movs	r1, #1
 1456 000a 0020     		movs	r0, #0
 1457 000c FFF7FEFF 		bl	nRF24_clearBit
 1458              	.LVL142:
 199:Generated_Source\PSoC4/nRF24_NRF_FUNCS.c **** 
 1459              		.loc 1 199 0
 1460              		@ sp needed
 1461 0010 10BD     		pop	{r4, pc}
 1462              		.cfi_endproc
 1463              	.LFE43:
 1464              		.size	nRF24_setStandbyIMode, .-nRF24_setStandbyIMode
 1465 0012 C046     		.section	.text.nRF24_setStandbyIIMode,"ax",%progbits
 1466              		.align	2
 1467              		.global	nRF24_setStandbyIIMode
 1468              		.code	16
 1469              		.thumb_func
 1470              		.type	nRF24_setStandbyIIMode, %function
 1471              	nRF24_setStandbyIIMode:
 1472              	.LFB44:
ARM GAS  C:\Users\Xwx47\AppData\Local\Temp\ccUdC8ee.s 			page 39


 211:Generated_Source\PSoC4/nRF24_NRF_FUNCS.c ****     nRF24_listen(true);
 1473              		.loc 1 211 0
 1474              		.cfi_startproc
 1475              		@ args = 0, pretend = 0, frame = 0
 1476              		@ frame_needed = 0, uses_anonymous_args = 0
 1477 0000 10B5     		push	{r4, lr}
 1478              		.cfi_def_cfa_offset 8
 1479              		.cfi_offset 4, -8
 1480              		.cfi_offset 14, -4
 212:Generated_Source\PSoC4/nRF24_NRF_FUNCS.c ****     nRF24_setBit(NRF_CONFIG_REG, NRF_CONFIG_PWR_UP);
 1481              		.loc 1 212 0
 1482 0002 0120     		movs	r0, #1
 1483 0004 FFF7FEFF 		bl	nRF24_listen
 1484              	.LVL143:
 213:Generated_Source\PSoC4/nRF24_NRF_FUNCS.c **** }
 1485              		.loc 1 213 0
 1486 0008 0121     		movs	r1, #1
 1487 000a 0020     		movs	r0, #0
 1488 000c FFF7FEFF 		bl	nRF24_setBit
 1489              	.LVL144:
 214:Generated_Source\PSoC4/nRF24_NRF_FUNCS.c **** 
 1490              		.loc 1 214 0
 1491              		@ sp needed
 1492 0010 10BD     		pop	{r4, pc}
 1493              		.cfi_endproc
 1494              	.LFE44:
 1495              		.size	nRF24_setStandbyIIMode, .-nRF24_setStandbyIIMode
 1496 0012 C046     		.section	.text.nRF24_startListening,"ax",%progbits
 1497              		.align	2
 1498              		.global	nRF24_startListening
 1499              		.code	16
 1500              		.thumb_func
 1501              		.type	nRF24_startListening, %function
 1502              	nRF24_startListening:
 1503              	.LFB78:
 684:Generated_Source\PSoC4/nRF24_NRF_FUNCS.c **** 
 685:Generated_Source\PSoC4/nRF24_NRF_FUNCS.c **** /**
 686:Generated_Source\PSoC4/nRF24_NRF_FUNCS.c ****  * @brief The nRF24 radio will start listening.
 687:Generated_Source\PSoC4/nRF24_NRF_FUNCS.c ****  *
 688:Generated_Source\PSoC4/nRF24_NRF_FUNCS.c ****  * This function set the pin CE to logic high, this enable the radio for
 689:Generated_Source\PSoC4/nRF24_NRF_FUNCS.c ****  * listening.
 690:Generated_Source\PSoC4/nRF24_NRF_FUNCS.c ****  */
 691:Generated_Source\PSoC4/nRF24_NRF_FUNCS.c **** void nRF24_startListening(void) {
 1504              		.loc 1 691 0
 1505              		.cfi_startproc
 1506              		@ args = 0, pretend = 0, frame = 0
 1507              		@ frame_needed = 0, uses_anonymous_args = 0
 1508 0000 10B5     		push	{r4, lr}
 1509              		.cfi_def_cfa_offset 8
 1510              		.cfi_offset 4, -8
 1511              		.cfi_offset 14, -4
 692:Generated_Source\PSoC4/nRF24_NRF_FUNCS.c ****     nRF24_listen(true);
 1512              		.loc 1 692 0
 1513 0002 0120     		movs	r0, #1
 1514 0004 FFF7FEFF 		bl	nRF24_listen
 1515              	.LVL145:
 693:Generated_Source\PSoC4/nRF24_NRF_FUNCS.c **** }
ARM GAS  C:\Users\Xwx47\AppData\Local\Temp\ccUdC8ee.s 			page 40


 1516              		.loc 1 693 0
 1517              		@ sp needed
 1518 0008 10BD     		pop	{r4, pc}
 1519              		.cfi_endproc
 1520              	.LFE78:
 1521              		.size	nRF24_startListening, .-nRF24_startListening
 1522 000a C046     		.section	.text.nRF24_stopListening,"ax",%progbits
 1523              		.align	2
 1524              		.global	nRF24_stopListening
 1525              		.code	16
 1526              		.thumb_func
 1527              		.type	nRF24_stopListening, %function
 1528              	nRF24_stopListening:
 1529              	.LFB79:
 694:Generated_Source\PSoC4/nRF24_NRF_FUNCS.c **** 
 695:Generated_Source\PSoC4/nRF24_NRF_FUNCS.c **** /**
 696:Generated_Source\PSoC4/nRF24_NRF_FUNCS.c ****  * @brief The nRF24 radio will stop listening.
 697:Generated_Source\PSoC4/nRF24_NRF_FUNCS.c ****  *
 698:Generated_Source\PSoC4/nRF24_NRF_FUNCS.c ****  * This function the pin CE of the nRF24 radio will be set to logic low,
 699:Generated_Source\PSoC4/nRF24_NRF_FUNCS.c ****  * this disable the radio for listening.
 700:Generated_Source\PSoC4/nRF24_NRF_FUNCS.c ****  */
 701:Generated_Source\PSoC4/nRF24_NRF_FUNCS.c **** void nRF24_stopListening(void) {
 1530              		.loc 1 701 0
 1531              		.cfi_startproc
 1532              		@ args = 0, pretend = 0, frame = 0
 1533              		@ frame_needed = 0, uses_anonymous_args = 0
 1534 0000 10B5     		push	{r4, lr}
 1535              		.cfi_def_cfa_offset 8
 1536              		.cfi_offset 4, -8
 1537              		.cfi_offset 14, -4
 702:Generated_Source\PSoC4/nRF24_NRF_FUNCS.c ****     nRF24_listen(false);
 1538              		.loc 1 702 0
 1539 0002 0020     		movs	r0, #0
 1540 0004 FFF7FEFF 		bl	nRF24_listen
 1541              	.LVL146:
 703:Generated_Source\PSoC4/nRF24_NRF_FUNCS.c **** }
 1542              		.loc 1 703 0
 1543              		@ sp needed
 1544 0008 10BD     		pop	{r4, pc}
 1545              		.cfi_endproc
 1546              	.LFE79:
 1547              		.size	nRF24_stopListening, .-nRF24_stopListening
 1548 000a C046     		.section	.text.nRF24_transmitPulse,"ax",%progbits
 1549              		.align	2
 1550              		.global	nRF24_transmitPulse
 1551              		.code	16
 1552              		.thumb_func
 1553              		.type	nRF24_transmitPulse, %function
 1554              	nRF24_transmitPulse:
 1555              	.LFB80:
 704:Generated_Source\PSoC4/nRF24_NRF_FUNCS.c **** 
 705:Generated_Source\PSoC4/nRF24_NRF_FUNCS.c **** /**
 706:Generated_Source\PSoC4/nRF24_NRF_FUNCS.c ****  * @brief Transmit pulse on the CE pin.
 707:Generated_Source\PSoC4/nRF24_NRF_FUNCS.c ****  *
 708:Generated_Source\PSoC4/nRF24_NRF_FUNCS.c ****  * With this function the CE pin of the nRF24 radio will have a pulse of 15us,
 709:Generated_Source\PSoC4/nRF24_NRF_FUNCS.c ****  * this pulse trigger a transmission of the content of the TX FIFO.
 710:Generated_Source\PSoC4/nRF24_NRF_FUNCS.c ****  */
ARM GAS  C:\Users\Xwx47\AppData\Local\Temp\ccUdC8ee.s 			page 41


 711:Generated_Source\PSoC4/nRF24_NRF_FUNCS.c **** void nRF24_transmitPulse(void)
 712:Generated_Source\PSoC4/nRF24_NRF_FUNCS.c **** {
 1556              		.loc 1 712 0
 1557              		.cfi_startproc
 1558              		@ args = 0, pretend = 0, frame = 0
 1559              		@ frame_needed = 0, uses_anonymous_args = 0
 1560 0000 10B5     		push	{r4, lr}
 1561              		.cfi_def_cfa_offset 8
 1562              		.cfi_offset 4, -8
 1563              		.cfi_offset 14, -4
 713:Generated_Source\PSoC4/nRF24_NRF_FUNCS.c **** #if defined(CY_GPIO_H)
 714:Generated_Source\PSoC4/nRF24_NRF_FUNCS.c ****     Cy_GPIO_Set(CE_PORT, CE_NUM);
 715:Generated_Source\PSoC4/nRF24_NRF_FUNCS.c ****     CyDelayUs(NRF_CE_PULSE_WIDTH);
 716:Generated_Source\PSoC4/nRF24_NRF_FUNCS.c ****     Cy_GPIO_Clr(CE_PORT, CE_NUM);
 717:Generated_Source\PSoC4/nRF24_NRF_FUNCS.c **** #else
 718:Generated_Source\PSoC4/nRF24_NRF_FUNCS.c ****     CE_Write(1);
 1564              		.loc 1 718 0
 1565 0002 0120     		movs	r0, #1
 1566 0004 FFF7FEFF 		bl	CE_Write
 1567              	.LVL147:
 719:Generated_Source\PSoC4/nRF24_NRF_FUNCS.c ****     CyDelayUs(NRF_CE_PULSE_WIDTH);
 1568              		.loc 1 719 0
 1569 0008 0F20     		movs	r0, #15
 1570 000a FFF7FEFF 		bl	CyDelayUs
 1571              	.LVL148:
 720:Generated_Source\PSoC4/nRF24_NRF_FUNCS.c ****     CE_Write(0);
 1572              		.loc 1 720 0
 1573 000e 0020     		movs	r0, #0
 1574 0010 FFF7FEFF 		bl	CE_Write
 1575              	.LVL149:
 721:Generated_Source\PSoC4/nRF24_NRF_FUNCS.c **** #endif
 722:Generated_Source\PSoC4/nRF24_NRF_FUNCS.c **** }
 1576              		.loc 1 722 0
 1577              		@ sp needed
 1578 0014 10BD     		pop	{r4, pc}
 1579              		.cfi_endproc
 1580              	.LFE80:
 1581              		.size	nRF24_transmitPulse, .-nRF24_transmitPulse
 1582 0016 C046     		.section	.text.nRF24_PTX_reuseLastTransmittedPayload,"ax",%progbits
 1583              		.align	2
 1584              		.global	nRF24_PTX_reuseLastTransmittedPayload
 1585              		.code	16
 1586              		.thumb_func
 1587              		.type	nRF24_PTX_reuseLastTransmittedPayload, %function
 1588              	nRF24_PTX_reuseLastTransmittedPayload:
 1589              	.LFB68:
 590:Generated_Source\PSoC4/nRF24_NRF_FUNCS.c ****     nRF24_reuseTxPayloadCmd();
 1590              		.loc 1 590 0
 1591              		.cfi_startproc
 1592              		@ args = 0, pretend = 0, frame = 0
 1593              		@ frame_needed = 0, uses_anonymous_args = 0
 1594 0000 10B5     		push	{r4, lr}
 1595              		.cfi_def_cfa_offset 8
 1596              		.cfi_offset 4, -8
 1597              		.cfi_offset 14, -4
 591:Generated_Source\PSoC4/nRF24_NRF_FUNCS.c ****     nRF24_transmitPulse();
 1598              		.loc 1 591 0
ARM GAS  C:\Users\Xwx47\AppData\Local\Temp\ccUdC8ee.s 			page 42


 1599 0002 FFF7FEFF 		bl	nRF24_reuseTxPayloadCmd
 1600              	.LVL150:
 592:Generated_Source\PSoC4/nRF24_NRF_FUNCS.c **** }
 1601              		.loc 1 592 0
 1602 0006 FFF7FEFF 		bl	nRF24_transmitPulse
 1603              	.LVL151:
 593:Generated_Source\PSoC4/nRF24_NRF_FUNCS.c **** 
 1604              		.loc 1 593 0
 1605              		@ sp needed
 1606 000a 10BD     		pop	{r4, pc}
 1607              		.cfi_endproc
 1608              	.LFE68:
 1609              		.size	nRF24_PTX_reuseLastTransmittedPayload, .-nRF24_PTX_reuseLastTransmittedPayload
 1610              		.section	.text.nRF24_getStatus,"ax",%progbits
 1611              		.align	2
 1612              		.global	nRF24_getStatus
 1613              		.code	16
 1614              		.thumb_func
 1615              		.type	nRF24_getStatus, %function
 1616              	nRF24_getStatus:
 1617              	.LFB81:
 723:Generated_Source\PSoC4/nRF24_NRF_FUNCS.c **** 
 724:Generated_Source\PSoC4/nRF24_NRF_FUNCS.c **** /**
 725:Generated_Source\PSoC4/nRF24_NRF_FUNCS.c ****  * @brief Get the STATUS register of the nRF24.
 726:Generated_Source\PSoC4/nRF24_NRF_FUNCS.c ****  *
 727:Generated_Source\PSoC4/nRF24_NRF_FUNCS.c ****  * @return uint8_t: STATUS register of the nRF24.
 728:Generated_Source\PSoC4/nRF24_NRF_FUNCS.c ****  */
 729:Generated_Source\PSoC4/nRF24_NRF_FUNCS.c **** uint8_t nRF24_getStatus(void)
 730:Generated_Source\PSoC4/nRF24_NRF_FUNCS.c **** {
 1618              		.loc 1 730 0
 1619              		.cfi_startproc
 1620              		@ args = 0, pretend = 0, frame = 0
 1621              		@ frame_needed = 0, uses_anonymous_args = 0
 1622 0000 10B5     		push	{r4, lr}
 1623              		.cfi_def_cfa_offset 8
 1624              		.cfi_offset 4, -8
 1625              		.cfi_offset 14, -4
 731:Generated_Source\PSoC4/nRF24_NRF_FUNCS.c ****     return nRF24_NOPCmd();
 1626              		.loc 1 731 0
 1627 0002 FFF7FEFF 		bl	nRF24_NOPCmd
 1628              	.LVL152:
 732:Generated_Source\PSoC4/nRF24_NRF_FUNCS.c **** }
 1629              		.loc 1 732 0
 1630              		@ sp needed
 1631 0006 10BD     		pop	{r4, pc}
 1632              		.cfi_endproc
 1633              	.LFE81:
 1634              		.size	nRF24_getStatus, .-nRF24_getStatus
 1635              		.section	.text.nRF24_getRetransmissionsCount,"ax",%progbits
 1636              		.align	2
 1637              		.global	nRF24_getRetransmissionsCount
 1638              		.code	16
 1639              		.thumb_func
 1640              		.type	nRF24_getRetransmissionsCount, %function
 1641              	nRF24_getRetransmissionsCount:
 1642              	.LFB82:
 733:Generated_Source\PSoC4/nRF24_NRF_FUNCS.c **** 
ARM GAS  C:\Users\Xwx47\AppData\Local\Temp\ccUdC8ee.s 			page 43


 734:Generated_Source\PSoC4/nRF24_NRF_FUNCS.c **** /**
 735:Generated_Source\PSoC4/nRF24_NRF_FUNCS.c ****  * @brief Get the number of retransmissions.
 736:Generated_Source\PSoC4/nRF24_NRF_FUNCS.c ****  *
 737:Generated_Source\PSoC4/nRF24_NRF_FUNCS.c ****  * @return uint8_t: Retransmissions count.
 738:Generated_Source\PSoC4/nRF24_NRF_FUNCS.c ****  */
 739:Generated_Source\PSoC4/nRF24_NRF_FUNCS.c **** uint8_t nRF24_getRetransmissionsCount(void)
 740:Generated_Source\PSoC4/nRF24_NRF_FUNCS.c **** {
 1643              		.loc 1 740 0
 1644              		.cfi_startproc
 1645              		@ args = 0, pretend = 0, frame = 0
 1646              		@ frame_needed = 0, uses_anonymous_args = 0
 1647 0000 10B5     		push	{r4, lr}
 1648              		.cfi_def_cfa_offset 8
 1649              		.cfi_offset 4, -8
 1650              		.cfi_offset 14, -4
 741:Generated_Source\PSoC4/nRF24_NRF_FUNCS.c ****     uint8_t count = nRF24_readRegister(NRF_OBSERVE_TX_REG);
 1651              		.loc 1 741 0
 1652 0002 0820     		movs	r0, #8
 1653 0004 FFF7FEFF 		bl	nRF24_readRegister
 1654              	.LVL153:
 742:Generated_Source\PSoC4/nRF24_NRF_FUNCS.c ****     return count & NRF_OBSERVE_TX_ARC_CNT_MASK;
 1655              		.loc 1 742 0
 1656 0008 0F23     		movs	r3, #15
 1657 000a 1840     		ands	r0, r3
 1658              	.LVL154:
 743:Generated_Source\PSoC4/nRF24_NRF_FUNCS.c **** }
 1659              		.loc 1 743 0
 1660              		@ sp needed
 1661 000c 10BD     		pop	{r4, pc}
 1662              		.cfi_endproc
 1663              	.LFE82:
 1664              		.size	nRF24_getRetransmissionsCount, .-nRF24_getRetransmissionsCount
 1665 000e C046     		.section	.text.nRF24_getLostPacketsCount,"ax",%progbits
 1666              		.align	2
 1667              		.global	nRF24_getLostPacketsCount
 1668              		.code	16
 1669              		.thumb_func
 1670              		.type	nRF24_getLostPacketsCount, %function
 1671              	nRF24_getLostPacketsCount:
 1672              	.LFB83:
 744:Generated_Source\PSoC4/nRF24_NRF_FUNCS.c **** 
 745:Generated_Source\PSoC4/nRF24_NRF_FUNCS.c **** /**
 746:Generated_Source\PSoC4/nRF24_NRF_FUNCS.c ****  * @brief Get the number of lost packets.
 747:Generated_Source\PSoC4/nRF24_NRF_FUNCS.c ****  *
 748:Generated_Source\PSoC4/nRF24_NRF_FUNCS.c ****  * @return uint8_t: Lost packets.
 749:Generated_Source\PSoC4/nRF24_NRF_FUNCS.c ****  */
 750:Generated_Source\PSoC4/nRF24_NRF_FUNCS.c **** uint8_t nRF24_getLostPacketsCount(void)
 751:Generated_Source\PSoC4/nRF24_NRF_FUNCS.c **** {
 1673              		.loc 1 751 0
 1674              		.cfi_startproc
 1675              		@ args = 0, pretend = 0, frame = 0
 1676              		@ frame_needed = 0, uses_anonymous_args = 0
 1677 0000 10B5     		push	{r4, lr}
 1678              		.cfi_def_cfa_offset 8
 1679              		.cfi_offset 4, -8
 1680              		.cfi_offset 14, -4
 752:Generated_Source\PSoC4/nRF24_NRF_FUNCS.c ****     uint8_t lostPackets = nRF24_readRegister(NRF_OBSERVE_TX_REG);
ARM GAS  C:\Users\Xwx47\AppData\Local\Temp\ccUdC8ee.s 			page 44


 1681              		.loc 1 752 0
 1682 0002 0820     		movs	r0, #8
 1683 0004 FFF7FEFF 		bl	nRF24_readRegister
 1684              	.LVL155:
 753:Generated_Source\PSoC4/nRF24_NRF_FUNCS.c ****     lostPackets = lostPackets & NRF_OBSERVE_TX_PLOS_CNT_MASK;
 754:Generated_Source\PSoC4/nRF24_NRF_FUNCS.c ****     return lostPackets >> NRF_OBSERVE_TX_PLOS_CNT;
 1685              		.loc 1 754 0
 1686 0008 0009     		lsrs	r0, r0, #4
 1687              	.LVL156:
 1688 000a C0B2     		uxtb	r0, r0
 755:Generated_Source\PSoC4/nRF24_NRF_FUNCS.c **** }
 1689              		.loc 1 755 0
 1690              		@ sp needed
 1691 000c 10BD     		pop	{r4, pc}
 1692              		.cfi_endproc
 1693              	.LFE83:
 1694              		.size	nRF24_getLostPacketsCount, .-nRF24_getLostPacketsCount
 1695 000e C046     		.section	.text.nRF24_putInTXFIFO,"ax",%progbits
 1696              		.align	2
 1697              		.global	nRF24_putInTXFIFO
 1698              		.code	16
 1699              		.thumb_func
 1700              		.type	nRF24_putInTXFIFO, %function
 1701              	nRF24_putInTXFIFO:
 1702              	.LFB84:
 756:Generated_Source\PSoC4/nRF24_NRF_FUNCS.c **** 
 757:Generated_Source\PSoC4/nRF24_NRF_FUNCS.c **** /**
 758:Generated_Source\PSoC4/nRF24_NRF_FUNCS.c ****  * Put data into the TX FIFO wihout sending it.
 759:Generated_Source\PSoC4/nRF24_NRF_FUNCS.c ****  *
 760:Generated_Source\PSoC4/nRF24_NRF_FUNCS.c ****  * @param const uint8_t* data:
 761:Generated_Source\PSoC4/nRF24_NRF_FUNCS.c ****  * @param const size_t size:
 762:Generated_Source\PSoC4/nRF24_NRF_FUNCS.c ****  */
 763:Generated_Source\PSoC4/nRF24_NRF_FUNCS.c **** void nRF24_putInTXFIFO(const uint8_t* data, size_t size)
 764:Generated_Source\PSoC4/nRF24_NRF_FUNCS.c **** {
 1703              		.loc 1 764 0
 1704              		.cfi_startproc
 1705              		@ args = 0, pretend = 0, frame = 0
 1706              		@ frame_needed = 0, uses_anonymous_args = 0
 1707              	.LVL157:
 1708 0000 10B5     		push	{r4, lr}
 1709              		.cfi_def_cfa_offset 8
 1710              		.cfi_offset 4, -8
 1711              		.cfi_offset 14, -4
 765:Generated_Source\PSoC4/nRF24_NRF_FUNCS.c ****     if (NULL == data) {
 1712              		.loc 1 765 0
 1713 0002 0028     		cmp	r0, #0
 1714 0004 04D0     		beq	.L94
 766:Generated_Source\PSoC4/nRF24_NRF_FUNCS.c ****         return;
 767:Generated_Source\PSoC4/nRF24_NRF_FUNCS.c ****     }
 768:Generated_Source\PSoC4/nRF24_NRF_FUNCS.c **** 
 769:Generated_Source\PSoC4/nRF24_NRF_FUNCS.c ****     if (NRF_MAX_PAYLOAD_SIZE < size) {
 1715              		.loc 1 769 0
 1716 0006 2029     		cmp	r1, #32
 1717 0008 00D9     		bls	.L96
 770:Generated_Source\PSoC4/nRF24_NRF_FUNCS.c ****         size = NRF_MAX_PAYLOAD_SIZE;
 1718              		.loc 1 770 0
 1719 000a 2021     		movs	r1, #32
ARM GAS  C:\Users\Xwx47\AppData\Local\Temp\ccUdC8ee.s 			page 45


 1720              	.LVL158:
 1721              	.L96:
 771:Generated_Source\PSoC4/nRF24_NRF_FUNCS.c ****     }
 772:Generated_Source\PSoC4/nRF24_NRF_FUNCS.c ****     
 773:Generated_Source\PSoC4/nRF24_NRF_FUNCS.c ****     nRF24_writeTXPayloadCmd(data, size);
 1722              		.loc 1 773 0
 1723 000c FFF7FEFF 		bl	nRF24_writeTXPayloadCmd
 1724              	.LVL159:
 1725              	.L94:
 774:Generated_Source\PSoC4/nRF24_NRF_FUNCS.c **** }
 1726              		.loc 1 774 0
 1727              		@ sp needed
 1728 0010 10BD     		pop	{r4, pc}
 1729              		.cfi_endproc
 1730              	.LFE84:
 1731              		.size	nRF24_putInTXFIFO, .-nRF24_putInTXFIFO
 1732 0012 C046     		.section	.text.nRF24_PTX_Transmit,"ax",%progbits
 1733              		.align	2
 1734              		.global	nRF24_PTX_Transmit
 1735              		.code	16
 1736              		.thumb_func
 1737              		.type	nRF24_PTX_Transmit, %function
 1738              	nRF24_PTX_Transmit:
 1739              	.LFB85:
 775:Generated_Source\PSoC4/nRF24_NRF_FUNCS.c **** 
 776:Generated_Source\PSoC4/nRF24_NRF_FUNCS.c **** /**
 777:Generated_Source\PSoC4/nRF24_NRF_FUNCS.c ****  * Put data in TX FIFO and transmit it.
 778:Generated_Source\PSoC4/nRF24_NRF_FUNCS.c ****  *
 779:Generated_Source\PSoC4/nRF24_NRF_FUNCS.c ****  * @param const uint8_t* data:
 780:Generated_Source\PSoC4/nRF24_NRF_FUNCS.c ****  * @param const size_t size:
 781:Generated_Source\PSoC4/nRF24_NRF_FUNCS.c ****  */
 782:Generated_Source\PSoC4/nRF24_NRF_FUNCS.c **** void nRF24_PTX_Transmit(const uint8_t* data, size_t size)
 783:Generated_Source\PSoC4/nRF24_NRF_FUNCS.c **** {
 1740              		.loc 1 783 0
 1741              		.cfi_startproc
 1742              		@ args = 0, pretend = 0, frame = 0
 1743              		@ frame_needed = 0, uses_anonymous_args = 0
 1744              	.LVL160:
 1745 0000 10B5     		push	{r4, lr}
 1746              		.cfi_def_cfa_offset 8
 1747              		.cfi_offset 4, -8
 1748              		.cfi_offset 14, -4
 784:Generated_Source\PSoC4/nRF24_NRF_FUNCS.c ****     if (NULL == data) {
 1749              		.loc 1 784 0
 1750 0002 0028     		cmp	r0, #0
 1751 0004 06D0     		beq	.L98
 785:Generated_Source\PSoC4/nRF24_NRF_FUNCS.c ****         return;
 786:Generated_Source\PSoC4/nRF24_NRF_FUNCS.c ****     }
 787:Generated_Source\PSoC4/nRF24_NRF_FUNCS.c ****     
 788:Generated_Source\PSoC4/nRF24_NRF_FUNCS.c ****     if (NRF_MAX_PAYLOAD_SIZE < size) {
 1752              		.loc 1 788 0
 1753 0006 2029     		cmp	r1, #32
 1754 0008 00D9     		bls	.L100
 789:Generated_Source\PSoC4/nRF24_NRF_FUNCS.c ****         size = NRF_MAX_PAYLOAD_SIZE;
 1755              		.loc 1 789 0
 1756 000a 2021     		movs	r1, #32
 1757              	.LVL161:
ARM GAS  C:\Users\Xwx47\AppData\Local\Temp\ccUdC8ee.s 			page 46


 1758              	.L100:
 790:Generated_Source\PSoC4/nRF24_NRF_FUNCS.c ****     }
 791:Generated_Source\PSoC4/nRF24_NRF_FUNCS.c **** 
 792:Generated_Source\PSoC4/nRF24_NRF_FUNCS.c ****     nRF24_putInTXFIFO(data, size);
 1759              		.loc 1 792 0
 1760 000c FFF7FEFF 		bl	nRF24_putInTXFIFO
 1761              	.LVL162:
 793:Generated_Source\PSoC4/nRF24_NRF_FUNCS.c ****     nRF24_transmitPulse();
 1762              		.loc 1 793 0
 1763 0010 FFF7FEFF 		bl	nRF24_transmitPulse
 1764              	.LVL163:
 1765              	.L98:
 794:Generated_Source\PSoC4/nRF24_NRF_FUNCS.c **** }
 1766              		.loc 1 794 0
 1767              		@ sp needed
 1768 0014 10BD     		pop	{r4, pc}
 1769              		.cfi_endproc
 1770              	.LFE85:
 1771              		.size	nRF24_PTX_Transmit, .-nRF24_PTX_Transmit
 1772 0016 C046     		.section	.text.nRF24_isDataReady,"ax",%progbits
 1773              		.align	2
 1774              		.global	nRF24_isDataReady
 1775              		.code	16
 1776              		.thumb_func
 1777              		.type	nRF24_isDataReady, %function
 1778              	nRF24_isDataReady:
 1779              	.LFB86:
 795:Generated_Source\PSoC4/nRF24_NRF_FUNCS.c **** 
 796:Generated_Source\PSoC4/nRF24_NRF_FUNCS.c **** /**
 797:Generated_Source\PSoC4/nRF24_NRF_FUNCS.c ****  * @brief
 798:Generated_Source\PSoC4/nRF24_NRF_FUNCS.c ****  *
 799:Generated_Source\PSoC4/nRF24_NRF_FUNCS.c ****  * @return bool: True if there's data ready.
 800:Generated_Source\PSoC4/nRF24_NRF_FUNCS.c ****  */
 801:Generated_Source\PSoC4/nRF24_NRF_FUNCS.c **** bool nRF24_isDataReady(void)
 802:Generated_Source\PSoC4/nRF24_NRF_FUNCS.c **** {
 1780              		.loc 1 802 0
 1781              		.cfi_startproc
 1782              		@ args = 0, pretend = 0, frame = 0
 1783              		@ frame_needed = 0, uses_anonymous_args = 0
 1784 0000 10B5     		push	{r4, lr}
 1785              		.cfi_def_cfa_offset 8
 1786              		.cfi_offset 4, -8
 1787              		.cfi_offset 14, -4
 803:Generated_Source\PSoC4/nRF24_NRF_FUNCS.c ****     return NRF_STATUS_RX_DR_MASK & nRF24_getStatus();
 1788              		.loc 1 803 0
 1789 0002 FFF7FEFF 		bl	nRF24_getStatus
 1790              	.LVL164:
 1791 0006 8009     		lsrs	r0, r0, #6
 1792 0008 0123     		movs	r3, #1
 1793 000a 1840     		ands	r0, r3
 804:Generated_Source\PSoC4/nRF24_NRF_FUNCS.c **** }
 1794              		.loc 1 804 0
 1795              		@ sp needed
 1796 000c 10BD     		pop	{r4, pc}
 1797              		.cfi_endproc
 1798              	.LFE86:
 1799              		.size	nRF24_isDataReady, .-nRF24_isDataReady
ARM GAS  C:\Users\Xwx47\AppData\Local\Temp\ccUdC8ee.s 			page 47


 1800 000e C046     		.section	.text.nRF24_getRxPayload,"ax",%progbits
 1801              		.align	2
 1802              		.global	nRF24_getRxPayload
 1803              		.code	16
 1804              		.thumb_func
 1805              		.type	nRF24_getRxPayload, %function
 1806              	nRF24_getRxPayload:
 1807              	.LFB87:
 805:Generated_Source\PSoC4/nRF24_NRF_FUNCS.c **** 
 806:Generated_Source\PSoC4/nRF24_NRF_FUNCS.c **** /**
 807:Generated_Source\PSoC4/nRF24_NRF_FUNCS.c ****  * @brief
 808:Generated_Source\PSoC4/nRF24_NRF_FUNCS.c ****  *
 809:Generated_Source\PSoC4/nRF24_NRF_FUNCS.c ****  * @param uint8_t* data:
 810:Generated_Source\PSoC4/nRF24_NRF_FUNCS.c ****  * @param const size_t size:
 811:Generated_Source\PSoC4/nRF24_NRF_FUNCS.c ****  */
 812:Generated_Source\PSoC4/nRF24_NRF_FUNCS.c **** void nRF24_getRxPayload(uint8_t* data, const size_t size)
 813:Generated_Source\PSoC4/nRF24_NRF_FUNCS.c **** {
 1808              		.loc 1 813 0
 1809              		.cfi_startproc
 1810              		@ args = 0, pretend = 0, frame = 0
 1811              		@ frame_needed = 0, uses_anonymous_args = 0
 1812              	.LVL165:
 1813 0000 70B5     		push	{r4, r5, r6, lr}
 1814              		.cfi_def_cfa_offset 16
 1815              		.cfi_offset 4, -16
 1816              		.cfi_offset 5, -12
 1817              		.cfi_offset 6, -8
 1818              		.cfi_offset 14, -4
 1819 0002 0400     		movs	r4, r0
 1820 0004 0D00     		movs	r5, r1
 814:Generated_Source\PSoC4/nRF24_NRF_FUNCS.c ****     if (NULL == data) {
 1821              		.loc 1 814 0
 1822 0006 0028     		cmp	r0, #0
 1823 0008 09D0     		beq	.L103
 815:Generated_Source\PSoC4/nRF24_NRF_FUNCS.c ****         return;
 816:Generated_Source\PSoC4/nRF24_NRF_FUNCS.c ****     }
 817:Generated_Source\PSoC4/nRF24_NRF_FUNCS.c **** #if defined(CY_GPIO_H)
 818:Generated_Source\PSoC4/nRF24_NRF_FUNCS.c ****     Cy_GPIO_Clr(CE_PORT, CE_NUM);
 819:Generated_Source\PSoC4/nRF24_NRF_FUNCS.c ****     nRF24_readRXPayloadCmd(data, size);
 820:Generated_Source\PSoC4/nRF24_NRF_FUNCS.c ****     Cy_GPIO_Set(CE_PORT, CE_NUM);
 821:Generated_Source\PSoC4/nRF24_NRF_FUNCS.c **** #else
 822:Generated_Source\PSoC4/nRF24_NRF_FUNCS.c ****     CE_Write(0);
 1824              		.loc 1 822 0
 1825 000a 0020     		movs	r0, #0
 1826              	.LVL166:
 1827 000c FFF7FEFF 		bl	CE_Write
 1828              	.LVL167:
 823:Generated_Source\PSoC4/nRF24_NRF_FUNCS.c ****     nRF24_readRXPayloadCmd(data, size);
 1829              		.loc 1 823 0
 1830 0010 2900     		movs	r1, r5
 1831 0012 2000     		movs	r0, r4
 1832 0014 FFF7FEFF 		bl	nRF24_readRXPayloadCmd
 1833              	.LVL168:
 824:Generated_Source\PSoC4/nRF24_NRF_FUNCS.c ****     CE_Write(1);
 1834              		.loc 1 824 0
 1835 0018 0120     		movs	r0, #1
 1836 001a FFF7FEFF 		bl	CE_Write
ARM GAS  C:\Users\Xwx47\AppData\Local\Temp\ccUdC8ee.s 			page 48


 1837              	.LVL169:
 1838              	.L103:
 825:Generated_Source\PSoC4/nRF24_NRF_FUNCS.c **** #endif
 826:Generated_Source\PSoC4/nRF24_NRF_FUNCS.c **** }
 1839              		.loc 1 826 0
 1840              		@ sp needed
 1841              	.LVL170:
 1842              	.LVL171:
 1843 001e 70BD     		pop	{r4, r5, r6, pc}
 1844              		.cfi_endproc
 1845              	.LFE87:
 1846              		.size	nRF24_getRxPayload, .-nRF24_getRxPayload
 1847              		.section	.text.nRF24_txTransmitWaitNoACK,"ax",%progbits
 1848              		.align	2
 1849              		.global	nRF24_txTransmitWaitNoACK
 1850              		.code	16
 1851              		.thumb_func
 1852              		.type	nRF24_txTransmitWaitNoACK, %function
 1853              	nRF24_txTransmitWaitNoACK:
 1854              	.LFB88:
 827:Generated_Source\PSoC4/nRF24_NRF_FUNCS.c **** 
 828:Generated_Source\PSoC4/nRF24_NRF_FUNCS.c **** /**
 829:Generated_Source\PSoC4/nRF24_NRF_FUNCS.c ****  * @brief
 830:Generated_Source\PSoC4/nRF24_NRF_FUNCS.c ****  *
 831:Generated_Source\PSoC4/nRF24_NRF_FUNCS.c ****  * @param const uint8_t* data:
 832:Generated_Source\PSoC4/nRF24_NRF_FUNCS.c ****  * @param size_t size:
 833:Generated_Source\PSoC4/nRF24_NRF_FUNCS.c ****  */
 834:Generated_Source\PSoC4/nRF24_NRF_FUNCS.c **** void nRF24_txTransmitWaitNoACK(const uint8_t* data, size_t size)
 835:Generated_Source\PSoC4/nRF24_NRF_FUNCS.c **** {
 1855              		.loc 1 835 0
 1856              		.cfi_startproc
 1857              		@ args = 0, pretend = 0, frame = 0
 1858              		@ frame_needed = 0, uses_anonymous_args = 0
 1859              	.LVL172:
 1860 0000 10B5     		push	{r4, lr}
 1861              		.cfi_def_cfa_offset 8
 1862              		.cfi_offset 4, -8
 1863              		.cfi_offset 14, -4
 836:Generated_Source\PSoC4/nRF24_NRF_FUNCS.c ****     if (NULL == data) {
 1864              		.loc 1 836 0
 1865 0002 0028     		cmp	r0, #0
 1866 0004 05D0     		beq	.L105
 837:Generated_Source\PSoC4/nRF24_NRF_FUNCS.c ****         return;
 838:Generated_Source\PSoC4/nRF24_NRF_FUNCS.c ****     }
 839:Generated_Source\PSoC4/nRF24_NRF_FUNCS.c **** 
 840:Generated_Source\PSoC4/nRF24_NRF_FUNCS.c ****     if (NRF_MAX_PAYLOAD_SIZE < size) {
 1867              		.loc 1 840 0
 1868 0006 2029     		cmp	r1, #32
 1869 0008 03D8     		bhi	.L105
 841:Generated_Source\PSoC4/nRF24_NRF_FUNCS.c ****         return;
 842:Generated_Source\PSoC4/nRF24_NRF_FUNCS.c ****     }
 843:Generated_Source\PSoC4/nRF24_NRF_FUNCS.c ****     
 844:Generated_Source\PSoC4/nRF24_NRF_FUNCS.c ****     nRF24_noACKPayloadCmd(data, size);
 1870              		.loc 1 844 0
 1871 000a FFF7FEFF 		bl	nRF24_noACKPayloadCmd
 1872              	.LVL173:
 845:Generated_Source\PSoC4/nRF24_NRF_FUNCS.c ****     nRF24_transmitPulse();
ARM GAS  C:\Users\Xwx47\AppData\Local\Temp\ccUdC8ee.s 			page 49


 1873              		.loc 1 845 0
 1874 000e FFF7FEFF 		bl	nRF24_transmitPulse
 1875              	.LVL174:
 1876              	.L105:
 846:Generated_Source\PSoC4/nRF24_NRF_FUNCS.c **** }
 1877              		.loc 1 846 0
 1878              		@ sp needed
 1879 0012 10BD     		pop	{r4, pc}
 1880              		.cfi_endproc
 1881              	.LFE88:
 1882              		.size	nRF24_txTransmitWaitNoACK, .-nRF24_txTransmitWaitNoACK
 1883              		.section	.text.nRF24_rxWritePayload,"ax",%progbits
 1884              		.align	2
 1885              		.global	nRF24_rxWritePayload
 1886              		.code	16
 1887              		.thumb_func
 1888              		.type	nRF24_rxWritePayload, %function
 1889              	nRF24_rxWritePayload:
 1890              	.LFB89:
 847:Generated_Source\PSoC4/nRF24_NRF_FUNCS.c **** 
 848:Generated_Source\PSoC4/nRF24_NRF_FUNCS.c **** /**
 849:Generated_Source\PSoC4/nRF24_NRF_FUNCS.c ****  * @brief
 850:Generated_Source\PSoC4/nRF24_NRF_FUNCS.c ****  *
 851:Generated_Source\PSoC4/nRF24_NRF_FUNCS.c ****  * @param const NrfPipe pipe:
 852:Generated_Source\PSoC4/nRF24_NRF_FUNCS.c ****  * @param const uint8_t* data:
 853:Generated_Source\PSoC4/nRF24_NRF_FUNCS.c ****  * @param size_t size:
 854:Generated_Source\PSoC4/nRF24_NRF_FUNCS.c ****  */
 855:Generated_Source\PSoC4/nRF24_NRF_FUNCS.c **** void nRF24_rxWritePayload(const NrfPipe pipe, const uint8_t* data,
 856:Generated_Source\PSoC4/nRF24_NRF_FUNCS.c ****                                      size_t size)
 857:Generated_Source\PSoC4/nRF24_NRF_FUNCS.c **** {
 1891              		.loc 1 857 0
 1892              		.cfi_startproc
 1893              		@ args = 0, pretend = 0, frame = 0
 1894              		@ frame_needed = 0, uses_anonymous_args = 0
 1895              	.LVL175:
 1896 0000 10B5     		push	{r4, lr}
 1897              		.cfi_def_cfa_offset 8
 1898              		.cfi_offset 4, -8
 1899              		.cfi_offset 14, -4
 858:Generated_Source\PSoC4/nRF24_NRF_FUNCS.c ****     if (NULL == data) {
 1900              		.loc 1 858 0
 1901 0002 0029     		cmp	r1, #0
 1902 0004 04D0     		beq	.L107
 859:Generated_Source\PSoC4/nRF24_NRF_FUNCS.c ****         return;
 860:Generated_Source\PSoC4/nRF24_NRF_FUNCS.c ****     }
 861:Generated_Source\PSoC4/nRF24_NRF_FUNCS.c **** 
 862:Generated_Source\PSoC4/nRF24_NRF_FUNCS.c ****     if (NRF_MAX_PAYLOAD_SIZE < size) {
 1903              		.loc 1 862 0
 1904 0006 202A     		cmp	r2, #32
 1905 0008 00D9     		bls	.L109
 863:Generated_Source\PSoC4/nRF24_NRF_FUNCS.c ****         size = NRF_MAX_PAYLOAD_SIZE;
 1906              		.loc 1 863 0
 1907 000a 2022     		movs	r2, #32
 1908              	.LVL176:
 1909              	.L109:
 864:Generated_Source\PSoC4/nRF24_NRF_FUNCS.c ****     }
 865:Generated_Source\PSoC4/nRF24_NRF_FUNCS.c ****     
ARM GAS  C:\Users\Xwx47\AppData\Local\Temp\ccUdC8ee.s 			page 50


 866:Generated_Source\PSoC4/nRF24_NRF_FUNCS.c ****     nRF24_writeACKPayloadCmd(pipe, data, size);
 1910              		.loc 1 866 0
 1911 000c FFF7FEFF 		bl	nRF24_writeACKPayloadCmd
 1912              	.LVL177:
 1913              	.L107:
 867:Generated_Source\PSoC4/nRF24_NRF_FUNCS.c **** }
 1914              		.loc 1 867 0
 1915              		@ sp needed
 1916 0010 10BD     		pop	{r4, pc}
 1917              		.cfi_endproc
 1918              	.LFE89:
 1919              		.size	nRF24_rxWritePayload, .-nRF24_rxWritePayload
 1920 0012 C046     		.section	.text.nRF24_getDataPipeWithPayload,"ax",%progbits
 1921              		.align	2
 1922              		.global	nRF24_getDataPipeWithPayload
 1923              		.code	16
 1924              		.thumb_func
 1925              		.type	nRF24_getDataPipeWithPayload, %function
 1926              	nRF24_getDataPipeWithPayload:
 1927              	.LFB90:
 868:Generated_Source\PSoC4/nRF24_NRF_FUNCS.c **** 
 869:Generated_Source\PSoC4/nRF24_NRF_FUNCS.c **** /**
 870:Generated_Source\PSoC4/nRF24_NRF_FUNCS.c ****  * Return the pipe number with data.
 871:Generated_Source\PSoC4/nRF24_NRF_FUNCS.c ****  *
 872:Generated_Source\PSoC4/nRF24_NRF_FUNCS.c ****  * @return uint8_t:
 873:Generated_Source\PSoC4/nRF24_NRF_FUNCS.c ****  */
 874:Generated_Source\PSoC4/nRF24_NRF_FUNCS.c **** uint8_t nRF24_getDataPipeWithPayload(void)
 875:Generated_Source\PSoC4/nRF24_NRF_FUNCS.c **** {
 1928              		.loc 1 875 0
 1929              		.cfi_startproc
 1930              		@ args = 0, pretend = 0, frame = 0
 1931              		@ frame_needed = 0, uses_anonymous_args = 0
 1932 0000 10B5     		push	{r4, lr}
 1933              		.cfi_def_cfa_offset 8
 1934              		.cfi_offset 4, -8
 1935              		.cfi_offset 14, -4
 876:Generated_Source\PSoC4/nRF24_NRF_FUNCS.c ****     uint8_t pipe = nRF24_readRegister(NRF_STATUS_REG);
 1936              		.loc 1 876 0
 1937 0002 0720     		movs	r0, #7
 1938 0004 FFF7FEFF 		bl	nRF24_readRegister
 1939              	.LVL178:
 877:Generated_Source\PSoC4/nRF24_NRF_FUNCS.c ****     return (pipe & NRF_STATUS_PIPES_MASK) >> NRF_STATUS_PIPES_SHIFT;
 1940              		.loc 1 877 0
 1941 0008 4010     		asrs	r0, r0, #1
 1942              	.LVL179:
 1943 000a 0723     		movs	r3, #7
 1944 000c 1840     		ands	r0, r3
 878:Generated_Source\PSoC4/nRF24_NRF_FUNCS.c **** }
 1945              		.loc 1 878 0
 1946              		@ sp needed
 1947 000e 10BD     		pop	{r4, pc}
 1948              		.cfi_endproc
 1949              	.LFE90:
 1950              		.size	nRF24_getDataPipeWithPayload, .-nRF24_getDataPipeWithPayload
 1951              		.section	.text.nRF24_PRX_receivedPowerDetector,"ax",%progbits
 1952              		.align	2
 1953              		.global	nRF24_PRX_receivedPowerDetector
ARM GAS  C:\Users\Xwx47\AppData\Local\Temp\ccUdC8ee.s 			page 51


 1954              		.code	16
 1955              		.thumb_func
 1956              		.type	nRF24_PRX_receivedPowerDetector, %function
 1957              	nRF24_PRX_receivedPowerDetector:
 1958              	.LFB91:
 879:Generated_Source\PSoC4/nRF24_NRF_FUNCS.c **** 
 880:Generated_Source\PSoC4/nRF24_NRF_FUNCS.c **** /**
 881:Generated_Source\PSoC4/nRF24_NRF_FUNCS.c ****  * @brief
 882:Generated_Source\PSoC4/nRF24_NRF_FUNCS.c ****  *
 883:Generated_Source\PSoC4/nRF24_NRF_FUNCS.c ****  * @return uint8_t:
 884:Generated_Source\PSoC4/nRF24_NRF_FUNCS.c ****  */
 885:Generated_Source\PSoC4/nRF24_NRF_FUNCS.c **** uint8_t nRF24_PRX_receivedPowerDetector(void)
 886:Generated_Source\PSoC4/nRF24_NRF_FUNCS.c **** {
 1959              		.loc 1 886 0
 1960              		.cfi_startproc
 1961              		@ args = 0, pretend = 0, frame = 0
 1962              		@ frame_needed = 0, uses_anonymous_args = 0
 1963 0000 10B5     		push	{r4, lr}
 1964              		.cfi_def_cfa_offset 8
 1965              		.cfi_offset 4, -8
 1966              		.cfi_offset 14, -4
 887:Generated_Source\PSoC4/nRF24_NRF_FUNCS.c ****     return nRF24_readBit(NRF_RPD_REG, NRF_RPD_RPD);
 1967              		.loc 1 887 0
 1968 0002 0021     		movs	r1, #0
 1969 0004 0920     		movs	r0, #9
 1970 0006 FFF7FEFF 		bl	nRF24_readBit
 1971              	.LVL180:
 888:Generated_Source\PSoC4/nRF24_NRF_FUNCS.c **** }
 1972              		.loc 1 888 0
 1973              		@ sp needed
 1974 000a 10BD     		pop	{r4, pc}
 1975              		.cfi_endproc
 1976              	.LFE91:
 1977              		.size	nRF24_PRX_receivedPowerDetector, .-nRF24_PRX_receivedPowerDetector
 1978              		.section	.text.nRF24_isTXFIFOFull,"ax",%progbits
 1979              		.align	2
 1980              		.global	nRF24_isTXFIFOFull
 1981              		.code	16
 1982              		.thumb_func
 1983              		.type	nRF24_isTXFIFOFull, %function
 1984              	nRF24_isTXFIFOFull:
 1985              	.LFB92:
 889:Generated_Source\PSoC4/nRF24_NRF_FUNCS.c **** 
 890:Generated_Source\PSoC4/nRF24_NRF_FUNCS.c **** /**
 891:Generated_Source\PSoC4/nRF24_NRF_FUNCS.c ****  * @return bool: true if the TX FIFO is full, false if it have available
 892:Generated_Source\PSoC4/nRF24_NRF_FUNCS.c ****  * locations.
 893:Generated_Source\PSoC4/nRF24_NRF_FUNCS.c ****  */
 894:Generated_Source\PSoC4/nRF24_NRF_FUNCS.c **** bool nRF24_isTXFIFOFull(void)
 895:Generated_Source\PSoC4/nRF24_NRF_FUNCS.c **** {
 1986              		.loc 1 895 0
 1987              		.cfi_startproc
 1988              		@ args = 0, pretend = 0, frame = 0
 1989              		@ frame_needed = 0, uses_anonymous_args = 0
 1990 0000 10B5     		push	{r4, lr}
 1991              		.cfi_def_cfa_offset 8
 1992              		.cfi_offset 4, -8
 1993              		.cfi_offset 14, -4
ARM GAS  C:\Users\Xwx47\AppData\Local\Temp\ccUdC8ee.s 			page 52


 896:Generated_Source\PSoC4/nRF24_NRF_FUNCS.c ****     return nRF24_readBit(NRF_FIFO_STATUS_REG, NRF_FIFO_STATUS_TX_FULL);
 1994              		.loc 1 896 0
 1995 0002 0521     		movs	r1, #5
 1996 0004 1720     		movs	r0, #23
 1997 0006 FFF7FEFF 		bl	nRF24_readBit
 1998              	.LVL181:
 897:Generated_Source\PSoC4/nRF24_NRF_FUNCS.c **** }
 1999              		.loc 1 897 0
 2000              		@ sp needed
 2001 000a 10BD     		pop	{r4, pc}
 2002              		.cfi_endproc
 2003              	.LFE92:
 2004              		.size	nRF24_isTXFIFOFull, .-nRF24_isTXFIFOFull
 2005              		.section	.text.nRF24_isRXFIFOEmpty,"ax",%progbits
 2006              		.align	2
 2007              		.global	nRF24_isRXFIFOEmpty
 2008              		.code	16
 2009              		.thumb_func
 2010              		.type	nRF24_isRXFIFOEmpty, %function
 2011              	nRF24_isRXFIFOEmpty:
 2012              	.LFB93:
 898:Generated_Source\PSoC4/nRF24_NRF_FUNCS.c **** 
 899:Generated_Source\PSoC4/nRF24_NRF_FUNCS.c **** /**
 900:Generated_Source\PSoC4/nRF24_NRF_FUNCS.c ****  * @return bool: true if the RX FIFO es empty, false if any pipe have data.
 901:Generated_Source\PSoC4/nRF24_NRF_FUNCS.c ****  */
 902:Generated_Source\PSoC4/nRF24_NRF_FUNCS.c **** bool nRF24_isRXFIFOEmpty(void)
 903:Generated_Source\PSoC4/nRF24_NRF_FUNCS.c **** {
 2013              		.loc 1 903 0
 2014              		.cfi_startproc
 2015              		@ args = 0, pretend = 0, frame = 0
 2016              		@ frame_needed = 0, uses_anonymous_args = 0
 2017 0000 10B5     		push	{r4, lr}
 2018              		.cfi_def_cfa_offset 8
 2019              		.cfi_offset 4, -8
 2020              		.cfi_offset 14, -4
 904:Generated_Source\PSoC4/nRF24_NRF_FUNCS.c ****     return nRF24_readBit(NRF_FIFO_STATUS_REG, NRF_FIFO_STATUS_RX_EMPTY);
 2021              		.loc 1 904 0
 2022 0002 0021     		movs	r1, #0
 2023 0004 1720     		movs	r0, #23
 2024 0006 FFF7FEFF 		bl	nRF24_readBit
 2025              	.LVL182:
 905:Generated_Source\PSoC4/nRF24_NRF_FUNCS.c **** }
 2026              		.loc 1 905 0
 2027              		@ sp needed
 2028 000a 10BD     		pop	{r4, pc}
 2029              		.cfi_endproc
 2030              	.LFE93:
 2031              		.size	nRF24_isRXFIFOEmpty, .-nRF24_isRXFIFOEmpty
 2032              		.section	.text.nRF24_clearAllIRQs,"ax",%progbits
 2033              		.align	2
 2034              		.global	nRF24_clearAllIRQs
 2035              		.code	16
 2036              		.thumb_func
 2037              		.type	nRF24_clearAllIRQs, %function
 2038              	nRF24_clearAllIRQs:
 2039              	.LFB94:
 906:Generated_Source\PSoC4/nRF24_NRF_FUNCS.c **** 
ARM GAS  C:\Users\Xwx47\AppData\Local\Temp\ccUdC8ee.s 			page 53


 907:Generated_Source\PSoC4/nRF24_NRF_FUNCS.c **** /**
 908:Generated_Source\PSoC4/nRF24_NRF_FUNCS.c ****  * This function will write 1 to all the three IRQ "flag" bits on the
 909:Generated_Source\PSoC4/nRF24_NRF_FUNCS.c ****  * STATUS register.
 910:Generated_Source\PSoC4/nRF24_NRF_FUNCS.c ****  */
 911:Generated_Source\PSoC4/nRF24_NRF_FUNCS.c **** void nRF24_clearAllIRQs(void)
 912:Generated_Source\PSoC4/nRF24_NRF_FUNCS.c **** {
 2040              		.loc 1 912 0
 2041              		.cfi_startproc
 2042              		@ args = 0, pretend = 0, frame = 0
 2043              		@ frame_needed = 0, uses_anonymous_args = 0
 2044 0000 10B5     		push	{r4, lr}
 2045              		.cfi_def_cfa_offset 8
 2046              		.cfi_offset 4, -8
 2047              		.cfi_offset 14, -4
 913:Generated_Source\PSoC4/nRF24_NRF_FUNCS.c ****     nRF24_writeRegister(NRF_STATUS_REG, NRF_ALL_IRQ_MASK);
 2048              		.loc 1 913 0
 2049 0002 7021     		movs	r1, #112
 2050 0004 0720     		movs	r0, #7
 2051 0006 FFF7FEFF 		bl	nRF24_writeRegister
 2052              	.LVL183:
 914:Generated_Source\PSoC4/nRF24_NRF_FUNCS.c **** }
 2053              		.loc 1 914 0
 2054              		@ sp needed
 2055 000a 10BD     		pop	{r4, pc}
 2056              		.cfi_endproc
 2057              	.LFE94:
 2058              		.size	nRF24_clearAllIRQs, .-nRF24_clearAllIRQs
 2059              		.section	.text.nRF24_start,"ax",%progbits
 2060              		.align	2
 2061              		.global	nRF24_start
 2062              		.code	16
 2063              		.thumb_func
 2064              		.type	nRF24_start, %function
 2065              	nRF24_start:
 2066              	.LFB33:
  35:Generated_Source\PSoC4/nRF24_NRF_FUNCS.c ****     // Recommended delay to start using the nRF24
 2067              		.loc 1 35 0
 2068              		.cfi_startproc
 2069              		@ args = 0, pretend = 0, frame = 0
 2070              		@ frame_needed = 0, uses_anonymous_args = 0
 2071 0000 10B5     		push	{r4, lr}
 2072              		.cfi_def_cfa_offset 8
 2073              		.cfi_offset 4, -8
 2074              		.cfi_offset 14, -4
  37:Generated_Source\PSoC4/nRF24_NRF_FUNCS.c ****     
 2075              		.loc 1 37 0
 2076 0002 6420     		movs	r0, #100
 2077 0004 FFF7FEFF 		bl	CyDelay
 2078              	.LVL184:
  46:Generated_Source\PSoC4/nRF24_NRF_FUNCS.c ****     SS_Write(1);
 2079              		.loc 1 46 0
 2080 0008 0020     		movs	r0, #0
 2081 000a FFF7FEFF 		bl	CE_Write
 2082              	.LVL185:
  47:Generated_Source\PSoC4/nRF24_NRF_FUNCS.c **** #endif
 2083              		.loc 1 47 0
 2084 000e 0120     		movs	r0, #1
ARM GAS  C:\Users\Xwx47\AppData\Local\Temp\ccUdC8ee.s 			page 54


 2085 0010 FFF7FEFF 		bl	SS_Write
 2086              	.LVL186:
  49:Generated_Source\PSoC4/nRF24_NRF_FUNCS.c **** 
 2087              		.loc 1 49 0
 2088 0014 FFF7FEFF 		bl	SPI_Start
 2089              	.LVL187:
  52:Generated_Source\PSoC4/nRF24_NRF_FUNCS.c ****     nRF24_flushTxCmd();
 2090              		.loc 1 52 0
 2091 0018 FFF7FEFF 		bl	nRF24_flushRxCmd
 2092              	.LVL188:
  53:Generated_Source\PSoC4/nRF24_NRF_FUNCS.c ****     // Clear IRQ flags
 2093              		.loc 1 53 0
 2094 001c FFF7FEFF 		bl	nRF24_flushTxCmd
 2095              	.LVL189:
  55:Generated_Source\PSoC4/nRF24_NRF_FUNCS.c ****     
 2096              		.loc 1 55 0
 2097 0020 FFF7FEFF 		bl	nRF24_clearAllIRQs
 2098              	.LVL190:
  58:Generated_Source\PSoC4/nRF24_NRF_FUNCS.c ****     
 2099              		.loc 1 58 0
 2100 0024 FFF7FEFF 		bl	nRF24_init
 2101              	.LVL191:
  61:Generated_Source\PSoC4/nRF24_NRF_FUNCS.c **** }
 2102              		.loc 1 61 0
 2103 0028 9620     		movs	r0, #150
 2104 002a FFF7FEFF 		bl	CyDelayUs
 2105              	.LVL192:
  62:Generated_Source\PSoC4/nRF24_NRF_FUNCS.c **** 
 2106              		.loc 1 62 0
 2107              		@ sp needed
 2108 002e 10BD     		pop	{r4, pc}
 2109              		.cfi_endproc
 2110              	.LFE33:
 2111              		.size	nRF24_start, .-nRF24_start
 2112              		.section	.text.nRF24_clearIRQFlag,"ax",%progbits
 2113              		.align	2
 2114              		.global	nRF24_clearIRQFlag
 2115              		.code	16
 2116              		.thumb_func
 2117              		.type	nRF24_clearIRQFlag, %function
 2118              	nRF24_clearIRQFlag:
 2119              	.LFB95:
 915:Generated_Source\PSoC4/nRF24_NRF_FUNCS.c **** 
 916:Generated_Source\PSoC4/nRF24_NRF_FUNCS.c **** /**
 917:Generated_Source\PSoC4/nRF24_NRF_FUNCS.c ****  * @brief Clears the specific IRQ flag.
 918:Generated_Source\PSoC4/nRF24_NRF_FUNCS.c ****  *
 919:Generated_Source\PSoC4/nRF24_NRF_FUNCS.c ****  * Clear the flag by writing 1 to the interrupt flag bit.
 920:Generated_Source\PSoC4/nRF24_NRF_FUNCS.c ****  *
 921:Generated_Source\PSoC4/nRF24_NRF_FUNCS.c ****  * @param NrfIRQ irq_flag: Interrupt flag to clear.
 922:Generated_Source\PSoC4/nRF24_NRF_FUNCS.c ****  */
 923:Generated_Source\PSoC4/nRF24_NRF_FUNCS.c **** void nRF24_clearIRQFlag(const NrfIRQ irq_flag)
 924:Generated_Source\PSoC4/nRF24_NRF_FUNCS.c **** {
 2120              		.loc 1 924 0
 2121              		.cfi_startproc
 2122              		@ args = 0, pretend = 0, frame = 0
 2123              		@ frame_needed = 0, uses_anonymous_args = 0
 2124              	.LVL193:
ARM GAS  C:\Users\Xwx47\AppData\Local\Temp\ccUdC8ee.s 			page 55


 2125 0000 10B5     		push	{r4, lr}
 2126              		.cfi_def_cfa_offset 8
 2127              		.cfi_offset 4, -8
 2128              		.cfi_offset 14, -4
 925:Generated_Source\PSoC4/nRF24_NRF_FUNCS.c ****     nRF24_writeRegister(NRF_STATUS_REG, (1 << irq_flag));
 2129              		.loc 1 925 0
 2130 0002 0121     		movs	r1, #1
 2131 0004 8140     		lsls	r1, r1, r0
 2132 0006 C9B2     		uxtb	r1, r1
 2133 0008 0720     		movs	r0, #7
 2134              	.LVL194:
 2135 000a FFF7FEFF 		bl	nRF24_writeRegister
 2136              	.LVL195:
 926:Generated_Source\PSoC4/nRF24_NRF_FUNCS.c **** }
 2137              		.loc 1 926 0
 2138              		@ sp needed
 2139 000e 10BD     		pop	{r4, pc}
 2140              		.cfi_endproc
 2141              	.LFE95:
 2142              		.size	nRF24_clearIRQFlag, .-nRF24_clearIRQFlag
 2143              		.section	.text.nRF24_getIRQFlag,"ax",%progbits
 2144              		.align	2
 2145              		.global	nRF24_getIRQFlag
 2146              		.code	16
 2147              		.thumb_func
 2148              		.type	nRF24_getIRQFlag, %function
 2149              	nRF24_getIRQFlag:
 2150              	.LFB96:
 927:Generated_Source\PSoC4/nRF24_NRF_FUNCS.c **** 
 928:Generated_Source\PSoC4/nRF24_NRF_FUNCS.c **** /**
 929:Generated_Source\PSoC4/nRF24_NRF_FUNCS.c ****  * This method is used to get if any of the IRQ "flag" bits on the STATUS
 930:Generated_Source\PSoC4/nRF24_NRF_FUNCS.c ****  * register is set to 1. This function returns 0 is none of the flag bits
 931:Generated_Source\PSoC4/nRF24_NRF_FUNCS.c ****  * is not set to 1.
 932:Generated_Source\PSoC4/nRF24_NRF_FUNCS.c ****  *
 933:Generated_Source\PSoC4/nRF24_NRF_FUNCS.c ****  * @return NrfIRQ: Asserted bit of the interrupt flags.
 934:Generated_Source\PSoC4/nRF24_NRF_FUNCS.c ****  */
 935:Generated_Source\PSoC4/nRF24_NRF_FUNCS.c **** NrfIRQ nRF24_getIRQFlag(void)
 936:Generated_Source\PSoC4/nRF24_NRF_FUNCS.c **** {
 2151              		.loc 1 936 0
 2152              		.cfi_startproc
 2153              		@ args = 0, pretend = 0, frame = 0
 2154              		@ frame_needed = 0, uses_anonymous_args = 0
 2155 0000 10B5     		push	{r4, lr}
 2156              		.cfi_def_cfa_offset 8
 2157              		.cfi_offset 4, -8
 2158              		.cfi_offset 14, -4
 2159              	.LVL196:
 937:Generated_Source\PSoC4/nRF24_NRF_FUNCS.c ****     NrfIRQ irq = NRF_NONE_IRQ;
 938:Generated_Source\PSoC4/nRF24_NRF_FUNCS.c ****     
 939:Generated_Source\PSoC4/nRF24_NRF_FUNCS.c ****     // Get the STATUS register
 940:Generated_Source\PSoC4/nRF24_NRF_FUNCS.c ****     uint8_t sts = nRF24_NOPCmd();
 2160              		.loc 1 940 0
 2161 0002 FFF7FEFF 		bl	nRF24_NOPCmd
 2162              	.LVL197:
 941:Generated_Source\PSoC4/nRF24_NRF_FUNCS.c ****     
 942:Generated_Source\PSoC4/nRF24_NRF_FUNCS.c ****     // We only care if bits 4, 5 or 6 are set, so we mask the STATUS with 0x0111_0000
 943:Generated_Source\PSoC4/nRF24_NRF_FUNCS.c ****     switch (sts & NRF_ALL_IRQ_MASK) {
ARM GAS  C:\Users\Xwx47\AppData\Local\Temp\ccUdC8ee.s 			page 56


 2163              		.loc 1 943 0
 2164 0006 7023     		movs	r3, #112
 2165 0008 1840     		ands	r0, r3
 2166              	.LVL198:
 2167 000a 2028     		cmp	r0, #32
 2168 000c 0AD0     		beq	.L123
 2169 000e 4028     		cmp	r0, #64
 2170 0010 02D0     		beq	.L121
 2171 0012 1028     		cmp	r0, #16
 2172 0014 04D1     		bne	.L124
 2173 0016 01E0     		b	.L122
 2174              	.L121:
 944:Generated_Source\PSoC4/nRF24_NRF_FUNCS.c ****     case NRF_STATUS_RX_DR_MASK:
 945:Generated_Source\PSoC4/nRF24_NRF_FUNCS.c ****         irq = NRF_RX_DR_IRQ;
 2175              		.loc 1 945 0
 2176 0018 0620     		movs	r0, #6
 2177 001a 04E0     		b	.L120
 2178              	.L122:
 2179              	.LVL199:
 946:Generated_Source\PSoC4/nRF24_NRF_FUNCS.c ****         break;
 947:Generated_Source\PSoC4/nRF24_NRF_FUNCS.c ****     case NRF_STATUS_TX_DS_MASK:
 948:Generated_Source\PSoC4/nRF24_NRF_FUNCS.c ****         irq = NRF_TX_DS_IRQ;
 949:Generated_Source\PSoC4/nRF24_NRF_FUNCS.c ****         break;
 950:Generated_Source\PSoC4/nRF24_NRF_FUNCS.c ****     case NRF_STATUS_MAX_RT_MASK:
 951:Generated_Source\PSoC4/nRF24_NRF_FUNCS.c ****         irq = NRF_MAX_RT_IRQ;
 2180              		.loc 1 951 0
 2181 001c 0420     		movs	r0, #4
 952:Generated_Source\PSoC4/nRF24_NRF_FUNCS.c ****         break;
 2182              		.loc 1 952 0
 2183 001e 02E0     		b	.L120
 2184              	.LVL200:
 2185              	.L124:
 953:Generated_Source\PSoC4/nRF24_NRF_FUNCS.c ****     default:
 954:Generated_Source\PSoC4/nRF24_NRF_FUNCS.c ****         irq = NRF_ALL_IRQ_MASK;
 2186              		.loc 1 954 0
 2187 0020 7020     		movs	r0, #112
 955:Generated_Source\PSoC4/nRF24_NRF_FUNCS.c ****         break;
 2188              		.loc 1 955 0
 2189 0022 00E0     		b	.L120
 2190              	.LVL201:
 2191              	.L123:
 948:Generated_Source\PSoC4/nRF24_NRF_FUNCS.c ****         break;
 2192              		.loc 1 948 0
 2193 0024 0520     		movs	r0, #5
 2194              	.LVL202:
 2195              	.L120:
 956:Generated_Source\PSoC4/nRF24_NRF_FUNCS.c ****     }
 957:Generated_Source\PSoC4/nRF24_NRF_FUNCS.c ****     
 958:Generated_Source\PSoC4/nRF24_NRF_FUNCS.c ****     return irq;
 959:Generated_Source\PSoC4/nRF24_NRF_FUNCS.c **** }
 2196              		.loc 1 959 0
 2197              		@ sp needed
 2198 0026 10BD     		pop	{r4, pc}
 2199              		.cfi_endproc
 2200              	.LFE96:
 2201              		.size	nRF24_getIRQFlag, .-nRF24_getIRQFlag
 2202              		.text
ARM GAS  C:\Users\Xwx47\AppData\Local\Temp\ccUdC8ee.s 			page 57


 2203              	.Letext0:
 2204              		.file 2 "c:\\program files (x86)\\cypress\\psoc creator\\4.1\\psoc creator\\import\\gnu\\arm\\5.4.
 2205              		.file 3 "c:\\program files (x86)\\cypress\\psoc creator\\4.1\\psoc creator\\import\\gnu\\arm\\5.4.
 2206              		.file 4 "c:\\program files (x86)\\cypress\\psoc creator\\4.1\\psoc creator\\import\\gnu\\arm\\5.4.
 2207              		.file 5 "Generated_Source\\PSoC4\\nRF24_NRF_REGS.h"
 2208              		.file 6 "Generated_Source\\PSoC4\\nRF24_LL_SPI.h"
 2209              		.file 7 "Generated_Source\\PSoC4\\CE.h"
 2210              		.file 8 "Generated_Source\\PSoC4/CyLib.h"
 2211              		.file 9 "Generated_Source\\PSoC4\\nRF24_NRF_COMMANDS.h"
 2212              		.file 10 "Generated_Source\\PSoC4\\SS.h"
 2213              		.file 11 "Generated_Source\\PSoC4\\SPI.h"
 2214              		.section	.debug_info,"",%progbits
 2215              	.Ldebug_info0:
 2216 0000 42150000 		.4byte	0x1542
 2217 0004 0400     		.2byte	0x4
 2218 0006 00000000 		.4byte	.Ldebug_abbrev0
 2219 000a 04       		.byte	0x4
 2220 000b 01       		.uleb128 0x1
 2221 000c D0030000 		.4byte	.LASF223
 2222 0010 0C       		.byte	0xc
 2223 0011 5A070000 		.4byte	.LASF224
 2224 0015 BE080000 		.4byte	.LASF225
 2225 0019 00000000 		.4byte	.Ldebug_ranges0+0
 2226 001d 00000000 		.4byte	0
 2227 0021 00000000 		.4byte	.Ldebug_line0
 2228 0025 02       		.uleb128 0x2
 2229 0026 01       		.byte	0x1
 2230 0027 06       		.byte	0x6
 2231 0028 B60E0000 		.4byte	.LASF0
 2232 002c 03       		.uleb128 0x3
 2233 002d 660C0000 		.4byte	.LASF9
 2234 0031 02       		.byte	0x2
 2235 0032 1D       		.byte	0x1d
 2236 0033 37000000 		.4byte	0x37
 2237 0037 02       		.uleb128 0x2
 2238 0038 01       		.byte	0x1
 2239 0039 08       		.byte	0x8
 2240 003a 4A0D0000 		.4byte	.LASF1
 2241 003e 02       		.uleb128 0x2
 2242 003f 02       		.byte	0x2
 2243 0040 05       		.byte	0x5
 2244 0041 4B0B0000 		.4byte	.LASF2
 2245 0045 02       		.uleb128 0x2
 2246 0046 02       		.byte	0x2
 2247 0047 07       		.byte	0x7
 2248 0048 C20E0000 		.4byte	.LASF3
 2249 004c 02       		.uleb128 0x2
 2250 004d 04       		.byte	0x4
 2251 004e 05       		.byte	0x5
 2252 004f 8B0B0000 		.4byte	.LASF4
 2253 0053 02       		.uleb128 0x2
 2254 0054 04       		.byte	0x4
 2255 0055 07       		.byte	0x7
 2256 0056 E30C0000 		.4byte	.LASF5
 2257 005a 02       		.uleb128 0x2
 2258 005b 08       		.byte	0x8
 2259 005c 05       		.byte	0x5
ARM GAS  C:\Users\Xwx47\AppData\Local\Temp\ccUdC8ee.s 			page 58


 2260 005d 7E080000 		.4byte	.LASF6
 2261 0061 02       		.uleb128 0x2
 2262 0062 08       		.byte	0x8
 2263 0063 07       		.byte	0x7
 2264 0064 C9040000 		.4byte	.LASF7
 2265 0068 04       		.uleb128 0x4
 2266 0069 04       		.byte	0x4
 2267 006a 05       		.byte	0x5
 2268 006b 696E7400 		.ascii	"int\000"
 2269 006f 02       		.uleb128 0x2
 2270 0070 04       		.byte	0x4
 2271 0071 07       		.byte	0x7
 2272 0072 35010000 		.4byte	.LASF8
 2273 0076 03       		.uleb128 0x3
 2274 0077 EC070000 		.4byte	.LASF10
 2275 007b 03       		.byte	0x3
 2276 007c 18       		.byte	0x18
 2277 007d 2C000000 		.4byte	0x2c
 2278 0081 02       		.uleb128 0x2
 2279 0082 04       		.byte	0x4
 2280 0083 04       		.byte	0x4
 2281 0084 A4030000 		.4byte	.LASF11
 2282 0088 02       		.uleb128 0x2
 2283 0089 08       		.byte	0x8
 2284 008a 04       		.byte	0x4
 2285 008b 980F0000 		.4byte	.LASF12
 2286 008f 02       		.uleb128 0x2
 2287 0090 01       		.byte	0x1
 2288 0091 08       		.byte	0x8
 2289 0092 48070000 		.4byte	.LASF13
 2290 0096 03       		.uleb128 0x3
 2291 0097 75060000 		.4byte	.LASF14
 2292 009b 04       		.byte	0x4
 2293 009c D8       		.byte	0xd8
 2294 009d 6F000000 		.4byte	0x6f
 2295 00a1 02       		.uleb128 0x2
 2296 00a2 08       		.byte	0x8
 2297 00a3 04       		.byte	0x4
 2298 00a4 A10A0000 		.4byte	.LASF15
 2299 00a8 02       		.uleb128 0x2
 2300 00a9 04       		.byte	0x4
 2301 00aa 07       		.byte	0x7
 2302 00ab CC0C0000 		.4byte	.LASF16
 2303 00af 05       		.uleb128 0x5
 2304 00b0 01       		.byte	0x1
 2305 00b1 37000000 		.4byte	0x37
 2306 00b5 05       		.byte	0x5
 2307 00b6 1F       		.byte	0x1f
 2308 00b7 58010000 		.4byte	0x158
 2309 00bb 06       		.uleb128 0x6
 2310 00bc 10100000 		.4byte	.LASF17
 2311 00c0 00       		.byte	0
 2312 00c1 06       		.uleb128 0x6
 2313 00c2 D50C0000 		.4byte	.LASF18
 2314 00c6 01       		.byte	0x1
 2315 00c7 06       		.uleb128 0x6
 2316 00c8 790B0000 		.4byte	.LASF19
ARM GAS  C:\Users\Xwx47\AppData\Local\Temp\ccUdC8ee.s 			page 59


 2317 00cc 02       		.byte	0x2
 2318 00cd 06       		.uleb128 0x6
 2319 00ce 900C0000 		.4byte	.LASF20
 2320 00d2 03       		.byte	0x3
 2321 00d3 06       		.uleb128 0x6
 2322 00d4 47020000 		.4byte	.LASF21
 2323 00d8 04       		.byte	0x4
 2324 00d9 06       		.uleb128 0x6
 2325 00da 5D080000 		.4byte	.LASF22
 2326 00de 05       		.byte	0x5
 2327 00df 06       		.uleb128 0x6
 2328 00e0 170B0000 		.4byte	.LASF23
 2329 00e4 06       		.byte	0x6
 2330 00e5 06       		.uleb128 0x6
 2331 00e6 39060000 		.4byte	.LASF24
 2332 00ea 07       		.byte	0x7
 2333 00eb 06       		.uleb128 0x6
 2334 00ec 1B0C0000 		.4byte	.LASF25
 2335 00f0 08       		.byte	0x8
 2336 00f1 06       		.uleb128 0x6
 2337 00f2 840C0000 		.4byte	.LASF26
 2338 00f6 09       		.byte	0x9
 2339 00f7 06       		.uleb128 0x6
 2340 00f8 15030000 		.4byte	.LASF27
 2341 00fc 0A       		.byte	0xa
 2342 00fd 06       		.uleb128 0x6
 2343 00fe 580D0000 		.4byte	.LASF28
 2344 0102 0B       		.byte	0xb
 2345 0103 06       		.uleb128 0x6
 2346 0104 6B080000 		.4byte	.LASF29
 2347 0108 0C       		.byte	0xc
 2348 0109 06       		.uleb128 0x6
 2349 010a 2F020000 		.4byte	.LASF30
 2350 010e 0D       		.byte	0xd
 2351 010f 06       		.uleb128 0x6
 2352 0110 8E060000 		.4byte	.LASF31
 2353 0114 0E       		.byte	0xe
 2354 0115 06       		.uleb128 0x6
 2355 0116 B8070000 		.4byte	.LASF32
 2356 011a 0F       		.byte	0xf
 2357 011b 06       		.uleb128 0x6
 2358 011c 8C080000 		.4byte	.LASF33
 2359 0120 10       		.byte	0x10
 2360 0121 06       		.uleb128 0x6
 2361 0122 89090000 		.4byte	.LASF34
 2362 0126 11       		.byte	0x11
 2363 0127 06       		.uleb128 0x6
 2364 0128 7D030000 		.4byte	.LASF35
 2365 012c 12       		.byte	0x12
 2366 012d 06       		.uleb128 0x6
 2367 012e D50D0000 		.4byte	.LASF36
 2368 0132 13       		.byte	0x13
 2369 0133 06       		.uleb128 0x6
 2370 0134 A5080000 		.4byte	.LASF37
 2371 0138 14       		.byte	0x14
 2372 0139 06       		.uleb128 0x6
 2373 013a A0020000 		.4byte	.LASF38
ARM GAS  C:\Users\Xwx47\AppData\Local\Temp\ccUdC8ee.s 			page 60


 2374 013e 15       		.byte	0x15
 2375 013f 06       		.uleb128 0x6
 2376 0140 250D0000 		.4byte	.LASF39
 2377 0144 16       		.byte	0x16
 2378 0145 06       		.uleb128 0x6
 2379 0146 55000000 		.4byte	.LASF40
 2380 014a 17       		.byte	0x17
 2381 014b 06       		.uleb128 0x6
 2382 014c D9020000 		.4byte	.LASF41
 2383 0150 1C       		.byte	0x1c
 2384 0151 06       		.uleb128 0x6
 2385 0152 6D030000 		.4byte	.LASF42
 2386 0156 1D       		.byte	0x1d
 2387 0157 00       		.byte	0
 2388 0158 05       		.uleb128 0x5
 2389 0159 01       		.byte	0x1
 2390 015a 37000000 		.4byte	0x37
 2391 015e 05       		.byte	0x5
 2392 015f 4C       		.byte	0x4c
 2393 0160 89010000 		.4byte	0x189
 2394 0164 06       		.uleb128 0x6
 2395 0165 A1060000 		.4byte	.LASF43
 2396 0169 00       		.byte	0
 2397 016a 06       		.uleb128 0x6
 2398 016b AB060000 		.4byte	.LASF44
 2399 016f 01       		.byte	0x1
 2400 0170 06       		.uleb128 0x6
 2401 0171 B5060000 		.4byte	.LASF45
 2402 0175 02       		.byte	0x2
 2403 0176 06       		.uleb128 0x6
 2404 0177 BF060000 		.4byte	.LASF46
 2405 017b 03       		.byte	0x3
 2406 017c 06       		.uleb128 0x6
 2407 017d C9060000 		.4byte	.LASF47
 2408 0181 04       		.byte	0x4
 2409 0182 06       		.uleb128 0x6
 2410 0183 D3060000 		.4byte	.LASF48
 2411 0187 05       		.byte	0x5
 2412 0188 00       		.byte	0
 2413 0189 03       		.uleb128 0x3
 2414 018a 0F0B0000 		.4byte	.LASF49
 2415 018e 05       		.byte	0x5
 2416 018f 53       		.byte	0x53
 2417 0190 58010000 		.4byte	0x158
 2418 0194 05       		.uleb128 0x5
 2419 0195 01       		.byte	0x1
 2420 0196 37000000 		.4byte	0x37
 2421 019a 05       		.byte	0x5
 2422 019b 5F       		.byte	0x5f
 2423 019c C5010000 		.4byte	0x1c5
 2424 01a0 06       		.uleb128 0x6
 2425 01a1 040F0000 		.4byte	.LASF50
 2426 01a5 11       		.byte	0x11
 2427 01a6 06       		.uleb128 0x6
 2428 01a7 5F0E0000 		.4byte	.LASF51
 2429 01ab 12       		.byte	0x12
 2430 01ac 06       		.uleb128 0x6
ARM GAS  C:\Users\Xwx47\AppData\Local\Temp\ccUdC8ee.s 			page 61


 2431 01ad F90F0000 		.4byte	.LASF52
 2432 01b1 13       		.byte	0x13
 2433 01b2 06       		.uleb128 0x6
 2434 01b3 D50E0000 		.4byte	.LASF53
 2435 01b7 14       		.byte	0x14
 2436 01b8 06       		.uleb128 0x6
 2437 01b9 070E0000 		.4byte	.LASF54
 2438 01bd 15       		.byte	0x15
 2439 01be 06       		.uleb128 0x6
 2440 01bf 850D0000 		.4byte	.LASF55
 2441 01c3 16       		.byte	0x16
 2442 01c4 00       		.byte	0
 2443 01c5 03       		.uleb128 0x3
 2444 01c6 86010000 		.4byte	.LASF56
 2445 01ca 05       		.byte	0x5
 2446 01cb 66       		.byte	0x66
 2447 01cc 94010000 		.4byte	0x194
 2448 01d0 05       		.uleb128 0x5
 2449 01d1 01       		.byte	0x1
 2450 01d2 37000000 		.4byte	0x37
 2451 01d6 05       		.byte	0x5
 2452 01d7 69       		.byte	0x69
 2453 01d8 E9010000 		.4byte	0x1e9
 2454 01dc 06       		.uleb128 0x6
 2455 01dd 9A090000 		.4byte	.LASF57
 2456 01e1 00       		.byte	0
 2457 01e2 06       		.uleb128 0x6
 2458 01e3 83070000 		.4byte	.LASF58
 2459 01e7 01       		.byte	0x1
 2460 01e8 00       		.byte	0
 2461 01e9 03       		.uleb128 0x3
 2462 01ea B6080000 		.4byte	.LASF59
 2463 01ee 05       		.byte	0x5
 2464 01ef 6C       		.byte	0x6c
 2465 01f0 D0010000 		.4byte	0x1d0
 2466 01f4 05       		.uleb128 0x5
 2467 01f5 01       		.byte	0x1
 2468 01f6 37000000 		.4byte	0x37
 2469 01fa 05       		.byte	0x5
 2470 01fb 6E       		.byte	0x6e
 2471 01fc 19020000 		.4byte	0x219
 2472 0200 06       		.uleb128 0x6
 2473 0201 58010000 		.4byte	.LASF60
 2474 0205 00       		.byte	0
 2475 0206 06       		.uleb128 0x6
 2476 0207 F7000000 		.4byte	.LASF61
 2477 020b 04       		.byte	0x4
 2478 020c 06       		.uleb128 0x6
 2479 020d 940B0000 		.4byte	.LASF62
 2480 0211 05       		.byte	0x5
 2481 0212 06       		.uleb128 0x6
 2482 0213 15080000 		.4byte	.LASF63
 2483 0217 06       		.byte	0x6
 2484 0218 00       		.byte	0
 2485 0219 03       		.uleb128 0x3
 2486 021a 39030000 		.4byte	.LASF64
 2487 021e 05       		.byte	0x5
ARM GAS  C:\Users\Xwx47\AppData\Local\Temp\ccUdC8ee.s 			page 62


 2488 021f 73       		.byte	0x73
 2489 0220 F4010000 		.4byte	0x1f4
 2490 0224 05       		.uleb128 0x5
 2491 0225 01       		.byte	0x1
 2492 0226 37000000 		.4byte	0x37
 2493 022a 05       		.byte	0x5
 2494 022b 76       		.byte	0x76
 2495 022c 5B020000 		.4byte	0x25b
 2496 0230 06       		.uleb128 0x6
 2497 0231 B90C0000 		.4byte	.LASF65
 2498 0235 00       		.byte	0
 2499 0236 06       		.uleb128 0x6
 2500 0237 7C060000 		.4byte	.LASF66
 2501 023b 01       		.byte	0x1
 2502 023c 06       		.uleb128 0x6
 2503 023d 77100000 		.4byte	.LASF67
 2504 0241 02       		.byte	0x2
 2505 0242 06       		.uleb128 0x6
 2506 0243 860F0000 		.4byte	.LASF68
 2507 0247 03       		.byte	0x3
 2508 0248 06       		.uleb128 0x6
 2509 0249 C0010000 		.4byte	.LASF69
 2510 024d 04       		.byte	0x4
 2511 024e 06       		.uleb128 0x6
 2512 024f E1000000 		.4byte	.LASF70
 2513 0253 05       		.byte	0x5
 2514 0254 06       		.uleb128 0x6
 2515 0255 500C0000 		.4byte	.LASF71
 2516 0259 06       		.byte	0x6
 2517 025a 00       		.byte	0
 2518 025b 05       		.uleb128 0x5
 2519 025c 01       		.byte	0x1
 2520 025d 37000000 		.4byte	0x37
 2521 0261 05       		.byte	0x5
 2522 0262 81       		.byte	0x81
 2523 0263 8C020000 		.4byte	0x28c
 2524 0267 06       		.uleb128 0x6
 2525 0268 17010000 		.4byte	.LASF72
 2526 026c 00       		.byte	0
 2527 026d 06       		.uleb128 0x6
 2528 026e 9F0F0000 		.4byte	.LASF73
 2529 0272 01       		.byte	0x1
 2530 0273 06       		.uleb128 0x6
 2531 0274 B10F0000 		.4byte	.LASF74
 2532 0278 02       		.byte	0x2
 2533 0279 06       		.uleb128 0x6
 2534 027a C30F0000 		.4byte	.LASF75
 2535 027e 03       		.byte	0x3
 2536 027f 06       		.uleb128 0x6
 2537 0280 D50F0000 		.4byte	.LASF76
 2538 0284 04       		.byte	0x4
 2539 0285 06       		.uleb128 0x6
 2540 0286 E70F0000 		.4byte	.LASF77
 2541 028a 05       		.byte	0x5
 2542 028b 00       		.byte	0
 2543 028c 05       		.uleb128 0x5
 2544 028d 01       		.byte	0x1
ARM GAS  C:\Users\Xwx47\AppData\Local\Temp\ccUdC8ee.s 			page 63


 2545 028e 37000000 		.4byte	0x37
 2546 0292 05       		.byte	0x5
 2547 0293 8B       		.byte	0x8b
 2548 0294 BD020000 		.4byte	0x2bd
 2549 0298 06       		.uleb128 0x6
 2550 0299 C8090000 		.4byte	.LASF78
 2551 029d 00       		.byte	0
 2552 029e 06       		.uleb128 0x6
 2553 029f DD090000 		.4byte	.LASF79
 2554 02a3 01       		.byte	0x1
 2555 02a4 06       		.uleb128 0x6
 2556 02a5 F2090000 		.4byte	.LASF80
 2557 02a9 02       		.byte	0x2
 2558 02aa 06       		.uleb128 0x6
 2559 02ab 070A0000 		.4byte	.LASF81
 2560 02af 03       		.byte	0x3
 2561 02b0 06       		.uleb128 0x6
 2562 02b1 1C0A0000 		.4byte	.LASF82
 2563 02b5 04       		.byte	0x4
 2564 02b6 06       		.uleb128 0x6
 2565 02b7 310A0000 		.4byte	.LASF83
 2566 02bb 05       		.byte	0x5
 2567 02bc 00       		.byte	0
 2568 02bd 05       		.uleb128 0x5
 2569 02be 01       		.byte	0x1
 2570 02bf 37000000 		.4byte	0x37
 2571 02c3 05       		.byte	0x5
 2572 02c4 95       		.byte	0x95
 2573 02c5 DC020000 		.4byte	0x2dc
 2574 02c9 06       		.uleb128 0x6
 2575 02ca D7010000 		.4byte	.LASF84
 2576 02ce 01       		.byte	0x1
 2577 02cf 06       		.uleb128 0x6
 2578 02d0 700C0000 		.4byte	.LASF85
 2579 02d4 02       		.byte	0x2
 2580 02d5 06       		.uleb128 0x6
 2581 02d6 14070000 		.4byte	.LASF86
 2582 02da 03       		.byte	0x3
 2583 02db 00       		.byte	0
 2584 02dc 03       		.uleb128 0x3
 2585 02dd A20B0000 		.4byte	.LASF87
 2586 02e1 05       		.byte	0x5
 2587 02e2 99       		.byte	0x99
 2588 02e3 BD020000 		.4byte	0x2bd
 2589 02e7 05       		.uleb128 0x5
 2590 02e8 01       		.byte	0x1
 2591 02e9 37000000 		.4byte	0x37
 2592 02ed 05       		.byte	0x5
 2593 02ee 9C       		.byte	0x9c
 2594 02ef 00030000 		.4byte	0x300
 2595 02f3 06       		.uleb128 0x6
 2596 02f4 FD040000 		.4byte	.LASF88
 2597 02f8 00       		.byte	0
 2598 02f9 06       		.uleb128 0x6
 2599 02fa 10050000 		.4byte	.LASF89
 2600 02fe 04       		.byte	0x4
 2601 02ff 00       		.byte	0
ARM GAS  C:\Users\Xwx47\AppData\Local\Temp\ccUdC8ee.s 			page 64


 2602 0300 05       		.uleb128 0x5
 2603 0301 01       		.byte	0x1
 2604 0302 37000000 		.4byte	0x37
 2605 0306 05       		.byte	0x5
 2606 0307 CA       		.byte	0xca
 2607 0308 31030000 		.4byte	0x331
 2608 030c 06       		.uleb128 0x6
 2609 030d 360D0000 		.4byte	.LASF90
 2610 0311 01       		.byte	0x1
 2611 0312 06       		.uleb128 0x6
 2612 0313 550B0000 		.4byte	.LASF91
 2613 0317 03       		.byte	0x3
 2614 0318 06       		.uleb128 0x6
 2615 0319 52050000 		.4byte	.LASF92
 2616 031d 03       		.byte	0x3
 2617 031e 06       		.uleb128 0x6
 2618 031f 1E0E0000 		.4byte	.LASF93
 2619 0323 04       		.byte	0x4
 2620 0324 06       		.uleb128 0x6
 2621 0325 C60A0000 		.4byte	.LASF94
 2622 0329 05       		.byte	0x5
 2623 032a 06       		.uleb128 0x6
 2624 032b 2E0C0000 		.4byte	.LASF95
 2625 032f 07       		.byte	0x7
 2626 0330 00       		.byte	0
 2627 0331 05       		.uleb128 0x5
 2628 0332 01       		.byte	0x1
 2629 0333 37000000 		.4byte	0x37
 2630 0337 05       		.byte	0x5
 2631 0338 E9       		.byte	0xe9
 2632 0339 50030000 		.4byte	0x350
 2633 033d 06       		.uleb128 0x6
 2634 033e 42010000 		.4byte	.LASF96
 2635 0342 40       		.byte	0x40
 2636 0343 06       		.uleb128 0x6
 2637 0344 E7020000 		.4byte	.LASF97
 2638 0348 20       		.byte	0x20
 2639 0349 06       		.uleb128 0x6
 2640 034a 69000000 		.4byte	.LASF98
 2641 034e 10       		.byte	0x10
 2642 034f 00       		.byte	0
 2643 0350 07       		.uleb128 0x7
 2644 0351 01       		.byte	0x1
 2645 0352 37000000 		.4byte	0x37
 2646 0356 05       		.byte	0x5
 2647 0357 0001     		.2byte	0x100
 2648 0359 6A030000 		.4byte	0x36a
 2649 035d 06       		.uleb128 0x6
 2650 035e 56030000 		.4byte	.LASF99
 2651 0362 00       		.byte	0
 2652 0363 06       		.uleb128 0x6
 2653 0364 5F100000 		.4byte	.LASF100
 2654 0368 04       		.byte	0x4
 2655 0369 00       		.byte	0
 2656 036a 07       		.uleb128 0x7
 2657 036b 01       		.byte	0x1
 2658 036c 37000000 		.4byte	0x37
ARM GAS  C:\Users\Xwx47\AppData\Local\Temp\ccUdC8ee.s 			page 65


 2659 0370 05       		.byte	0x5
 2660 0371 0501     		.2byte	0x105
 2661 0373 84030000 		.4byte	0x384
 2662 0377 06       		.uleb128 0x6
 2663 0378 F30A0000 		.4byte	.LASF101
 2664 037c 0F       		.byte	0xf
 2665 037d 06       		.uleb128 0x6
 2666 037e E0040000 		.4byte	.LASF102
 2667 0382 F0       		.byte	0xf0
 2668 0383 00       		.byte	0
 2669 0384 07       		.uleb128 0x7
 2670 0385 01       		.byte	0x1
 2671 0386 37000000 		.4byte	0x37
 2672 038a 05       		.byte	0x5
 2673 038b 0B01     		.2byte	0x10b
 2674 038d 98030000 		.4byte	0x398
 2675 0391 06       		.uleb128 0x6
 2676 0392 3A080000 		.4byte	.LASF103
 2677 0396 00       		.byte	0
 2678 0397 00       		.byte	0
 2679 0398 07       		.uleb128 0x7
 2680 0399 01       		.byte	0x1
 2681 039a 37000000 		.4byte	0x37
 2682 039e 05       		.byte	0x5
 2683 039f 1501     		.2byte	0x115
 2684 03a1 C4030000 		.4byte	0x3c4
 2685 03a5 06       		.uleb128 0x6
 2686 03a6 AD0A0000 		.4byte	.LASF104
 2687 03aa 00       		.byte	0
 2688 03ab 06       		.uleb128 0x6
 2689 03ac 280B0000 		.4byte	.LASF105
 2690 03b0 01       		.byte	0x1
 2691 03b1 06       		.uleb128 0x6
 2692 03b2 B7030000 		.4byte	.LASF106
 2693 03b6 04       		.byte	0x4
 2694 03b7 06       		.uleb128 0x6
 2695 03b8 0D0D0000 		.4byte	.LASF107
 2696 03bc 05       		.byte	0x5
 2697 03bd 06       		.uleb128 0x6
 2698 03be 1F100000 		.4byte	.LASF108
 2699 03c2 06       		.byte	0x6
 2700 03c3 00       		.byte	0
 2701 03c4 07       		.uleb128 0x7
 2702 03c5 01       		.byte	0x1
 2703 03c6 37000000 		.4byte	0x37
 2704 03ca 05       		.byte	0x5
 2705 03cb 1E01     		.2byte	0x11e
 2706 03cd F6030000 		.4byte	0x3f6
 2707 03d1 06       		.uleb128 0x6
 2708 03d2 A9100000 		.4byte	.LASF109
 2709 03d6 00       		.byte	0
 2710 03d7 06       		.uleb128 0x6
 2711 03d8 BA100000 		.4byte	.LASF110
 2712 03dc 01       		.byte	0x1
 2713 03dd 06       		.uleb128 0x6
 2714 03de 00000000 		.4byte	.LASF111
 2715 03e2 02       		.byte	0x2
ARM GAS  C:\Users\Xwx47\AppData\Local\Temp\ccUdC8ee.s 			page 66


 2716 03e3 06       		.uleb128 0x6
 2717 03e4 11000000 		.4byte	.LASF112
 2718 03e8 03       		.byte	0x3
 2719 03e9 06       		.uleb128 0x6
 2720 03ea 22000000 		.4byte	.LASF113
 2721 03ee 04       		.byte	0x4
 2722 03ef 06       		.uleb128 0x6
 2723 03f0 33000000 		.4byte	.LASF114
 2724 03f4 05       		.byte	0x5
 2725 03f5 00       		.byte	0
 2726 03f6 07       		.uleb128 0x7
 2727 03f7 01       		.byte	0x1
 2728 03f8 37000000 		.4byte	0x37
 2729 03fc 05       		.byte	0x5
 2730 03fd 2801     		.2byte	0x128
 2731 03ff 16040000 		.4byte	0x416
 2732 0403 06       		.uleb128 0x6
 2733 0404 6C0A0000 		.4byte	.LASF115
 2734 0408 00       		.byte	0
 2735 0409 06       		.uleb128 0x6
 2736 040a 46080000 		.4byte	.LASF116
 2737 040e 01       		.byte	0x1
 2738 040f 06       		.uleb128 0x6
 2739 0410 590A0000 		.4byte	.LASF117
 2740 0414 02       		.byte	0x2
 2741 0415 00       		.byte	0
 2742 0416 07       		.uleb128 0x7
 2743 0417 01       		.byte	0x1
 2744 0418 37000000 		.4byte	0x37
 2745 041c 05       		.byte	0x5
 2746 041d 4001     		.2byte	0x140
 2747 041f 54040000 		.4byte	0x454
 2748 0423 06       		.uleb128 0x6
 2749 0424 5F090000 		.4byte	.LASF118
 2750 0428 05       		.byte	0x5
 2751 0429 06       		.uleb128 0x6
 2752 042a CF050000 		.4byte	.LASF119
 2753 042e 20       		.byte	0x20
 2754 042f 06       		.uleb128 0x6
 2755 0430 3C0F0000 		.4byte	.LASF120
 2756 0434 0F       		.byte	0xf
 2757 0435 06       		.uleb128 0x6
 2758 0436 4C090000 		.4byte	.LASF121
 2759 043a 64       		.byte	0x64
 2760 043b 06       		.uleb128 0x6
 2761 043c B1020000 		.4byte	.LASF122
 2762 0440 7D       		.byte	0x7d
 2763 0441 06       		.uleb128 0x6
 2764 0442 99010000 		.4byte	.LASF123
 2765 0446 70       		.byte	0x70
 2766 0447 06       		.uleb128 0x6
 2767 0448 AA010000 		.4byte	.LASF124
 2768 044c 0E       		.byte	0xe
 2769 044d 06       		.uleb128 0x6
 2770 044e 23080000 		.4byte	.LASF125
 2771 0452 01       		.byte	0x1
 2772 0453 00       		.byte	0
ARM GAS  C:\Users\Xwx47\AppData\Local\Temp\ccUdC8ee.s 			page 67


 2773 0454 08       		.uleb128 0x8
 2774 0455 DE0B0000 		.4byte	.LASF132
 2775 0459 01       		.byte	0x1
 2776 045a 43       		.byte	0x43
 2777 045b 00000000 		.4byte	.LFB34
 2778 045f 54000000 		.4byte	.LFE34-.LFB34
 2779 0463 01       		.uleb128 0x1
 2780 0464 9C       		.byte	0x9c
 2781 0465 59050000 		.4byte	0x559
 2782 0469 09       		.uleb128 0x9
 2783 046a 0A000000 		.4byte	.LVL0
 2784 046e 69140000 		.4byte	0x1469
 2785 0472 81040000 		.4byte	0x481
 2786 0476 0A       		.uleb128 0xa
 2787 0477 01       		.uleb128 0x1
 2788 0478 50       		.byte	0x50
 2789 0479 01       		.uleb128 0x1
 2790 047a 31       		.byte	0x31
 2791 047b 0A       		.uleb128 0xa
 2792 047c 01       		.uleb128 0x1
 2793 047d 51       		.byte	0x51
 2794 047e 01       		.uleb128 0x1
 2795 047f 31       		.byte	0x31
 2796 0480 00       		.byte	0
 2797 0481 09       		.uleb128 0x9
 2798 0482 12000000 		.4byte	.LVL1
 2799 0486 69140000 		.4byte	0x1469
 2800 048a 99040000 		.4byte	0x499
 2801 048e 0A       		.uleb128 0xa
 2802 048f 01       		.uleb128 0x1
 2803 0490 50       		.byte	0x50
 2804 0491 01       		.uleb128 0x1
 2805 0492 32       		.byte	0x32
 2806 0493 0A       		.uleb128 0xa
 2807 0494 01       		.uleb128 0x1
 2808 0495 51       		.byte	0x51
 2809 0496 01       		.uleb128 0x1
 2810 0497 31       		.byte	0x31
 2811 0498 00       		.byte	0
 2812 0499 09       		.uleb128 0x9
 2813 049a 1A000000 		.4byte	.LVL2
 2814 049e 69140000 		.4byte	0x1469
 2815 04a2 B1040000 		.4byte	0x4b1
 2816 04a6 0A       		.uleb128 0xa
 2817 04a7 01       		.uleb128 0x1
 2818 04a8 50       		.byte	0x50
 2819 04a9 01       		.uleb128 0x1
 2820 04aa 33       		.byte	0x33
 2821 04ab 0A       		.uleb128 0xa
 2822 04ac 01       		.uleb128 0x1
 2823 04ad 51       		.byte	0x51
 2824 04ae 01       		.uleb128 0x1
 2825 04af 33       		.byte	0x33
 2826 04b0 00       		.byte	0
 2827 04b1 09       		.uleb128 0x9
 2828 04b2 22000000 		.4byte	.LVL3
 2829 04b6 69140000 		.4byte	0x1469
ARM GAS  C:\Users\Xwx47\AppData\Local\Temp\ccUdC8ee.s 			page 68


 2830 04ba C9040000 		.4byte	0x4c9
 2831 04be 0A       		.uleb128 0xa
 2832 04bf 01       		.uleb128 0x1
 2833 04c0 50       		.byte	0x50
 2834 04c1 01       		.uleb128 0x1
 2835 04c2 34       		.byte	0x34
 2836 04c3 0A       		.uleb128 0xa
 2837 04c4 01       		.uleb128 0x1
 2838 04c5 51       		.byte	0x51
 2839 04c6 01       		.uleb128 0x1
 2840 04c7 33       		.byte	0x33
 2841 04c8 00       		.byte	0
 2842 04c9 09       		.uleb128 0x9
 2843 04ca 2A000000 		.4byte	.LVL4
 2844 04ce 69140000 		.4byte	0x1469
 2845 04d2 E2040000 		.4byte	0x4e2
 2846 04d6 0A       		.uleb128 0xa
 2847 04d7 01       		.uleb128 0x1
 2848 04d8 50       		.byte	0x50
 2849 04d9 01       		.uleb128 0x1
 2850 04da 35       		.byte	0x35
 2851 04db 0A       		.uleb128 0xa
 2852 04dc 01       		.uleb128 0x1
 2853 04dd 51       		.byte	0x51
 2854 04de 02       		.uleb128 0x2
 2855 04df 08       		.byte	0x8
 2856 04e0 4B       		.byte	0x4b
 2857 04e1 00       		.byte	0
 2858 04e2 09       		.uleb128 0x9
 2859 04e3 32000000 		.4byte	.LVL5
 2860 04e7 69140000 		.4byte	0x1469
 2861 04eb FB040000 		.4byte	0x4fb
 2862 04ef 0A       		.uleb128 0xa
 2863 04f0 01       		.uleb128 0x1
 2864 04f1 50       		.byte	0x50
 2865 04f2 01       		.uleb128 0x1
 2866 04f3 36       		.byte	0x36
 2867 04f4 0A       		.uleb128 0xa
 2868 04f5 01       		.uleb128 0x1
 2869 04f6 51       		.byte	0x51
 2870 04f7 02       		.uleb128 0x2
 2871 04f8 08       		.byte	0x8
 2872 04f9 26       		.byte	0x26
 2873 04fa 00       		.byte	0
 2874 04fb 09       		.uleb128 0x9
 2875 04fc 3A000000 		.4byte	.LVL6
 2876 0500 69140000 		.4byte	0x1469
 2877 0504 13050000 		.4byte	0x513
 2878 0508 0A       		.uleb128 0xa
 2879 0509 01       		.uleb128 0x1
 2880 050a 50       		.byte	0x50
 2881 050b 01       		.uleb128 0x1
 2882 050c 4C       		.byte	0x4c
 2883 050d 0A       		.uleb128 0xa
 2884 050e 01       		.uleb128 0x1
 2885 050f 51       		.byte	0x51
 2886 0510 01       		.uleb128 0x1
ARM GAS  C:\Users\Xwx47\AppData\Local\Temp\ccUdC8ee.s 			page 69


 2887 0511 30       		.byte	0x30
 2888 0512 00       		.byte	0
 2889 0513 09       		.uleb128 0x9
 2890 0514 42000000 		.4byte	.LVL7
 2891 0518 69140000 		.4byte	0x1469
 2892 051c 2B050000 		.4byte	0x52b
 2893 0520 0A       		.uleb128 0xa
 2894 0521 01       		.uleb128 0x1
 2895 0522 50       		.byte	0x50
 2896 0523 01       		.uleb128 0x1
 2897 0524 4D       		.byte	0x4d
 2898 0525 0A       		.uleb128 0xa
 2899 0526 01       		.uleb128 0x1
 2900 0527 51       		.byte	0x51
 2901 0528 01       		.uleb128 0x1
 2902 0529 30       		.byte	0x30
 2903 052a 00       		.byte	0
 2904 052b 09       		.uleb128 0x9
 2905 052c 4A000000 		.4byte	.LVL8
 2906 0530 69140000 		.4byte	0x1469
 2907 0534 43050000 		.4byte	0x543
 2908 0538 0A       		.uleb128 0xa
 2909 0539 01       		.uleb128 0x1
 2910 053a 50       		.byte	0x50
 2911 053b 01       		.uleb128 0x1
 2912 053c 41       		.byte	0x41
 2913 053d 0A       		.uleb128 0xa
 2914 053e 01       		.uleb128 0x1
 2915 053f 51       		.byte	0x51
 2916 0540 01       		.uleb128 0x1
 2917 0541 31       		.byte	0x31
 2918 0542 00       		.byte	0
 2919 0543 0B       		.uleb128 0xb
 2920 0544 52000000 		.4byte	.LVL9
 2921 0548 69140000 		.4byte	0x1469
 2922 054c 0A       		.uleb128 0xa
 2923 054d 01       		.uleb128 0x1
 2924 054e 50       		.byte	0x50
 2925 054f 01       		.uleb128 0x1
 2926 0550 30       		.byte	0x30
 2927 0551 0A       		.uleb128 0xa
 2928 0552 01       		.uleb128 0x1
 2929 0553 51       		.byte	0x51
 2930 0554 02       		.uleb128 0x2
 2931 0555 08       		.byte	0x8
 2932 0556 3B       		.byte	0x3b
 2933 0557 00       		.byte	0
 2934 0558 00       		.byte	0
 2935 0559 0C       		.uleb128 0xc
 2936 055a 6A050000 		.4byte	.LASF126
 2937 055e 01       		.byte	0x1
 2938 055f 6E       		.byte	0x6e
 2939 0560 00000000 		.4byte	.LFB35
 2940 0564 02000000 		.4byte	.LFE35-.LFB35
 2941 0568 01       		.uleb128 0x1
 2942 0569 9C       		.byte	0x9c
 2943 056a 0C       		.uleb128 0xc
ARM GAS  C:\Users\Xwx47\AppData\Local\Temp\ccUdC8ee.s 			page 70


 2944 056b 400B0000 		.4byte	.LASF127
 2945 056f 01       		.byte	0x1
 2946 0570 77       		.byte	0x77
 2947 0571 00000000 		.4byte	.LFB36
 2948 0575 02000000 		.4byte	.LFE36-.LFB36
 2949 0579 01       		.uleb128 0x1
 2950 057a 9C       		.byte	0x9c
 2951 057b 0C       		.uleb128 0xc
 2952 057c 29010000 		.4byte	.LASF128
 2953 0580 01       		.byte	0x1
 2954 0581 80       		.byte	0x80
 2955 0582 00000000 		.4byte	.LFB37
 2956 0586 02000000 		.4byte	.LFE37-.LFB37
 2957 058a 01       		.uleb128 0x1
 2958 058b 9C       		.byte	0x9c
 2959 058c 0C       		.uleb128 0xc
 2960 058d AA030000 		.4byte	.LASF129
 2961 0591 01       		.byte	0x1
 2962 0592 89       		.byte	0x89
 2963 0593 00000000 		.4byte	.LFB38
 2964 0597 02000000 		.4byte	.LFE38-.LFB38
 2965 059b 01       		.uleb128 0x1
 2966 059c 9C       		.byte	0x9c
 2967 059d 0C       		.uleb128 0xc
 2968 059e 680B0000 		.4byte	.LASF130
 2969 05a2 01       		.byte	0x1
 2970 05a3 92       		.byte	0x92
 2971 05a4 00000000 		.4byte	.LFB39
 2972 05a8 02000000 		.4byte	.LFE39-.LFB39
 2973 05ac 01       		.uleb128 0x1
 2974 05ad 9C       		.byte	0x9c
 2975 05ae 0C       		.uleb128 0xc
 2976 05af 72020000 		.4byte	.LASF131
 2977 05b3 01       		.byte	0x1
 2978 05b4 9B       		.byte	0x9b
 2979 05b5 00000000 		.4byte	.LFB40
 2980 05b9 02000000 		.4byte	.LFE40-.LFB40
 2981 05bd 01       		.uleb128 0x1
 2982 05be 9C       		.byte	0x9c
 2983 05bf 08       		.uleb128 0x8
 2984 05c0 B2040000 		.4byte	.LASF133
 2985 05c4 01       		.byte	0x1
 2986 05c5 B4       		.byte	0xb4
 2987 05c6 00000000 		.4byte	.LFB42
 2988 05ca 0C000000 		.4byte	.LFE42-.LFB42
 2989 05ce 01       		.uleb128 0x1
 2990 05cf 9C       		.byte	0x9c
 2991 05d0 E9050000 		.4byte	0x5e9
 2992 05d4 0B       		.uleb128 0xb
 2993 05d5 0A000000 		.4byte	.LVL10
 2994 05d9 74140000 		.4byte	0x1474
 2995 05dd 0A       		.uleb128 0xa
 2996 05de 01       		.uleb128 0x1
 2997 05df 50       		.byte	0x50
 2998 05e0 01       		.uleb128 0x1
 2999 05e1 30       		.byte	0x30
 3000 05e2 0A       		.uleb128 0xa
ARM GAS  C:\Users\Xwx47\AppData\Local\Temp\ccUdC8ee.s 			page 71


 3001 05e3 01       		.uleb128 0x1
 3002 05e4 51       		.byte	0x51
 3003 05e5 01       		.uleb128 0x1
 3004 05e6 31       		.byte	0x31
 3005 05e7 00       		.byte	0
 3006 05e8 00       		.byte	0
 3007 05e9 08       		.uleb128 0x8
 3008 05ea D1000000 		.4byte	.LASF134
 3009 05ee 01       		.byte	0x1
 3010 05ef DF       		.byte	0xdf
 3011 05f0 00000000 		.4byte	.LFB45
 3012 05f4 0C000000 		.4byte	.LFE45-.LFB45
 3013 05f8 01       		.uleb128 0x1
 3014 05f9 9C       		.byte	0x9c
 3015 05fa 13060000 		.4byte	0x613
 3016 05fe 0B       		.uleb128 0xb
 3017 05ff 0A000000 		.4byte	.LVL11
 3018 0603 7F140000 		.4byte	0x147f
 3019 0607 0A       		.uleb128 0xa
 3020 0608 01       		.uleb128 0x1
 3021 0609 50       		.byte	0x50
 3022 060a 01       		.uleb128 0x1
 3023 060b 30       		.byte	0x30
 3024 060c 0A       		.uleb128 0xa
 3025 060d 01       		.uleb128 0x1
 3026 060e 51       		.byte	0x51
 3027 060f 01       		.uleb128 0x1
 3028 0610 30       		.byte	0x30
 3029 0611 00       		.byte	0
 3030 0612 00       		.byte	0
 3031 0613 08       		.uleb128 0x8
 3032 0614 48060000 		.4byte	.LASF135
 3033 0618 01       		.byte	0x1
 3034 0619 EB       		.byte	0xeb
 3035 061a 00000000 		.4byte	.LFB46
 3036 061e 0C000000 		.4byte	.LFE46-.LFB46
 3037 0622 01       		.uleb128 0x1
 3038 0623 9C       		.byte	0x9c
 3039 0624 3D060000 		.4byte	0x63d
 3040 0628 0B       		.uleb128 0xb
 3041 0629 0A000000 		.4byte	.LVL12
 3042 062d 74140000 		.4byte	0x1474
 3043 0631 0A       		.uleb128 0xa
 3044 0632 01       		.uleb128 0x1
 3045 0633 50       		.byte	0x50
 3046 0634 01       		.uleb128 0x1
 3047 0635 30       		.byte	0x30
 3048 0636 0A       		.uleb128 0xa
 3049 0637 01       		.uleb128 0x1
 3050 0638 51       		.byte	0x51
 3051 0639 01       		.uleb128 0x1
 3052 063a 30       		.byte	0x30
 3053 063b 00       		.byte	0
 3054 063c 00       		.byte	0
 3055 063d 08       		.uleb128 0x8
 3056 063e E50A0000 		.4byte	.LASF136
 3057 0642 01       		.byte	0x1
ARM GAS  C:\Users\Xwx47\AppData\Local\Temp\ccUdC8ee.s 			page 72


 3058 0643 A5       		.byte	0xa5
 3059 0644 00000000 		.4byte	.LFB41
 3060 0648 12000000 		.4byte	.LFE41-.LFB41
 3061 064c 01       		.uleb128 0x1
 3062 064d 9C       		.byte	0x9c
 3063 064e 74060000 		.4byte	0x674
 3064 0652 0D       		.uleb128 0xd
 3065 0653 42020000 		.4byte	.LASF138
 3066 0657 01       		.byte	0x1
 3067 0658 A5       		.byte	0xa5
 3068 0659 74060000 		.4byte	0x674
 3069 065d 00000000 		.4byte	.LLST0
 3070 0661 0E       		.uleb128 0xe
 3071 0662 0A000000 		.4byte	.LVL14
 3072 0666 E9050000 		.4byte	0x5e9
 3073 066a 0E       		.uleb128 0xe
 3074 066b 10000000 		.4byte	.LVL16
 3075 066f 13060000 		.4byte	0x613
 3076 0673 00       		.byte	0
 3077 0674 0F       		.uleb128 0xf
 3078 0675 E9010000 		.4byte	0x1e9
 3079 0679 08       		.uleb128 0x8
 3080 067a 72010000 		.4byte	.LASF137
 3081 067e 01       		.byte	0x1
 3082 067f F5       		.byte	0xf5
 3083 0680 00000000 		.4byte	.LFB47
 3084 0684 0C000000 		.4byte	.LFE47-.LFB47
 3085 0688 01       		.uleb128 0x1
 3086 0689 9C       		.byte	0x9c
 3087 068a AD060000 		.4byte	0x6ad
 3088 068e 0D       		.uleb128 0xd
 3089 068f 9A050000 		.4byte	.LASF139
 3090 0693 01       		.byte	0x1
 3091 0694 F5       		.byte	0xf5
 3092 0695 AD060000 		.4byte	0x6ad
 3093 0699 3A000000 		.4byte	.LLST1
 3094 069d 0B       		.uleb128 0xb
 3095 069e 0A000000 		.4byte	.LVL19
 3096 06a2 7F140000 		.4byte	0x147f
 3097 06a6 0A       		.uleb128 0xa
 3098 06a7 01       		.uleb128 0x1
 3099 06a8 50       		.byte	0x50
 3100 06a9 01       		.uleb128 0x1
 3101 06aa 31       		.byte	0x31
 3102 06ab 00       		.byte	0
 3103 06ac 00       		.byte	0
 3104 06ad 0F       		.uleb128 0xf
 3105 06ae 89010000 		.4byte	0x189
 3106 06b2 08       		.uleb128 0x8
 3107 06b3 BC000000 		.4byte	.LASF140
 3108 06b7 01       		.byte	0x1
 3109 06b8 FF       		.byte	0xff
 3110 06b9 00000000 		.4byte	.LFB48
 3111 06bd 0C000000 		.4byte	.LFE48-.LFB48
 3112 06c1 01       		.uleb128 0x1
 3113 06c2 9C       		.byte	0x9c
 3114 06c3 E6060000 		.4byte	0x6e6
ARM GAS  C:\Users\Xwx47\AppData\Local\Temp\ccUdC8ee.s 			page 73


 3115 06c7 0D       		.uleb128 0xd
 3116 06c8 9A050000 		.4byte	.LASF139
 3117 06cc 01       		.byte	0x1
 3118 06cd FF       		.byte	0xff
 3119 06ce AD060000 		.4byte	0x6ad
 3120 06d2 5B000000 		.4byte	.LLST2
 3121 06d6 0B       		.uleb128 0xb
 3122 06d7 0A000000 		.4byte	.LVL22
 3123 06db 74140000 		.4byte	0x1474
 3124 06df 0A       		.uleb128 0xa
 3125 06e0 01       		.uleb128 0x1
 3126 06e1 50       		.byte	0x50
 3127 06e2 01       		.uleb128 0x1
 3128 06e3 31       		.byte	0x31
 3129 06e4 00       		.byte	0
 3130 06e5 00       		.byte	0
 3131 06e6 10       		.uleb128 0x10
 3132 06e7 E4060000 		.4byte	.LASF141
 3133 06eb 01       		.byte	0x1
 3134 06ec 0901     		.2byte	0x109
 3135 06ee 00000000 		.4byte	.LFB49
 3136 06f2 12000000 		.4byte	.LFE49-.LFB49
 3137 06f6 01       		.uleb128 0x1
 3138 06f7 9C       		.byte	0x9c
 3139 06f8 1C070000 		.4byte	0x71c
 3140 06fc 11       		.uleb128 0x11
 3141 06fd DD0A0000 		.4byte	.LASF142
 3142 0701 01       		.byte	0x1
 3143 0702 0901     		.2byte	0x109
 3144 0704 76000000 		.4byte	0x76
 3145 0708 7C000000 		.4byte	.LLST3
 3146 070c 0B       		.uleb128 0xb
 3147 070d 10000000 		.4byte	.LVL25
 3148 0711 69140000 		.4byte	0x1469
 3149 0715 0A       		.uleb128 0xa
 3150 0716 01       		.uleb128 0x1
 3151 0717 50       		.byte	0x50
 3152 0718 01       		.uleb128 0x1
 3153 0719 35       		.byte	0x35
 3154 071a 00       		.byte	0
 3155 071b 00       		.byte	0
 3156 071c 10       		.uleb128 0x10
 3157 071d 80000000 		.4byte	.LASF143
 3158 0721 01       		.byte	0x1
 3159 0722 1701     		.2byte	0x117
 3160 0724 00000000 		.4byte	.LFB50
 3161 0728 0C000000 		.4byte	.LFE50-.LFB50
 3162 072c 01       		.uleb128 0x1
 3163 072d 9C       		.byte	0x9c
 3164 072e 52070000 		.4byte	0x752
 3165 0732 11       		.uleb128 0x11
 3166 0733 450C0000 		.4byte	.LASF144
 3167 0737 01       		.byte	0x1
 3168 0738 1701     		.2byte	0x117
 3169 073a 52070000 		.4byte	0x752
 3170 073e 9A000000 		.4byte	.LLST4
 3171 0742 0B       		.uleb128 0xb
ARM GAS  C:\Users\Xwx47\AppData\Local\Temp\ccUdC8ee.s 			page 74


 3172 0743 0A000000 		.4byte	.LVL28
 3173 0747 69140000 		.4byte	0x1469
 3174 074b 0A       		.uleb128 0xa
 3175 074c 01       		.uleb128 0x1
 3176 074d 50       		.byte	0x50
 3177 074e 01       		.uleb128 0x1
 3178 074f 33       		.byte	0x33
 3179 0750 00       		.byte	0
 3180 0751 00       		.byte	0
 3181 0752 0F       		.uleb128 0xf
 3182 0753 DC020000 		.4byte	0x2dc
 3183 0757 12       		.uleb128 0x12
 3184 0758 8F070000 		.4byte	.LASF163
 3185 075c 01       		.byte	0x1
 3186 075d 2101     		.2byte	0x121
 3187 075f 76000000 		.4byte	0x76
 3188 0763 00000000 		.4byte	.LFB51
 3189 0767 24000000 		.4byte	.LFE51-.LFB51
 3190 076b 01       		.uleb128 0x1
 3191 076c 9C       		.byte	0x9c
 3192 076d A1070000 		.4byte	0x7a1
 3193 0771 13       		.uleb128 0x13
 3194 0772 450C0000 		.4byte	.LASF144
 3195 0776 01       		.byte	0x1
 3196 0777 2301     		.2byte	0x123
 3197 0779 76000000 		.4byte	0x76
 3198 077d BB000000 		.4byte	.LLST5
 3199 0781 14       		.uleb128 0x14
 3200 0782 72656700 		.ascii	"reg\000"
 3201 0786 01       		.byte	0x1
 3202 0787 2401     		.2byte	0x124
 3203 0789 76000000 		.4byte	0x76
 3204 078d FE000000 		.4byte	.LLST6
 3205 0791 0B       		.uleb128 0xb
 3206 0792 08000000 		.4byte	.LVL30
 3207 0796 8A140000 		.4byte	0x148a
 3208 079a 0A       		.uleb128 0xa
 3209 079b 01       		.uleb128 0x1
 3210 079c 50       		.byte	0x50
 3211 079d 01       		.uleb128 0x1
 3212 079e 33       		.byte	0x33
 3213 079f 00       		.byte	0
 3214 07a0 00       		.byte	0
 3215 07a1 10       		.uleb128 0x10
 3216 07a2 17020000 		.4byte	.LASF145
 3217 07a6 01       		.byte	0x1
 3218 07a7 3F01     		.2byte	0x13f
 3219 07a9 00000000 		.4byte	.LFB52
 3220 07ad 18000000 		.4byte	.LFE52-.LFB52
 3221 07b1 01       		.uleb128 0x1
 3222 07b2 9C       		.byte	0x9c
 3223 07b3 EE070000 		.4byte	0x7ee
 3224 07b7 11       		.uleb128 0x11
 3225 07b8 E60D0000 		.4byte	.LASF146
 3226 07bc 01       		.byte	0x1
 3227 07bd 3F01     		.2byte	0x13f
 3228 07bf EE070000 		.4byte	0x7ee
ARM GAS  C:\Users\Xwx47\AppData\Local\Temp\ccUdC8ee.s 			page 75


 3229 07c3 32010000 		.4byte	.LLST7
 3230 07c7 11       		.uleb128 0x11
 3231 07c8 A6090000 		.4byte	.LASF147
 3232 07cc 01       		.byte	0x1
 3233 07cd 3F01     		.2byte	0x13f
 3234 07cf 96000000 		.4byte	0x96
 3235 07d3 5E010000 		.4byte	.LLST8
 3236 07d7 0B       		.uleb128 0xb
 3237 07d8 16000000 		.4byte	.LVL42
 3238 07dc 95140000 		.4byte	0x1495
 3239 07e0 0A       		.uleb128 0xa
 3240 07e1 01       		.uleb128 0x1
 3241 07e2 50       		.byte	0x50
 3242 07e3 01       		.uleb128 0x1
 3243 07e4 3A       		.byte	0x3a
 3244 07e5 0A       		.uleb128 0xa
 3245 07e6 01       		.uleb128 0x1
 3246 07e7 51       		.byte	0x51
 3247 07e8 03       		.uleb128 0x3
 3248 07e9 F3       		.byte	0xf3
 3249 07ea 01       		.uleb128 0x1
 3250 07eb 50       		.byte	0x50
 3251 07ec 00       		.byte	0
 3252 07ed 00       		.byte	0
 3253 07ee 15       		.uleb128 0x15
 3254 07ef 04       		.byte	0x4
 3255 07f0 F4070000 		.4byte	0x7f4
 3256 07f4 0F       		.uleb128 0xf
 3257 07f5 76000000 		.4byte	0x76
 3258 07f9 10       		.uleb128 0x10
 3259 07fa 5A020000 		.4byte	.LASF148
 3260 07fe 01       		.byte	0x1
 3261 07ff 5301     		.2byte	0x153
 3262 0801 00000000 		.4byte	.LFB53
 3263 0805 18000000 		.4byte	.LFE53-.LFB53
 3264 0809 01       		.uleb128 0x1
 3265 080a 9C       		.byte	0x9c
 3266 080b 46080000 		.4byte	0x846
 3267 080f 11       		.uleb128 0x11
 3268 0810 E60D0000 		.4byte	.LASF146
 3269 0814 01       		.byte	0x1
 3270 0815 5301     		.2byte	0x153
 3271 0817 46080000 		.4byte	0x846
 3272 081b 87010000 		.4byte	.LLST9
 3273 081f 11       		.uleb128 0x11
 3274 0820 A6090000 		.4byte	.LASF147
 3275 0824 01       		.byte	0x1
 3276 0825 5301     		.2byte	0x153
 3277 0827 96000000 		.4byte	0x96
 3278 082b B3010000 		.4byte	.LLST10
 3279 082f 0B       		.uleb128 0xb
 3280 0830 16000000 		.4byte	.LVL47
 3281 0834 A0140000 		.4byte	0x14a0
 3282 0838 0A       		.uleb128 0xa
 3283 0839 01       		.uleb128 0x1
 3284 083a 50       		.byte	0x50
 3285 083b 01       		.uleb128 0x1
ARM GAS  C:\Users\Xwx47\AppData\Local\Temp\ccUdC8ee.s 			page 76


 3286 083c 3A       		.byte	0x3a
 3287 083d 0A       		.uleb128 0xa
 3288 083e 01       		.uleb128 0x1
 3289 083f 51       		.byte	0x51
 3290 0840 03       		.uleb128 0x3
 3291 0841 F3       		.byte	0xf3
 3292 0842 01       		.uleb128 0x1
 3293 0843 50       		.byte	0x50
 3294 0844 00       		.byte	0
 3295 0845 00       		.byte	0
 3296 0846 15       		.uleb128 0x15
 3297 0847 04       		.byte	0x4
 3298 0848 76000000 		.4byte	0x76
 3299 084c 10       		.uleb128 0x10
 3300 084d 71090000 		.4byte	.LASF149
 3301 0851 01       		.byte	0x1
 3302 0852 6801     		.2byte	0x168
 3303 0854 00000000 		.4byte	.LFB54
 3304 0858 18000000 		.4byte	.LFE54-.LFB54
 3305 085c 01       		.uleb128 0x1
 3306 085d 9C       		.byte	0x9c
 3307 085e 99080000 		.4byte	0x899
 3308 0862 11       		.uleb128 0x11
 3309 0863 E60D0000 		.4byte	.LASF146
 3310 0867 01       		.byte	0x1
 3311 0868 6801     		.2byte	0x168
 3312 086a EE070000 		.4byte	0x7ee
 3313 086e DC010000 		.4byte	.LLST11
 3314 0872 11       		.uleb128 0x11
 3315 0873 A6090000 		.4byte	.LASF147
 3316 0877 01       		.byte	0x1
 3317 0878 6801     		.2byte	0x168
 3318 087a 96000000 		.4byte	0x96
 3319 087e 08020000 		.4byte	.LLST12
 3320 0882 0B       		.uleb128 0xb
 3321 0883 16000000 		.4byte	.LVL52
 3322 0887 95140000 		.4byte	0x1495
 3323 088b 0A       		.uleb128 0xa
 3324 088c 01       		.uleb128 0x1
 3325 088d 50       		.byte	0x50
 3326 088e 01       		.uleb128 0x1
 3327 088f 3B       		.byte	0x3b
 3328 0890 0A       		.uleb128 0xa
 3329 0891 01       		.uleb128 0x1
 3330 0892 51       		.byte	0x51
 3331 0893 03       		.uleb128 0x3
 3332 0894 F3       		.byte	0xf3
 3333 0895 01       		.uleb128 0x1
 3334 0896 50       		.byte	0x50
 3335 0897 00       		.byte	0
 3336 0898 00       		.byte	0
 3337 0899 10       		.uleb128 0x10
 3338 089a 1C090000 		.4byte	.LASF150
 3339 089e 01       		.byte	0x1
 3340 089f 7B01     		.2byte	0x17b
 3341 08a1 00000000 		.4byte	.LFB55
 3342 08a5 18000000 		.4byte	.LFE55-.LFB55
ARM GAS  C:\Users\Xwx47\AppData\Local\Temp\ccUdC8ee.s 			page 77


 3343 08a9 01       		.uleb128 0x1
 3344 08aa 9C       		.byte	0x9c
 3345 08ab E6080000 		.4byte	0x8e6
 3346 08af 11       		.uleb128 0x11
 3347 08b0 E60D0000 		.4byte	.LASF146
 3348 08b4 01       		.byte	0x1
 3349 08b5 7B01     		.2byte	0x17b
 3350 08b7 46080000 		.4byte	0x846
 3351 08bb 31020000 		.4byte	.LLST13
 3352 08bf 11       		.uleb128 0x11
 3353 08c0 A6090000 		.4byte	.LASF147
 3354 08c4 01       		.byte	0x1
 3355 08c5 7B01     		.2byte	0x17b
 3356 08c7 96000000 		.4byte	0x96
 3357 08cb 5D020000 		.4byte	.LLST14
 3358 08cf 0B       		.uleb128 0xb
 3359 08d0 16000000 		.4byte	.LVL57
 3360 08d4 A0140000 		.4byte	0x14a0
 3361 08d8 0A       		.uleb128 0xa
 3362 08d9 01       		.uleb128 0x1
 3363 08da 50       		.byte	0x50
 3364 08db 01       		.uleb128 0x1
 3365 08dc 3B       		.byte	0x3b
 3366 08dd 0A       		.uleb128 0xa
 3367 08de 01       		.uleb128 0x1
 3368 08df 51       		.byte	0x51
 3369 08e0 03       		.uleb128 0x3
 3370 08e1 F3       		.byte	0xf3
 3371 08e2 01       		.uleb128 0x1
 3372 08e3 50       		.byte	0x50
 3373 08e4 00       		.byte	0
 3374 08e5 00       		.byte	0
 3375 08e6 10       		.uleb128 0x10
 3376 08e7 BD0D0000 		.4byte	.LASF151
 3377 08eb 01       		.byte	0x1
 3378 08ec 8D01     		.2byte	0x18d
 3379 08ee 00000000 		.4byte	.LFB56
 3380 08f2 0C000000 		.4byte	.LFE56-.LFB56
 3381 08f6 01       		.uleb128 0x1
 3382 08f7 9C       		.byte	0x9c
 3383 08f8 1C090000 		.4byte	0x91c
 3384 08fc 11       		.uleb128 0x11
 3385 08fd 9C080000 		.4byte	.LASF152
 3386 0901 01       		.byte	0x1
 3387 0902 8D01     		.2byte	0x18d
 3388 0904 F4070000 		.4byte	0x7f4
 3389 0908 86020000 		.4byte	.LLST15
 3390 090c 0B       		.uleb128 0xb
 3391 090d 0A000000 		.4byte	.LVL60
 3392 0911 69140000 		.4byte	0x1469
 3393 0915 0A       		.uleb128 0xa
 3394 0916 01       		.uleb128 0x1
 3395 0917 50       		.byte	0x50
 3396 0918 01       		.uleb128 0x1
 3397 0919 3C       		.byte	0x3c
 3398 091a 00       		.byte	0
 3399 091b 00       		.byte	0
ARM GAS  C:\Users\Xwx47\AppData\Local\Temp\ccUdC8ee.s 			page 78


 3400 091c 10       		.uleb128 0x10
 3401 091d F50C0000 		.4byte	.LASF153
 3402 0921 01       		.byte	0x1
 3403 0922 9801     		.2byte	0x198
 3404 0924 00000000 		.4byte	.LFB57
 3405 0928 24000000 		.4byte	.LFE57-.LFB57
 3406 092c 01       		.uleb128 0x1
 3407 092d 9C       		.byte	0x9c
 3408 092e 81090000 		.4byte	0x981
 3409 0932 11       		.uleb128 0x11
 3410 0933 E60D0000 		.4byte	.LASF146
 3411 0937 01       		.byte	0x1
 3412 0938 9801     		.2byte	0x198
 3413 093a 46080000 		.4byte	0x846
 3414 093e A7020000 		.4byte	.LLST16
 3415 0942 11       		.uleb128 0x11
 3416 0943 A6090000 		.4byte	.LASF147
 3417 0947 01       		.byte	0x1
 3418 0948 9801     		.2byte	0x198
 3419 094a 96000000 		.4byte	0x96
 3420 094e D3020000 		.4byte	.LLST17
 3421 0952 09       		.uleb128 0x9
 3422 0953 18000000 		.4byte	.LVL65
 3423 0957 A0140000 		.4byte	0x14a0
 3424 095b 71090000 		.4byte	0x971
 3425 095f 0A       		.uleb128 0xa
 3426 0960 01       		.uleb128 0x1
 3427 0961 50       		.byte	0x50
 3428 0962 01       		.uleb128 0x1
 3429 0963 3B       		.byte	0x3b
 3430 0964 0A       		.uleb128 0xa
 3431 0965 01       		.uleb128 0x1
 3432 0966 51       		.byte	0x51
 3433 0967 02       		.uleb128 0x2
 3434 0968 75       		.byte	0x75
 3435 0969 00       		.sleb128 0
 3436 096a 0A       		.uleb128 0xa
 3437 096b 01       		.uleb128 0x1
 3438 096c 52       		.byte	0x52
 3439 096d 02       		.uleb128 0x2
 3440 096e 74       		.byte	0x74
 3441 096f 00       		.sleb128 0
 3442 0970 00       		.byte	0
 3443 0971 0B       		.uleb128 0xb
 3444 0972 20000000 		.4byte	.LVL67
 3445 0976 8A140000 		.4byte	0x148a
 3446 097a 0A       		.uleb128 0xa
 3447 097b 01       		.uleb128 0x1
 3448 097c 50       		.byte	0x50
 3449 097d 01       		.uleb128 0x1
 3450 097e 3C       		.byte	0x3c
 3451 097f 00       		.byte	0
 3452 0980 00       		.byte	0
 3453 0981 10       		.uleb128 0x10
 3454 0982 68040000 		.4byte	.LASF154
 3455 0986 01       		.byte	0x1
 3456 0987 AC01     		.2byte	0x1ac
ARM GAS  C:\Users\Xwx47\AppData\Local\Temp\ccUdC8ee.s 			page 79


 3457 0989 00000000 		.4byte	.LFB58
 3458 098d 0C000000 		.4byte	.LFE58-.LFB58
 3459 0991 01       		.uleb128 0x1
 3460 0992 9C       		.byte	0x9c
 3461 0993 B7090000 		.4byte	0x9b7
 3462 0997 11       		.uleb128 0x11
 3463 0998 9C080000 		.4byte	.LASF152
 3464 099c 01       		.byte	0x1
 3465 099d AC01     		.2byte	0x1ac
 3466 099f F4070000 		.4byte	0x7f4
 3467 09a3 0B030000 		.4byte	.LLST18
 3468 09a7 0B       		.uleb128 0xb
 3469 09a8 0A000000 		.4byte	.LVL71
 3470 09ac 69140000 		.4byte	0x1469
 3471 09b0 0A       		.uleb128 0xa
 3472 09b1 01       		.uleb128 0x1
 3473 09b2 50       		.byte	0x50
 3474 09b3 01       		.uleb128 0x1
 3475 09b4 3D       		.byte	0x3d
 3476 09b5 00       		.byte	0
 3477 09b6 00       		.byte	0
 3478 09b7 10       		.uleb128 0x10
 3479 09b8 FD020000 		.4byte	.LASF155
 3480 09bc 01       		.byte	0x1
 3481 09bd B701     		.2byte	0x1b7
 3482 09bf 00000000 		.4byte	.LFB59
 3483 09c3 24000000 		.4byte	.LFE59-.LFB59
 3484 09c7 01       		.uleb128 0x1
 3485 09c8 9C       		.byte	0x9c
 3486 09c9 1C0A0000 		.4byte	0xa1c
 3487 09cd 11       		.uleb128 0x11
 3488 09ce E60D0000 		.4byte	.LASF146
 3489 09d2 01       		.byte	0x1
 3490 09d3 B701     		.2byte	0x1b7
 3491 09d5 46080000 		.4byte	0x846
 3492 09d9 2C030000 		.4byte	.LLST19
 3493 09dd 11       		.uleb128 0x11
 3494 09de A6090000 		.4byte	.LASF147
 3495 09e2 01       		.byte	0x1
 3496 09e3 B701     		.2byte	0x1b7
 3497 09e5 96000000 		.4byte	0x96
 3498 09e9 58030000 		.4byte	.LLST20
 3499 09ed 09       		.uleb128 0x9
 3500 09ee 18000000 		.4byte	.LVL76
 3501 09f2 A0140000 		.4byte	0x14a0
 3502 09f6 0C0A0000 		.4byte	0xa0c
 3503 09fa 0A       		.uleb128 0xa
 3504 09fb 01       		.uleb128 0x1
 3505 09fc 50       		.byte	0x50
 3506 09fd 01       		.uleb128 0x1
 3507 09fe 3B       		.byte	0x3b
 3508 09ff 0A       		.uleb128 0xa
 3509 0a00 01       		.uleb128 0x1
 3510 0a01 51       		.byte	0x51
 3511 0a02 02       		.uleb128 0x2
 3512 0a03 75       		.byte	0x75
 3513 0a04 00       		.sleb128 0
ARM GAS  C:\Users\Xwx47\AppData\Local\Temp\ccUdC8ee.s 			page 80


 3514 0a05 0A       		.uleb128 0xa
 3515 0a06 01       		.uleb128 0x1
 3516 0a07 52       		.byte	0x52
 3517 0a08 02       		.uleb128 0x2
 3518 0a09 74       		.byte	0x74
 3519 0a0a 00       		.sleb128 0
 3520 0a0b 00       		.byte	0
 3521 0a0c 0B       		.uleb128 0xb
 3522 0a0d 20000000 		.4byte	.LVL78
 3523 0a11 8A140000 		.4byte	0x148a
 3524 0a15 0A       		.uleb128 0xa
 3525 0a16 01       		.uleb128 0x1
 3526 0a17 50       		.byte	0x50
 3527 0a18 01       		.uleb128 0x1
 3528 0a19 3D       		.byte	0x3d
 3529 0a1a 00       		.byte	0
 3530 0a1b 00       		.byte	0
 3531 0a1c 10       		.uleb128 0x10
 3532 0a1d 890A0000 		.4byte	.LASF156
 3533 0a21 01       		.byte	0x1
 3534 0a22 CB01     		.2byte	0x1cb
 3535 0a24 00000000 		.4byte	.LFB60
 3536 0a28 0C000000 		.4byte	.LFE60-.LFB60
 3537 0a2c 01       		.uleb128 0x1
 3538 0a2d 9C       		.byte	0x9c
 3539 0a2e 520A0000 		.4byte	0xa52
 3540 0a32 11       		.uleb128 0x11
 3541 0a33 9C080000 		.4byte	.LASF152
 3542 0a37 01       		.byte	0x1
 3543 0a38 CB01     		.2byte	0x1cb
 3544 0a3a F4070000 		.4byte	0x7f4
 3545 0a3e 90030000 		.4byte	.LLST21
 3546 0a42 0B       		.uleb128 0xb
 3547 0a43 0A000000 		.4byte	.LVL82
 3548 0a47 69140000 		.4byte	0x1469
 3549 0a4b 0A       		.uleb128 0xa
 3550 0a4c 01       		.uleb128 0x1
 3551 0a4d 50       		.byte	0x50
 3552 0a4e 01       		.uleb128 0x1
 3553 0a4f 3E       		.byte	0x3e
 3554 0a50 00       		.byte	0
 3555 0a51 00       		.byte	0
 3556 0a52 10       		.uleb128 0x10
 3557 0a53 34090000 		.4byte	.LASF157
 3558 0a57 01       		.byte	0x1
 3559 0a58 D601     		.2byte	0x1d6
 3560 0a5a 00000000 		.4byte	.LFB61
 3561 0a5e 24000000 		.4byte	.LFE61-.LFB61
 3562 0a62 01       		.uleb128 0x1
 3563 0a63 9C       		.byte	0x9c
 3564 0a64 B70A0000 		.4byte	0xab7
 3565 0a68 11       		.uleb128 0x11
 3566 0a69 E60D0000 		.4byte	.LASF146
 3567 0a6d 01       		.byte	0x1
 3568 0a6e D601     		.2byte	0x1d6
 3569 0a70 46080000 		.4byte	0x846
 3570 0a74 B1030000 		.4byte	.LLST22
ARM GAS  C:\Users\Xwx47\AppData\Local\Temp\ccUdC8ee.s 			page 81


 3571 0a78 11       		.uleb128 0x11
 3572 0a79 A6090000 		.4byte	.LASF147
 3573 0a7d 01       		.byte	0x1
 3574 0a7e D601     		.2byte	0x1d6
 3575 0a80 96000000 		.4byte	0x96
 3576 0a84 DD030000 		.4byte	.LLST23
 3577 0a88 09       		.uleb128 0x9
 3578 0a89 18000000 		.4byte	.LVL87
 3579 0a8d A0140000 		.4byte	0x14a0
 3580 0a91 A70A0000 		.4byte	0xaa7
 3581 0a95 0A       		.uleb128 0xa
 3582 0a96 01       		.uleb128 0x1
 3583 0a97 50       		.byte	0x50
 3584 0a98 01       		.uleb128 0x1
 3585 0a99 3B       		.byte	0x3b
 3586 0a9a 0A       		.uleb128 0xa
 3587 0a9b 01       		.uleb128 0x1
 3588 0a9c 51       		.byte	0x51
 3589 0a9d 02       		.uleb128 0x2
 3590 0a9e 75       		.byte	0x75
 3591 0a9f 00       		.sleb128 0
 3592 0aa0 0A       		.uleb128 0xa
 3593 0aa1 01       		.uleb128 0x1
 3594 0aa2 52       		.byte	0x52
 3595 0aa3 02       		.uleb128 0x2
 3596 0aa4 74       		.byte	0x74
 3597 0aa5 00       		.sleb128 0
 3598 0aa6 00       		.byte	0
 3599 0aa7 0B       		.uleb128 0xb
 3600 0aa8 20000000 		.4byte	.LVL89
 3601 0aac 8A140000 		.4byte	0x148a
 3602 0ab0 0A       		.uleb128 0xa
 3603 0ab1 01       		.uleb128 0x1
 3604 0ab2 50       		.byte	0x50
 3605 0ab3 01       		.uleb128 0x1
 3606 0ab4 3E       		.byte	0x3e
 3607 0ab5 00       		.byte	0
 3608 0ab6 00       		.byte	0
 3609 0ab7 10       		.uleb128 0x10
 3610 0ab8 47100000 		.4byte	.LASF158
 3611 0abc 01       		.byte	0x1
 3612 0abd EA01     		.2byte	0x1ea
 3613 0abf 00000000 		.4byte	.LFB62
 3614 0ac3 0C000000 		.4byte	.LFE62-.LFB62
 3615 0ac7 01       		.uleb128 0x1
 3616 0ac8 9C       		.byte	0x9c
 3617 0ac9 ED0A0000 		.4byte	0xaed
 3618 0acd 11       		.uleb128 0x11
 3619 0ace 9C080000 		.4byte	.LASF152
 3620 0ad2 01       		.byte	0x1
 3621 0ad3 EA01     		.2byte	0x1ea
 3622 0ad5 F4070000 		.4byte	0x7f4
 3623 0ad9 15040000 		.4byte	.LLST24
 3624 0add 0B       		.uleb128 0xb
 3625 0ade 0A000000 		.4byte	.LVL93
 3626 0ae2 69140000 		.4byte	0x1469
 3627 0ae6 0A       		.uleb128 0xa
ARM GAS  C:\Users\Xwx47\AppData\Local\Temp\ccUdC8ee.s 			page 82


 3628 0ae7 01       		.uleb128 0x1
 3629 0ae8 50       		.byte	0x50
 3630 0ae9 01       		.uleb128 0x1
 3631 0aea 3F       		.byte	0x3f
 3632 0aeb 00       		.byte	0
 3633 0aec 00       		.byte	0
 3634 0aed 10       		.uleb128 0x10
 3635 0aee EC0E0000 		.4byte	.LASF159
 3636 0af2 01       		.byte	0x1
 3637 0af3 F501     		.2byte	0x1f5
 3638 0af5 00000000 		.4byte	.LFB63
 3639 0af9 24000000 		.4byte	.LFE63-.LFB63
 3640 0afd 01       		.uleb128 0x1
 3641 0afe 9C       		.byte	0x9c
 3642 0aff 520B0000 		.4byte	0xb52
 3643 0b03 11       		.uleb128 0x11
 3644 0b04 E60D0000 		.4byte	.LASF146
 3645 0b08 01       		.byte	0x1
 3646 0b09 F501     		.2byte	0x1f5
 3647 0b0b 46080000 		.4byte	0x846
 3648 0b0f 36040000 		.4byte	.LLST25
 3649 0b13 11       		.uleb128 0x11
 3650 0b14 A6090000 		.4byte	.LASF147
 3651 0b18 01       		.byte	0x1
 3652 0b19 F501     		.2byte	0x1f5
 3653 0b1b 96000000 		.4byte	0x96
 3654 0b1f 62040000 		.4byte	.LLST26
 3655 0b23 09       		.uleb128 0x9
 3656 0b24 18000000 		.4byte	.LVL98
 3657 0b28 A0140000 		.4byte	0x14a0
 3658 0b2c 420B0000 		.4byte	0xb42
 3659 0b30 0A       		.uleb128 0xa
 3660 0b31 01       		.uleb128 0x1
 3661 0b32 50       		.byte	0x50
 3662 0b33 01       		.uleb128 0x1
 3663 0b34 3B       		.byte	0x3b
 3664 0b35 0A       		.uleb128 0xa
 3665 0b36 01       		.uleb128 0x1
 3666 0b37 51       		.byte	0x51
 3667 0b38 02       		.uleb128 0x2
 3668 0b39 75       		.byte	0x75
 3669 0b3a 00       		.sleb128 0
 3670 0b3b 0A       		.uleb128 0xa
 3671 0b3c 01       		.uleb128 0x1
 3672 0b3d 52       		.byte	0x52
 3673 0b3e 02       		.uleb128 0x2
 3674 0b3f 74       		.byte	0x74
 3675 0b40 00       		.sleb128 0
 3676 0b41 00       		.byte	0
 3677 0b42 0B       		.uleb128 0xb
 3678 0b43 20000000 		.4byte	.LVL100
 3679 0b47 8A140000 		.4byte	0x148a
 3680 0b4b 0A       		.uleb128 0xa
 3681 0b4c 01       		.uleb128 0x1
 3682 0b4d 50       		.byte	0x50
 3683 0b4e 01       		.uleb128 0x1
 3684 0b4f 3F       		.byte	0x3f
ARM GAS  C:\Users\Xwx47\AppData\Local\Temp\ccUdC8ee.s 			page 83


 3685 0b50 00       		.byte	0
 3686 0b51 00       		.byte	0
 3687 0b52 10       		.uleb128 0x10
 3688 0b53 460A0000 		.4byte	.LASF160
 3689 0b57 01       		.byte	0x1
 3690 0b58 0A02     		.2byte	0x20a
 3691 0b5a 00000000 		.4byte	.LFB64
 3692 0b5e 18000000 		.4byte	.LFE64-.LFB64
 3693 0b62 01       		.uleb128 0x1
 3694 0b63 9C       		.byte	0x9c
 3695 0b64 9F0B0000 		.4byte	0xb9f
 3696 0b68 11       		.uleb128 0x11
 3697 0b69 E60D0000 		.4byte	.LASF146
 3698 0b6d 01       		.byte	0x1
 3699 0b6e 0A02     		.2byte	0x20a
 3700 0b70 EE070000 		.4byte	0x7ee
 3701 0b74 9A040000 		.4byte	.LLST27
 3702 0b78 11       		.uleb128 0x11
 3703 0b79 A6090000 		.4byte	.LASF147
 3704 0b7d 01       		.byte	0x1
 3705 0b7e 0A02     		.2byte	0x20a
 3706 0b80 96000000 		.4byte	0x96
 3707 0b84 C6040000 		.4byte	.LLST28
 3708 0b88 0B       		.uleb128 0xb
 3709 0b89 16000000 		.4byte	.LVL106
 3710 0b8d 95140000 		.4byte	0x1495
 3711 0b91 0A       		.uleb128 0xa
 3712 0b92 01       		.uleb128 0x1
 3713 0b93 50       		.byte	0x50
 3714 0b94 01       		.uleb128 0x1
 3715 0b95 40       		.byte	0x40
 3716 0b96 0A       		.uleb128 0xa
 3717 0b97 01       		.uleb128 0x1
 3718 0b98 51       		.byte	0x51
 3719 0b99 03       		.uleb128 0x3
 3720 0b9a F3       		.byte	0xf3
 3721 0b9b 01       		.uleb128 0x1
 3722 0b9c 50       		.byte	0x50
 3723 0b9d 00       		.byte	0
 3724 0b9e 00       		.byte	0
 3725 0b9f 10       		.uleb128 0x10
 3726 0ba0 A5070000 		.4byte	.LASF161
 3727 0ba4 01       		.byte	0x1
 3728 0ba5 1D02     		.2byte	0x21d
 3729 0ba7 00000000 		.4byte	.LFB65
 3730 0bab 18000000 		.4byte	.LFE65-.LFB65
 3731 0baf 01       		.uleb128 0x1
 3732 0bb0 9C       		.byte	0x9c
 3733 0bb1 EC0B0000 		.4byte	0xbec
 3734 0bb5 11       		.uleb128 0x11
 3735 0bb6 E60D0000 		.4byte	.LASF146
 3736 0bba 01       		.byte	0x1
 3737 0bbb 1D02     		.2byte	0x21d
 3738 0bbd 46080000 		.4byte	0x846
 3739 0bc1 EF040000 		.4byte	.LLST29
 3740 0bc5 11       		.uleb128 0x11
 3741 0bc6 A6090000 		.4byte	.LASF147
ARM GAS  C:\Users\Xwx47\AppData\Local\Temp\ccUdC8ee.s 			page 84


 3742 0bca 01       		.byte	0x1
 3743 0bcb 1D02     		.2byte	0x21d
 3744 0bcd 96000000 		.4byte	0x96
 3745 0bd1 1B050000 		.4byte	.LLST30
 3746 0bd5 0B       		.uleb128 0xb
 3747 0bd6 16000000 		.4byte	.LVL111
 3748 0bda A0140000 		.4byte	0x14a0
 3749 0bde 0A       		.uleb128 0xa
 3750 0bdf 01       		.uleb128 0x1
 3751 0be0 50       		.byte	0x50
 3752 0be1 01       		.uleb128 0x1
 3753 0be2 40       		.byte	0x40
 3754 0be3 0A       		.uleb128 0xa
 3755 0be4 01       		.uleb128 0x1
 3756 0be5 51       		.byte	0x51
 3757 0be6 03       		.uleb128 0x3
 3758 0be7 F3       		.byte	0xf3
 3759 0be8 01       		.uleb128 0x1
 3760 0be9 50       		.byte	0x50
 3761 0bea 00       		.byte	0
 3762 0beb 00       		.byte	0
 3763 0bec 10       		.uleb128 0x10
 3764 0bed B70B0000 		.4byte	.LASF162
 3765 0bf1 01       		.byte	0x1
 3766 0bf2 3202     		.2byte	0x232
 3767 0bf4 00000000 		.4byte	.LFB66
 3768 0bf8 0E000000 		.4byte	.LFE66-.LFB66
 3769 0bfc 01       		.uleb128 0x1
 3770 0bfd 9C       		.byte	0x9c
 3771 0bfe 2C0C0000 		.4byte	0xc2c
 3772 0c02 11       		.uleb128 0x11
 3773 0c03 9A050000 		.4byte	.LASF139
 3774 0c07 01       		.byte	0x1
 3775 0c08 3202     		.2byte	0x232
 3776 0c0a 2C0C0000 		.4byte	0xc2c
 3777 0c0e 44050000 		.4byte	.LLST31
 3778 0c12 11       		.uleb128 0x11
 3779 0c13 A6090000 		.4byte	.LASF147
 3780 0c17 01       		.byte	0x1
 3781 0c18 3202     		.2byte	0x232
 3782 0c1a 76000000 		.4byte	0x76
 3783 0c1e 65050000 		.4byte	.LLST32
 3784 0c22 0E       		.uleb128 0xe
 3785 0c23 0C000000 		.4byte	.LVL114
 3786 0c27 69140000 		.4byte	0x1469
 3787 0c2b 00       		.byte	0
 3788 0c2c 0F       		.uleb128 0xf
 3789 0c2d C5010000 		.4byte	0x1c5
 3790 0c31 12       		.uleb128 0x12
 3791 0c32 270F0000 		.4byte	.LASF164
 3792 0c36 01       		.byte	0x1
 3793 0c37 4202     		.2byte	0x242
 3794 0c39 76000000 		.4byte	0x76
 3795 0c3d 00000000 		.4byte	.LFB67
 3796 0c41 08000000 		.4byte	.LFE67-.LFB67
 3797 0c45 01       		.uleb128 0x1
 3798 0c46 9C       		.byte	0x9c
ARM GAS  C:\Users\Xwx47\AppData\Local\Temp\ccUdC8ee.s 			page 85


 3799 0c47 650C0000 		.4byte	0xc65
 3800 0c4b 11       		.uleb128 0x11
 3801 0c4c 9A050000 		.4byte	.LASF139
 3802 0c50 01       		.byte	0x1
 3803 0c51 4202     		.2byte	0x242
 3804 0c53 2C0C0000 		.4byte	0xc2c
 3805 0c57 83050000 		.4byte	.LLST33
 3806 0c5b 0E       		.uleb128 0xe
 3807 0c5c 06000000 		.4byte	.LVL116
 3808 0c60 8A140000 		.4byte	0x148a
 3809 0c64 00       		.byte	0
 3810 0c65 10       		.uleb128 0x10
 3811 0c66 05060000 		.4byte	.LASF165
 3812 0c6a 01       		.byte	0x1
 3813 0c6b 5802     		.2byte	0x258
 3814 0c6d 00000000 		.4byte	.LFB69
 3815 0c71 26000000 		.4byte	.LFE69-.LFB69
 3816 0c75 01       		.uleb128 0x1
 3817 0c76 9C       		.byte	0x9c
 3818 0c77 EA0C0000 		.4byte	0xcea
 3819 0c7b 11       		.uleb128 0x11
 3820 0c7c 9A050000 		.4byte	.LASF139
 3821 0c80 01       		.byte	0x1
 3822 0c81 5802     		.2byte	0x258
 3823 0c83 AD060000 		.4byte	0x6ad
 3824 0c87 A4050000 		.4byte	.LLST34
 3825 0c8b 09       		.uleb128 0x9
 3826 0c8c 0C000000 		.4byte	.LVL119
 3827 0c90 7F140000 		.4byte	0x147f
 3828 0c94 A40C0000 		.4byte	0xca4
 3829 0c98 0A       		.uleb128 0xa
 3830 0c99 01       		.uleb128 0x1
 3831 0c9a 50       		.byte	0x50
 3832 0c9b 01       		.uleb128 0x1
 3833 0c9c 31       		.byte	0x31
 3834 0c9d 0A       		.uleb128 0xa
 3835 0c9e 01       		.uleb128 0x1
 3836 0c9f 51       		.byte	0x51
 3837 0ca0 02       		.uleb128 0x2
 3838 0ca1 74       		.byte	0x74
 3839 0ca2 00       		.sleb128 0
 3840 0ca3 00       		.byte	0
 3841 0ca4 09       		.uleb128 0x9
 3842 0ca5 14000000 		.4byte	.LVL120
 3843 0ca9 7F140000 		.4byte	0x147f
 3844 0cad BC0C0000 		.4byte	0xcbc
 3845 0cb1 0A       		.uleb128 0xa
 3846 0cb2 01       		.uleb128 0x1
 3847 0cb3 50       		.byte	0x50
 3848 0cb4 01       		.uleb128 0x1
 3849 0cb5 4D       		.byte	0x4d
 3850 0cb6 0A       		.uleb128 0xa
 3851 0cb7 01       		.uleb128 0x1
 3852 0cb8 51       		.byte	0x51
 3853 0cb9 01       		.uleb128 0x1
 3854 0cba 31       		.byte	0x31
 3855 0cbb 00       		.byte	0
ARM GAS  C:\Users\Xwx47\AppData\Local\Temp\ccUdC8ee.s 			page 86


 3856 0cbc 09       		.uleb128 0x9
 3857 0cbd 1C000000 		.4byte	.LVL121
 3858 0cc1 7F140000 		.4byte	0x147f
 3859 0cc5 D40C0000 		.4byte	0xcd4
 3860 0cc9 0A       		.uleb128 0xa
 3861 0cca 01       		.uleb128 0x1
 3862 0ccb 50       		.byte	0x50
 3863 0ccc 01       		.uleb128 0x1
 3864 0ccd 4D       		.byte	0x4d
 3865 0cce 0A       		.uleb128 0xa
 3866 0ccf 01       		.uleb128 0x1
 3867 0cd0 51       		.byte	0x51
 3868 0cd1 01       		.uleb128 0x1
 3869 0cd2 32       		.byte	0x32
 3870 0cd3 00       		.byte	0
 3871 0cd4 0B       		.uleb128 0xb
 3872 0cd5 24000000 		.4byte	.LVL122
 3873 0cd9 7F140000 		.4byte	0x147f
 3874 0cdd 0A       		.uleb128 0xa
 3875 0cde 01       		.uleb128 0x1
 3876 0cdf 50       		.byte	0x50
 3877 0ce0 01       		.uleb128 0x1
 3878 0ce1 4C       		.byte	0x4c
 3879 0ce2 0A       		.uleb128 0xa
 3880 0ce3 01       		.uleb128 0x1
 3881 0ce4 51       		.byte	0x51
 3882 0ce5 02       		.uleb128 0x2
 3883 0ce6 74       		.byte	0x74
 3884 0ce7 00       		.sleb128 0
 3885 0ce8 00       		.byte	0
 3886 0ce9 00       		.byte	0
 3887 0cea 10       		.uleb128 0x10
 3888 0ceb D0070000 		.4byte	.LASF166
 3889 0cef 01       		.byte	0x1
 3890 0cf0 6502     		.2byte	0x265
 3891 0cf2 00000000 		.4byte	.LFB70
 3892 0cf6 26000000 		.4byte	.LFE70-.LFB70
 3893 0cfa 01       		.uleb128 0x1
 3894 0cfb 9C       		.byte	0x9c
 3895 0cfc 6F0D0000 		.4byte	0xd6f
 3896 0d00 11       		.uleb128 0x11
 3897 0d01 9A050000 		.4byte	.LASF139
 3898 0d05 01       		.byte	0x1
 3899 0d06 6502     		.2byte	0x265
 3900 0d08 AD060000 		.4byte	0x6ad
 3901 0d0c C5050000 		.4byte	.LLST35
 3902 0d10 09       		.uleb128 0x9
 3903 0d11 0C000000 		.4byte	.LVL125
 3904 0d15 74140000 		.4byte	0x1474
 3905 0d19 290D0000 		.4byte	0xd29
 3906 0d1d 0A       		.uleb128 0xa
 3907 0d1e 01       		.uleb128 0x1
 3908 0d1f 50       		.byte	0x50
 3909 0d20 01       		.uleb128 0x1
 3910 0d21 31       		.byte	0x31
 3911 0d22 0A       		.uleb128 0xa
 3912 0d23 01       		.uleb128 0x1
ARM GAS  C:\Users\Xwx47\AppData\Local\Temp\ccUdC8ee.s 			page 87


 3913 0d24 51       		.byte	0x51
 3914 0d25 02       		.uleb128 0x2
 3915 0d26 74       		.byte	0x74
 3916 0d27 00       		.sleb128 0
 3917 0d28 00       		.byte	0
 3918 0d29 09       		.uleb128 0x9
 3919 0d2a 14000000 		.4byte	.LVL126
 3920 0d2e 74140000 		.4byte	0x1474
 3921 0d32 410D0000 		.4byte	0xd41
 3922 0d36 0A       		.uleb128 0xa
 3923 0d37 01       		.uleb128 0x1
 3924 0d38 50       		.byte	0x50
 3925 0d39 01       		.uleb128 0x1
 3926 0d3a 4D       		.byte	0x4d
 3927 0d3b 0A       		.uleb128 0xa
 3928 0d3c 01       		.uleb128 0x1
 3929 0d3d 51       		.byte	0x51
 3930 0d3e 01       		.uleb128 0x1
 3931 0d3f 31       		.byte	0x31
 3932 0d40 00       		.byte	0
 3933 0d41 09       		.uleb128 0x9
 3934 0d42 1C000000 		.4byte	.LVL127
 3935 0d46 74140000 		.4byte	0x1474
 3936 0d4a 590D0000 		.4byte	0xd59
 3937 0d4e 0A       		.uleb128 0xa
 3938 0d4f 01       		.uleb128 0x1
 3939 0d50 50       		.byte	0x50
 3940 0d51 01       		.uleb128 0x1
 3941 0d52 4D       		.byte	0x4d
 3942 0d53 0A       		.uleb128 0xa
 3943 0d54 01       		.uleb128 0x1
 3944 0d55 51       		.byte	0x51
 3945 0d56 01       		.uleb128 0x1
 3946 0d57 32       		.byte	0x32
 3947 0d58 00       		.byte	0
 3948 0d59 0B       		.uleb128 0xb
 3949 0d5a 24000000 		.4byte	.LVL128
 3950 0d5e 74140000 		.4byte	0x1474
 3951 0d62 0A       		.uleb128 0xa
 3952 0d63 01       		.uleb128 0x1
 3953 0d64 50       		.byte	0x50
 3954 0d65 01       		.uleb128 0x1
 3955 0d66 4C       		.byte	0x4c
 3956 0d67 0A       		.uleb128 0xa
 3957 0d68 01       		.uleb128 0x1
 3958 0d69 51       		.byte	0x51
 3959 0d6a 02       		.uleb128 0x2
 3960 0d6b 74       		.byte	0x74
 3961 0d6c 00       		.sleb128 0
 3962 0d6d 00       		.byte	0
 3963 0d6e 00       		.byte	0
 3964 0d6f 10       		.uleb128 0x10
 3965 0d70 9C0D0000 		.4byte	.LASF167
 3966 0d74 01       		.byte	0x1
 3967 0d75 7002     		.2byte	0x270
 3968 0d77 00000000 		.4byte	.LFB71
 3969 0d7b 0C000000 		.4byte	.LFE71-.LFB71
ARM GAS  C:\Users\Xwx47\AppData\Local\Temp\ccUdC8ee.s 			page 88


 3970 0d7f 01       		.uleb128 0x1
 3971 0d80 9C       		.byte	0x9c
 3972 0d81 9A0D0000 		.4byte	0xd9a
 3973 0d85 0B       		.uleb128 0xb
 3974 0d86 0A000000 		.4byte	.LVL129
 3975 0d8a 7F140000 		.4byte	0x147f
 3976 0d8e 0A       		.uleb128 0xa
 3977 0d8f 01       		.uleb128 0x1
 3978 0d90 50       		.byte	0x50
 3979 0d91 01       		.uleb128 0x1
 3980 0d92 4D       		.byte	0x4d
 3981 0d93 0A       		.uleb128 0xa
 3982 0d94 01       		.uleb128 0x1
 3983 0d95 51       		.byte	0x51
 3984 0d96 01       		.uleb128 0x1
 3985 0d97 32       		.byte	0x32
 3986 0d98 00       		.byte	0
 3987 0d99 00       		.byte	0
 3988 0d9a 10       		.uleb128 0x10
 3989 0d9b 87100000 		.4byte	.LASF168
 3990 0d9f 01       		.byte	0x1
 3991 0da0 7802     		.2byte	0x278
 3992 0da2 00000000 		.4byte	.LFB72
 3993 0da6 0C000000 		.4byte	.LFE72-.LFB72
 3994 0daa 01       		.uleb128 0x1
 3995 0dab 9C       		.byte	0x9c
 3996 0dac C50D0000 		.4byte	0xdc5
 3997 0db0 0B       		.uleb128 0xb
 3998 0db1 0A000000 		.4byte	.LVL130
 3999 0db5 74140000 		.4byte	0x1474
 4000 0db9 0A       		.uleb128 0xa
 4001 0dba 01       		.uleb128 0x1
 4002 0dbb 50       		.byte	0x50
 4003 0dbc 01       		.uleb128 0x1
 4004 0dbd 4D       		.byte	0x4d
 4005 0dbe 0A       		.uleb128 0xa
 4006 0dbf 01       		.uleb128 0x1
 4007 0dc0 51       		.byte	0x51
 4008 0dc1 01       		.uleb128 0x1
 4009 0dc2 32       		.byte	0x32
 4010 0dc3 00       		.byte	0
 4011 0dc4 00       		.byte	0
 4012 0dc5 10       		.uleb128 0x10
 4013 0dc6 000C0000 		.4byte	.LASF169
 4014 0dca 01       		.byte	0x1
 4015 0dcb 8002     		.2byte	0x280
 4016 0dcd 00000000 		.4byte	.LFB73
 4017 0dd1 0C000000 		.4byte	.LFE73-.LFB73
 4018 0dd5 01       		.uleb128 0x1
 4019 0dd6 9C       		.byte	0x9c
 4020 0dd7 F00D0000 		.4byte	0xdf0
 4021 0ddb 0B       		.uleb128 0xb
 4022 0ddc 0A000000 		.4byte	.LVL131
 4023 0de0 7F140000 		.4byte	0x147f
 4024 0de4 0A       		.uleb128 0xa
 4025 0de5 01       		.uleb128 0x1
 4026 0de6 50       		.byte	0x50
ARM GAS  C:\Users\Xwx47\AppData\Local\Temp\ccUdC8ee.s 			page 89


 4027 0de7 01       		.uleb128 0x1
 4028 0de8 4D       		.byte	0x4d
 4029 0de9 0A       		.uleb128 0xa
 4030 0dea 01       		.uleb128 0x1
 4031 0deb 51       		.byte	0x51
 4032 0dec 01       		.uleb128 0x1
 4033 0ded 31       		.byte	0x31
 4034 0dee 00       		.byte	0
 4035 0def 00       		.byte	0
 4036 0df0 10       		.uleb128 0x10
 4037 0df1 EB0D0000 		.4byte	.LASF170
 4038 0df5 01       		.byte	0x1
 4039 0df6 8802     		.2byte	0x288
 4040 0df8 00000000 		.4byte	.LFB74
 4041 0dfc 0C000000 		.4byte	.LFE74-.LFB74
 4042 0e00 01       		.uleb128 0x1
 4043 0e01 9C       		.byte	0x9c
 4044 0e02 1B0E0000 		.4byte	0xe1b
 4045 0e06 0B       		.uleb128 0xb
 4046 0e07 0A000000 		.4byte	.LVL132
 4047 0e0b 74140000 		.4byte	0x1474
 4048 0e0f 0A       		.uleb128 0xa
 4049 0e10 01       		.uleb128 0x1
 4050 0e11 50       		.byte	0x50
 4051 0e12 01       		.uleb128 0x1
 4052 0e13 4D       		.byte	0x4d
 4053 0e14 0A       		.uleb128 0xa
 4054 0e15 01       		.uleb128 0x1
 4055 0e16 51       		.byte	0x51
 4056 0e17 01       		.uleb128 0x1
 4057 0e18 31       		.byte	0x31
 4058 0e19 00       		.byte	0
 4059 0e1a 00       		.byte	0
 4060 0e1b 10       		.uleb128 0x10
 4061 0e1c 9F050000 		.4byte	.LASF171
 4062 0e20 01       		.byte	0x1
 4063 0e21 9002     		.2byte	0x290
 4064 0e23 00000000 		.4byte	.LFB75
 4065 0e27 0C000000 		.4byte	.LFE75-.LFB75
 4066 0e2b 01       		.uleb128 0x1
 4067 0e2c 9C       		.byte	0x9c
 4068 0e2d 460E0000 		.4byte	0xe46
 4069 0e31 0B       		.uleb128 0xb
 4070 0e32 0A000000 		.4byte	.LVL133
 4071 0e36 7F140000 		.4byte	0x147f
 4072 0e3a 0A       		.uleb128 0xa
 4073 0e3b 01       		.uleb128 0x1
 4074 0e3c 50       		.byte	0x50
 4075 0e3d 01       		.uleb128 0x1
 4076 0e3e 4D       		.byte	0x4d
 4077 0e3f 0A       		.uleb128 0xa
 4078 0e40 01       		.uleb128 0x1
 4079 0e41 51       		.byte	0x51
 4080 0e42 01       		.uleb128 0x1
 4081 0e43 30       		.byte	0x30
 4082 0e44 00       		.byte	0
 4083 0e45 00       		.byte	0
ARM GAS  C:\Users\Xwx47\AppData\Local\Temp\ccUdC8ee.s 			page 90


 4084 0e46 10       		.uleb128 0x10
 4085 0e47 E4050000 		.4byte	.LASF172
 4086 0e4b 01       		.byte	0x1
 4087 0e4c 9802     		.2byte	0x298
 4088 0e4e 00000000 		.4byte	.LFB76
 4089 0e52 0C000000 		.4byte	.LFE76-.LFB76
 4090 0e56 01       		.uleb128 0x1
 4091 0e57 9C       		.byte	0x9c
 4092 0e58 710E0000 		.4byte	0xe71
 4093 0e5c 0B       		.uleb128 0xb
 4094 0e5d 0A000000 		.4byte	.LVL134
 4095 0e61 74140000 		.4byte	0x1474
 4096 0e65 0A       		.uleb128 0xa
 4097 0e66 01       		.uleb128 0x1
 4098 0e67 50       		.byte	0x50
 4099 0e68 01       		.uleb128 0x1
 4100 0e69 4D       		.byte	0x4d
 4101 0e6a 0A       		.uleb128 0xa
 4102 0e6b 01       		.uleb128 0x1
 4103 0e6c 51       		.byte	0x51
 4104 0e6d 01       		.uleb128 0x1
 4105 0e6e 30       		.byte	0x30
 4106 0e6f 00       		.byte	0
 4107 0e70 00       		.byte	0
 4108 0e71 10       		.uleb128 0x10
 4109 0e72 3B070000 		.4byte	.LASF173
 4110 0e76 01       		.byte	0x1
 4111 0e77 A302     		.2byte	0x2a3
 4112 0e79 00000000 		.4byte	.LFB77
 4113 0e7d 16000000 		.4byte	.LFE77-.LFB77
 4114 0e81 01       		.uleb128 0x1
 4115 0e82 9C       		.byte	0x9c
 4116 0e83 BA0E0000 		.4byte	0xeba
 4117 0e87 11       		.uleb128 0x11
 4118 0e88 DD060000 		.4byte	.LASF174
 4119 0e8c 01       		.byte	0x1
 4120 0e8d A302     		.2byte	0x2a3
 4121 0e8f C10E0000 		.4byte	0xec1
 4122 0e93 E6050000 		.4byte	.LLST36
 4123 0e97 09       		.uleb128 0x9
 4124 0e98 0C000000 		.4byte	.LVL137
 4125 0e9c AB140000 		.4byte	0x14ab
 4126 0ea0 AA0E0000 		.4byte	0xeaa
 4127 0ea4 0A       		.uleb128 0xa
 4128 0ea5 01       		.uleb128 0x1
 4129 0ea6 50       		.byte	0x50
 4130 0ea7 01       		.uleb128 0x1
 4131 0ea8 31       		.byte	0x31
 4132 0ea9 00       		.byte	0
 4133 0eaa 0B       		.uleb128 0xb
 4134 0eab 14000000 		.4byte	.LVL140
 4135 0eaf AB140000 		.4byte	0x14ab
 4136 0eb3 0A       		.uleb128 0xa
 4137 0eb4 01       		.uleb128 0x1
 4138 0eb5 50       		.byte	0x50
 4139 0eb6 01       		.uleb128 0x1
 4140 0eb7 30       		.byte	0x30
ARM GAS  C:\Users\Xwx47\AppData\Local\Temp\ccUdC8ee.s 			page 91


 4141 0eb8 00       		.byte	0
 4142 0eb9 00       		.byte	0
 4143 0eba 02       		.uleb128 0x2
 4144 0ebb 01       		.byte	0x1
 4145 0ebc 02       		.byte	0x2
 4146 0ebd 830A0000 		.4byte	.LASF175
 4147 0ec1 0F       		.uleb128 0xf
 4148 0ec2 BA0E0000 		.4byte	0xeba
 4149 0ec6 08       		.uleb128 0x8
 4150 0ec7 40030000 		.4byte	.LASF176
 4151 0ecb 01       		.byte	0x1
 4152 0ecc C3       		.byte	0xc3
 4153 0ecd 00000000 		.4byte	.LFB43
 4154 0ed1 12000000 		.4byte	.LFE43-.LFB43
 4155 0ed5 01       		.uleb128 0x1
 4156 0ed6 9C       		.byte	0x9c
 4157 0ed7 030F0000 		.4byte	0xf03
 4158 0edb 09       		.uleb128 0x9
 4159 0edc 08000000 		.4byte	.LVL141
 4160 0ee0 710E0000 		.4byte	0xe71
 4161 0ee4 EE0E0000 		.4byte	0xeee
 4162 0ee8 0A       		.uleb128 0xa
 4163 0ee9 01       		.uleb128 0x1
 4164 0eea 50       		.byte	0x50
 4165 0eeb 01       		.uleb128 0x1
 4166 0eec 30       		.byte	0x30
 4167 0eed 00       		.byte	0
 4168 0eee 0B       		.uleb128 0xb
 4169 0eef 10000000 		.4byte	.LVL142
 4170 0ef3 74140000 		.4byte	0x1474
 4171 0ef7 0A       		.uleb128 0xa
 4172 0ef8 01       		.uleb128 0x1
 4173 0ef9 50       		.byte	0x50
 4174 0efa 01       		.uleb128 0x1
 4175 0efb 30       		.byte	0x30
 4176 0efc 0A       		.uleb128 0xa
 4177 0efd 01       		.uleb128 0x1
 4178 0efe 51       		.byte	0x51
 4179 0eff 01       		.uleb128 0x1
 4180 0f00 31       		.byte	0x31
 4181 0f01 00       		.byte	0
 4182 0f02 00       		.byte	0
 4183 0f03 08       		.uleb128 0x8
 4184 0f04 4F0F0000 		.4byte	.LASF177
 4185 0f08 01       		.byte	0x1
 4186 0f09 D2       		.byte	0xd2
 4187 0f0a 00000000 		.4byte	.LFB44
 4188 0f0e 12000000 		.4byte	.LFE44-.LFB44
 4189 0f12 01       		.uleb128 0x1
 4190 0f13 9C       		.byte	0x9c
 4191 0f14 400F0000 		.4byte	0xf40
 4192 0f18 09       		.uleb128 0x9
 4193 0f19 08000000 		.4byte	.LVL143
 4194 0f1d 710E0000 		.4byte	0xe71
 4195 0f21 2B0F0000 		.4byte	0xf2b
 4196 0f25 0A       		.uleb128 0xa
 4197 0f26 01       		.uleb128 0x1
ARM GAS  C:\Users\Xwx47\AppData\Local\Temp\ccUdC8ee.s 			page 92


 4198 0f27 50       		.byte	0x50
 4199 0f28 01       		.uleb128 0x1
 4200 0f29 31       		.byte	0x31
 4201 0f2a 00       		.byte	0
 4202 0f2b 0B       		.uleb128 0xb
 4203 0f2c 10000000 		.4byte	.LVL144
 4204 0f30 7F140000 		.4byte	0x147f
 4205 0f34 0A       		.uleb128 0xa
 4206 0f35 01       		.uleb128 0x1
 4207 0f36 50       		.byte	0x50
 4208 0f37 01       		.uleb128 0x1
 4209 0f38 30       		.byte	0x30
 4210 0f39 0A       		.uleb128 0xa
 4211 0f3a 01       		.uleb128 0x1
 4212 0f3b 51       		.byte	0x51
 4213 0f3c 01       		.uleb128 0x1
 4214 0f3d 31       		.byte	0x31
 4215 0f3e 00       		.byte	0
 4216 0f3f 00       		.byte	0
 4217 0f40 10       		.uleb128 0x10
 4218 0f41 C4020000 		.4byte	.LASF178
 4219 0f45 01       		.byte	0x1
 4220 0f46 B302     		.2byte	0x2b3
 4221 0f48 00000000 		.4byte	.LFB78
 4222 0f4c 0A000000 		.4byte	.LFE78-.LFB78
 4223 0f50 01       		.uleb128 0x1
 4224 0f51 9C       		.byte	0x9c
 4225 0f52 660F0000 		.4byte	0xf66
 4226 0f56 0B       		.uleb128 0xb
 4227 0f57 08000000 		.4byte	.LVL145
 4228 0f5b 710E0000 		.4byte	0xe71
 4229 0f5f 0A       		.uleb128 0xa
 4230 0f60 01       		.uleb128 0x1
 4231 0f61 50       		.byte	0x50
 4232 0f62 01       		.uleb128 0x1
 4233 0f63 31       		.byte	0x31
 4234 0f64 00       		.byte	0
 4235 0f65 00       		.byte	0
 4236 0f66 10       		.uleb128 0x10
 4237 0f67 8A0E0000 		.4byte	.LASF179
 4238 0f6b 01       		.byte	0x1
 4239 0f6c BD02     		.2byte	0x2bd
 4240 0f6e 00000000 		.4byte	.LFB79
 4241 0f72 0A000000 		.4byte	.LFE79-.LFB79
 4242 0f76 01       		.uleb128 0x1
 4243 0f77 9C       		.byte	0x9c
 4244 0f78 8C0F0000 		.4byte	0xf8c
 4245 0f7c 0B       		.uleb128 0xb
 4246 0f7d 08000000 		.4byte	.LVL146
 4247 0f81 710E0000 		.4byte	0xe71
 4248 0f85 0A       		.uleb128 0xa
 4249 0f86 01       		.uleb128 0x1
 4250 0f87 50       		.byte	0x50
 4251 0f88 01       		.uleb128 0x1
 4252 0f89 30       		.byte	0x30
 4253 0f8a 00       		.byte	0
 4254 0f8b 00       		.byte	0
ARM GAS  C:\Users\Xwx47\AppData\Local\Temp\ccUdC8ee.s 			page 93


 4255 0f8c 10       		.uleb128 0x10
 4256 0f8d 08090000 		.4byte	.LASF180
 4257 0f91 01       		.byte	0x1
 4258 0f92 C702     		.2byte	0x2c7
 4259 0f94 00000000 		.4byte	.LFB80
 4260 0f98 16000000 		.4byte	.LFE80-.LFB80
 4261 0f9c 01       		.uleb128 0x1
 4262 0f9d 9C       		.byte	0x9c
 4263 0f9e D80F0000 		.4byte	0xfd8
 4264 0fa2 09       		.uleb128 0x9
 4265 0fa3 08000000 		.4byte	.LVL147
 4266 0fa7 AB140000 		.4byte	0x14ab
 4267 0fab B50F0000 		.4byte	0xfb5
 4268 0faf 0A       		.uleb128 0xa
 4269 0fb0 01       		.uleb128 0x1
 4270 0fb1 50       		.byte	0x50
 4271 0fb2 01       		.uleb128 0x1
 4272 0fb3 31       		.byte	0x31
 4273 0fb4 00       		.byte	0
 4274 0fb5 09       		.uleb128 0x9
 4275 0fb6 0E000000 		.4byte	.LVL148
 4276 0fba B6140000 		.4byte	0x14b6
 4277 0fbe C80F0000 		.4byte	0xfc8
 4278 0fc2 0A       		.uleb128 0xa
 4279 0fc3 01       		.uleb128 0x1
 4280 0fc4 50       		.byte	0x50
 4281 0fc5 01       		.uleb128 0x1
 4282 0fc6 3F       		.byte	0x3f
 4283 0fc7 00       		.byte	0
 4284 0fc8 0B       		.uleb128 0xb
 4285 0fc9 14000000 		.4byte	.LVL149
 4286 0fcd AB140000 		.4byte	0x14ab
 4287 0fd1 0A       		.uleb128 0xa
 4288 0fd2 01       		.uleb128 0x1
 4289 0fd3 50       		.byte	0x50
 4290 0fd4 01       		.uleb128 0x1
 4291 0fd5 30       		.byte	0x30
 4292 0fd6 00       		.byte	0
 4293 0fd7 00       		.byte	0
 4294 0fd8 10       		.uleb128 0x10
 4295 0fd9 96000000 		.4byte	.LASF181
 4296 0fdd 01       		.byte	0x1
 4297 0fde 4D02     		.2byte	0x24d
 4298 0fe0 00000000 		.4byte	.LFB68
 4299 0fe4 0C000000 		.4byte	.LFE68-.LFB68
 4300 0fe8 01       		.uleb128 0x1
 4301 0fe9 9C       		.byte	0x9c
 4302 0fea 01100000 		.4byte	0x1001
 4303 0fee 0E       		.uleb128 0xe
 4304 0fef 06000000 		.4byte	.LVL150
 4305 0ff3 C1140000 		.4byte	0x14c1
 4306 0ff7 0E       		.uleb128 0xe
 4307 0ff8 0A000000 		.4byte	.LVL151
 4308 0ffc 8C0F0000 		.4byte	0xf8c
 4309 1000 00       		.byte	0
 4310 1001 12       		.uleb128 0x12
 4311 1002 BF050000 		.4byte	.LASF182
ARM GAS  C:\Users\Xwx47\AppData\Local\Temp\ccUdC8ee.s 			page 94


 4312 1006 01       		.byte	0x1
 4313 1007 D902     		.2byte	0x2d9
 4314 1009 76000000 		.4byte	0x76
 4315 100d 00000000 		.4byte	.LFB81
 4316 1011 08000000 		.4byte	.LFE81-.LFB81
 4317 1015 01       		.uleb128 0x1
 4318 1016 9C       		.byte	0x9c
 4319 1017 25100000 		.4byte	0x1025
 4320 101b 0E       		.uleb128 0xe
 4321 101c 06000000 		.4byte	.LVL152
 4322 1020 CC140000 		.4byte	0x14cc
 4323 1024 00       		.byte	0
 4324 1025 12       		.uleb128 0x12
 4325 1026 80040000 		.4byte	.LASF183
 4326 102a 01       		.byte	0x1
 4327 102b E302     		.2byte	0x2e3
 4328 102d 76000000 		.4byte	0x76
 4329 1031 00000000 		.4byte	.LFB82
 4330 1035 0E000000 		.4byte	.LFE82-.LFB82
 4331 1039 01       		.uleb128 0x1
 4332 103a 9C       		.byte	0x9c
 4333 103b 5F100000 		.4byte	0x105f
 4334 103f 13       		.uleb128 0x13
 4335 1040 62040000 		.4byte	.LASF184
 4336 1044 01       		.byte	0x1
 4337 1045 E502     		.2byte	0x2e5
 4338 1047 76000000 		.4byte	0x76
 4339 104b 20060000 		.4byte	.LLST37
 4340 104f 0B       		.uleb128 0xb
 4341 1050 08000000 		.4byte	.LVL153
 4342 1054 8A140000 		.4byte	0x148a
 4343 1058 0A       		.uleb128 0xa
 4344 1059 01       		.uleb128 0x1
 4345 105a 50       		.byte	0x50
 4346 105b 01       		.uleb128 0x1
 4347 105c 38       		.byte	0x38
 4348 105d 00       		.byte	0
 4349 105e 00       		.byte	0
 4350 105f 12       		.uleb128 0x12
 4351 1060 86020000 		.4byte	.LASF185
 4352 1064 01       		.byte	0x1
 4353 1065 EE02     		.2byte	0x2ee
 4354 1067 76000000 		.4byte	0x76
 4355 106b 00000000 		.4byte	.LFB83
 4356 106f 0E000000 		.4byte	.LFE83-.LFB83
 4357 1073 01       		.uleb128 0x1
 4358 1074 9C       		.byte	0x9c
 4359 1075 99100000 		.4byte	0x1099
 4360 1079 13       		.uleb128 0x13
 4361 107a 1B0F0000 		.4byte	.LASF186
 4362 107e 01       		.byte	0x1
 4363 107f F002     		.2byte	0x2f0
 4364 1081 76000000 		.4byte	0x76
 4365 1085 33060000 		.4byte	.LLST38
 4366 1089 0B       		.uleb128 0xb
 4367 108a 08000000 		.4byte	.LVL155
 4368 108e 8A140000 		.4byte	0x148a
ARM GAS  C:\Users\Xwx47\AppData\Local\Temp\ccUdC8ee.s 			page 95


 4369 1092 0A       		.uleb128 0xa
 4370 1093 01       		.uleb128 0x1
 4371 1094 50       		.byte	0x50
 4372 1095 01       		.uleb128 0x1
 4373 1096 38       		.byte	0x38
 4374 1097 00       		.byte	0
 4375 1098 00       		.byte	0
 4376 1099 10       		.uleb128 0x10
 4377 109a 88050000 		.4byte	.LASF187
 4378 109e 01       		.byte	0x1
 4379 109f FB02     		.2byte	0x2fb
 4380 10a1 00000000 		.4byte	.LFB84
 4381 10a5 12000000 		.4byte	.LFE84-.LFB84
 4382 10a9 01       		.uleb128 0x1
 4383 10aa 9C       		.byte	0x9c
 4384 10ab D9100000 		.4byte	0x10d9
 4385 10af 11       		.uleb128 0x11
 4386 10b0 CB070000 		.4byte	.LASF188
 4387 10b4 01       		.byte	0x1
 4388 10b5 FB02     		.2byte	0x2fb
 4389 10b7 EE070000 		.4byte	0x7ee
 4390 10bb 4B060000 		.4byte	.LLST39
 4391 10bf 11       		.uleb128 0x11
 4392 10c0 A6090000 		.4byte	.LASF147
 4393 10c4 01       		.byte	0x1
 4394 10c5 FB02     		.2byte	0x2fb
 4395 10c7 96000000 		.4byte	0x96
 4396 10cb 6C060000 		.4byte	.LLST40
 4397 10cf 0E       		.uleb128 0xe
 4398 10d0 10000000 		.4byte	.LVL159
 4399 10d4 D7140000 		.4byte	0x14d7
 4400 10d8 00       		.byte	0
 4401 10d9 10       		.uleb128 0x10
 4402 10da 340E0000 		.4byte	.LASF189
 4403 10de 01       		.byte	0x1
 4404 10df 0E03     		.2byte	0x30e
 4405 10e1 00000000 		.4byte	.LFB85
 4406 10e5 16000000 		.4byte	.LFE85-.LFB85
 4407 10e9 01       		.uleb128 0x1
 4408 10ea 9C       		.byte	0x9c
 4409 10eb 22110000 		.4byte	0x1122
 4410 10ef 11       		.uleb128 0x11
 4411 10f0 CB070000 		.4byte	.LASF188
 4412 10f4 01       		.byte	0x1
 4413 10f5 0E03     		.2byte	0x30e
 4414 10f7 EE070000 		.4byte	0x7ee
 4415 10fb 8A060000 		.4byte	.LLST41
 4416 10ff 11       		.uleb128 0x11
 4417 1100 A6090000 		.4byte	.LASF147
 4418 1104 01       		.byte	0x1
 4419 1105 0E03     		.2byte	0x30e
 4420 1107 96000000 		.4byte	0x96
 4421 110b AB060000 		.4byte	.LLST42
 4422 110f 0E       		.uleb128 0xe
 4423 1110 10000000 		.4byte	.LVL162
 4424 1114 99100000 		.4byte	0x1099
 4425 1118 0E       		.uleb128 0xe
ARM GAS  C:\Users\Xwx47\AppData\Local\Temp\ccUdC8ee.s 			page 96


 4426 1119 14000000 		.4byte	.LVL163
 4427 111d 8C0F0000 		.4byte	0xf8c
 4428 1121 00       		.byte	0
 4429 1122 12       		.uleb128 0x12
 4430 1123 CC0B0000 		.4byte	.LASF190
 4431 1127 01       		.byte	0x1
 4432 1128 2103     		.2byte	0x321
 4433 112a BA0E0000 		.4byte	0xeba
 4434 112e 00000000 		.4byte	.LFB86
 4435 1132 0E000000 		.4byte	.LFE86-.LFB86
 4436 1136 01       		.uleb128 0x1
 4437 1137 9C       		.byte	0x9c
 4438 1138 46110000 		.4byte	0x1146
 4439 113c 0E       		.uleb128 0xe
 4440 113d 06000000 		.4byte	.LVL164
 4441 1141 01100000 		.4byte	0x1001
 4442 1145 00       		.byte	0
 4443 1146 10       		.uleb128 0x10
 4444 1147 28070000 		.4byte	.LASF191
 4445 114b 01       		.byte	0x1
 4446 114c 2C03     		.2byte	0x32c
 4447 114e 00000000 		.4byte	.LFB87
 4448 1152 20000000 		.4byte	.LFE87-.LFB87
 4449 1156 01       		.uleb128 0x1
 4450 1157 9C       		.byte	0x9c
 4451 1158 B9110000 		.4byte	0x11b9
 4452 115c 11       		.uleb128 0x11
 4453 115d CB070000 		.4byte	.LASF188
 4454 1161 01       		.byte	0x1
 4455 1162 2C03     		.2byte	0x32c
 4456 1164 46080000 		.4byte	0x846
 4457 1168 C9060000 		.4byte	.LLST43
 4458 116c 11       		.uleb128 0x11
 4459 116d A6090000 		.4byte	.LASF147
 4460 1171 01       		.byte	0x1
 4461 1172 2C03     		.2byte	0x32c
 4462 1174 B9110000 		.4byte	0x11b9
 4463 1178 F5060000 		.4byte	.LLST44
 4464 117c 09       		.uleb128 0x9
 4465 117d 10000000 		.4byte	.LVL167
 4466 1181 AB140000 		.4byte	0x14ab
 4467 1185 8F110000 		.4byte	0x118f
 4468 1189 0A       		.uleb128 0xa
 4469 118a 01       		.uleb128 0x1
 4470 118b 50       		.byte	0x50
 4471 118c 01       		.uleb128 0x1
 4472 118d 30       		.byte	0x30
 4473 118e 00       		.byte	0
 4474 118f 09       		.uleb128 0x9
 4475 1190 18000000 		.4byte	.LVL168
 4476 1194 E2140000 		.4byte	0x14e2
 4477 1198 A9110000 		.4byte	0x11a9
 4478 119c 0A       		.uleb128 0xa
 4479 119d 01       		.uleb128 0x1
 4480 119e 50       		.byte	0x50
 4481 119f 02       		.uleb128 0x2
 4482 11a0 74       		.byte	0x74
ARM GAS  C:\Users\Xwx47\AppData\Local\Temp\ccUdC8ee.s 			page 97


 4483 11a1 00       		.sleb128 0
 4484 11a2 0A       		.uleb128 0xa
 4485 11a3 01       		.uleb128 0x1
 4486 11a4 51       		.byte	0x51
 4487 11a5 02       		.uleb128 0x2
 4488 11a6 75       		.byte	0x75
 4489 11a7 00       		.sleb128 0
 4490 11a8 00       		.byte	0
 4491 11a9 0B       		.uleb128 0xb
 4492 11aa 1E000000 		.4byte	.LVL169
 4493 11ae AB140000 		.4byte	0x14ab
 4494 11b2 0A       		.uleb128 0xa
 4495 11b3 01       		.uleb128 0x1
 4496 11b4 50       		.byte	0x50
 4497 11b5 01       		.uleb128 0x1
 4498 11b6 31       		.byte	0x31
 4499 11b7 00       		.byte	0
 4500 11b8 00       		.byte	0
 4501 11b9 0F       		.uleb128 0xf
 4502 11ba 96000000 		.4byte	0x96
 4503 11be 10       		.uleb128 0x10
 4504 11bf 6B0D0000 		.4byte	.LASF192
 4505 11c3 01       		.byte	0x1
 4506 11c4 4203     		.2byte	0x342
 4507 11c6 00000000 		.4byte	.LFB88
 4508 11ca 14000000 		.4byte	.LFE88-.LFB88
 4509 11ce 01       		.uleb128 0x1
 4510 11cf 9C       		.byte	0x9c
 4511 11d0 1A120000 		.4byte	0x121a
 4512 11d4 11       		.uleb128 0x11
 4513 11d5 CB070000 		.4byte	.LASF188
 4514 11d9 01       		.byte	0x1
 4515 11da 4203     		.2byte	0x342
 4516 11dc EE070000 		.4byte	0x7ee
 4517 11e0 21070000 		.4byte	.LLST45
 4518 11e4 11       		.uleb128 0x11
 4519 11e5 A6090000 		.4byte	.LASF147
 4520 11e9 01       		.byte	0x1
 4521 11ea 4203     		.2byte	0x342
 4522 11ec 96000000 		.4byte	0x96
 4523 11f0 42070000 		.4byte	.LLST46
 4524 11f4 09       		.uleb128 0x9
 4525 11f5 0E000000 		.4byte	.LVL173
 4526 11f9 ED140000 		.4byte	0x14ed
 4527 11fd 10120000 		.4byte	0x1210
 4528 1201 0A       		.uleb128 0xa
 4529 1202 01       		.uleb128 0x1
 4530 1203 50       		.byte	0x50
 4531 1204 03       		.uleb128 0x3
 4532 1205 F3       		.byte	0xf3
 4533 1206 01       		.uleb128 0x1
 4534 1207 50       		.byte	0x50
 4535 1208 0A       		.uleb128 0xa
 4536 1209 01       		.uleb128 0x1
 4537 120a 51       		.byte	0x51
 4538 120b 03       		.uleb128 0x3
 4539 120c F3       		.byte	0xf3
ARM GAS  C:\Users\Xwx47\AppData\Local\Temp\ccUdC8ee.s 			page 98


 4540 120d 01       		.uleb128 0x1
 4541 120e 51       		.byte	0x51
 4542 120f 00       		.byte	0
 4543 1210 0E       		.uleb128 0xe
 4544 1211 12000000 		.4byte	.LVL174
 4545 1215 8C0F0000 		.4byte	0xf8c
 4546 1219 00       		.byte	0
 4547 121a 10       		.uleb128 0x10
 4548 121b EB010000 		.4byte	.LASF193
 4549 121f 01       		.byte	0x1
 4550 1220 5703     		.2byte	0x357
 4551 1222 00000000 		.4byte	.LFB89
 4552 1226 12000000 		.4byte	.LFE89-.LFB89
 4553 122a 01       		.uleb128 0x1
 4554 122b 9C       		.byte	0x9c
 4555 122c 6A120000 		.4byte	0x126a
 4556 1230 11       		.uleb128 0x11
 4557 1231 9A050000 		.4byte	.LASF139
 4558 1235 01       		.byte	0x1
 4559 1236 5703     		.2byte	0x357
 4560 1238 AD060000 		.4byte	0x6ad
 4561 123c 63070000 		.4byte	.LLST47
 4562 1240 11       		.uleb128 0x11
 4563 1241 CB070000 		.4byte	.LASF188
 4564 1245 01       		.byte	0x1
 4565 1246 5703     		.2byte	0x357
 4566 1248 EE070000 		.4byte	0x7ee
 4567 124c 84070000 		.4byte	.LLST48
 4568 1250 11       		.uleb128 0x11
 4569 1251 A6090000 		.4byte	.LASF147
 4570 1255 01       		.byte	0x1
 4571 1256 5803     		.2byte	0x358
 4572 1258 96000000 		.4byte	0x96
 4573 125c A5070000 		.4byte	.LLST49
 4574 1260 0E       		.uleb128 0xe
 4575 1261 10000000 		.4byte	.LVL177
 4576 1265 F8140000 		.4byte	0x14f8
 4577 1269 00       		.byte	0
 4578 126a 12       		.uleb128 0x12
 4579 126b 58060000 		.4byte	.LASF194
 4580 126f 01       		.byte	0x1
 4581 1270 6A03     		.2byte	0x36a
 4582 1272 76000000 		.4byte	0x76
 4583 1276 00000000 		.4byte	.LFB90
 4584 127a 10000000 		.4byte	.LFE90-.LFB90
 4585 127e 01       		.uleb128 0x1
 4586 127f 9C       		.byte	0x9c
 4587 1280 A4120000 		.4byte	0x12a4
 4588 1284 13       		.uleb128 0x13
 4589 1285 9A050000 		.4byte	.LASF139
 4590 1289 01       		.byte	0x1
 4591 128a 6C03     		.2byte	0x36c
 4592 128c 76000000 		.4byte	0x76
 4593 1290 C3070000 		.4byte	.LLST50
 4594 1294 0B       		.uleb128 0xb
 4595 1295 08000000 		.4byte	.LVL178
 4596 1299 8A140000 		.4byte	0x148a
ARM GAS  C:\Users\Xwx47\AppData\Local\Temp\ccUdC8ee.s 			page 99


 4597 129d 0A       		.uleb128 0xa
 4598 129e 01       		.uleb128 0x1
 4599 129f 50       		.byte	0x50
 4600 12a0 01       		.uleb128 0x1
 4601 12a1 37       		.byte	0x37
 4602 12a2 00       		.byte	0
 4603 12a3 00       		.byte	0
 4604 12a4 12       		.uleb128 0x12
 4605 12a5 660F0000 		.4byte	.LASF195
 4606 12a9 01       		.byte	0x1
 4607 12aa 7503     		.2byte	0x375
 4608 12ac 76000000 		.4byte	0x76
 4609 12b0 00000000 		.4byte	.LFB91
 4610 12b4 0C000000 		.4byte	.LFE91-.LFB91
 4611 12b8 01       		.uleb128 0x1
 4612 12b9 9C       		.byte	0x9c
 4613 12ba D3120000 		.4byte	0x12d3
 4614 12be 0B       		.uleb128 0xb
 4615 12bf 0A000000 		.4byte	.LVL180
 4616 12c3 03150000 		.4byte	0x1503
 4617 12c7 0A       		.uleb128 0xa
 4618 12c8 01       		.uleb128 0x1
 4619 12c9 50       		.byte	0x50
 4620 12ca 01       		.uleb128 0x1
 4621 12cb 39       		.byte	0x39
 4622 12cc 0A       		.uleb128 0xa
 4623 12cd 01       		.uleb128 0x1
 4624 12ce 51       		.byte	0x51
 4625 12cf 01       		.uleb128 0x1
 4626 12d0 30       		.byte	0x30
 4627 12d1 00       		.byte	0
 4628 12d2 00       		.byte	0
 4629 12d3 12       		.uleb128 0x12
 4630 12d4 3F050000 		.4byte	.LASF196
 4631 12d8 01       		.byte	0x1
 4632 12d9 7E03     		.2byte	0x37e
 4633 12db BA0E0000 		.4byte	0xeba
 4634 12df 00000000 		.4byte	.LFB92
 4635 12e3 0C000000 		.4byte	.LFE92-.LFB92
 4636 12e7 01       		.uleb128 0x1
 4637 12e8 9C       		.byte	0x9c
 4638 12e9 02130000 		.4byte	0x1302
 4639 12ed 0B       		.uleb128 0xb
 4640 12ee 0A000000 		.4byte	.LVL181
 4641 12f2 03150000 		.4byte	0x1503
 4642 12f6 0A       		.uleb128 0xa
 4643 12f7 01       		.uleb128 0x1
 4644 12f8 50       		.byte	0x50
 4645 12f9 01       		.uleb128 0x1
 4646 12fa 47       		.byte	0x47
 4647 12fb 0A       		.uleb128 0xa
 4648 12fc 01       		.uleb128 0x1
 4649 12fd 51       		.byte	0x51
 4650 12fe 01       		.uleb128 0x1
 4651 12ff 35       		.byte	0x35
 4652 1300 00       		.byte	0
 4653 1301 00       		.byte	0
ARM GAS  C:\Users\Xwx47\AppData\Local\Temp\ccUdC8ee.s 			page 100


 4654 1302 12       		.uleb128 0x12
 4655 1303 760E0000 		.4byte	.LASF197
 4656 1307 01       		.byte	0x1
 4657 1308 8603     		.2byte	0x386
 4658 130a BA0E0000 		.4byte	0xeba
 4659 130e 00000000 		.4byte	.LFB93
 4660 1312 0C000000 		.4byte	.LFE93-.LFB93
 4661 1316 01       		.uleb128 0x1
 4662 1317 9C       		.byte	0x9c
 4663 1318 31130000 		.4byte	0x1331
 4664 131c 0B       		.uleb128 0xb
 4665 131d 0A000000 		.4byte	.LVL182
 4666 1321 03150000 		.4byte	0x1503
 4667 1325 0A       		.uleb128 0xa
 4668 1326 01       		.uleb128 0x1
 4669 1327 50       		.byte	0x50
 4670 1328 01       		.uleb128 0x1
 4671 1329 47       		.byte	0x47
 4672 132a 0A       		.uleb128 0xa
 4673 132b 01       		.uleb128 0x1
 4674 132c 51       		.byte	0x51
 4675 132d 01       		.uleb128 0x1
 4676 132e 30       		.byte	0x30
 4677 132f 00       		.byte	0
 4678 1330 00       		.byte	0
 4679 1331 10       		.uleb128 0x10
 4680 1332 F4070000 		.4byte	.LASF198
 4681 1336 01       		.byte	0x1
 4682 1337 8F03     		.2byte	0x38f
 4683 1339 00000000 		.4byte	.LFB94
 4684 133d 0C000000 		.4byte	.LFE94-.LFB94
 4685 1341 01       		.uleb128 0x1
 4686 1342 9C       		.byte	0x9c
 4687 1343 5D130000 		.4byte	0x135d
 4688 1347 0B       		.uleb128 0xb
 4689 1348 0A000000 		.4byte	.LVL183
 4690 134c 69140000 		.4byte	0x1469
 4691 1350 0A       		.uleb128 0xa
 4692 1351 01       		.uleb128 0x1
 4693 1352 50       		.byte	0x50
 4694 1353 01       		.uleb128 0x1
 4695 1354 37       		.byte	0x37
 4696 1355 0A       		.uleb128 0xa
 4697 1356 01       		.uleb128 0x1
 4698 1357 51       		.byte	0x51
 4699 1358 02       		.uleb128 0x2
 4700 1359 08       		.byte	0x8
 4701 135a 70       		.byte	0x70
 4702 135b 00       		.byte	0
 4703 135c 00       		.byte	0
 4704 135d 08       		.uleb128 0x8
 4705 135e 08070000 		.4byte	.LASF199
 4706 1362 01       		.byte	0x1
 4707 1363 22       		.byte	0x22
 4708 1364 00000000 		.4byte	.LFB33
 4709 1368 30000000 		.4byte	.LFE33-.LFB33
 4710 136c 01       		.uleb128 0x1
ARM GAS  C:\Users\Xwx47\AppData\Local\Temp\ccUdC8ee.s 			page 101


 4711 136d 9C       		.byte	0x9c
 4712 136e EA130000 		.4byte	0x13ea
 4713 1372 09       		.uleb128 0x9
 4714 1373 08000000 		.4byte	.LVL184
 4715 1377 0E150000 		.4byte	0x150e
 4716 137b 86130000 		.4byte	0x1386
 4717 137f 0A       		.uleb128 0xa
 4718 1380 01       		.uleb128 0x1
 4719 1381 50       		.byte	0x50
 4720 1382 02       		.uleb128 0x2
 4721 1383 08       		.byte	0x8
 4722 1384 64       		.byte	0x64
 4723 1385 00       		.byte	0
 4724 1386 09       		.uleb128 0x9
 4725 1387 0E000000 		.4byte	.LVL185
 4726 138b AB140000 		.4byte	0x14ab
 4727 138f 99130000 		.4byte	0x1399
 4728 1393 0A       		.uleb128 0xa
 4729 1394 01       		.uleb128 0x1
 4730 1395 50       		.byte	0x50
 4731 1396 01       		.uleb128 0x1
 4732 1397 30       		.byte	0x30
 4733 1398 00       		.byte	0
 4734 1399 09       		.uleb128 0x9
 4735 139a 14000000 		.4byte	.LVL186
 4736 139e 19150000 		.4byte	0x1519
 4737 13a2 AC130000 		.4byte	0x13ac
 4738 13a6 0A       		.uleb128 0xa
 4739 13a7 01       		.uleb128 0x1
 4740 13a8 50       		.byte	0x50
 4741 13a9 01       		.uleb128 0x1
 4742 13aa 31       		.byte	0x31
 4743 13ab 00       		.byte	0
 4744 13ac 0E       		.uleb128 0xe
 4745 13ad 18000000 		.4byte	.LVL187
 4746 13b1 24150000 		.4byte	0x1524
 4747 13b5 0E       		.uleb128 0xe
 4748 13b6 1C000000 		.4byte	.LVL188
 4749 13ba 2F150000 		.4byte	0x152f
 4750 13be 0E       		.uleb128 0xe
 4751 13bf 20000000 		.4byte	.LVL189
 4752 13c3 3A150000 		.4byte	0x153a
 4753 13c7 0E       		.uleb128 0xe
 4754 13c8 24000000 		.4byte	.LVL190
 4755 13cc 31130000 		.4byte	0x1331
 4756 13d0 0E       		.uleb128 0xe
 4757 13d1 28000000 		.4byte	.LVL191
 4758 13d5 54040000 		.4byte	0x454
 4759 13d9 0B       		.uleb128 0xb
 4760 13da 2E000000 		.4byte	.LVL192
 4761 13de B6140000 		.4byte	0x14b6
 4762 13e2 0A       		.uleb128 0xa
 4763 13e3 01       		.uleb128 0x1
 4764 13e4 50       		.byte	0x50
 4765 13e5 02       		.uleb128 0x2
 4766 13e6 08       		.byte	0x8
 4767 13e7 96       		.byte	0x96
ARM GAS  C:\Users\Xwx47\AppData\Local\Temp\ccUdC8ee.s 			page 102


 4768 13e8 00       		.byte	0
 4769 13e9 00       		.byte	0
 4770 13ea 10       		.uleb128 0x10
 4771 13eb 2C050000 		.4byte	.LASF200
 4772 13ef 01       		.byte	0x1
 4773 13f0 9B03     		.2byte	0x39b
 4774 13f2 00000000 		.4byte	.LFB95
 4775 13f6 10000000 		.4byte	.LFE95-.LFB95
 4776 13fa 01       		.uleb128 0x1
 4777 13fb 9C       		.byte	0x9c
 4778 13fc 20140000 		.4byte	0x1420
 4779 1400 11       		.uleb128 0x11
 4780 1401 44000000 		.4byte	.LASF201
 4781 1405 01       		.byte	0x1
 4782 1406 9B03     		.2byte	0x39b
 4783 1408 20140000 		.4byte	0x1420
 4784 140c D6070000 		.4byte	.LLST51
 4785 1410 0B       		.uleb128 0xb
 4786 1411 0E000000 		.4byte	.LVL195
 4787 1415 69140000 		.4byte	0x1469
 4788 1419 0A       		.uleb128 0xa
 4789 141a 01       		.uleb128 0x1
 4790 141b 50       		.byte	0x50
 4791 141c 01       		.uleb128 0x1
 4792 141d 37       		.byte	0x37
 4793 141e 00       		.byte	0
 4794 141f 00       		.byte	0
 4795 1420 0F       		.uleb128 0xf
 4796 1421 19020000 		.4byte	0x219
 4797 1425 12       		.uleb128 0x12
 4798 1426 06010000 		.4byte	.LASF202
 4799 142a 01       		.byte	0x1
 4800 142b A703     		.2byte	0x3a7
 4801 142d 19020000 		.4byte	0x219
 4802 1431 00000000 		.4byte	.LFB96
 4803 1435 28000000 		.4byte	.LFE96-.LFB96
 4804 1439 01       		.uleb128 0x1
 4805 143a 9C       		.byte	0x9c
 4806 143b 69140000 		.4byte	0x1469
 4807 143f 14       		.uleb128 0x14
 4808 1440 69727100 		.ascii	"irq\000"
 4809 1444 01       		.byte	0x1
 4810 1445 A903     		.2byte	0x3a9
 4811 1447 19020000 		.4byte	0x219
 4812 144b F7070000 		.4byte	.LLST52
 4813 144f 14       		.uleb128 0x14
 4814 1450 73747300 		.ascii	"sts\000"
 4815 1454 01       		.byte	0x1
 4816 1455 AC03     		.2byte	0x3ac
 4817 1457 76000000 		.4byte	0x76
 4818 145b 3B080000 		.4byte	.LLST53
 4819 145f 0E       		.uleb128 0xe
 4820 1460 06000000 		.4byte	.LVL197
 4821 1464 CC140000 		.4byte	0x14cc
 4822 1468 00       		.byte	0
 4823 1469 16       		.uleb128 0x16
 4824 146a B4090000 		.4byte	.LASF203
ARM GAS  C:\Users\Xwx47\AppData\Local\Temp\ccUdC8ee.s 			page 103


 4825 146e B4090000 		.4byte	.LASF203
 4826 1472 06       		.byte	0x6
 4827 1473 23       		.byte	0x23
 4828 1474 16       		.uleb128 0x16
 4829 1475 38100000 		.4byte	.LASF204
 4830 1479 38100000 		.4byte	.LASF204
 4831 147d 06       		.byte	0x6
 4832 147e 27       		.byte	0x27
 4833 147f 16       		.uleb128 0x16
 4834 1480 4D070000 		.4byte	.LASF205
 4835 1484 4D070000 		.4byte	.LASF205
 4836 1488 06       		.byte	0x6
 4837 1489 28       		.byte	0x28
 4838 148a 16       		.uleb128 0x16
 4839 148b F5060000 		.4byte	.LASF206
 4840 148f F5060000 		.4byte	.LASF206
 4841 1493 06       		.byte	0x6
 4842 1494 21       		.byte	0x21
 4843 1495 16       		.uleb128 0x16
 4844 1496 A10C0000 		.4byte	.LASF207
 4845 149a A10C0000 		.4byte	.LASF207
 4846 149e 06       		.byte	0x6
 4847 149f 24       		.byte	0x24
 4848 14a0 16       		.uleb128 0x16
 4849 14a1 E90B0000 		.4byte	.LASF208
 4850 14a5 E90B0000 		.4byte	.LASF208
 4851 14a9 06       		.byte	0x6
 4852 14aa 22       		.byte	0x22
 4853 14ab 16       		.uleb128 0x16
 4854 14ac AB090000 		.4byte	.LASF209
 4855 14b0 AB090000 		.4byte	.LASF209
 4856 14b4 07       		.byte	0x7
 4857 14b5 33       		.byte	0x33
 4858 14b6 16       		.uleb128 0x16
 4859 14b7 9E040000 		.4byte	.LASF210
 4860 14bb 9E040000 		.4byte	.LASF210
 4861 14bf 08       		.byte	0x8
 4862 14c0 DA       		.byte	0xda
 4863 14c1 16       		.uleb128 0x16
 4864 14c2 470E0000 		.4byte	.LASF211
 4865 14c6 470E0000 		.4byte	.LASF211
 4866 14ca 09       		.byte	0x9
 4867 14cb 29       		.byte	0x29
 4868 14cc 16       		.uleb128 0x16
 4869 14cd 65010000 		.4byte	.LASF212
 4870 14d1 65010000 		.4byte	.LASF212
 4871 14d5 09       		.byte	0x9
 4872 14d6 32       		.byte	0x32
 4873 14d7 16       		.uleb128 0x16
 4874 14d8 9E0E0000 		.4byte	.LASF213
 4875 14dc 9E0E0000 		.4byte	.LASF213
 4876 14e0 09       		.byte	0x9
 4877 14e1 2B       		.byte	0x2b
 4878 14e2 16       		.uleb128 0x16
 4879 14e3 00020000 		.4byte	.LASF214
 4880 14e7 00020000 		.4byte	.LASF214
 4881 14eb 09       		.byte	0x9
ARM GAS  C:\Users\Xwx47\AppData\Local\Temp\ccUdC8ee.s 			page 104


 4882 14ec 2A       		.byte	0x2a
 4883 14ed 16       		.uleb128 0x16
 4884 14ee 8E030000 		.4byte	.LASF215
 4885 14f2 8E030000 		.4byte	.LASF215
 4886 14f6 09       		.byte	0x9
 4887 14f7 31       		.byte	0x31
 4888 14f8 16       		.uleb128 0x16
 4889 14f9 20060000 		.4byte	.LASF216
 4890 14fd 20060000 		.4byte	.LASF216
 4891 1501 09       		.byte	0x9
 4892 1502 2F       		.byte	0x2f
 4893 1503 16       		.uleb128 0x16
 4894 1504 07080000 		.4byte	.LASF217
 4895 1508 07080000 		.4byte	.LASF217
 4896 150c 06       		.byte	0x6
 4897 150d 25       		.byte	0x25
 4898 150e 16       		.uleb128 0x16
 4899 150f 4D000000 		.4byte	.LASF218
 4900 1513 4D000000 		.4byte	.LASF218
 4901 1517 08       		.byte	0x8
 4902 1518 D9       		.byte	0xd9
 4903 1519 16       		.uleb128 0x16
 4904 151a 23050000 		.4byte	.LASF219
 4905 151e 23050000 		.4byte	.LASF219
 4906 1522 0A       		.byte	0xa
 4907 1523 33       		.byte	0x33
 4908 1524 16       		.uleb128 0x16
 4909 1525 A8040000 		.4byte	.LASF220
 4910 1529 A8040000 		.4byte	.LASF220
 4911 152d 0B       		.byte	0xb
 4912 152e 72       		.byte	0x72
 4913 152f 16       		.uleb128 0x16
 4914 1530 28030000 		.4byte	.LASF221
 4915 1534 28030000 		.4byte	.LASF221
 4916 1538 09       		.byte	0x9
 4917 1539 2C       		.byte	0x2c
 4918 153a 16       		.uleb128 0x16
 4919 153b 77050000 		.4byte	.LASF222
 4920 153f 77050000 		.4byte	.LASF222
 4921 1543 09       		.byte	0x9
 4922 1544 2D       		.byte	0x2d
 4923 1545 00       		.byte	0
 4924              		.section	.debug_abbrev,"",%progbits
 4925              	.Ldebug_abbrev0:
 4926 0000 01       		.uleb128 0x1
 4927 0001 11       		.uleb128 0x11
 4928 0002 01       		.byte	0x1
 4929 0003 25       		.uleb128 0x25
 4930 0004 0E       		.uleb128 0xe
 4931 0005 13       		.uleb128 0x13
 4932 0006 0B       		.uleb128 0xb
 4933 0007 03       		.uleb128 0x3
 4934 0008 0E       		.uleb128 0xe
 4935 0009 1B       		.uleb128 0x1b
 4936 000a 0E       		.uleb128 0xe
 4937 000b 55       		.uleb128 0x55
 4938 000c 17       		.uleb128 0x17
ARM GAS  C:\Users\Xwx47\AppData\Local\Temp\ccUdC8ee.s 			page 105


 4939 000d 11       		.uleb128 0x11
 4940 000e 01       		.uleb128 0x1
 4941 000f 10       		.uleb128 0x10
 4942 0010 17       		.uleb128 0x17
 4943 0011 00       		.byte	0
 4944 0012 00       		.byte	0
 4945 0013 02       		.uleb128 0x2
 4946 0014 24       		.uleb128 0x24
 4947 0015 00       		.byte	0
 4948 0016 0B       		.uleb128 0xb
 4949 0017 0B       		.uleb128 0xb
 4950 0018 3E       		.uleb128 0x3e
 4951 0019 0B       		.uleb128 0xb
 4952 001a 03       		.uleb128 0x3
 4953 001b 0E       		.uleb128 0xe
 4954 001c 00       		.byte	0
 4955 001d 00       		.byte	0
 4956 001e 03       		.uleb128 0x3
 4957 001f 16       		.uleb128 0x16
 4958 0020 00       		.byte	0
 4959 0021 03       		.uleb128 0x3
 4960 0022 0E       		.uleb128 0xe
 4961 0023 3A       		.uleb128 0x3a
 4962 0024 0B       		.uleb128 0xb
 4963 0025 3B       		.uleb128 0x3b
 4964 0026 0B       		.uleb128 0xb
 4965 0027 49       		.uleb128 0x49
 4966 0028 13       		.uleb128 0x13
 4967 0029 00       		.byte	0
 4968 002a 00       		.byte	0
 4969 002b 04       		.uleb128 0x4
 4970 002c 24       		.uleb128 0x24
 4971 002d 00       		.byte	0
 4972 002e 0B       		.uleb128 0xb
 4973 002f 0B       		.uleb128 0xb
 4974 0030 3E       		.uleb128 0x3e
 4975 0031 0B       		.uleb128 0xb
 4976 0032 03       		.uleb128 0x3
 4977 0033 08       		.uleb128 0x8
 4978 0034 00       		.byte	0
 4979 0035 00       		.byte	0
 4980 0036 05       		.uleb128 0x5
 4981 0037 04       		.uleb128 0x4
 4982 0038 01       		.byte	0x1
 4983 0039 0B       		.uleb128 0xb
 4984 003a 0B       		.uleb128 0xb
 4985 003b 49       		.uleb128 0x49
 4986 003c 13       		.uleb128 0x13
 4987 003d 3A       		.uleb128 0x3a
 4988 003e 0B       		.uleb128 0xb
 4989 003f 3B       		.uleb128 0x3b
 4990 0040 0B       		.uleb128 0xb
 4991 0041 01       		.uleb128 0x1
 4992 0042 13       		.uleb128 0x13
 4993 0043 00       		.byte	0
 4994 0044 00       		.byte	0
 4995 0045 06       		.uleb128 0x6
ARM GAS  C:\Users\Xwx47\AppData\Local\Temp\ccUdC8ee.s 			page 106


 4996 0046 28       		.uleb128 0x28
 4997 0047 00       		.byte	0
 4998 0048 03       		.uleb128 0x3
 4999 0049 0E       		.uleb128 0xe
 5000 004a 1C       		.uleb128 0x1c
 5001 004b 0B       		.uleb128 0xb
 5002 004c 00       		.byte	0
 5003 004d 00       		.byte	0
 5004 004e 07       		.uleb128 0x7
 5005 004f 04       		.uleb128 0x4
 5006 0050 01       		.byte	0x1
 5007 0051 0B       		.uleb128 0xb
 5008 0052 0B       		.uleb128 0xb
 5009 0053 49       		.uleb128 0x49
 5010 0054 13       		.uleb128 0x13
 5011 0055 3A       		.uleb128 0x3a
 5012 0056 0B       		.uleb128 0xb
 5013 0057 3B       		.uleb128 0x3b
 5014 0058 05       		.uleb128 0x5
 5015 0059 01       		.uleb128 0x1
 5016 005a 13       		.uleb128 0x13
 5017 005b 00       		.byte	0
 5018 005c 00       		.byte	0
 5019 005d 08       		.uleb128 0x8
 5020 005e 2E       		.uleb128 0x2e
 5021 005f 01       		.byte	0x1
 5022 0060 3F       		.uleb128 0x3f
 5023 0061 19       		.uleb128 0x19
 5024 0062 03       		.uleb128 0x3
 5025 0063 0E       		.uleb128 0xe
 5026 0064 3A       		.uleb128 0x3a
 5027 0065 0B       		.uleb128 0xb
 5028 0066 3B       		.uleb128 0x3b
 5029 0067 0B       		.uleb128 0xb
 5030 0068 27       		.uleb128 0x27
 5031 0069 19       		.uleb128 0x19
 5032 006a 11       		.uleb128 0x11
 5033 006b 01       		.uleb128 0x1
 5034 006c 12       		.uleb128 0x12
 5035 006d 06       		.uleb128 0x6
 5036 006e 40       		.uleb128 0x40
 5037 006f 18       		.uleb128 0x18
 5038 0070 9742     		.uleb128 0x2117
 5039 0072 19       		.uleb128 0x19
 5040 0073 01       		.uleb128 0x1
 5041 0074 13       		.uleb128 0x13
 5042 0075 00       		.byte	0
 5043 0076 00       		.byte	0
 5044 0077 09       		.uleb128 0x9
 5045 0078 898201   		.uleb128 0x4109
 5046 007b 01       		.byte	0x1
 5047 007c 11       		.uleb128 0x11
 5048 007d 01       		.uleb128 0x1
 5049 007e 31       		.uleb128 0x31
 5050 007f 13       		.uleb128 0x13
 5051 0080 01       		.uleb128 0x1
 5052 0081 13       		.uleb128 0x13
ARM GAS  C:\Users\Xwx47\AppData\Local\Temp\ccUdC8ee.s 			page 107


 5053 0082 00       		.byte	0
 5054 0083 00       		.byte	0
 5055 0084 0A       		.uleb128 0xa
 5056 0085 8A8201   		.uleb128 0x410a
 5057 0088 00       		.byte	0
 5058 0089 02       		.uleb128 0x2
 5059 008a 18       		.uleb128 0x18
 5060 008b 9142     		.uleb128 0x2111
 5061 008d 18       		.uleb128 0x18
 5062 008e 00       		.byte	0
 5063 008f 00       		.byte	0
 5064 0090 0B       		.uleb128 0xb
 5065 0091 898201   		.uleb128 0x4109
 5066 0094 01       		.byte	0x1
 5067 0095 11       		.uleb128 0x11
 5068 0096 01       		.uleb128 0x1
 5069 0097 31       		.uleb128 0x31
 5070 0098 13       		.uleb128 0x13
 5071 0099 00       		.byte	0
 5072 009a 00       		.byte	0
 5073 009b 0C       		.uleb128 0xc
 5074 009c 2E       		.uleb128 0x2e
 5075 009d 00       		.byte	0
 5076 009e 3F       		.uleb128 0x3f
 5077 009f 19       		.uleb128 0x19
 5078 00a0 03       		.uleb128 0x3
 5079 00a1 0E       		.uleb128 0xe
 5080 00a2 3A       		.uleb128 0x3a
 5081 00a3 0B       		.uleb128 0xb
 5082 00a4 3B       		.uleb128 0x3b
 5083 00a5 0B       		.uleb128 0xb
 5084 00a6 27       		.uleb128 0x27
 5085 00a7 19       		.uleb128 0x19
 5086 00a8 11       		.uleb128 0x11
 5087 00a9 01       		.uleb128 0x1
 5088 00aa 12       		.uleb128 0x12
 5089 00ab 06       		.uleb128 0x6
 5090 00ac 40       		.uleb128 0x40
 5091 00ad 18       		.uleb128 0x18
 5092 00ae 9742     		.uleb128 0x2117
 5093 00b0 19       		.uleb128 0x19
 5094 00b1 00       		.byte	0
 5095 00b2 00       		.byte	0
 5096 00b3 0D       		.uleb128 0xd
 5097 00b4 05       		.uleb128 0x5
 5098 00b5 00       		.byte	0
 5099 00b6 03       		.uleb128 0x3
 5100 00b7 0E       		.uleb128 0xe
 5101 00b8 3A       		.uleb128 0x3a
 5102 00b9 0B       		.uleb128 0xb
 5103 00ba 3B       		.uleb128 0x3b
 5104 00bb 0B       		.uleb128 0xb
 5105 00bc 49       		.uleb128 0x49
 5106 00bd 13       		.uleb128 0x13
 5107 00be 02       		.uleb128 0x2
 5108 00bf 17       		.uleb128 0x17
 5109 00c0 00       		.byte	0
ARM GAS  C:\Users\Xwx47\AppData\Local\Temp\ccUdC8ee.s 			page 108


 5110 00c1 00       		.byte	0
 5111 00c2 0E       		.uleb128 0xe
 5112 00c3 898201   		.uleb128 0x4109
 5113 00c6 00       		.byte	0
 5114 00c7 11       		.uleb128 0x11
 5115 00c8 01       		.uleb128 0x1
 5116 00c9 31       		.uleb128 0x31
 5117 00ca 13       		.uleb128 0x13
 5118 00cb 00       		.byte	0
 5119 00cc 00       		.byte	0
 5120 00cd 0F       		.uleb128 0xf
 5121 00ce 26       		.uleb128 0x26
 5122 00cf 00       		.byte	0
 5123 00d0 49       		.uleb128 0x49
 5124 00d1 13       		.uleb128 0x13
 5125 00d2 00       		.byte	0
 5126 00d3 00       		.byte	0
 5127 00d4 10       		.uleb128 0x10
 5128 00d5 2E       		.uleb128 0x2e
 5129 00d6 01       		.byte	0x1
 5130 00d7 3F       		.uleb128 0x3f
 5131 00d8 19       		.uleb128 0x19
 5132 00d9 03       		.uleb128 0x3
 5133 00da 0E       		.uleb128 0xe
 5134 00db 3A       		.uleb128 0x3a
 5135 00dc 0B       		.uleb128 0xb
 5136 00dd 3B       		.uleb128 0x3b
 5137 00de 05       		.uleb128 0x5
 5138 00df 27       		.uleb128 0x27
 5139 00e0 19       		.uleb128 0x19
 5140 00e1 11       		.uleb128 0x11
 5141 00e2 01       		.uleb128 0x1
 5142 00e3 12       		.uleb128 0x12
 5143 00e4 06       		.uleb128 0x6
 5144 00e5 40       		.uleb128 0x40
 5145 00e6 18       		.uleb128 0x18
 5146 00e7 9742     		.uleb128 0x2117
 5147 00e9 19       		.uleb128 0x19
 5148 00ea 01       		.uleb128 0x1
 5149 00eb 13       		.uleb128 0x13
 5150 00ec 00       		.byte	0
 5151 00ed 00       		.byte	0
 5152 00ee 11       		.uleb128 0x11
 5153 00ef 05       		.uleb128 0x5
 5154 00f0 00       		.byte	0
 5155 00f1 03       		.uleb128 0x3
 5156 00f2 0E       		.uleb128 0xe
 5157 00f3 3A       		.uleb128 0x3a
 5158 00f4 0B       		.uleb128 0xb
 5159 00f5 3B       		.uleb128 0x3b
 5160 00f6 05       		.uleb128 0x5
 5161 00f7 49       		.uleb128 0x49
 5162 00f8 13       		.uleb128 0x13
 5163 00f9 02       		.uleb128 0x2
 5164 00fa 17       		.uleb128 0x17
 5165 00fb 00       		.byte	0
 5166 00fc 00       		.byte	0
ARM GAS  C:\Users\Xwx47\AppData\Local\Temp\ccUdC8ee.s 			page 109


 5167 00fd 12       		.uleb128 0x12
 5168 00fe 2E       		.uleb128 0x2e
 5169 00ff 01       		.byte	0x1
 5170 0100 3F       		.uleb128 0x3f
 5171 0101 19       		.uleb128 0x19
 5172 0102 03       		.uleb128 0x3
 5173 0103 0E       		.uleb128 0xe
 5174 0104 3A       		.uleb128 0x3a
 5175 0105 0B       		.uleb128 0xb
 5176 0106 3B       		.uleb128 0x3b
 5177 0107 05       		.uleb128 0x5
 5178 0108 27       		.uleb128 0x27
 5179 0109 19       		.uleb128 0x19
 5180 010a 49       		.uleb128 0x49
 5181 010b 13       		.uleb128 0x13
 5182 010c 11       		.uleb128 0x11
 5183 010d 01       		.uleb128 0x1
 5184 010e 12       		.uleb128 0x12
 5185 010f 06       		.uleb128 0x6
 5186 0110 40       		.uleb128 0x40
 5187 0111 18       		.uleb128 0x18
 5188 0112 9742     		.uleb128 0x2117
 5189 0114 19       		.uleb128 0x19
 5190 0115 01       		.uleb128 0x1
 5191 0116 13       		.uleb128 0x13
 5192 0117 00       		.byte	0
 5193 0118 00       		.byte	0
 5194 0119 13       		.uleb128 0x13
 5195 011a 34       		.uleb128 0x34
 5196 011b 00       		.byte	0
 5197 011c 03       		.uleb128 0x3
 5198 011d 0E       		.uleb128 0xe
 5199 011e 3A       		.uleb128 0x3a
 5200 011f 0B       		.uleb128 0xb
 5201 0120 3B       		.uleb128 0x3b
 5202 0121 05       		.uleb128 0x5
 5203 0122 49       		.uleb128 0x49
 5204 0123 13       		.uleb128 0x13
 5205 0124 02       		.uleb128 0x2
 5206 0125 17       		.uleb128 0x17
 5207 0126 00       		.byte	0
 5208 0127 00       		.byte	0
 5209 0128 14       		.uleb128 0x14
 5210 0129 34       		.uleb128 0x34
 5211 012a 00       		.byte	0
 5212 012b 03       		.uleb128 0x3
 5213 012c 08       		.uleb128 0x8
 5214 012d 3A       		.uleb128 0x3a
 5215 012e 0B       		.uleb128 0xb
 5216 012f 3B       		.uleb128 0x3b
 5217 0130 05       		.uleb128 0x5
 5218 0131 49       		.uleb128 0x49
 5219 0132 13       		.uleb128 0x13
 5220 0133 02       		.uleb128 0x2
 5221 0134 17       		.uleb128 0x17
 5222 0135 00       		.byte	0
 5223 0136 00       		.byte	0
ARM GAS  C:\Users\Xwx47\AppData\Local\Temp\ccUdC8ee.s 			page 110


 5224 0137 15       		.uleb128 0x15
 5225 0138 0F       		.uleb128 0xf
 5226 0139 00       		.byte	0
 5227 013a 0B       		.uleb128 0xb
 5228 013b 0B       		.uleb128 0xb
 5229 013c 49       		.uleb128 0x49
 5230 013d 13       		.uleb128 0x13
 5231 013e 00       		.byte	0
 5232 013f 00       		.byte	0
 5233 0140 16       		.uleb128 0x16
 5234 0141 2E       		.uleb128 0x2e
 5235 0142 00       		.byte	0
 5236 0143 3F       		.uleb128 0x3f
 5237 0144 19       		.uleb128 0x19
 5238 0145 3C       		.uleb128 0x3c
 5239 0146 19       		.uleb128 0x19
 5240 0147 6E       		.uleb128 0x6e
 5241 0148 0E       		.uleb128 0xe
 5242 0149 03       		.uleb128 0x3
 5243 014a 0E       		.uleb128 0xe
 5244 014b 3A       		.uleb128 0x3a
 5245 014c 0B       		.uleb128 0xb
 5246 014d 3B       		.uleb128 0x3b
 5247 014e 0B       		.uleb128 0xb
 5248 014f 00       		.byte	0
 5249 0150 00       		.byte	0
 5250 0151 00       		.byte	0
 5251              		.section	.debug_loc,"",%progbits
 5252              	.Ldebug_loc0:
 5253              	.LLST0:
 5254 0000 00000000 		.4byte	.LVL13
 5255 0004 09000000 		.4byte	.LVL14-1
 5256 0008 0100     		.2byte	0x1
 5257 000a 50       		.byte	0x50
 5258 000b 09000000 		.4byte	.LVL14-1
 5259 000f 0C000000 		.4byte	.LVL15
 5260 0013 0400     		.2byte	0x4
 5261 0015 F3       		.byte	0xf3
 5262 0016 01       		.uleb128 0x1
 5263 0017 50       		.byte	0x50
 5264 0018 9F       		.byte	0x9f
 5265 0019 0C000000 		.4byte	.LVL15
 5266 001d 0F000000 		.4byte	.LVL16-1
 5267 0021 0100     		.2byte	0x1
 5268 0023 50       		.byte	0x50
 5269 0024 0F000000 		.4byte	.LVL16-1
 5270 0028 12000000 		.4byte	.LFE41
 5271 002c 0400     		.2byte	0x4
 5272 002e F3       		.byte	0xf3
 5273 002f 01       		.uleb128 0x1
 5274 0030 50       		.byte	0x50
 5275 0031 9F       		.byte	0x9f
 5276 0032 00000000 		.4byte	0
 5277 0036 00000000 		.4byte	0
 5278              	.LLST1:
 5279 003a 00000000 		.4byte	.LVL17
 5280 003e 06000000 		.4byte	.LVL18
ARM GAS  C:\Users\Xwx47\AppData\Local\Temp\ccUdC8ee.s 			page 111


 5281 0042 0100     		.2byte	0x1
 5282 0044 50       		.byte	0x50
 5283 0045 06000000 		.4byte	.LVL18
 5284 0049 0C000000 		.4byte	.LFE47
 5285 004d 0400     		.2byte	0x4
 5286 004f F3       		.byte	0xf3
 5287 0050 01       		.uleb128 0x1
 5288 0051 50       		.byte	0x50
 5289 0052 9F       		.byte	0x9f
 5290 0053 00000000 		.4byte	0
 5291 0057 00000000 		.4byte	0
 5292              	.LLST2:
 5293 005b 00000000 		.4byte	.LVL20
 5294 005f 06000000 		.4byte	.LVL21
 5295 0063 0100     		.2byte	0x1
 5296 0065 50       		.byte	0x50
 5297 0066 06000000 		.4byte	.LVL21
 5298 006a 0C000000 		.4byte	.LFE48
 5299 006e 0400     		.2byte	0x4
 5300 0070 F3       		.byte	0xf3
 5301 0071 01       		.uleb128 0x1
 5302 0072 50       		.byte	0x50
 5303 0073 9F       		.byte	0x9f
 5304 0074 00000000 		.4byte	0
 5305 0078 00000000 		.4byte	0
 5306              	.LLST3:
 5307 007c 00000000 		.4byte	.LVL23
 5308 0080 0A000000 		.4byte	.LVL24
 5309 0084 0100     		.2byte	0x1
 5310 0086 50       		.byte	0x50
 5311 0087 0A000000 		.4byte	.LVL24
 5312 008b 0F000000 		.4byte	.LVL25-1
 5313 008f 0100     		.2byte	0x1
 5314 0091 51       		.byte	0x51
 5315 0092 00000000 		.4byte	0
 5316 0096 00000000 		.4byte	0
 5317              	.LLST4:
 5318 009a 00000000 		.4byte	.LVL26
 5319 009e 06000000 		.4byte	.LVL27
 5320 00a2 0100     		.2byte	0x1
 5321 00a4 50       		.byte	0x50
 5322 00a5 06000000 		.4byte	.LVL27
 5323 00a9 0C000000 		.4byte	.LFE50
 5324 00ad 0400     		.2byte	0x4
 5325 00af F3       		.byte	0xf3
 5326 00b0 01       		.uleb128 0x1
 5327 00b1 50       		.byte	0x50
 5328 00b2 9F       		.byte	0x9f
 5329 00b3 00000000 		.4byte	0
 5330 00b7 00000000 		.4byte	0
 5331              	.LLST5:
 5332 00bb 02000000 		.4byte	.LVL29
 5333 00bf 18000000 		.4byte	.LVL32
 5334 00c3 0200     		.2byte	0x2
 5335 00c5 30       		.byte	0x30
 5336 00c6 9F       		.byte	0x9f
 5337 00c7 18000000 		.4byte	.LVL32
ARM GAS  C:\Users\Xwx47\AppData\Local\Temp\ccUdC8ee.s 			page 112


 5338 00cb 1C000000 		.4byte	.LVL34
 5339 00cf 0200     		.2byte	0x2
 5340 00d1 34       		.byte	0x34
 5341 00d2 9F       		.byte	0x9f
 5342 00d3 1C000000 		.4byte	.LVL34
 5343 00d7 20000000 		.4byte	.LVL36
 5344 00db 0200     		.2byte	0x2
 5345 00dd 35       		.byte	0x35
 5346 00de 9F       		.byte	0x9f
 5347 00df 20000000 		.4byte	.LVL36
 5348 00e3 22000000 		.4byte	.LVL37
 5349 00e7 0200     		.2byte	0x2
 5350 00e9 30       		.byte	0x30
 5351 00ea 9F       		.byte	0x9f
 5352 00eb 22000000 		.4byte	.LVL37
 5353 00ef 24000000 		.4byte	.LFE51
 5354 00f3 0100     		.2byte	0x1
 5355 00f5 50       		.byte	0x50
 5356 00f6 00000000 		.4byte	0
 5357 00fa 00000000 		.4byte	0
 5358              	.LLST6:
 5359 00fe 08000000 		.4byte	.LVL30
 5360 0102 16000000 		.4byte	.LVL31
 5361 0106 0100     		.2byte	0x1
 5362 0108 50       		.byte	0x50
 5363 0109 18000000 		.4byte	.LVL32
 5364 010d 1A000000 		.4byte	.LVL33
 5365 0111 0100     		.2byte	0x1
 5366 0113 50       		.byte	0x50
 5367 0114 1C000000 		.4byte	.LVL34
 5368 0118 1E000000 		.4byte	.LVL35
 5369 011c 0100     		.2byte	0x1
 5370 011e 50       		.byte	0x50
 5371 011f 20000000 		.4byte	.LVL36
 5372 0123 22000000 		.4byte	.LVL37
 5373 0127 0100     		.2byte	0x1
 5374 0129 50       		.byte	0x50
 5375 012a 00000000 		.4byte	0
 5376 012e 00000000 		.4byte	0
 5377              	.LLST7:
 5378 0132 00000000 		.4byte	.LVL38
 5379 0136 12000000 		.4byte	.LVL41
 5380 013a 0100     		.2byte	0x1
 5381 013c 50       		.byte	0x50
 5382 013d 12000000 		.4byte	.LVL41
 5383 0141 15000000 		.4byte	.LVL42-1
 5384 0145 0100     		.2byte	0x1
 5385 0147 51       		.byte	0x51
 5386 0148 15000000 		.4byte	.LVL42-1
 5387 014c 18000000 		.4byte	.LFE52
 5388 0150 0400     		.2byte	0x4
 5389 0152 F3       		.byte	0xf3
 5390 0153 01       		.uleb128 0x1
 5391 0154 50       		.byte	0x50
 5392 0155 9F       		.byte	0x9f
 5393 0156 00000000 		.4byte	0
 5394 015a 00000000 		.4byte	0
ARM GAS  C:\Users\Xwx47\AppData\Local\Temp\ccUdC8ee.s 			page 113


 5395              	.LLST8:
 5396 015e 00000000 		.4byte	.LVL38
 5397 0162 0C000000 		.4byte	.LVL39
 5398 0166 0100     		.2byte	0x1
 5399 0168 51       		.byte	0x51
 5400 0169 0C000000 		.4byte	.LVL39
 5401 016d 10000000 		.4byte	.LVL40
 5402 0171 0100     		.2byte	0x1
 5403 0173 51       		.byte	0x51
 5404 0174 10000000 		.4byte	.LVL40
 5405 0178 15000000 		.4byte	.LVL42-1
 5406 017c 0100     		.2byte	0x1
 5407 017e 52       		.byte	0x52
 5408 017f 00000000 		.4byte	0
 5409 0183 00000000 		.4byte	0
 5410              	.LLST9:
 5411 0187 00000000 		.4byte	.LVL43
 5412 018b 12000000 		.4byte	.LVL46
 5413 018f 0100     		.2byte	0x1
 5414 0191 50       		.byte	0x50
 5415 0192 12000000 		.4byte	.LVL46
 5416 0196 15000000 		.4byte	.LVL47-1
 5417 019a 0100     		.2byte	0x1
 5418 019c 51       		.byte	0x51
 5419 019d 15000000 		.4byte	.LVL47-1
 5420 01a1 18000000 		.4byte	.LFE53
 5421 01a5 0400     		.2byte	0x4
 5422 01a7 F3       		.byte	0xf3
 5423 01a8 01       		.uleb128 0x1
 5424 01a9 50       		.byte	0x50
 5425 01aa 9F       		.byte	0x9f
 5426 01ab 00000000 		.4byte	0
 5427 01af 00000000 		.4byte	0
 5428              	.LLST10:
 5429 01b3 00000000 		.4byte	.LVL43
 5430 01b7 0C000000 		.4byte	.LVL44
 5431 01bb 0100     		.2byte	0x1
 5432 01bd 51       		.byte	0x51
 5433 01be 0C000000 		.4byte	.LVL44
 5434 01c2 10000000 		.4byte	.LVL45
 5435 01c6 0100     		.2byte	0x1
 5436 01c8 51       		.byte	0x51
 5437 01c9 10000000 		.4byte	.LVL45
 5438 01cd 15000000 		.4byte	.LVL47-1
 5439 01d1 0100     		.2byte	0x1
 5440 01d3 52       		.byte	0x52
 5441 01d4 00000000 		.4byte	0
 5442 01d8 00000000 		.4byte	0
 5443              	.LLST11:
 5444 01dc 00000000 		.4byte	.LVL48
 5445 01e0 12000000 		.4byte	.LVL51
 5446 01e4 0100     		.2byte	0x1
 5447 01e6 50       		.byte	0x50
 5448 01e7 12000000 		.4byte	.LVL51
 5449 01eb 15000000 		.4byte	.LVL52-1
 5450 01ef 0100     		.2byte	0x1
 5451 01f1 51       		.byte	0x51
ARM GAS  C:\Users\Xwx47\AppData\Local\Temp\ccUdC8ee.s 			page 114


 5452 01f2 15000000 		.4byte	.LVL52-1
 5453 01f6 18000000 		.4byte	.LFE54
 5454 01fa 0400     		.2byte	0x4
 5455 01fc F3       		.byte	0xf3
 5456 01fd 01       		.uleb128 0x1
 5457 01fe 50       		.byte	0x50
 5458 01ff 9F       		.byte	0x9f
 5459 0200 00000000 		.4byte	0
 5460 0204 00000000 		.4byte	0
 5461              	.LLST12:
 5462 0208 00000000 		.4byte	.LVL48
 5463 020c 0C000000 		.4byte	.LVL49
 5464 0210 0100     		.2byte	0x1
 5465 0212 51       		.byte	0x51
 5466 0213 0C000000 		.4byte	.LVL49
 5467 0217 10000000 		.4byte	.LVL50
 5468 021b 0100     		.2byte	0x1
 5469 021d 51       		.byte	0x51
 5470 021e 10000000 		.4byte	.LVL50
 5471 0222 15000000 		.4byte	.LVL52-1
 5472 0226 0100     		.2byte	0x1
 5473 0228 52       		.byte	0x52
 5474 0229 00000000 		.4byte	0
 5475 022d 00000000 		.4byte	0
 5476              	.LLST13:
 5477 0231 00000000 		.4byte	.LVL53
 5478 0235 12000000 		.4byte	.LVL56
 5479 0239 0100     		.2byte	0x1
 5480 023b 50       		.byte	0x50
 5481 023c 12000000 		.4byte	.LVL56
 5482 0240 15000000 		.4byte	.LVL57-1
 5483 0244 0100     		.2byte	0x1
 5484 0246 51       		.byte	0x51
 5485 0247 15000000 		.4byte	.LVL57-1
 5486 024b 18000000 		.4byte	.LFE55
 5487 024f 0400     		.2byte	0x4
 5488 0251 F3       		.byte	0xf3
 5489 0252 01       		.uleb128 0x1
 5490 0253 50       		.byte	0x50
 5491 0254 9F       		.byte	0x9f
 5492 0255 00000000 		.4byte	0
 5493 0259 00000000 		.4byte	0
 5494              	.LLST14:
 5495 025d 00000000 		.4byte	.LVL53
 5496 0261 0C000000 		.4byte	.LVL54
 5497 0265 0100     		.2byte	0x1
 5498 0267 51       		.byte	0x51
 5499 0268 0C000000 		.4byte	.LVL54
 5500 026c 10000000 		.4byte	.LVL55
 5501 0270 0100     		.2byte	0x1
 5502 0272 51       		.byte	0x51
 5503 0273 10000000 		.4byte	.LVL55
 5504 0277 15000000 		.4byte	.LVL57-1
 5505 027b 0100     		.2byte	0x1
 5506 027d 52       		.byte	0x52
 5507 027e 00000000 		.4byte	0
 5508 0282 00000000 		.4byte	0
ARM GAS  C:\Users\Xwx47\AppData\Local\Temp\ccUdC8ee.s 			page 115


 5509              	.LLST15:
 5510 0286 00000000 		.4byte	.LVL58
 5511 028a 06000000 		.4byte	.LVL59
 5512 028e 0100     		.2byte	0x1
 5513 0290 50       		.byte	0x50
 5514 0291 06000000 		.4byte	.LVL59
 5515 0295 0C000000 		.4byte	.LFE56
 5516 0299 0400     		.2byte	0x4
 5517 029b F3       		.byte	0xf3
 5518 029c 01       		.uleb128 0x1
 5519 029d 50       		.byte	0x50
 5520 029e 9F       		.byte	0x9f
 5521 029f 00000000 		.4byte	0
 5522 02a3 00000000 		.4byte	0
 5523              	.LLST16:
 5524 02a7 00000000 		.4byte	.LVL61
 5525 02ab 14000000 		.4byte	.LVL64
 5526 02af 0100     		.2byte	0x1
 5527 02b1 50       		.byte	0x50
 5528 02b2 14000000 		.4byte	.LVL64
 5529 02b6 22000000 		.4byte	.LVL68
 5530 02ba 0100     		.2byte	0x1
 5531 02bc 55       		.byte	0x55
 5532 02bd 22000000 		.4byte	.LVL68
 5533 02c1 24000000 		.4byte	.LFE57
 5534 02c5 0400     		.2byte	0x4
 5535 02c7 F3       		.byte	0xf3
 5536 02c8 01       		.uleb128 0x1
 5537 02c9 50       		.byte	0x50
 5538 02ca 9F       		.byte	0x9f
 5539 02cb 00000000 		.4byte	0
 5540 02cf 00000000 		.4byte	0
 5541              	.LLST17:
 5542 02d3 00000000 		.4byte	.LVL61
 5543 02d7 0C000000 		.4byte	.LVL62
 5544 02db 0100     		.2byte	0x1
 5545 02dd 51       		.byte	0x51
 5546 02de 0C000000 		.4byte	.LVL62
 5547 02e2 12000000 		.4byte	.LVL63
 5548 02e6 0100     		.2byte	0x1
 5549 02e8 51       		.byte	0x51
 5550 02e9 12000000 		.4byte	.LVL63
 5551 02ed 17000000 		.4byte	.LVL65-1
 5552 02f1 0300     		.2byte	0x3
 5553 02f3 72       		.byte	0x72
 5554 02f4 01       		.sleb128 1
 5555 02f5 9F       		.byte	0x9f
 5556 02f6 17000000 		.4byte	.LVL65-1
 5557 02fa 1A000000 		.4byte	.LVL66
 5558 02fe 0300     		.2byte	0x3
 5559 0300 74       		.byte	0x74
 5560 0301 01       		.sleb128 1
 5561 0302 9F       		.byte	0x9f
 5562 0303 00000000 		.4byte	0
 5563 0307 00000000 		.4byte	0
 5564              	.LLST18:
 5565 030b 00000000 		.4byte	.LVL69
ARM GAS  C:\Users\Xwx47\AppData\Local\Temp\ccUdC8ee.s 			page 116


 5566 030f 06000000 		.4byte	.LVL70
 5567 0313 0100     		.2byte	0x1
 5568 0315 50       		.byte	0x50
 5569 0316 06000000 		.4byte	.LVL70
 5570 031a 0C000000 		.4byte	.LFE58
 5571 031e 0400     		.2byte	0x4
 5572 0320 F3       		.byte	0xf3
 5573 0321 01       		.uleb128 0x1
 5574 0322 50       		.byte	0x50
 5575 0323 9F       		.byte	0x9f
 5576 0324 00000000 		.4byte	0
 5577 0328 00000000 		.4byte	0
 5578              	.LLST19:
 5579 032c 00000000 		.4byte	.LVL72
 5580 0330 14000000 		.4byte	.LVL75
 5581 0334 0100     		.2byte	0x1
 5582 0336 50       		.byte	0x50
 5583 0337 14000000 		.4byte	.LVL75
 5584 033b 22000000 		.4byte	.LVL79
 5585 033f 0100     		.2byte	0x1
 5586 0341 55       		.byte	0x55
 5587 0342 22000000 		.4byte	.LVL79
 5588 0346 24000000 		.4byte	.LFE59
 5589 034a 0400     		.2byte	0x4
 5590 034c F3       		.byte	0xf3
 5591 034d 01       		.uleb128 0x1
 5592 034e 50       		.byte	0x50
 5593 034f 9F       		.byte	0x9f
 5594 0350 00000000 		.4byte	0
 5595 0354 00000000 		.4byte	0
 5596              	.LLST20:
 5597 0358 00000000 		.4byte	.LVL72
 5598 035c 0C000000 		.4byte	.LVL73
 5599 0360 0100     		.2byte	0x1
 5600 0362 51       		.byte	0x51
 5601 0363 0C000000 		.4byte	.LVL73
 5602 0367 12000000 		.4byte	.LVL74
 5603 036b 0100     		.2byte	0x1
 5604 036d 51       		.byte	0x51
 5605 036e 12000000 		.4byte	.LVL74
 5606 0372 17000000 		.4byte	.LVL76-1
 5607 0376 0300     		.2byte	0x3
 5608 0378 72       		.byte	0x72
 5609 0379 01       		.sleb128 1
 5610 037a 9F       		.byte	0x9f
 5611 037b 17000000 		.4byte	.LVL76-1
 5612 037f 1A000000 		.4byte	.LVL77
 5613 0383 0300     		.2byte	0x3
 5614 0385 74       		.byte	0x74
 5615 0386 01       		.sleb128 1
 5616 0387 9F       		.byte	0x9f
 5617 0388 00000000 		.4byte	0
 5618 038c 00000000 		.4byte	0
 5619              	.LLST21:
 5620 0390 00000000 		.4byte	.LVL80
 5621 0394 06000000 		.4byte	.LVL81
 5622 0398 0100     		.2byte	0x1
ARM GAS  C:\Users\Xwx47\AppData\Local\Temp\ccUdC8ee.s 			page 117


 5623 039a 50       		.byte	0x50
 5624 039b 06000000 		.4byte	.LVL81
 5625 039f 0C000000 		.4byte	.LFE60
 5626 03a3 0400     		.2byte	0x4
 5627 03a5 F3       		.byte	0xf3
 5628 03a6 01       		.uleb128 0x1
 5629 03a7 50       		.byte	0x50
 5630 03a8 9F       		.byte	0x9f
 5631 03a9 00000000 		.4byte	0
 5632 03ad 00000000 		.4byte	0
 5633              	.LLST22:
 5634 03b1 00000000 		.4byte	.LVL83
 5635 03b5 14000000 		.4byte	.LVL86
 5636 03b9 0100     		.2byte	0x1
 5637 03bb 50       		.byte	0x50
 5638 03bc 14000000 		.4byte	.LVL86
 5639 03c0 22000000 		.4byte	.LVL90
 5640 03c4 0100     		.2byte	0x1
 5641 03c6 55       		.byte	0x55
 5642 03c7 22000000 		.4byte	.LVL90
 5643 03cb 24000000 		.4byte	.LFE61
 5644 03cf 0400     		.2byte	0x4
 5645 03d1 F3       		.byte	0xf3
 5646 03d2 01       		.uleb128 0x1
 5647 03d3 50       		.byte	0x50
 5648 03d4 9F       		.byte	0x9f
 5649 03d5 00000000 		.4byte	0
 5650 03d9 00000000 		.4byte	0
 5651              	.LLST23:
 5652 03dd 00000000 		.4byte	.LVL83
 5653 03e1 0C000000 		.4byte	.LVL84
 5654 03e5 0100     		.2byte	0x1
 5655 03e7 51       		.byte	0x51
 5656 03e8 0C000000 		.4byte	.LVL84
 5657 03ec 12000000 		.4byte	.LVL85
 5658 03f0 0100     		.2byte	0x1
 5659 03f2 51       		.byte	0x51
 5660 03f3 12000000 		.4byte	.LVL85
 5661 03f7 17000000 		.4byte	.LVL87-1
 5662 03fb 0300     		.2byte	0x3
 5663 03fd 72       		.byte	0x72
 5664 03fe 01       		.sleb128 1
 5665 03ff 9F       		.byte	0x9f
 5666 0400 17000000 		.4byte	.LVL87-1
 5667 0404 1A000000 		.4byte	.LVL88
 5668 0408 0300     		.2byte	0x3
 5669 040a 74       		.byte	0x74
 5670 040b 01       		.sleb128 1
 5671 040c 9F       		.byte	0x9f
 5672 040d 00000000 		.4byte	0
 5673 0411 00000000 		.4byte	0
 5674              	.LLST24:
 5675 0415 00000000 		.4byte	.LVL91
 5676 0419 06000000 		.4byte	.LVL92
 5677 041d 0100     		.2byte	0x1
 5678 041f 50       		.byte	0x50
 5679 0420 06000000 		.4byte	.LVL92
ARM GAS  C:\Users\Xwx47\AppData\Local\Temp\ccUdC8ee.s 			page 118


 5680 0424 0C000000 		.4byte	.LFE62
 5681 0428 0400     		.2byte	0x4
 5682 042a F3       		.byte	0xf3
 5683 042b 01       		.uleb128 0x1
 5684 042c 50       		.byte	0x50
 5685 042d 9F       		.byte	0x9f
 5686 042e 00000000 		.4byte	0
 5687 0432 00000000 		.4byte	0
 5688              	.LLST25:
 5689 0436 00000000 		.4byte	.LVL94
 5690 043a 14000000 		.4byte	.LVL97
 5691 043e 0100     		.2byte	0x1
 5692 0440 50       		.byte	0x50
 5693 0441 14000000 		.4byte	.LVL97
 5694 0445 22000000 		.4byte	.LVL101
 5695 0449 0100     		.2byte	0x1
 5696 044b 55       		.byte	0x55
 5697 044c 22000000 		.4byte	.LVL101
 5698 0450 24000000 		.4byte	.LFE63
 5699 0454 0400     		.2byte	0x4
 5700 0456 F3       		.byte	0xf3
 5701 0457 01       		.uleb128 0x1
 5702 0458 50       		.byte	0x50
 5703 0459 9F       		.byte	0x9f
 5704 045a 00000000 		.4byte	0
 5705 045e 00000000 		.4byte	0
 5706              	.LLST26:
 5707 0462 00000000 		.4byte	.LVL94
 5708 0466 0C000000 		.4byte	.LVL95
 5709 046a 0100     		.2byte	0x1
 5710 046c 51       		.byte	0x51
 5711 046d 0C000000 		.4byte	.LVL95
 5712 0471 12000000 		.4byte	.LVL96
 5713 0475 0100     		.2byte	0x1
 5714 0477 51       		.byte	0x51
 5715 0478 12000000 		.4byte	.LVL96
 5716 047c 17000000 		.4byte	.LVL98-1
 5717 0480 0300     		.2byte	0x3
 5718 0482 72       		.byte	0x72
 5719 0483 01       		.sleb128 1
 5720 0484 9F       		.byte	0x9f
 5721 0485 17000000 		.4byte	.LVL98-1
 5722 0489 1A000000 		.4byte	.LVL99
 5723 048d 0300     		.2byte	0x3
 5724 048f 74       		.byte	0x74
 5725 0490 01       		.sleb128 1
 5726 0491 9F       		.byte	0x9f
 5727 0492 00000000 		.4byte	0
 5728 0496 00000000 		.4byte	0
 5729              	.LLST27:
 5730 049a 00000000 		.4byte	.LVL102
 5731 049e 12000000 		.4byte	.LVL105
 5732 04a2 0100     		.2byte	0x1
 5733 04a4 50       		.byte	0x50
 5734 04a5 12000000 		.4byte	.LVL105
 5735 04a9 15000000 		.4byte	.LVL106-1
 5736 04ad 0100     		.2byte	0x1
ARM GAS  C:\Users\Xwx47\AppData\Local\Temp\ccUdC8ee.s 			page 119


 5737 04af 51       		.byte	0x51
 5738 04b0 15000000 		.4byte	.LVL106-1
 5739 04b4 18000000 		.4byte	.LFE64
 5740 04b8 0400     		.2byte	0x4
 5741 04ba F3       		.byte	0xf3
 5742 04bb 01       		.uleb128 0x1
 5743 04bc 50       		.byte	0x50
 5744 04bd 9F       		.byte	0x9f
 5745 04be 00000000 		.4byte	0
 5746 04c2 00000000 		.4byte	0
 5747              	.LLST28:
 5748 04c6 00000000 		.4byte	.LVL102
 5749 04ca 0C000000 		.4byte	.LVL103
 5750 04ce 0100     		.2byte	0x1
 5751 04d0 51       		.byte	0x51
 5752 04d1 0C000000 		.4byte	.LVL103
 5753 04d5 10000000 		.4byte	.LVL104
 5754 04d9 0100     		.2byte	0x1
 5755 04db 51       		.byte	0x51
 5756 04dc 10000000 		.4byte	.LVL104
 5757 04e0 15000000 		.4byte	.LVL106-1
 5758 04e4 0100     		.2byte	0x1
 5759 04e6 52       		.byte	0x52
 5760 04e7 00000000 		.4byte	0
 5761 04eb 00000000 		.4byte	0
 5762              	.LLST29:
 5763 04ef 00000000 		.4byte	.LVL107
 5764 04f3 12000000 		.4byte	.LVL110
 5765 04f7 0100     		.2byte	0x1
 5766 04f9 50       		.byte	0x50
 5767 04fa 12000000 		.4byte	.LVL110
 5768 04fe 15000000 		.4byte	.LVL111-1
 5769 0502 0100     		.2byte	0x1
 5770 0504 51       		.byte	0x51
 5771 0505 15000000 		.4byte	.LVL111-1
 5772 0509 18000000 		.4byte	.LFE65
 5773 050d 0400     		.2byte	0x4
 5774 050f F3       		.byte	0xf3
 5775 0510 01       		.uleb128 0x1
 5776 0511 50       		.byte	0x50
 5777 0512 9F       		.byte	0x9f
 5778 0513 00000000 		.4byte	0
 5779 0517 00000000 		.4byte	0
 5780              	.LLST30:
 5781 051b 00000000 		.4byte	.LVL107
 5782 051f 0C000000 		.4byte	.LVL108
 5783 0523 0100     		.2byte	0x1
 5784 0525 51       		.byte	0x51
 5785 0526 0C000000 		.4byte	.LVL108
 5786 052a 10000000 		.4byte	.LVL109
 5787 052e 0100     		.2byte	0x1
 5788 0530 51       		.byte	0x51
 5789 0531 10000000 		.4byte	.LVL109
 5790 0535 15000000 		.4byte	.LVL111-1
 5791 0539 0100     		.2byte	0x1
 5792 053b 52       		.byte	0x52
 5793 053c 00000000 		.4byte	0
ARM GAS  C:\Users\Xwx47\AppData\Local\Temp\ccUdC8ee.s 			page 120


 5794 0540 00000000 		.4byte	0
 5795              	.LLST31:
 5796 0544 00000000 		.4byte	.LVL112
 5797 0548 0B000000 		.4byte	.LVL114-1
 5798 054c 0100     		.2byte	0x1
 5799 054e 50       		.byte	0x50
 5800 054f 0B000000 		.4byte	.LVL114-1
 5801 0553 0E000000 		.4byte	.LFE66
 5802 0557 0400     		.2byte	0x4
 5803 0559 F3       		.byte	0xf3
 5804 055a 01       		.uleb128 0x1
 5805 055b 50       		.byte	0x50
 5806 055c 9F       		.byte	0x9f
 5807 055d 00000000 		.4byte	0
 5808 0561 00000000 		.4byte	0
 5809              	.LLST32:
 5810 0565 00000000 		.4byte	.LVL112
 5811 0569 08000000 		.4byte	.LVL113
 5812 056d 0100     		.2byte	0x1
 5813 056f 51       		.byte	0x51
 5814 0570 08000000 		.4byte	.LVL113
 5815 0574 0B000000 		.4byte	.LVL114-1
 5816 0578 0100     		.2byte	0x1
 5817 057a 51       		.byte	0x51
 5818 057b 00000000 		.4byte	0
 5819 057f 00000000 		.4byte	0
 5820              	.LLST33:
 5821 0583 00000000 		.4byte	.LVL115
 5822 0587 05000000 		.4byte	.LVL116-1
 5823 058b 0100     		.2byte	0x1
 5824 058d 50       		.byte	0x50
 5825 058e 05000000 		.4byte	.LVL116-1
 5826 0592 08000000 		.4byte	.LFE67
 5827 0596 0400     		.2byte	0x4
 5828 0598 F3       		.byte	0xf3
 5829 0599 01       		.uleb128 0x1
 5830 059a 50       		.byte	0x50
 5831 059b 9F       		.byte	0x9f
 5832 059c 00000000 		.4byte	0
 5833 05a0 00000000 		.4byte	0
 5834              	.LLST34:
 5835 05a4 00000000 		.4byte	.LVL117
 5836 05a8 08000000 		.4byte	.LVL118
 5837 05ac 0100     		.2byte	0x1
 5838 05ae 50       		.byte	0x50
 5839 05af 08000000 		.4byte	.LVL118
 5840 05b3 26000000 		.4byte	.LFE69
 5841 05b7 0400     		.2byte	0x4
 5842 05b9 F3       		.byte	0xf3
 5843 05ba 01       		.uleb128 0x1
 5844 05bb 50       		.byte	0x50
 5845 05bc 9F       		.byte	0x9f
 5846 05bd 00000000 		.4byte	0
 5847 05c1 00000000 		.4byte	0
 5848              	.LLST35:
 5849 05c5 00000000 		.4byte	.LVL123
 5850 05c9 08000000 		.4byte	.LVL124
ARM GAS  C:\Users\Xwx47\AppData\Local\Temp\ccUdC8ee.s 			page 121


 5851 05cd 0100     		.2byte	0x1
 5852 05cf 50       		.byte	0x50
 5853 05d0 08000000 		.4byte	.LVL124
 5854 05d4 26000000 		.4byte	.LFE70
 5855 05d8 0400     		.2byte	0x4
 5856 05da F3       		.byte	0xf3
 5857 05db 01       		.uleb128 0x1
 5858 05dc 50       		.byte	0x50
 5859 05dd 9F       		.byte	0x9f
 5860 05de 00000000 		.4byte	0
 5861 05e2 00000000 		.4byte	0
 5862              	.LLST36:
 5863 05e6 00000000 		.4byte	.LVL135
 5864 05ea 08000000 		.4byte	.LVL136
 5865 05ee 0100     		.2byte	0x1
 5866 05f0 50       		.byte	0x50
 5867 05f1 08000000 		.4byte	.LVL136
 5868 05f5 0E000000 		.4byte	.LVL138
 5869 05f9 0400     		.2byte	0x4
 5870 05fb F3       		.byte	0xf3
 5871 05fc 01       		.uleb128 0x1
 5872 05fd 50       		.byte	0x50
 5873 05fe 9F       		.byte	0x9f
 5874 05ff 0E000000 		.4byte	.LVL138
 5875 0603 10000000 		.4byte	.LVL139
 5876 0607 0100     		.2byte	0x1
 5877 0609 50       		.byte	0x50
 5878 060a 10000000 		.4byte	.LVL139
 5879 060e 16000000 		.4byte	.LFE77
 5880 0612 0400     		.2byte	0x4
 5881 0614 F3       		.byte	0xf3
 5882 0615 01       		.uleb128 0x1
 5883 0616 50       		.byte	0x50
 5884 0617 9F       		.byte	0x9f
 5885 0618 00000000 		.4byte	0
 5886 061c 00000000 		.4byte	0
 5887              	.LLST37:
 5888 0620 08000000 		.4byte	.LVL153
 5889 0624 0C000000 		.4byte	.LVL154
 5890 0628 0100     		.2byte	0x1
 5891 062a 50       		.byte	0x50
 5892 062b 00000000 		.4byte	0
 5893 062f 00000000 		.4byte	0
 5894              	.LLST38:
 5895 0633 08000000 		.4byte	.LVL155
 5896 0637 0A000000 		.4byte	.LVL156
 5897 063b 0600     		.2byte	0x6
 5898 063d 70       		.byte	0x70
 5899 063e 00       		.sleb128 0
 5900 063f 09       		.byte	0x9
 5901 0640 F0       		.byte	0xf0
 5902 0641 1A       		.byte	0x1a
 5903 0642 9F       		.byte	0x9f
 5904 0643 00000000 		.4byte	0
 5905 0647 00000000 		.4byte	0
 5906              	.LLST39:
 5907 064b 00000000 		.4byte	.LVL157
ARM GAS  C:\Users\Xwx47\AppData\Local\Temp\ccUdC8ee.s 			page 122


 5908 064f 0F000000 		.4byte	.LVL159-1
 5909 0653 0100     		.2byte	0x1
 5910 0655 50       		.byte	0x50
 5911 0656 0F000000 		.4byte	.LVL159-1
 5912 065a 12000000 		.4byte	.LFE84
 5913 065e 0400     		.2byte	0x4
 5914 0660 F3       		.byte	0xf3
 5915 0661 01       		.uleb128 0x1
 5916 0662 50       		.byte	0x50
 5917 0663 9F       		.byte	0x9f
 5918 0664 00000000 		.4byte	0
 5919 0668 00000000 		.4byte	0
 5920              	.LLST40:
 5921 066c 00000000 		.4byte	.LVL157
 5922 0670 0C000000 		.4byte	.LVL158
 5923 0674 0100     		.2byte	0x1
 5924 0676 51       		.byte	0x51
 5925 0677 0C000000 		.4byte	.LVL158
 5926 067b 0F000000 		.4byte	.LVL159-1
 5927 067f 0100     		.2byte	0x1
 5928 0681 51       		.byte	0x51
 5929 0682 00000000 		.4byte	0
 5930 0686 00000000 		.4byte	0
 5931              	.LLST41:
 5932 068a 00000000 		.4byte	.LVL160
 5933 068e 0F000000 		.4byte	.LVL162-1
 5934 0692 0100     		.2byte	0x1
 5935 0694 50       		.byte	0x50
 5936 0695 0F000000 		.4byte	.LVL162-1
 5937 0699 16000000 		.4byte	.LFE85
 5938 069d 0400     		.2byte	0x4
 5939 069f F3       		.byte	0xf3
 5940 06a0 01       		.uleb128 0x1
 5941 06a1 50       		.byte	0x50
 5942 06a2 9F       		.byte	0x9f
 5943 06a3 00000000 		.4byte	0
 5944 06a7 00000000 		.4byte	0
 5945              	.LLST42:
 5946 06ab 00000000 		.4byte	.LVL160
 5947 06af 0C000000 		.4byte	.LVL161
 5948 06b3 0100     		.2byte	0x1
 5949 06b5 51       		.byte	0x51
 5950 06b6 0C000000 		.4byte	.LVL161
 5951 06ba 0F000000 		.4byte	.LVL162-1
 5952 06be 0100     		.2byte	0x1
 5953 06c0 51       		.byte	0x51
 5954 06c1 00000000 		.4byte	0
 5955 06c5 00000000 		.4byte	0
 5956              	.LLST43:
 5957 06c9 00000000 		.4byte	.LVL165
 5958 06cd 0C000000 		.4byte	.LVL166
 5959 06d1 0100     		.2byte	0x1
 5960 06d3 50       		.byte	0x50
 5961 06d4 0C000000 		.4byte	.LVL166
 5962 06d8 1E000000 		.4byte	.LVL170
 5963 06dc 0100     		.2byte	0x1
 5964 06de 54       		.byte	0x54
ARM GAS  C:\Users\Xwx47\AppData\Local\Temp\ccUdC8ee.s 			page 123


 5965 06df 1E000000 		.4byte	.LVL170
 5966 06e3 20000000 		.4byte	.LFE87
 5967 06e7 0400     		.2byte	0x4
 5968 06e9 F3       		.byte	0xf3
 5969 06ea 01       		.uleb128 0x1
 5970 06eb 50       		.byte	0x50
 5971 06ec 9F       		.byte	0x9f
 5972 06ed 00000000 		.4byte	0
 5973 06f1 00000000 		.4byte	0
 5974              	.LLST44:
 5975 06f5 00000000 		.4byte	.LVL165
 5976 06f9 0F000000 		.4byte	.LVL167-1
 5977 06fd 0100     		.2byte	0x1
 5978 06ff 51       		.byte	0x51
 5979 0700 0F000000 		.4byte	.LVL167-1
 5980 0704 1E000000 		.4byte	.LVL171
 5981 0708 0100     		.2byte	0x1
 5982 070a 55       		.byte	0x55
 5983 070b 1E000000 		.4byte	.LVL171
 5984 070f 20000000 		.4byte	.LFE87
 5985 0713 0400     		.2byte	0x4
 5986 0715 F3       		.byte	0xf3
 5987 0716 01       		.uleb128 0x1
 5988 0717 51       		.byte	0x51
 5989 0718 9F       		.byte	0x9f
 5990 0719 00000000 		.4byte	0
 5991 071d 00000000 		.4byte	0
 5992              	.LLST45:
 5993 0721 00000000 		.4byte	.LVL172
 5994 0725 0D000000 		.4byte	.LVL173-1
 5995 0729 0100     		.2byte	0x1
 5996 072b 50       		.byte	0x50
 5997 072c 0D000000 		.4byte	.LVL173-1
 5998 0730 14000000 		.4byte	.LFE88
 5999 0734 0400     		.2byte	0x4
 6000 0736 F3       		.byte	0xf3
 6001 0737 01       		.uleb128 0x1
 6002 0738 50       		.byte	0x50
 6003 0739 9F       		.byte	0x9f
 6004 073a 00000000 		.4byte	0
 6005 073e 00000000 		.4byte	0
 6006              	.LLST46:
 6007 0742 00000000 		.4byte	.LVL172
 6008 0746 0D000000 		.4byte	.LVL173-1
 6009 074a 0100     		.2byte	0x1
 6010 074c 51       		.byte	0x51
 6011 074d 0D000000 		.4byte	.LVL173-1
 6012 0751 14000000 		.4byte	.LFE88
 6013 0755 0400     		.2byte	0x4
 6014 0757 F3       		.byte	0xf3
 6015 0758 01       		.uleb128 0x1
 6016 0759 51       		.byte	0x51
 6017 075a 9F       		.byte	0x9f
 6018 075b 00000000 		.4byte	0
 6019 075f 00000000 		.4byte	0
 6020              	.LLST47:
 6021 0763 00000000 		.4byte	.LVL175
ARM GAS  C:\Users\Xwx47\AppData\Local\Temp\ccUdC8ee.s 			page 124


 6022 0767 0F000000 		.4byte	.LVL177-1
 6023 076b 0100     		.2byte	0x1
 6024 076d 50       		.byte	0x50
 6025 076e 0F000000 		.4byte	.LVL177-1
 6026 0772 12000000 		.4byte	.LFE89
 6027 0776 0400     		.2byte	0x4
 6028 0778 F3       		.byte	0xf3
 6029 0779 01       		.uleb128 0x1
 6030 077a 50       		.byte	0x50
 6031 077b 9F       		.byte	0x9f
 6032 077c 00000000 		.4byte	0
 6033 0780 00000000 		.4byte	0
 6034              	.LLST48:
 6035 0784 00000000 		.4byte	.LVL175
 6036 0788 0F000000 		.4byte	.LVL177-1
 6037 078c 0100     		.2byte	0x1
 6038 078e 51       		.byte	0x51
 6039 078f 0F000000 		.4byte	.LVL177-1
 6040 0793 12000000 		.4byte	.LFE89
 6041 0797 0400     		.2byte	0x4
 6042 0799 F3       		.byte	0xf3
 6043 079a 01       		.uleb128 0x1
 6044 079b 51       		.byte	0x51
 6045 079c 9F       		.byte	0x9f
 6046 079d 00000000 		.4byte	0
 6047 07a1 00000000 		.4byte	0
 6048              	.LLST49:
 6049 07a5 00000000 		.4byte	.LVL175
 6050 07a9 0C000000 		.4byte	.LVL176
 6051 07ad 0100     		.2byte	0x1
 6052 07af 52       		.byte	0x52
 6053 07b0 0C000000 		.4byte	.LVL176
 6054 07b4 0F000000 		.4byte	.LVL177-1
 6055 07b8 0100     		.2byte	0x1
 6056 07ba 52       		.byte	0x52
 6057 07bb 00000000 		.4byte	0
 6058 07bf 00000000 		.4byte	0
 6059              	.LLST50:
 6060 07c3 08000000 		.4byte	.LVL178
 6061 07c7 0A000000 		.4byte	.LVL179
 6062 07cb 0100     		.2byte	0x1
 6063 07cd 50       		.byte	0x50
 6064 07ce 00000000 		.4byte	0
 6065 07d2 00000000 		.4byte	0
 6066              	.LLST51:
 6067 07d6 00000000 		.4byte	.LVL193
 6068 07da 0A000000 		.4byte	.LVL194
 6069 07de 0100     		.2byte	0x1
 6070 07e0 50       		.byte	0x50
 6071 07e1 0A000000 		.4byte	.LVL194
 6072 07e5 10000000 		.4byte	.LFE95
 6073 07e9 0400     		.2byte	0x4
 6074 07eb F3       		.byte	0xf3
 6075 07ec 01       		.uleb128 0x1
 6076 07ed 50       		.byte	0x50
 6077 07ee 9F       		.byte	0x9f
 6078 07ef 00000000 		.4byte	0
ARM GAS  C:\Users\Xwx47\AppData\Local\Temp\ccUdC8ee.s 			page 125


 6079 07f3 00000000 		.4byte	0
 6080              	.LLST52:
 6081 07f7 02000000 		.4byte	.LVL196
 6082 07fb 1C000000 		.4byte	.LVL199
 6083 07ff 0200     		.2byte	0x2
 6084 0801 30       		.byte	0x30
 6085 0802 9F       		.byte	0x9f
 6086 0803 1C000000 		.4byte	.LVL199
 6087 0807 20000000 		.4byte	.LVL200
 6088 080b 0200     		.2byte	0x2
 6089 080d 34       		.byte	0x34
 6090 080e 9F       		.byte	0x9f
 6091 080f 20000000 		.4byte	.LVL200
 6092 0813 24000000 		.4byte	.LVL201
 6093 0817 0300     		.2byte	0x3
 6094 0819 08       		.byte	0x8
 6095 081a 70       		.byte	0x70
 6096 081b 9F       		.byte	0x9f
 6097 081c 24000000 		.4byte	.LVL201
 6098 0820 26000000 		.4byte	.LVL202
 6099 0824 0200     		.2byte	0x2
 6100 0826 30       		.byte	0x30
 6101 0827 9F       		.byte	0x9f
 6102 0828 26000000 		.4byte	.LVL202
 6103 082c 28000000 		.4byte	.LFE96
 6104 0830 0100     		.2byte	0x1
 6105 0832 50       		.byte	0x50
 6106 0833 00000000 		.4byte	0
 6107 0837 00000000 		.4byte	0
 6108              	.LLST53:
 6109 083b 06000000 		.4byte	.LVL197
 6110 083f 0A000000 		.4byte	.LVL198
 6111 0843 0100     		.2byte	0x1
 6112 0845 50       		.byte	0x50
 6113 0846 00000000 		.4byte	0
 6114 084a 00000000 		.4byte	0
 6115              		.section	.debug_aranges,"",%progbits
 6116 0000 14020000 		.4byte	0x214
 6117 0004 0200     		.2byte	0x2
 6118 0006 00000000 		.4byte	.Ldebug_info0
 6119 000a 04       		.byte	0x4
 6120 000b 00       		.byte	0
 6121 000c 0000     		.2byte	0
 6122 000e 0000     		.2byte	0
 6123 0010 00000000 		.4byte	.LFB34
 6124 0014 54000000 		.4byte	.LFE34-.LFB34
 6125 0018 00000000 		.4byte	.LFB35
 6126 001c 02000000 		.4byte	.LFE35-.LFB35
 6127 0020 00000000 		.4byte	.LFB36
 6128 0024 02000000 		.4byte	.LFE36-.LFB36
 6129 0028 00000000 		.4byte	.LFB37
 6130 002c 02000000 		.4byte	.LFE37-.LFB37
 6131 0030 00000000 		.4byte	.LFB38
 6132 0034 02000000 		.4byte	.LFE38-.LFB38
 6133 0038 00000000 		.4byte	.LFB39
 6134 003c 02000000 		.4byte	.LFE39-.LFB39
 6135 0040 00000000 		.4byte	.LFB40
ARM GAS  C:\Users\Xwx47\AppData\Local\Temp\ccUdC8ee.s 			page 126


 6136 0044 02000000 		.4byte	.LFE40-.LFB40
 6137 0048 00000000 		.4byte	.LFB42
 6138 004c 0C000000 		.4byte	.LFE42-.LFB42
 6139 0050 00000000 		.4byte	.LFB45
 6140 0054 0C000000 		.4byte	.LFE45-.LFB45
 6141 0058 00000000 		.4byte	.LFB46
 6142 005c 0C000000 		.4byte	.LFE46-.LFB46
 6143 0060 00000000 		.4byte	.LFB41
 6144 0064 12000000 		.4byte	.LFE41-.LFB41
 6145 0068 00000000 		.4byte	.LFB47
 6146 006c 0C000000 		.4byte	.LFE47-.LFB47
 6147 0070 00000000 		.4byte	.LFB48
 6148 0074 0C000000 		.4byte	.LFE48-.LFB48
 6149 0078 00000000 		.4byte	.LFB49
 6150 007c 12000000 		.4byte	.LFE49-.LFB49
 6151 0080 00000000 		.4byte	.LFB50
 6152 0084 0C000000 		.4byte	.LFE50-.LFB50
 6153 0088 00000000 		.4byte	.LFB51
 6154 008c 24000000 		.4byte	.LFE51-.LFB51
 6155 0090 00000000 		.4byte	.LFB52
 6156 0094 18000000 		.4byte	.LFE52-.LFB52
 6157 0098 00000000 		.4byte	.LFB53
 6158 009c 18000000 		.4byte	.LFE53-.LFB53
 6159 00a0 00000000 		.4byte	.LFB54
 6160 00a4 18000000 		.4byte	.LFE54-.LFB54
 6161 00a8 00000000 		.4byte	.LFB55
 6162 00ac 18000000 		.4byte	.LFE55-.LFB55
 6163 00b0 00000000 		.4byte	.LFB56
 6164 00b4 0C000000 		.4byte	.LFE56-.LFB56
 6165 00b8 00000000 		.4byte	.LFB57
 6166 00bc 24000000 		.4byte	.LFE57-.LFB57
 6167 00c0 00000000 		.4byte	.LFB58
 6168 00c4 0C000000 		.4byte	.LFE58-.LFB58
 6169 00c8 00000000 		.4byte	.LFB59
 6170 00cc 24000000 		.4byte	.LFE59-.LFB59
 6171 00d0 00000000 		.4byte	.LFB60
 6172 00d4 0C000000 		.4byte	.LFE60-.LFB60
 6173 00d8 00000000 		.4byte	.LFB61
 6174 00dc 24000000 		.4byte	.LFE61-.LFB61
 6175 00e0 00000000 		.4byte	.LFB62
 6176 00e4 0C000000 		.4byte	.LFE62-.LFB62
 6177 00e8 00000000 		.4byte	.LFB63
 6178 00ec 24000000 		.4byte	.LFE63-.LFB63
 6179 00f0 00000000 		.4byte	.LFB64
 6180 00f4 18000000 		.4byte	.LFE64-.LFB64
 6181 00f8 00000000 		.4byte	.LFB65
 6182 00fc 18000000 		.4byte	.LFE65-.LFB65
 6183 0100 00000000 		.4byte	.LFB66
 6184 0104 0E000000 		.4byte	.LFE66-.LFB66
 6185 0108 00000000 		.4byte	.LFB67
 6186 010c 08000000 		.4byte	.LFE67-.LFB67
 6187 0110 00000000 		.4byte	.LFB69
 6188 0114 26000000 		.4byte	.LFE69-.LFB69
 6189 0118 00000000 		.4byte	.LFB70
 6190 011c 26000000 		.4byte	.LFE70-.LFB70
 6191 0120 00000000 		.4byte	.LFB71
 6192 0124 0C000000 		.4byte	.LFE71-.LFB71
ARM GAS  C:\Users\Xwx47\AppData\Local\Temp\ccUdC8ee.s 			page 127


 6193 0128 00000000 		.4byte	.LFB72
 6194 012c 0C000000 		.4byte	.LFE72-.LFB72
 6195 0130 00000000 		.4byte	.LFB73
 6196 0134 0C000000 		.4byte	.LFE73-.LFB73
 6197 0138 00000000 		.4byte	.LFB74
 6198 013c 0C000000 		.4byte	.LFE74-.LFB74
 6199 0140 00000000 		.4byte	.LFB75
 6200 0144 0C000000 		.4byte	.LFE75-.LFB75
 6201 0148 00000000 		.4byte	.LFB76
 6202 014c 0C000000 		.4byte	.LFE76-.LFB76
 6203 0150 00000000 		.4byte	.LFB77
 6204 0154 16000000 		.4byte	.LFE77-.LFB77
 6205 0158 00000000 		.4byte	.LFB43
 6206 015c 12000000 		.4byte	.LFE43-.LFB43
 6207 0160 00000000 		.4byte	.LFB44
 6208 0164 12000000 		.4byte	.LFE44-.LFB44
 6209 0168 00000000 		.4byte	.LFB78
 6210 016c 0A000000 		.4byte	.LFE78-.LFB78
 6211 0170 00000000 		.4byte	.LFB79
 6212 0174 0A000000 		.4byte	.LFE79-.LFB79
 6213 0178 00000000 		.4byte	.LFB80
 6214 017c 16000000 		.4byte	.LFE80-.LFB80
 6215 0180 00000000 		.4byte	.LFB68
 6216 0184 0C000000 		.4byte	.LFE68-.LFB68
 6217 0188 00000000 		.4byte	.LFB81
 6218 018c 08000000 		.4byte	.LFE81-.LFB81
 6219 0190 00000000 		.4byte	.LFB82
 6220 0194 0E000000 		.4byte	.LFE82-.LFB82
 6221 0198 00000000 		.4byte	.LFB83
 6222 019c 0E000000 		.4byte	.LFE83-.LFB83
 6223 01a0 00000000 		.4byte	.LFB84
 6224 01a4 12000000 		.4byte	.LFE84-.LFB84
 6225 01a8 00000000 		.4byte	.LFB85
 6226 01ac 16000000 		.4byte	.LFE85-.LFB85
 6227 01b0 00000000 		.4byte	.LFB86
 6228 01b4 0E000000 		.4byte	.LFE86-.LFB86
 6229 01b8 00000000 		.4byte	.LFB87
 6230 01bc 20000000 		.4byte	.LFE87-.LFB87
 6231 01c0 00000000 		.4byte	.LFB88
 6232 01c4 14000000 		.4byte	.LFE88-.LFB88
 6233 01c8 00000000 		.4byte	.LFB89
 6234 01cc 12000000 		.4byte	.LFE89-.LFB89
 6235 01d0 00000000 		.4byte	.LFB90
 6236 01d4 10000000 		.4byte	.LFE90-.LFB90
 6237 01d8 00000000 		.4byte	.LFB91
 6238 01dc 0C000000 		.4byte	.LFE91-.LFB91
 6239 01e0 00000000 		.4byte	.LFB92
 6240 01e4 0C000000 		.4byte	.LFE92-.LFB92
 6241 01e8 00000000 		.4byte	.LFB93
 6242 01ec 0C000000 		.4byte	.LFE93-.LFB93
 6243 01f0 00000000 		.4byte	.LFB94
 6244 01f4 0C000000 		.4byte	.LFE94-.LFB94
 6245 01f8 00000000 		.4byte	.LFB33
 6246 01fc 30000000 		.4byte	.LFE33-.LFB33
 6247 0200 00000000 		.4byte	.LFB95
 6248 0204 10000000 		.4byte	.LFE95-.LFB95
 6249 0208 00000000 		.4byte	.LFB96
ARM GAS  C:\Users\Xwx47\AppData\Local\Temp\ccUdC8ee.s 			page 128


 6250 020c 28000000 		.4byte	.LFE96-.LFB96
 6251 0210 00000000 		.4byte	0
 6252 0214 00000000 		.4byte	0
 6253              		.section	.debug_ranges,"",%progbits
 6254              	.Ldebug_ranges0:
 6255 0000 00000000 		.4byte	.LFB34
 6256 0004 54000000 		.4byte	.LFE34
 6257 0008 00000000 		.4byte	.LFB35
 6258 000c 02000000 		.4byte	.LFE35
 6259 0010 00000000 		.4byte	.LFB36
 6260 0014 02000000 		.4byte	.LFE36
 6261 0018 00000000 		.4byte	.LFB37
 6262 001c 02000000 		.4byte	.LFE37
 6263 0020 00000000 		.4byte	.LFB38
 6264 0024 02000000 		.4byte	.LFE38
 6265 0028 00000000 		.4byte	.LFB39
 6266 002c 02000000 		.4byte	.LFE39
 6267 0030 00000000 		.4byte	.LFB40
 6268 0034 02000000 		.4byte	.LFE40
 6269 0038 00000000 		.4byte	.LFB42
 6270 003c 0C000000 		.4byte	.LFE42
 6271 0040 00000000 		.4byte	.LFB45
 6272 0044 0C000000 		.4byte	.LFE45
 6273 0048 00000000 		.4byte	.LFB46
 6274 004c 0C000000 		.4byte	.LFE46
 6275 0050 00000000 		.4byte	.LFB41
 6276 0054 12000000 		.4byte	.LFE41
 6277 0058 00000000 		.4byte	.LFB47
 6278 005c 0C000000 		.4byte	.LFE47
 6279 0060 00000000 		.4byte	.LFB48
 6280 0064 0C000000 		.4byte	.LFE48
 6281 0068 00000000 		.4byte	.LFB49
 6282 006c 12000000 		.4byte	.LFE49
 6283 0070 00000000 		.4byte	.LFB50
 6284 0074 0C000000 		.4byte	.LFE50
 6285 0078 00000000 		.4byte	.LFB51
 6286 007c 24000000 		.4byte	.LFE51
 6287 0080 00000000 		.4byte	.LFB52
 6288 0084 18000000 		.4byte	.LFE52
 6289 0088 00000000 		.4byte	.LFB53
 6290 008c 18000000 		.4byte	.LFE53
 6291 0090 00000000 		.4byte	.LFB54
 6292 0094 18000000 		.4byte	.LFE54
 6293 0098 00000000 		.4byte	.LFB55
 6294 009c 18000000 		.4byte	.LFE55
 6295 00a0 00000000 		.4byte	.LFB56
 6296 00a4 0C000000 		.4byte	.LFE56
 6297 00a8 00000000 		.4byte	.LFB57
 6298 00ac 24000000 		.4byte	.LFE57
 6299 00b0 00000000 		.4byte	.LFB58
 6300 00b4 0C000000 		.4byte	.LFE58
 6301 00b8 00000000 		.4byte	.LFB59
 6302 00bc 24000000 		.4byte	.LFE59
 6303 00c0 00000000 		.4byte	.LFB60
 6304 00c4 0C000000 		.4byte	.LFE60
 6305 00c8 00000000 		.4byte	.LFB61
 6306 00cc 24000000 		.4byte	.LFE61
ARM GAS  C:\Users\Xwx47\AppData\Local\Temp\ccUdC8ee.s 			page 129


 6307 00d0 00000000 		.4byte	.LFB62
 6308 00d4 0C000000 		.4byte	.LFE62
 6309 00d8 00000000 		.4byte	.LFB63
 6310 00dc 24000000 		.4byte	.LFE63
 6311 00e0 00000000 		.4byte	.LFB64
 6312 00e4 18000000 		.4byte	.LFE64
 6313 00e8 00000000 		.4byte	.LFB65
 6314 00ec 18000000 		.4byte	.LFE65
 6315 00f0 00000000 		.4byte	.LFB66
 6316 00f4 0E000000 		.4byte	.LFE66
 6317 00f8 00000000 		.4byte	.LFB67
 6318 00fc 08000000 		.4byte	.LFE67
 6319 0100 00000000 		.4byte	.LFB69
 6320 0104 26000000 		.4byte	.LFE69
 6321 0108 00000000 		.4byte	.LFB70
 6322 010c 26000000 		.4byte	.LFE70
 6323 0110 00000000 		.4byte	.LFB71
 6324 0114 0C000000 		.4byte	.LFE71
 6325 0118 00000000 		.4byte	.LFB72
 6326 011c 0C000000 		.4byte	.LFE72
 6327 0120 00000000 		.4byte	.LFB73
 6328 0124 0C000000 		.4byte	.LFE73
 6329 0128 00000000 		.4byte	.LFB74
 6330 012c 0C000000 		.4byte	.LFE74
 6331 0130 00000000 		.4byte	.LFB75
 6332 0134 0C000000 		.4byte	.LFE75
 6333 0138 00000000 		.4byte	.LFB76
 6334 013c 0C000000 		.4byte	.LFE76
 6335 0140 00000000 		.4byte	.LFB77
 6336 0144 16000000 		.4byte	.LFE77
 6337 0148 00000000 		.4byte	.LFB43
 6338 014c 12000000 		.4byte	.LFE43
 6339 0150 00000000 		.4byte	.LFB44
 6340 0154 12000000 		.4byte	.LFE44
 6341 0158 00000000 		.4byte	.LFB78
 6342 015c 0A000000 		.4byte	.LFE78
 6343 0160 00000000 		.4byte	.LFB79
 6344 0164 0A000000 		.4byte	.LFE79
 6345 0168 00000000 		.4byte	.LFB80
 6346 016c 16000000 		.4byte	.LFE80
 6347 0170 00000000 		.4byte	.LFB68
 6348 0174 0C000000 		.4byte	.LFE68
 6349 0178 00000000 		.4byte	.LFB81
 6350 017c 08000000 		.4byte	.LFE81
 6351 0180 00000000 		.4byte	.LFB82
 6352 0184 0E000000 		.4byte	.LFE82
 6353 0188 00000000 		.4byte	.LFB83
 6354 018c 0E000000 		.4byte	.LFE83
 6355 0190 00000000 		.4byte	.LFB84
 6356 0194 12000000 		.4byte	.LFE84
 6357 0198 00000000 		.4byte	.LFB85
 6358 019c 16000000 		.4byte	.LFE85
 6359 01a0 00000000 		.4byte	.LFB86
 6360 01a4 0E000000 		.4byte	.LFE86
 6361 01a8 00000000 		.4byte	.LFB87
 6362 01ac 20000000 		.4byte	.LFE87
 6363 01b0 00000000 		.4byte	.LFB88
ARM GAS  C:\Users\Xwx47\AppData\Local\Temp\ccUdC8ee.s 			page 130


 6364 01b4 14000000 		.4byte	.LFE88
 6365 01b8 00000000 		.4byte	.LFB89
 6366 01bc 12000000 		.4byte	.LFE89
 6367 01c0 00000000 		.4byte	.LFB90
 6368 01c4 10000000 		.4byte	.LFE90
 6369 01c8 00000000 		.4byte	.LFB91
 6370 01cc 0C000000 		.4byte	.LFE91
 6371 01d0 00000000 		.4byte	.LFB92
 6372 01d4 0C000000 		.4byte	.LFE92
 6373 01d8 00000000 		.4byte	.LFB93
 6374 01dc 0C000000 		.4byte	.LFE93
 6375 01e0 00000000 		.4byte	.LFB94
 6376 01e4 0C000000 		.4byte	.LFE94
 6377 01e8 00000000 		.4byte	.LFB33
 6378 01ec 30000000 		.4byte	.LFE33
 6379 01f0 00000000 		.4byte	.LFB95
 6380 01f4 10000000 		.4byte	.LFE95
 6381 01f8 00000000 		.4byte	.LFB96
 6382 01fc 28000000 		.4byte	.LFE96
 6383 0200 00000000 		.4byte	0
 6384 0204 00000000 		.4byte	0
 6385              		.section	.debug_line,"",%progbits
 6386              	.Ldebug_line0:
 6387 0000 26070000 		.section	.debug_str,"MS",%progbits,1
 6387      02002002 
 6387      00000201 
 6387      FB0E0D00 
 6387      01010101 
 6388              	.LASF111:
 6389 0000 4E52465F 		.ascii	"NRF_DYNPD_DPL_P2\000"
 6389      44594E50 
 6389      445F4450 
 6389      4C5F5032 
 6389      00
 6390              	.LASF112:
 6391 0011 4E52465F 		.ascii	"NRF_DYNPD_DPL_P3\000"
 6391      44594E50 
 6391      445F4450 
 6391      4C5F5033 
 6391      00
 6392              	.LASF113:
 6393 0022 4E52465F 		.ascii	"NRF_DYNPD_DPL_P4\000"
 6393      44594E50 
 6393      445F4450 
 6393      4C5F5034 
 6393      00
 6394              	.LASF114:
 6395 0033 4E52465F 		.ascii	"NRF_DYNPD_DPL_P5\000"
 6395      44594E50 
 6395      445F4450 
 6395      4C5F5035 
 6395      00
 6396              	.LASF201:
 6397 0044 6972715F 		.ascii	"irq_flag\000"
 6397      666C6167 
 6397      00
 6398              	.LASF218:
ARM GAS  C:\Users\Xwx47\AppData\Local\Temp\ccUdC8ee.s 			page 131


 6399 004d 43794465 		.ascii	"CyDelay\000"
 6399      6C617900 
 6400              	.LASF40:
 6401 0055 4E52465F 		.ascii	"NRF_FIFO_STATUS_REG\000"
 6401      4649464F 
 6401      5F535441 
 6401      5455535F 
 6401      52454700 
 6402              	.LASF98:
 6403 0069 4E52465F 		.ascii	"NRF_STATUS_MAX_RT_MASK\000"
 6403      53544154 
 6403      55535F4D 
 6403      41585F52 
 6403      545F4D41 
 6404              	.LASF143:
 6405 0080 6E524632 		.ascii	"nRF24_setAddressWidth\000"
 6405      345F7365 
 6405      74416464 
 6405      72657373 
 6405      57696474 
 6406              	.LASF181:
 6407 0096 6E524632 		.ascii	"nRF24_PTX_reuseLastTransmittedPayload\000"
 6407      345F5054 
 6407      585F7265 
 6407      7573654C 
 6407      61737454 
 6408              	.LASF140:
 6409 00bc 6E524632 		.ascii	"nRF24_disableAutoACK\000"
 6409      345F6469 
 6409      7361626C 
 6409      65417574 
 6409      6F41434B 
 6410              	.LASF134:
 6411 00d1 6E524632 		.ascii	"nRF24_setRxMode\000"
 6411      345F7365 
 6411      7452784D 
 6411      6F646500 
 6412              	.LASF70:
 6413 00e1 4E52465F 		.ascii	"NRF_CONFIG_MASK_TX_DS\000"
 6413      434F4E46 
 6413      49475F4D 
 6413      41534B5F 
 6413      54585F44 
 6414              	.LASF61:
 6415 00f7 4E52465F 		.ascii	"NRF_MAX_RT_IRQ\000"
 6415      4D41585F 
 6415      52545F49 
 6415      525100
 6416              	.LASF202:
 6417 0106 6E524632 		.ascii	"nRF24_getIRQFlag\000"
 6417      345F6765 
 6417      74495251 
 6417      466C6167 
 6417      00
 6418              	.LASF72:
 6419 0117 4E52465F 		.ascii	"NRF_EN_AA_ENAA_P0\000"
 6419      454E5F41 
ARM GAS  C:\Users\Xwx47\AppData\Local\Temp\ccUdC8ee.s 			page 132


 6419      415F454E 
 6419      41415F50 
 6419      3000
 6420              	.LASF128:
 6421 0129 6E524632 		.ascii	"nRF24_sleep\000"
 6421      345F736C 
 6421      65657000 
 6422              	.LASF8:
 6423 0135 756E7369 		.ascii	"unsigned int\000"
 6423      676E6564 
 6423      20696E74 
 6423      00
 6424              	.LASF96:
 6425 0142 4E52465F 		.ascii	"NRF_STATUS_RX_DR_MASK\000"
 6425      53544154 
 6425      55535F52 
 6425      585F4452 
 6425      5F4D4153 
 6426              	.LASF60:
 6427 0158 4E52465F 		.ascii	"NRF_NONE_IRQ\000"
 6427      4E4F4E45 
 6427      5F495251 
 6427      00
 6428              	.LASF212:
 6429 0165 6E524632 		.ascii	"nRF24_NOPCmd\000"
 6429      345F4E4F 
 6429      50436D64 
 6429      00
 6430              	.LASF137:
 6431 0172 6E524632 		.ascii	"nRF24_enableAutoACK\000"
 6431      345F656E 
 6431      61626C65 
 6431      4175746F 
 6431      41434B00 
 6432              	.LASF56:
 6433 0186 4E726650 		.ascii	"NrfPipePayloadSize\000"
 6433      69706550 
 6433      61796C6F 
 6433      61645369 
 6433      7A6500
 6434              	.LASF123:
 6435 0199 4E52465F 		.ascii	"NRF_ALL_IRQ_MASK\000"
 6435      414C4C5F 
 6435      4952515F 
 6435      4D41534B 
 6435      00
 6436              	.LASF124:
 6437 01aa 4E52465F 		.ascii	"NRF_STATUS_PIPES_MASK\000"
 6437      53544154 
 6437      55535F50 
 6437      49504553 
 6437      5F4D4153 
 6438              	.LASF69:
 6439 01c0 4E52465F 		.ascii	"NRF_CONFIG_MASK_MAX_RT\000"
 6439      434F4E46 
 6439      49475F4D 
 6439      41534B5F 
ARM GAS  C:\Users\Xwx47\AppData\Local\Temp\ccUdC8ee.s 			page 133


 6439      4D41585F 
 6440              	.LASF84:
 6441 01d7 4E52465F 		.ascii	"NRF_SETUP_AW_3BYTES\000"
 6441      53455455 
 6441      505F4157 
 6441      5F334259 
 6441      54455300 
 6442              	.LASF193:
 6443 01eb 6E524632 		.ascii	"nRF24_rxWritePayload\000"
 6443      345F7278 
 6443      57726974 
 6443      65506179 
 6443      6C6F6164 
 6444              	.LASF214:
 6445 0200 6E524632 		.ascii	"nRF24_readRXPayloadCmd\000"
 6445      345F7265 
 6445      61645258 
 6445      5061796C 
 6445      6F616443 
 6446              	.LASF145:
 6447 0217 6E524632 		.ascii	"nRF24_setRxPipe0Address\000"
 6447      345F7365 
 6447      74527850 
 6447      69706530 
 6447      41646472 
 6448              	.LASF30:
 6449 022f 4E52465F 		.ascii	"NRF_RX_ADDR_P3_REG\000"
 6449      52585F41 
 6449      4444525F 
 6449      50335F52 
 6449      454700
 6450              	.LASF138:
 6451 0242 6D6F6465 		.ascii	"mode\000"
 6451      00
 6452              	.LASF21:
 6453 0247 4E52465F 		.ascii	"NRF_SETUP_RETR_REG\000"
 6453      53455455 
 6453      505F5245 
 6453      54525F52 
 6453      454700
 6454              	.LASF148:
 6455 025a 6E524632 		.ascii	"nRF24_getRxPipe0Address\000"
 6455      345F6765 
 6455      74527850 
 6455      69706530 
 6455      41646472 
 6456              	.LASF131:
 6457 0272 6E524632 		.ascii	"nRF24_restoreConfig\000"
 6457      345F7265 
 6457      73746F72 
 6457      65436F6E 
 6457      66696700 
 6458              	.LASF185:
 6459 0286 6E524632 		.ascii	"nRF24_getLostPacketsCount\000"
 6459      345F6765 
 6459      744C6F73 
 6459      74506163 
ARM GAS  C:\Users\Xwx47\AppData\Local\Temp\ccUdC8ee.s 			page 134


 6459      6B657473 
 6460              	.LASF38:
 6461 02a0 4E52465F 		.ascii	"NRF_RX_PW_P4_REG\000"
 6461      52585F50 
 6461      575F5034 
 6461      5F524547 
 6461      00
 6462              	.LASF122:
 6463 02b1 4E52465F 		.ascii	"NRF_MAX_RF_CHANNEL\000"
 6463      4D41585F 
 6463      52465F43 
 6463      48414E4E 
 6463      454C00
 6464              	.LASF178:
 6465 02c4 6E524632 		.ascii	"nRF24_startListening\000"
 6465      345F7374 
 6465      6172744C 
 6465      69737465 
 6465      6E696E67 
 6466              	.LASF41:
 6467 02d9 4E52465F 		.ascii	"NRF_DYNPD_REG\000"
 6467      44594E50 
 6467      445F5245 
 6467      4700
 6468              	.LASF97:
 6469 02e7 4E52465F 		.ascii	"NRF_STATUS_TX_DS_MASK\000"
 6469      53544154 
 6469      55535F54 
 6469      585F4453 
 6469      5F4D4153 
 6470              	.LASF155:
 6471 02fd 6E524632 		.ascii	"nRF24_getRxPipe3Address\000"
 6471      345F6765 
 6471      74527850 
 6471      69706533 
 6471      41646472 
 6472              	.LASF27:
 6473 0315 4E52465F 		.ascii	"NRF_RX_ADDR_P0_REG\000"
 6473      52585F41 
 6473      4444525F 
 6473      50305F52 
 6473      454700
 6474              	.LASF221:
 6475 0328 6E524632 		.ascii	"nRF24_flushRxCmd\000"
 6475      345F666C 
 6475      75736852 
 6475      78436D64 
 6475      00
 6476              	.LASF64:
 6477 0339 4E726649 		.ascii	"NrfIRQ\000"
 6477      525100
 6478              	.LASF176:
 6479 0340 6E524632 		.ascii	"nRF24_setStandbyIMode\000"
 6479      345F7365 
 6479      74537461 
 6479      6E646279 
 6479      494D6F64 
ARM GAS  C:\Users\Xwx47\AppData\Local\Temp\ccUdC8ee.s 			page 135


 6480              	.LASF99:
 6481 0356 4E52465F 		.ascii	"NRF_OBSERVE_TX_ARC_CNT\000"
 6481      4F425345 
 6481      5256455F 
 6481      54585F41 
 6481      52435F43 
 6482              	.LASF42:
 6483 036d 4E52465F 		.ascii	"NRF_FEATURE_REG\000"
 6483      46454154 
 6483      5552455F 
 6483      52454700 
 6484              	.LASF35:
 6485 037d 4E52465F 		.ascii	"NRF_RX_PW_P1_REG\000"
 6485      52585F50 
 6485      575F5031 
 6485      5F524547 
 6485      00
 6486              	.LASF215:
 6487 038e 6E524632 		.ascii	"nRF24_noACKPayloadCmd\000"
 6487      345F6E6F 
 6487      41434B50 
 6487      61796C6F 
 6487      6164436D 
 6488              	.LASF11:
 6489 03a4 666C6F61 		.ascii	"float\000"
 6489      7400
 6490              	.LASF129:
 6491 03aa 6E524632 		.ascii	"nRF24_wakeup\000"
 6491      345F7761 
 6491      6B657570 
 6491      00
 6492              	.LASF106:
 6493 03b7 4E52465F 		.ascii	"NRF_FIFO_STATUS_TX_EMPTY\000"
 6493      4649464F 
 6493      5F535441 
 6493      5455535F 
 6493      54585F45 
 6494              	.LASF223:
 6495 03d0 474E5520 		.ascii	"GNU C11 5.4.1 20160609 (release) [ARM/embedded-5-br"
 6495      43313120 
 6495      352E342E 
 6495      31203230 
 6495      31363036 
 6496 0403 616E6368 		.ascii	"anch revision 237715] -mcpu=cortex-m0plus -mthumb -"
 6496      20726576 
 6496      6973696F 
 6496      6E203233 
 6496      37373135 
 6497 0436 67202D4F 		.ascii	"g -Og -ffunction-sections -ffat-lto-objects\000"
 6497      67202D66 
 6497      66756E63 
 6497      74696F6E 
 6497      2D736563 
 6498              	.LASF184:
 6499 0462 636F756E 		.ascii	"count\000"
 6499      7400
 6500              	.LASF154:
ARM GAS  C:\Users\Xwx47\AppData\Local\Temp\ccUdC8ee.s 			page 136


 6501 0468 6E524632 		.ascii	"nRF24_setRxPipe3Address\000"
 6501      345F7365 
 6501      74527850 
 6501      69706533 
 6501      41646472 
 6502              	.LASF183:
 6503 0480 6E524632 		.ascii	"nRF24_getRetransmissionsCount\000"
 6503      345F6765 
 6503      74526574 
 6503      72616E73 
 6503      6D697373 
 6504              	.LASF210:
 6505 049e 43794465 		.ascii	"CyDelayUs\000"
 6505      6C617955 
 6505      7300
 6506              	.LASF220:
 6507 04a8 5350495F 		.ascii	"SPI_Start\000"
 6507      53746172 
 6507      7400
 6508              	.LASF133:
 6509 04b2 6E524632 		.ascii	"nRF24_setPowerDownMode\000"
 6509      345F7365 
 6509      74506F77 
 6509      6572446F 
 6509      776E4D6F 
 6510              	.LASF7:
 6511 04c9 6C6F6E67 		.ascii	"long long unsigned int\000"
 6511      206C6F6E 
 6511      6720756E 
 6511      7369676E 
 6511      65642069 
 6512              	.LASF102:
 6513 04e0 4E52465F 		.ascii	"NRF_OBSERVE_TX_PLOS_CNT_MASK\000"
 6513      4F425345 
 6513      5256455F 
 6513      54585F50 
 6513      4C4F535F 
 6514              	.LASF88:
 6515 04fd 4E52465F 		.ascii	"NRF_SETUP_RETR_ARC\000"
 6515      53455455 
 6515      505F5245 
 6515      54525F41 
 6515      524300
 6516              	.LASF89:
 6517 0510 4E52465F 		.ascii	"NRF_SETUP_RETR_ARD\000"
 6517      53455455 
 6517      505F5245 
 6517      54525F41 
 6517      524400
 6518              	.LASF219:
 6519 0523 53535F57 		.ascii	"SS_Write\000"
 6519      72697465 
 6519      00
 6520              	.LASF200:
 6521 052c 6E524632 		.ascii	"nRF24_clearIRQFlag\000"
 6521      345F636C 
 6521      65617249 
ARM GAS  C:\Users\Xwx47\AppData\Local\Temp\ccUdC8ee.s 			page 137


 6521      5251466C 
 6521      616700
 6522              	.LASF196:
 6523 053f 6E524632 		.ascii	"nRF24_isTXFIFOFull\000"
 6523      345F6973 
 6523      54584649 
 6523      464F4675 
 6523      6C6C00
 6524              	.LASF92:
 6525 0552 4E52465F 		.ascii	"NRF_RF_SETUP_RF_DR_HIGH\000"
 6525      52465F53 
 6525      45545550 
 6525      5F52465F 
 6525      44525F48 
 6526              	.LASF126:
 6527 056a 6E524632 		.ascii	"nRF24_enable\000"
 6527      345F656E 
 6527      61626C65 
 6527      00
 6528              	.LASF222:
 6529 0577 6E524632 		.ascii	"nRF24_flushTxCmd\000"
 6529      345F666C 
 6529      75736854 
 6529      78436D64 
 6529      00
 6530              	.LASF187:
 6531 0588 6E524632 		.ascii	"nRF24_putInTXFIFO\000"
 6531      345F7075 
 6531      74496E54 
 6531      58464946 
 6531      4F00
 6532              	.LASF139:
 6533 059a 70697065 		.ascii	"pipe\000"
 6533      00
 6534              	.LASF171:
 6535 059f 6E524632 		.ascii	"nRF24_enablePayloadWithNoACKCmd\000"
 6535      345F656E 
 6535      61626C65 
 6535      5061796C 
 6535      6F616457 
 6536              	.LASF182:
 6537 05bf 6E524632 		.ascii	"nRF24_getStatus\000"
 6537      345F6765 
 6537      74537461 
 6537      74757300 
 6538              	.LASF119:
 6539 05cf 4E52465F 		.ascii	"NRF_MAX_PAYLOAD_SIZE\000"
 6539      4D41585F 
 6539      5041594C 
 6539      4F41445F 
 6539      53495A45 
 6540              	.LASF172:
 6541 05e4 6E524632 		.ascii	"nRF24_disablePayloadWithNoACKCmd\000"
 6541      345F6469 
 6541      7361626C 
 6541      65506179 
 6541      6C6F6164 
ARM GAS  C:\Users\Xwx47\AppData\Local\Temp\ccUdC8ee.s 			page 138


 6542              	.LASF165:
 6543 0605 6E524632 		.ascii	"nRF24_enableDynamicPayload\000"
 6543      345F656E 
 6543      61626C65 
 6543      44796E61 
 6543      6D696350 
 6544              	.LASF216:
 6545 0620 6E524632 		.ascii	"nRF24_writeACKPayloadCmd\000"
 6545      345F7772 
 6545      69746541 
 6545      434B5061 
 6545      796C6F61 
 6546              	.LASF24:
 6547 0639 4E52465F 		.ascii	"NRF_STATUS_REG\000"
 6547      53544154 
 6547      55535F52 
 6547      454700
 6548              	.LASF135:
 6549 0648 6E524632 		.ascii	"nRF24_setTxMode\000"
 6549      345F7365 
 6549      7454784D 
 6549      6F646500 
 6550              	.LASF194:
 6551 0658 6E524632 		.ascii	"nRF24_getDataPipeWithPayload\000"
 6551      345F6765 
 6551      74446174 
 6551      61506970 
 6551      65576974 
 6552              	.LASF14:
 6553 0675 73697A65 		.ascii	"size_t\000"
 6553      5F7400
 6554              	.LASF66:
 6555 067c 4E52465F 		.ascii	"NRF_CONFIG_PWR_UP\000"
 6555      434F4E46 
 6555      49475F50 
 6555      57525F55 
 6555      5000
 6556              	.LASF31:
 6557 068e 4E52465F 		.ascii	"NRF_RX_ADDR_P4_REG\000"
 6557      52585F41 
 6557      4444525F 
 6557      50345F52 
 6557      454700
 6558              	.LASF43:
 6559 06a1 4E52465F 		.ascii	"NRF_PIPE0\000"
 6559      50495045 
 6559      3000
 6560              	.LASF44:
 6561 06ab 4E52465F 		.ascii	"NRF_PIPE1\000"
 6561      50495045 
 6561      3100
 6562              	.LASF45:
 6563 06b5 4E52465F 		.ascii	"NRF_PIPE2\000"
 6563      50495045 
 6563      3200
 6564              	.LASF46:
 6565 06bf 4E52465F 		.ascii	"NRF_PIPE3\000"
ARM GAS  C:\Users\Xwx47\AppData\Local\Temp\ccUdC8ee.s 			page 139


 6565      50495045 
 6565      3300
 6566              	.LASF47:
 6567 06c9 4E52465F 		.ascii	"NRF_PIPE4\000"
 6567      50495045 
 6567      3400
 6568              	.LASF48:
 6569 06d3 4E52465F 		.ascii	"NRF_PIPE5\000"
 6569      50495045 
 6569      3500
 6570              	.LASF174:
 6571 06dd 6C697374 		.ascii	"listen\000"
 6571      656E00
 6572              	.LASF141:
 6573 06e4 6E524632 		.ascii	"nRF24_setChannel\000"
 6573      345F7365 
 6573      74436861 
 6573      6E6E656C 
 6573      00
 6574              	.LASF206:
 6575 06f5 6E524632 		.ascii	"nRF24_readRegister\000"
 6575      345F7265 
 6575      61645265 
 6575      67697374 
 6575      657200
 6576              	.LASF199:
 6577 0708 6E524632 		.ascii	"nRF24_start\000"
 6577      345F7374 
 6577      61727400 
 6578              	.LASF86:
 6579 0714 4E52465F 		.ascii	"NRF_SETUP_AW_5BYTES\000"
 6579      53455455 
 6579      505F4157 
 6579      5F354259 
 6579      54455300 
 6580              	.LASF191:
 6581 0728 6E524632 		.ascii	"nRF24_getRxPayload\000"
 6581      345F6765 
 6581      74527850 
 6581      61796C6F 
 6581      616400
 6582              	.LASF173:
 6583 073b 6E524632 		.ascii	"nRF24_listen\000"
 6583      345F6C69 
 6583      7374656E 
 6583      00
 6584              	.LASF13:
 6585 0748 63686172 		.ascii	"char\000"
 6585      00
 6586              	.LASF205:
 6587 074d 6E524632 		.ascii	"nRF24_setBit\000"
 6587      345F7365 
 6587      74426974 
 6587      00
 6588              	.LASF224:
 6589 075a 47656E65 		.ascii	"Generated_Source\\PSoC4\\nRF24_NRF_FUNCS.c\000"
 6589      72617465 
ARM GAS  C:\Users\Xwx47\AppData\Local\Temp\ccUdC8ee.s 			page 140


 6589      645F536F 
 6589      75726365 
 6589      5C50536F 
 6590              	.LASF58:
 6591 0783 4E52465F 		.ascii	"NRF_MODE_RX\000"
 6591      4D4F4445 
 6591      5F525800 
 6592              	.LASF163:
 6593 078f 6E524632 		.ascii	"nRF24_getAddressWidth\000"
 6593      345F6765 
 6593      74416464 
 6593      72657373 
 6593      57696474 
 6594              	.LASF161:
 6595 07a5 6E524632 		.ascii	"nRF24_getTxAddress\000"
 6595      345F6765 
 6595      74547841 
 6595      64647265 
 6595      737300
 6596              	.LASF32:
 6597 07b8 4E52465F 		.ascii	"NRF_RX_ADDR_P5_REG\000"
 6597      52585F41 
 6597      4444525F 
 6597      50355F52 
 6597      454700
 6598              	.LASF188:
 6599 07cb 64617461 		.ascii	"data\000"
 6599      00
 6600              	.LASF166:
 6601 07d0 6E524632 		.ascii	"nRF24_disableDynamicPayload\000"
 6601      345F6469 
 6601      7361626C 
 6601      6544796E 
 6601      616D6963 
 6602              	.LASF10:
 6603 07ec 75696E74 		.ascii	"uint8_t\000"
 6603      385F7400 
 6604              	.LASF198:
 6605 07f4 6E524632 		.ascii	"nRF24_clearAllIRQs\000"
 6605      345F636C 
 6605      65617241 
 6605      6C6C4952 
 6605      517300
 6606              	.LASF217:
 6607 0807 6E524632 		.ascii	"nRF24_readBit\000"
 6607      345F7265 
 6607      61644269 
 6607      7400
 6608              	.LASF63:
 6609 0815 4E52465F 		.ascii	"NRF_RX_DR_IRQ\000"
 6609      52585F44 
 6609      525F4952 
 6609      5100
 6610              	.LASF125:
 6611 0823 4E52465F 		.ascii	"NRF_STATUS_PIPES_SHIFT\000"
 6611      53544154 
 6611      55535F50 
ARM GAS  C:\Users\Xwx47\AppData\Local\Temp\ccUdC8ee.s 			page 141


 6611      49504553 
 6611      5F534849 
 6612              	.LASF103:
 6613 083a 4E52465F 		.ascii	"NRF_RPD_RPD\000"
 6613      5250445F 
 6613      52504400 
 6614              	.LASF116:
 6615 0846 4E52465F 		.ascii	"NRF_FEATURE_EN_ACK_PAY\000"
 6615      46454154 
 6615      5552455F 
 6615      454E5F41 
 6615      434B5F50 
 6616              	.LASF22:
 6617 085d 4E52465F 		.ascii	"NRF_RF_CH_REG\000"
 6617      52465F43 
 6617      485F5245 
 6617      4700
 6618              	.LASF29:
 6619 086b 4E52465F 		.ascii	"NRF_RX_ADDR_P2_REG\000"
 6619      52585F41 
 6619      4444525F 
 6619      50325F52 
 6619      454700
 6620              	.LASF6:
 6621 087e 6C6F6E67 		.ascii	"long long int\000"
 6621      206C6F6E 
 6621      6720696E 
 6621      7400
 6622              	.LASF33:
 6623 088c 4E52465F 		.ascii	"NRF_TX_ADDR_REG\000"
 6623      54585F41 
 6623      4444525F 
 6623      52454700 
 6624              	.LASF152:
 6625 089c 61646472 		.ascii	"addr_lsb\000"
 6625      5F6C7362 
 6625      00
 6626              	.LASF37:
 6627 08a5 4E52465F 		.ascii	"NRF_RX_PW_P3_REG\000"
 6627      52585F50 
 6627      575F5033 
 6627      5F524547 
 6627      00
 6628              	.LASF59:
 6629 08b6 4E72664D 		.ascii	"NrfMode\000"
 6629      6F646500 
 6630              	.LASF225:
 6631 08be 433A5C55 		.ascii	"C:\\Users\\Xwx47\\Documents\\Creator\\nRF24_Example"
 6631      73657273 
 6631      5C587778 
 6631      34375C44 
 6631      6F63756D 
 6632 08ec 5F50726F 		.ascii	"_Projects\\00_Basic_Rx.cydsn\000"
 6632      6A656374 
 6632      735C3030 
 6632      5F426173 
 6632      69635F52 
ARM GAS  C:\Users\Xwx47\AppData\Local\Temp\ccUdC8ee.s 			page 142


 6633              	.LASF180:
 6634 0908 6E524632 		.ascii	"nRF24_transmitPulse\000"
 6634      345F7472 
 6634      616E736D 
 6634      69745075 
 6634      6C736500 
 6635              	.LASF150:
 6636 091c 6E524632 		.ascii	"nRF24_getRxPipe1Address\000"
 6636      345F6765 
 6636      74527850 
 6636      69706531 
 6636      41646472 
 6637              	.LASF157:
 6638 0934 6E524632 		.ascii	"nRF24_getRxPipe4Address\000"
 6638      345F6765 
 6638      74527850 
 6638      69706534 
 6638      41646472 
 6639              	.LASF121:
 6640 094c 4E52465F 		.ascii	"NRF_POWER_UP_DELAY\000"
 6640      504F5745 
 6640      525F5550 
 6640      5F44454C 
 6640      415900
 6641              	.LASF118:
 6642 095f 4E52465F 		.ascii	"NRF_MAX_ADDR_SIZE\000"
 6642      4D41585F 
 6642      41444452 
 6642      5F53495A 
 6642      4500
 6643              	.LASF149:
 6644 0971 6E524632 		.ascii	"nRF24_setRxPipe1Address\000"
 6644      345F7365 
 6644      74527850 
 6644      69706531 
 6644      41646472 
 6645              	.LASF34:
 6646 0989 4E52465F 		.ascii	"NRF_RX_PW_P0_REG\000"
 6646      52585F50 
 6646      575F5030 
 6646      5F524547 
 6646      00
 6647              	.LASF57:
 6648 099a 4E52465F 		.ascii	"NRF_MODE_TX\000"
 6648      4D4F4445 
 6648      5F545800 
 6649              	.LASF147:
 6650 09a6 73697A65 		.ascii	"size\000"
 6650      00
 6651              	.LASF209:
 6652 09ab 43455F57 		.ascii	"CE_Write\000"
 6652      72697465 
 6652      00
 6653              	.LASF203:
 6654 09b4 6E524632 		.ascii	"nRF24_writeRegister\000"
 6654      345F7772 
 6654      69746552 
ARM GAS  C:\Users\Xwx47\AppData\Local\Temp\ccUdC8ee.s 			page 143


 6654      65676973 
 6654      74657200 
 6655              	.LASF78:
 6656 09c8 4E52465F 		.ascii	"NRF_EN_RXADDR_ERX_P0\000"
 6656      454E5F52 
 6656      58414444 
 6656      525F4552 
 6656      585F5030 
 6657              	.LASF79:
 6658 09dd 4E52465F 		.ascii	"NRF_EN_RXADDR_ERX_P1\000"
 6658      454E5F52 
 6658      58414444 
 6658      525F4552 
 6658      585F5031 
 6659              	.LASF80:
 6660 09f2 4E52465F 		.ascii	"NRF_EN_RXADDR_ERX_P2\000"
 6660      454E5F52 
 6660      58414444 
 6660      525F4552 
 6660      585F5032 
 6661              	.LASF81:
 6662 0a07 4E52465F 		.ascii	"NRF_EN_RXADDR_ERX_P3\000"
 6662      454E5F52 
 6662      58414444 
 6662      525F4552 
 6662      585F5033 
 6663              	.LASF82:
 6664 0a1c 4E52465F 		.ascii	"NRF_EN_RXADDR_ERX_P4\000"
 6664      454E5F52 
 6664      58414444 
 6664      525F4552 
 6664      585F5034 
 6665              	.LASF83:
 6666 0a31 4E52465F 		.ascii	"NRF_EN_RXADDR_ERX_P5\000"
 6666      454E5F52 
 6666      58414444 
 6666      525F4552 
 6666      585F5035 
 6667              	.LASF160:
 6668 0a46 6E524632 		.ascii	"nRF24_setTxAddress\000"
 6668      345F7365 
 6668      74547841 
 6668      64647265 
 6668      737300
 6669              	.LASF117:
 6670 0a59 4E52465F 		.ascii	"NRF_FEATURE_EN_DPL\000"
 6670      46454154 
 6670      5552455F 
 6670      454E5F44 
 6670      504C00
 6671              	.LASF115:
 6672 0a6c 4E52465F 		.ascii	"NRF_FEATURE_EN_DYN_ACK\000"
 6672      46454154 
 6672      5552455F 
 6672      454E5F44 
 6672      594E5F41 
 6673              	.LASF175:
ARM GAS  C:\Users\Xwx47\AppData\Local\Temp\ccUdC8ee.s 			page 144


 6674 0a83 5F426F6F 		.ascii	"_Bool\000"
 6674      6C00
 6675              	.LASF156:
 6676 0a89 6E524632 		.ascii	"nRF24_setRxPipe4Address\000"
 6676      345F7365 
 6676      74527850 
 6676      69706534 
 6676      41646472 
 6677              	.LASF15:
 6678 0aa1 6C6F6E67 		.ascii	"long double\000"
 6678      20646F75 
 6678      626C6500 
 6679              	.LASF104:
 6680 0aad 4E52465F 		.ascii	"NRF_FIFO_STATUS_RX_EMPTY\000"
 6680      4649464F 
 6680      5F535441 
 6680      5455535F 
 6680      52585F45 
 6681              	.LASF94:
 6682 0ac6 4E52465F 		.ascii	"NRF_RF_SETUP_RF_DR_LOW\000"
 6682      52465F53 
 6682      45545550 
 6682      5F52465F 
 6682      44525F4C 
 6683              	.LASF142:
 6684 0add 6368616E 		.ascii	"channel\000"
 6684      6E656C00 
 6685              	.LASF136:
 6686 0ae5 6E524632 		.ascii	"nRF24_setMode\000"
 6686      345F7365 
 6686      744D6F64 
 6686      6500
 6687              	.LASF101:
 6688 0af3 4E52465F 		.ascii	"NRF_OBSERVE_TX_ARC_CNT_MASK\000"
 6688      4F425345 
 6688      5256455F 
 6688      54585F41 
 6688      52435F43 
 6689              	.LASF49:
 6690 0b0f 4E726650 		.ascii	"NrfPipe\000"
 6690      69706500 
 6691              	.LASF23:
 6692 0b17 4E52465F 		.ascii	"NRF_RF_SETUP_REG\000"
 6692      52465F53 
 6692      45545550 
 6692      5F524547 
 6692      00
 6693              	.LASF105:
 6694 0b28 4E52465F 		.ascii	"NRF_FIFO_STATUS_RX_FULL\000"
 6694      4649464F 
 6694      5F535441 
 6694      5455535F 
 6694      52585F46 
 6695              	.LASF127:
 6696 0b40 6E524632 		.ascii	"nRF24_stop\000"
 6696      345F7374 
 6696      6F7000
ARM GAS  C:\Users\Xwx47\AppData\Local\Temp\ccUdC8ee.s 			page 145


 6697              	.LASF2:
 6698 0b4b 73686F72 		.ascii	"short int\000"
 6698      7420696E 
 6698      7400
 6699              	.LASF91:
 6700 0b55 4E52465F 		.ascii	"NRF_RF_SETUP_RF_DR\000"
 6700      52465F53 
 6700      45545550 
 6700      5F52465F 
 6700      445200
 6701              	.LASF130:
 6702 0b68 6E524632 		.ascii	"nRF24_saveConfig\000"
 6702      345F7361 
 6702      7665436F 
 6702      6E666967 
 6702      00
 6703              	.LASF19:
 6704 0b79 4E52465F 		.ascii	"NRF_EN_RXADDR_REG\000"
 6704      454E5F52 
 6704      58414444 
 6704      525F5245 
 6704      4700
 6705              	.LASF4:
 6706 0b8b 6C6F6E67 		.ascii	"long int\000"
 6706      20696E74 
 6706      00
 6707              	.LASF62:
 6708 0b94 4E52465F 		.ascii	"NRF_TX_DS_IRQ\000"
 6708      54585F44 
 6708      535F4952 
 6708      5100
 6709              	.LASF87:
 6710 0ba2 4E726653 		.ascii	"NrfSetupAddressWidth\000"
 6710      65747570 
 6710      41646472 
 6710      65737357 
 6710      69647468 
 6711              	.LASF162:
 6712 0bb7 6E524632 		.ascii	"nRF24_setPayloadSize\000"
 6712      345F7365 
 6712      74506179 
 6712      6C6F6164 
 6712      53697A65 
 6713              	.LASF190:
 6714 0bcc 6E524632 		.ascii	"nRF24_isDataReady\000"
 6714      345F6973 
 6714      44617461 
 6714      52656164 
 6714      7900
 6715              	.LASF132:
 6716 0bde 6E524632 		.ascii	"nRF24_init\000"
 6716      345F696E 
 6716      697400
 6717              	.LASF208:
 6718 0be9 6E524632 		.ascii	"nRF24_readLongRegister\000"
 6718      345F7265 
 6718      61644C6F 
ARM GAS  C:\Users\Xwx47\AppData\Local\Temp\ccUdC8ee.s 			page 146


 6718      6E675265 
 6718      67697374 
 6719              	.LASF169:
 6720 0c00 6E524632 		.ascii	"nRF24_enablePayloadWithACK\000"
 6720      345F656E 
 6720      61626C65 
 6720      5061796C 
 6720      6F616457 
 6721              	.LASF25:
 6722 0c1b 4E52465F 		.ascii	"NRF_OBSERVE_TX_REG\000"
 6722      4F425345 
 6722      5256455F 
 6722      54585F52 
 6722      454700
 6723              	.LASF95:
 6724 0c2e 4E52465F 		.ascii	"NRF_RF_SETUP_CONT_WAVE\000"
 6724      52465F53 
 6724      45545550 
 6724      5F434F4E 
 6724      545F5741 
 6725              	.LASF144:
 6726 0c45 61646472 		.ascii	"addr_width\000"
 6726      5F776964 
 6726      746800
 6727              	.LASF71:
 6728 0c50 4E52465F 		.ascii	"NRF_CONFIG_MASK_RX_DR\000"
 6728      434F4E46 
 6728      49475F4D 
 6728      41534B5F 
 6728      52585F44 
 6729              	.LASF9:
 6730 0c66 5F5F7569 		.ascii	"__uint8_t\000"
 6730      6E74385F 
 6730      7400
 6731              	.LASF85:
 6732 0c70 4E52465F 		.ascii	"NRF_SETUP_AW_4BYTES\000"
 6732      53455455 
 6732      505F4157 
 6732      5F344259 
 6732      54455300 
 6733              	.LASF26:
 6734 0c84 4E52465F 		.ascii	"NRF_RPD_REG\000"
 6734      5250445F 
 6734      52454700 
 6735              	.LASF20:
 6736 0c90 4E52465F 		.ascii	"NRF_SETUP_AW_REG\000"
 6736      53455455 
 6736      505F4157 
 6736      5F524547 
 6736      00
 6737              	.LASF207:
 6738 0ca1 6E524632 		.ascii	"nRF24_writeLongRegister\000"
 6738      345F7772 
 6738      6974654C 
 6738      6F6E6752 
 6738      65676973 
 6739              	.LASF65:
ARM GAS  C:\Users\Xwx47\AppData\Local\Temp\ccUdC8ee.s 			page 147


 6740 0cb9 4E52465F 		.ascii	"NRF_CONFIG_PRIM_RX\000"
 6740      434F4E46 
 6740      49475F50 
 6740      52494D5F 
 6740      525800
 6741              	.LASF16:
 6742 0ccc 73697A65 		.ascii	"sizetype\000"
 6742      74797065 
 6742      00
 6743              	.LASF18:
 6744 0cd5 4E52465F 		.ascii	"NRF_EN_AA_REG\000"
 6744      454E5F41 
 6744      415F5245 
 6744      4700
 6745              	.LASF5:
 6746 0ce3 6C6F6E67 		.ascii	"long unsigned int\000"
 6746      20756E73 
 6746      69676E65 
 6746      6420696E 
 6746      7400
 6747              	.LASF153:
 6748 0cf5 6E524632 		.ascii	"nRF24_getRxPipe2Address\000"
 6748      345F6765 
 6748      74527850 
 6748      69706532 
 6748      41646472 
 6749              	.LASF107:
 6750 0d0d 4E52465F 		.ascii	"NRF_FIFO_STATUS_TX_FULL\000"
 6750      4649464F 
 6750      5F535441 
 6750      5455535F 
 6750      54585F46 
 6751              	.LASF39:
 6752 0d25 4E52465F 		.ascii	"NRF_RX_PW_P5_REG\000"
 6752      52585F50 
 6752      575F5035 
 6752      5F524547 
 6752      00
 6753              	.LASF90:
 6754 0d36 4E52465F 		.ascii	"NRF_RF_SETUP_RF_PWR\000"
 6754      52465F53 
 6754      45545550 
 6754      5F52465F 
 6754      50575200 
 6755              	.LASF1:
 6756 0d4a 756E7369 		.ascii	"unsigned char\000"
 6756      676E6564 
 6756      20636861 
 6756      7200
 6757              	.LASF28:
 6758 0d58 4E52465F 		.ascii	"NRF_RX_ADDR_P1_REG\000"
 6758      52585F41 
 6758      4444525F 
 6758      50315F52 
 6758      454700
 6759              	.LASF192:
 6760 0d6b 6E524632 		.ascii	"nRF24_txTransmitWaitNoACK\000"
ARM GAS  C:\Users\Xwx47\AppData\Local\Temp\ccUdC8ee.s 			page 148


 6760      345F7478 
 6760      5472616E 
 6760      736D6974 
 6760      57616974 
 6761              	.LASF55:
 6762 0d85 4E52465F 		.ascii	"NRF_PIPE5_PAYLOAD_SIZE\000"
 6762      50495045 
 6762      355F5041 
 6762      594C4F41 
 6762      445F5349 
 6763              	.LASF167:
 6764 0d9c 6E524632 		.ascii	"nRF24_enableDynamicPayloadLength\000"
 6764      345F656E 
 6764      61626C65 
 6764      44796E61 
 6764      6D696350 
 6765              	.LASF151:
 6766 0dbd 6E524632 		.ascii	"nRF24_setRxPipe2Address\000"
 6766      345F7365 
 6766      74527850 
 6766      69706532 
 6766      41646472 
 6767              	.LASF36:
 6768 0dd5 4E52465F 		.ascii	"NRF_RX_PW_P2_REG\000"
 6768      52585F50 
 6768      575F5032 
 6768      5F524547 
 6768      00
 6769              	.LASF146:
 6770 0de6 61646472 		.ascii	"addr\000"
 6770      00
 6771              	.LASF170:
 6772 0deb 6E524632 		.ascii	"nRF24_disablePayloadWithACK\000"
 6772      345F6469 
 6772      7361626C 
 6772      65506179 
 6772      6C6F6164 
 6773              	.LASF54:
 6774 0e07 4E52465F 		.ascii	"NRF_PIPE4_PAYLOAD_SIZE\000"
 6774      50495045 
 6774      345F5041 
 6774      594C4F41 
 6774      445F5349 
 6775              	.LASF93:
 6776 0e1e 4E52465F 		.ascii	"NRF_RF_SETUP_PLL_LOCK\000"
 6776      52465F53 
 6776      45545550 
 6776      5F504C4C 
 6776      5F4C4F43 
 6777              	.LASF189:
 6778 0e34 6E524632 		.ascii	"nRF24_PTX_Transmit\000"
 6778      345F5054 
 6778      585F5472 
 6778      616E736D 
 6778      697400
 6779              	.LASF211:
 6780 0e47 6E524632 		.ascii	"nRF24_reuseTxPayloadCmd\000"
ARM GAS  C:\Users\Xwx47\AppData\Local\Temp\ccUdC8ee.s 			page 149


 6780      345F7265 
 6780      75736554 
 6780      78506179 
 6780      6C6F6164 
 6781              	.LASF51:
 6782 0e5f 4E52465F 		.ascii	"NRF_PIPE1_PAYLOAD_SIZE\000"
 6782      50495045 
 6782      315F5041 
 6782      594C4F41 
 6782      445F5349 
 6783              	.LASF197:
 6784 0e76 6E524632 		.ascii	"nRF24_isRXFIFOEmpty\000"
 6784      345F6973 
 6784      52584649 
 6784      464F456D 
 6784      70747900 
 6785              	.LASF179:
 6786 0e8a 6E524632 		.ascii	"nRF24_stopListening\000"
 6786      345F7374 
 6786      6F704C69 
 6786      7374656E 
 6786      696E6700 
 6787              	.LASF213:
 6788 0e9e 6E524632 		.ascii	"nRF24_writeTXPayloadCmd\000"
 6788      345F7772 
 6788      69746554 
 6788      58506179 
 6788      6C6F6164 
 6789              	.LASF0:
 6790 0eb6 7369676E 		.ascii	"signed char\000"
 6790      65642063 
 6790      68617200 
 6791              	.LASF3:
 6792 0ec2 73686F72 		.ascii	"short unsigned int\000"
 6792      7420756E 
 6792      7369676E 
 6792      65642069 
 6792      6E7400
 6793              	.LASF53:
 6794 0ed5 4E52465F 		.ascii	"NRF_PIPE3_PAYLOAD_SIZE\000"
 6794      50495045 
 6794      335F5041 
 6794      594C4F41 
 6794      445F5349 
 6795              	.LASF159:
 6796 0eec 6E524632 		.ascii	"nRF24_getRxPipe5Address\000"
 6796      345F6765 
 6796      74527850 
 6796      69706535 
 6796      41646472 
 6797              	.LASF50:
 6798 0f04 4E52465F 		.ascii	"NRF_PIPE0_PAYLOAD_SIZE\000"
 6798      50495045 
 6798      305F5041 
 6798      594C4F41 
 6798      445F5349 
 6799              	.LASF186:
ARM GAS  C:\Users\Xwx47\AppData\Local\Temp\ccUdC8ee.s 			page 150


 6800 0f1b 6C6F7374 		.ascii	"lostPackets\000"
 6800      5061636B 
 6800      65747300 
 6801              	.LASF164:
 6802 0f27 6E524632 		.ascii	"nRF24_getPayloadSize\000"
 6802      345F6765 
 6802      74506179 
 6802      6C6F6164 
 6802      53697A65 
 6803              	.LASF120:
 6804 0f3c 4E52465F 		.ascii	"NRF_CE_PULSE_WIDTH\000"
 6804      43455F50 
 6804      554C5345 
 6804      5F574944 
 6804      544800
 6805              	.LASF177:
 6806 0f4f 6E524632 		.ascii	"nRF24_setStandbyIIMode\000"
 6806      345F7365 
 6806      74537461 
 6806      6E646279 
 6806      49494D6F 
 6807              	.LASF195:
 6808 0f66 6E524632 		.ascii	"nRF24_PRX_receivedPowerDetector\000"
 6808      345F5052 
 6808      585F7265 
 6808      63656976 
 6808      6564506F 
 6809              	.LASF68:
 6810 0f86 4E52465F 		.ascii	"NRF_CONFIG_EN_CRC\000"
 6810      434F4E46 
 6810      49475F45 
 6810      4E5F4352 
 6810      4300
 6811              	.LASF12:
 6812 0f98 646F7562 		.ascii	"double\000"
 6812      6C6500
 6813              	.LASF73:
 6814 0f9f 4E52465F 		.ascii	"NRF_EN_AA_ENAA_P1\000"
 6814      454E5F41 
 6814      415F454E 
 6814      41415F50 
 6814      3100
 6815              	.LASF74:
 6816 0fb1 4E52465F 		.ascii	"NRF_EN_AA_ENAA_P2\000"
 6816      454E5F41 
 6816      415F454E 
 6816      41415F50 
 6816      3200
 6817              	.LASF75:
 6818 0fc3 4E52465F 		.ascii	"NRF_EN_AA_ENAA_P3\000"
 6818      454E5F41 
 6818      415F454E 
 6818      41415F50 
 6818      3300
 6819              	.LASF76:
 6820 0fd5 4E52465F 		.ascii	"NRF_EN_AA_ENAA_P4\000"
 6820      454E5F41 
ARM GAS  C:\Users\Xwx47\AppData\Local\Temp\ccUdC8ee.s 			page 151


 6820      415F454E 
 6820      41415F50 
 6820      3400
 6821              	.LASF77:
 6822 0fe7 4E52465F 		.ascii	"NRF_EN_AA_ENAA_P5\000"
 6822      454E5F41 
 6822      415F454E 
 6822      41415F50 
 6822      3500
 6823              	.LASF52:
 6824 0ff9 4E52465F 		.ascii	"NRF_PIPE2_PAYLOAD_SIZE\000"
 6824      50495045 
 6824      325F5041 
 6824      594C4F41 
 6824      445F5349 
 6825              	.LASF17:
 6826 1010 4E52465F 		.ascii	"NRF_CONFIG_REG\000"
 6826      434F4E46 
 6826      49475F52 
 6826      454700
 6827              	.LASF108:
 6828 101f 4E52465F 		.ascii	"NRF_FIFO_STATUS_TX_REUSE\000"
 6828      4649464F 
 6828      5F535441 
 6828      5455535F 
 6828      54585F52 
 6829              	.LASF204:
 6830 1038 6E524632 		.ascii	"nRF24_clearBit\000"
 6830      345F636C 
 6830      65617242 
 6830      697400
 6831              	.LASF158:
 6832 1047 6E524632 		.ascii	"nRF24_setRxPipe5Address\000"
 6832      345F7365 
 6832      74527850 
 6832      69706535 
 6832      41646472 
 6833              	.LASF100:
 6834 105f 4E52465F 		.ascii	"NRF_OBSERVE_TX_PLOS_CNT\000"
 6834      4F425345 
 6834      5256455F 
 6834      54585F50 
 6834      4C4F535F 
 6835              	.LASF67:
 6836 1077 4E52465F 		.ascii	"NRF_CONFIG_CRCO\000"
 6836      434F4E46 
 6836      49475F43 
 6836      52434F00 
 6837              	.LASF168:
 6838 1087 6E524632 		.ascii	"nRF24_disableDynamicPayloadLength\000"
 6838      345F6469 
 6838      7361626C 
 6838      6544796E 
 6838      616D6963 
 6839              	.LASF109:
 6840 10a9 4E52465F 		.ascii	"NRF_DYNPD_DPL_P0\000"
 6840      44594E50 
ARM GAS  C:\Users\Xwx47\AppData\Local\Temp\ccUdC8ee.s 			page 152


 6840      445F4450 
 6840      4C5F5030 
 6840      00
 6841              	.LASF110:
 6842 10ba 4E52465F 		.ascii	"NRF_DYNPD_DPL_P1\000"
 6842      44594E50 
 6842      445F4450 
 6842      4C5F5031 
 6842      00
 6843              		.ident	"GCC: (GNU Tools for ARM Embedded Processors) 5.4.1 20160609 (release) [ARM/embedded-5-bran
