ARM GAS  C:\Users\d3bug\AppData\Local\Temp\ccQAmDn0.s 			page 1


   1              		.syntax unified
   2              		.cpu cortex-m0plus
   3              		.fpu softvfp
   4              		.eabi_attribute 20, 1
   5              		.eabi_attribute 21, 1
   6              		.eabi_attribute 23, 3
   7              		.eabi_attribute 24, 1
   8              		.eabi_attribute 25, 1
   9              		.eabi_attribute 26, 1
  10              		.eabi_attribute 30, 1
  11              		.eabi_attribute 34, 0
  12              		.eabi_attribute 18, 4
  13              		.thumb
  14              		.syntax unified
  15              		.file	"nRF24_FUNCS.c"
  16              		.text
  17              	.Ltext0:
  18              		.cfi_sections	.debug_frame
  19              		.section	.text._addr_width_conf_to_bytes,"ax",%progbits
  20              		.align	2
  21              		.code	16
  22              		.thumb_func
  23              		.type	_addr_width_conf_to_bytes, %function
  24              	_addr_width_conf_to_bytes:
  25              	.LFB1:
  26              		.file 1 "Generated_Source\\PSoC4\\nRF24_FUNCS.c"
   1:Generated_Source\PSoC4/nRF24_FUNCS.c **** /**
   2:Generated_Source\PSoC4/nRF24_FUNCS.c **** * @file     nRF24_FUNCS.c
   3:Generated_Source\PSoC4/nRF24_FUNCS.c **** * @version  3
   4:Generated_Source\PSoC4/nRF24_FUNCS.c **** * @brief    This file define all the functions available to the user.
   5:Generated_Source\PSoC4/nRF24_FUNCS.c **** */
   6:Generated_Source\PSoC4/nRF24_FUNCS.c **** 
   7:Generated_Source\PSoC4/nRF24_FUNCS.c **** #include "nRF24_CONFIG.h"
   8:Generated_Source\PSoC4/nRF24_FUNCS.c **** #include "nRF24_HAL.h"
   9:Generated_Source\PSoC4/nRF24_FUNCS.c **** #include "nRF24_COMMANDS.h"
  10:Generated_Source\PSoC4/nRF24_FUNCS.c **** #include "nRF24_FUNCS.h"
  11:Generated_Source\PSoC4/nRF24_FUNCS.c **** #include "nRF24_DEFS.h"
  12:Generated_Source\PSoC4/nRF24_FUNCS.c **** 
  13:Generated_Source\PSoC4/nRF24_FUNCS.c **** /* "Helper" global variables */
  14:Generated_Source\PSoC4/nRF24_FUNCS.c **** /* _nrf_addr_width expresed in bytes, declared with the default value */
  15:Generated_Source\PSoC4/nRF24_FUNCS.c **** static nrf_pipe_addr_width _nrf_addr_width = NRF_PIPE_ADDR_WIDTH_5BYTES;
  16:Generated_Source\PSoC4/nRF24_FUNCS.c **** 
  17:Generated_Source\PSoC4/nRF24_FUNCS.c **** static void
  18:Generated_Source\PSoC4/nRF24_FUNCS.c **** _addr_width_conf_to_bytes(nrf_addr_width addr_width)
  19:Generated_Source\PSoC4/nRF24_FUNCS.c **** {
  27              		.loc 1 19 0
  28              		.cfi_startproc
  29              		@ args = 0, pretend = 0, frame = 0
  30              		@ frame_needed = 0, uses_anonymous_args = 0
  31              		@ link register save eliminated.
  32              	.LVL0:
  20:Generated_Source\PSoC4/nRF24_FUNCS.c ****     switch(addr_width)
  33              		.loc 1 20 0
  34 0000 0228     		cmp	r0, #2
  35 0002 07D0     		beq	.L3
  36 0004 0328     		cmp	r0, #3
  37 0006 09D0     		beq	.L4
ARM GAS  C:\Users\d3bug\AppData\Local\Temp\ccQAmDn0.s 			page 2


  38 0008 0128     		cmp	r0, #1
  39 000a 0AD1     		bne	.L1
  21:Generated_Source\PSoC4/nRF24_FUNCS.c ****     {
  22:Generated_Source\PSoC4/nRF24_FUNCS.c ****     case NRF_SETUP_AW_3BYTES:
  23:Generated_Source\PSoC4/nRF24_FUNCS.c ****         _nrf_addr_width = NRF_PIPE_ADDR_WIDTH_3BYTES;
  40              		.loc 1 23 0
  41 000c 0322     		movs	r2, #3
  42 000e 054B     		ldr	r3, .L6
  43 0010 1A70     		strb	r2, [r3]
  24:Generated_Source\PSoC4/nRF24_FUNCS.c ****         break;
  44              		.loc 1 24 0
  45 0012 06E0     		b	.L1
  46              	.L3:
  25:Generated_Source\PSoC4/nRF24_FUNCS.c ****     case NRF_SETUP_AW_4BYTES:
  26:Generated_Source\PSoC4/nRF24_FUNCS.c ****         _nrf_addr_width = NRF_PIPE_ADDR_WIDTH_4BYTES;
  47              		.loc 1 26 0
  48 0014 0422     		movs	r2, #4
  49 0016 034B     		ldr	r3, .L6
  50 0018 1A70     		strb	r2, [r3]
  27:Generated_Source\PSoC4/nRF24_FUNCS.c ****         break;
  51              		.loc 1 27 0
  52 001a 02E0     		b	.L1
  53              	.L4:
  28:Generated_Source\PSoC4/nRF24_FUNCS.c ****     case NRF_SETUP_AW_5BYTES:
  29:Generated_Source\PSoC4/nRF24_FUNCS.c ****         _nrf_addr_width = NRF_PIPE_ADDR_WIDTH_5BYTES;
  54              		.loc 1 29 0
  55 001c 0522     		movs	r2, #5
  56 001e 014B     		ldr	r3, .L6
  57 0020 1A70     		strb	r2, [r3]
  58              	.L1:
  30:Generated_Source\PSoC4/nRF24_FUNCS.c ****         break;
  31:Generated_Source\PSoC4/nRF24_FUNCS.c ****     }
  32:Generated_Source\PSoC4/nRF24_FUNCS.c **** }
  59              		.loc 1 32 0
  60              		@ sp needed
  61 0022 7047     		bx	lr
  62              	.L7:
  63              		.align	2
  64              	.L6:
  65 0024 00000000 		.word	.LANCHOR0
  66              		.cfi_endproc
  67              	.LFE1:
  68              		.size	_addr_width_conf_to_bytes, .-_addr_width_conf_to_bytes
  69              		.section	.text.nRF24_init,"ax",%progbits
  70              		.align	2
  71              		.global	nRF24_init
  72              		.code	16
  73              		.thumb_func
  74              		.type	nRF24_init, %function
  75              	nRF24_init:
  76              	.LFB3:
  33:Generated_Source\PSoC4/nRF24_FUNCS.c **** 
  34:Generated_Source\PSoC4/nRF24_FUNCS.c **** /**
  35:Generated_Source\PSoC4/nRF24_FUNCS.c ****  * @brief Configure the radio and clear IRQs, TX and RX FIFOs.
  36:Generated_Source\PSoC4/nRF24_FUNCS.c ****  */
  37:Generated_Source\PSoC4/nRF24_FUNCS.c **** void nRF24_start(void)
  38:Generated_Source\PSoC4/nRF24_FUNCS.c **** {
ARM GAS  C:\Users\d3bug\AppData\Local\Temp\ccQAmDn0.s 			page 3


  39:Generated_Source\PSoC4/nRF24_FUNCS.c ****     // Recommended delay before start using the nRF24
  40:Generated_Source\PSoC4/nRF24_FUNCS.c ****     CyDelay(NRF_POWER_UP_DELAY_MS);
  41:Generated_Source\PSoC4/nRF24_FUNCS.c **** 
  42:Generated_Source\PSoC4/nRF24_FUNCS.c ****     // Now the radio is in Power Down mode
  43:Generated_Source\PSoC4/nRF24_FUNCS.c **** 
  44:Generated_Source\PSoC4/nRF24_FUNCS.c **** #if defined (_PSOC6)
  45:Generated_Source\PSoC4/nRF24_FUNCS.c ****     /* We are using the low level driver, so pass NULL to the context */
  46:Generated_Source\PSoC4/nRF24_FUNCS.c ****     (void) Cy_SCB_SPI_Init(SPI_HW, &SPI_config, NULL);
  47:Generated_Source\PSoC4/nRF24_FUNCS.c ****     Cy_SCB_SPI_Enable(SPI_HW);
  48:Generated_Source\PSoC4/nRF24_FUNCS.c **** #else // _PSoC4_SCB and _PSOC_UDB
  49:Generated_Source\PSoC4/nRF24_FUNCS.c ****     SPI_Start();
  50:Generated_Source\PSoC4/nRF24_FUNCS.c **** #endif
  51:Generated_Source\PSoC4/nRF24_FUNCS.c ****     nRF24_ss_write(GPIO_SET);
  52:Generated_Source\PSoC4/nRF24_FUNCS.c ****     nRF24_ce_write(GPIO_CLEAR);
  53:Generated_Source\PSoC4/nRF24_FUNCS.c **** 
  54:Generated_Source\PSoC4/nRF24_FUNCS.c ****     // Flush both nRF24 FIFOs
  55:Generated_Source\PSoC4/nRF24_FUNCS.c ****     nRF24_cmd_flush_rx();
  56:Generated_Source\PSoC4/nRF24_FUNCS.c ****     nRF24_cmd_flush_tx();
  57:Generated_Source\PSoC4/nRF24_FUNCS.c ****     // Clear IRQ flags
  58:Generated_Source\PSoC4/nRF24_FUNCS.c ****     nRF24_clear_all_irqs();
  59:Generated_Source\PSoC4/nRF24_FUNCS.c **** 
  60:Generated_Source\PSoC4/nRF24_FUNCS.c ****     // Configure the nRF24 with the data from the customizer
  61:Generated_Source\PSoC4/nRF24_FUNCS.c ****     nRF24_init();
  62:Generated_Source\PSoC4/nRF24_FUNCS.c **** 
  63:Generated_Source\PSoC4/nRF24_FUNCS.c ****     // After PWR_UP = 1 the radio is in Standby-I mode, 130us of delay for settling
  64:Generated_Source\PSoC4/nRF24_FUNCS.c ****     CyDelayUs(150);
  65:Generated_Source\PSoC4/nRF24_FUNCS.c **** }
  66:Generated_Source\PSoC4/nRF24_FUNCS.c **** 
  67:Generated_Source\PSoC4/nRF24_FUNCS.c **** /**
  68:Generated_Source\PSoC4/nRF24_FUNCS.c ****  * Configure the nRF radio with the data from the customizer.
  69:Generated_Source\PSoC4/nRF24_FUNCS.c ****  */
  70:Generated_Source\PSoC4/nRF24_FUNCS.c **** void nRF24_init(void)
  71:Generated_Source\PSoC4/nRF24_FUNCS.c **** {
  77              		.loc 1 71 0
  78              		.cfi_startproc
  79              		@ args = 0, pretend = 0, frame = 40
  80              		@ frame_needed = 0, uses_anonymous_args = 0
  81 0000 30B5     		push	{r4, r5, lr}
  82              		.cfi_def_cfa_offset 12
  83              		.cfi_offset 4, -12
  84              		.cfi_offset 5, -8
  85              		.cfi_offset 14, -4
  86 0002 8BB0     		sub	sp, sp, #44
  87              		.cfi_def_cfa_offset 56
  72:Generated_Source\PSoC4/nRF24_FUNCS.c ****     nRF24_write_reg(NRF_REG_EN_AA, (uint8_t []){CUSTOMIZER_EN_AA}, 1);
  88              		.loc 1 72 0
  89 0004 0124     		movs	r4, #1
  90 0006 6B46     		mov	r3, sp
  91 0008 1C70     		strb	r4, [r3]
  92 000a 0122     		movs	r2, #1
  93 000c 6946     		mov	r1, sp
  94 000e 0120     		movs	r0, #1
  95 0010 FFF7FEFF 		bl	nRF24_write_reg
  96              	.LVL1:
  73:Generated_Source\PSoC4/nRF24_FUNCS.c ****     nRF24_write_reg(NRF_REG_EN_RXADDR, (uint8_t []){CUSTOMIZER_EN_RXADDR}, 1);
  97              		.loc 1 73 0
  98 0014 01A9     		add	r1, sp, #4
ARM GAS  C:\Users\d3bug\AppData\Local\Temp\ccQAmDn0.s 			page 4


  99 0016 0C70     		strb	r4, [r1]
 100 0018 0122     		movs	r2, #1
 101 001a 0220     		movs	r0, #2
 102 001c FFF7FEFF 		bl	nRF24_write_reg
 103              	.LVL2:
  74:Generated_Source\PSoC4/nRF24_FUNCS.c ****     nRF24_write_reg(NRF_REG_SETUP_AW, (uint8_t []){CUSTOMIZER_SETUP_AW}, 1);
 104              		.loc 1 74 0
 105 0020 02A9     		add	r1, sp, #8
 106 0022 0325     		movs	r5, #3
 107 0024 0D70     		strb	r5, [r1]
 108 0026 0122     		movs	r2, #1
 109 0028 0320     		movs	r0, #3
 110 002a FFF7FEFF 		bl	nRF24_write_reg
 111              	.LVL3:
  75:Generated_Source\PSoC4/nRF24_FUNCS.c ****     nRF24_write_reg(NRF_REG_SETUP_RETR, (uint8_t []){CUSTOMIZER_SETUP_RETR}, 1);
 112              		.loc 1 75 0
 113 002e 03A9     		add	r1, sp, #12
 114 0030 0D70     		strb	r5, [r1]
 115 0032 0122     		movs	r2, #1
 116 0034 0420     		movs	r0, #4
 117 0036 FFF7FEFF 		bl	nRF24_write_reg
 118              	.LVL4:
  76:Generated_Source\PSoC4/nRF24_FUNCS.c ****     nRF24_write_reg(NRF_REG_RF_CH, (uint8_t []){CUSTOMIZER_RF_CH}, 1);
 119              		.loc 1 76 0
 120 003a 04A9     		add	r1, sp, #16
 121 003c 4B23     		movs	r3, #75
 122 003e 0B70     		strb	r3, [r1]
 123 0040 0122     		movs	r2, #1
 124 0042 0520     		movs	r0, #5
 125 0044 FFF7FEFF 		bl	nRF24_write_reg
 126              	.LVL5:
  77:Generated_Source\PSoC4/nRF24_FUNCS.c ****     nRF24_write_reg(NRF_REG_RF_SETUP, (uint8_t []){CUSTOMIZER_RF_SETUP}, 1);
 127              		.loc 1 77 0
 128 0048 05A9     		add	r1, sp, #20
 129 004a 2623     		movs	r3, #38
 130 004c 0B70     		strb	r3, [r1]
 131 004e 0122     		movs	r2, #1
 132 0050 0620     		movs	r0, #6
 133 0052 FFF7FEFF 		bl	nRF24_write_reg
 134              	.LVL6:
  78:Generated_Source\PSoC4/nRF24_FUNCS.c ****     nRF24_write_reg(NRF_REG_DYNPD, (uint8_t []){CUSTOMIZER_DYNPD}, 1);
 135              		.loc 1 78 0
 136 0056 06A9     		add	r1, sp, #24
 137 0058 0025     		movs	r5, #0
 138 005a 0D70     		strb	r5, [r1]
 139 005c 0122     		movs	r2, #1
 140 005e 1C20     		movs	r0, #28
 141 0060 FFF7FEFF 		bl	nRF24_write_reg
 142              	.LVL7:
  79:Generated_Source\PSoC4/nRF24_FUNCS.c ****     nRF24_write_reg(NRF_REG_FEATURE, (uint8_t []){CUSTOMIZER_FEATURE}, 1);
 143              		.loc 1 79 0
 144 0064 07A9     		add	r1, sp, #28
 145 0066 0D70     		strb	r5, [r1]
 146 0068 0122     		movs	r2, #1
 147 006a 1D20     		movs	r0, #29
 148 006c FFF7FEFF 		bl	nRF24_write_reg
 149              	.LVL8:
ARM GAS  C:\Users\d3bug\AppData\Local\Temp\ccQAmDn0.s 			page 5


  80:Generated_Source\PSoC4/nRF24_FUNCS.c **** 
  81:Generated_Source\PSoC4/nRF24_FUNCS.c **** // Configuring data pipes
  82:Generated_Source\PSoC4/nRF24_FUNCS.c **** #if (ENABLE_PIPE0 == 1)
  83:Generated_Source\PSoC4/nRF24_FUNCS.c ****     nRF24_write_reg(NRF_REG_RX_PW_P0, (uint8_t []){CUSTOMIZER_RX_PW_P0}, 1);
 150              		.loc 1 83 0
 151 0070 08A9     		add	r1, sp, #32
 152 0072 0C70     		strb	r4, [r1]
 153 0074 0122     		movs	r2, #1
 154 0076 1120     		movs	r0, #17
 155 0078 FFF7FEFF 		bl	nRF24_write_reg
 156              	.LVL9:
  84:Generated_Source\PSoC4/nRF24_FUNCS.c **** #endif
  85:Generated_Source\PSoC4/nRF24_FUNCS.c **** #if (ENABLE_PIPE1 == 1)
  86:Generated_Source\PSoC4/nRF24_FUNCS.c ****     nRF24_write_reg(NRF_REG_RX_PW_P1, (uint8_t []){CUSTOMIZER_RX_PW_P1}, 1);
  87:Generated_Source\PSoC4/nRF24_FUNCS.c **** #endif
  88:Generated_Source\PSoC4/nRF24_FUNCS.c **** #if (ENABLE_PIPE2 == 1)
  89:Generated_Source\PSoC4/nRF24_FUNCS.c ****     nRF24_write_reg(NRF_REG_RX_ADDR_P2, (uint8_t []){CUSTOMIZER_RX_ADDR_P2}, 1);
  90:Generated_Source\PSoC4/nRF24_FUNCS.c ****     nRF24_write_reg(NRF_REG_RX_PW_P2, (uint8_t []){CUSTOMIZER_RX_PW_P2}, 1);
  91:Generated_Source\PSoC4/nRF24_FUNCS.c **** #endif
  92:Generated_Source\PSoC4/nRF24_FUNCS.c **** #if (ENABLE_PIPE3 == 1)
  93:Generated_Source\PSoC4/nRF24_FUNCS.c ****     nRF24_write_reg(NRF_REG_RX_ADDR_P3, (uint8_t []){CUSTOMIZER_RX_ADDR_P3}, 1);
  94:Generated_Source\PSoC4/nRF24_FUNCS.c ****     nRF24_write_reg(NRF_REG_RX_PW_P3, (uint8_t []){CUSTOMIZER_RX_PW_P3}, 1);
  95:Generated_Source\PSoC4/nRF24_FUNCS.c **** #endif
  96:Generated_Source\PSoC4/nRF24_FUNCS.c **** #if (ENABLE_PIPE4 == 1)
  97:Generated_Source\PSoC4/nRF24_FUNCS.c ****     nRF24_write_reg(NRF_REG_RX_ADDR_P4, (uint8_t []){CUSTOMIZER_RX_ADDR_P4}, 1);
  98:Generated_Source\PSoC4/nRF24_FUNCS.c ****     nRF24_write_reg(NRF_REG_RX_PW_P4, (uint8_t []){CUSTOMIZER_RX_PW_P4}, 1);
  99:Generated_Source\PSoC4/nRF24_FUNCS.c **** #endif
 100:Generated_Source\PSoC4/nRF24_FUNCS.c **** #if (ENABLE_PIPE5 == 1)
 101:Generated_Source\PSoC4/nRF24_FUNCS.c ****     nRF24_write_reg(NRF_REG_RX_ADDR_P5, (uint8_t []){CUSTOMIZER_RX_ADDR_P5}, 1);
 102:Generated_Source\PSoC4/nRF24_FUNCS.c ****     nRF24_write_reg(NRF_REG_RX_PW_P5, (uint8_t []){CUSTOMIZER_RX_PW_P5}, 1);
 103:Generated_Source\PSoC4/nRF24_FUNCS.c **** #endif
 104:Generated_Source\PSoC4/nRF24_FUNCS.c **** 
 105:Generated_Source\PSoC4/nRF24_FUNCS.c ****     nRF24_write_reg(NRF_REG_CONFIG, (uint8_t []){CUSTOMIZER_CONFIG}, 1);
 157              		.loc 1 105 0
 158 007c 09A9     		add	r1, sp, #36
 159 007e 3B23     		movs	r3, #59
 160 0080 0B70     		strb	r3, [r1]
 161 0082 0122     		movs	r2, #1
 162 0084 0020     		movs	r0, #0
 163 0086 FFF7FEFF 		bl	nRF24_write_reg
 164              	.LVL10:
 106:Generated_Source\PSoC4/nRF24_FUNCS.c **** 
 107:Generated_Source\PSoC4/nRF24_FUNCS.c ****     // Set the _nrf_addr_width variable
 108:Generated_Source\PSoC4/nRF24_FUNCS.c ****     _addr_width_conf_to_bytes(CUSTOMIZER_SETUP_AW);
 165              		.loc 1 108 0
 166 008a 0320     		movs	r0, #3
 167 008c FFF7FEFF 		bl	_addr_width_conf_to_bytes
 168              	.LVL11:
 109:Generated_Source\PSoC4/nRF24_FUNCS.c **** }
 169              		.loc 1 109 0
 170 0090 0BB0     		add	sp, sp, #44
 171              		@ sp needed
 172 0092 30BD     		pop	{r4, r5, pc}
 173              		.cfi_endproc
 174              	.LFE3:
 175              		.size	nRF24_init, .-nRF24_init
 176              		.section	.text.nRF24_enable,"ax",%progbits
ARM GAS  C:\Users\d3bug\AppData\Local\Temp\ccQAmDn0.s 			page 6


 177              		.align	2
 178              		.global	nRF24_enable
 179              		.code	16
 180              		.thumb_func
 181              		.type	nRF24_enable, %function
 182              	nRF24_enable:
 183              	.LFB4:
 110:Generated_Source\PSoC4/nRF24_FUNCS.c **** 
 111:Generated_Source\PSoC4/nRF24_FUNCS.c **** /**
 112:Generated_Source\PSoC4/nRF24_FUNCS.c ****  * Enable the nRF24 radio.
 113:Generated_Source\PSoC4/nRF24_FUNCS.c ****  *
 114:Generated_Source\PSoC4/nRF24_FUNCS.c ****  * @todo Implement this function
 115:Generated_Source\PSoC4/nRF24_FUNCS.c ****  */
 116:Generated_Source\PSoC4/nRF24_FUNCS.c **** void nRF24_enable(void)
 117:Generated_Source\PSoC4/nRF24_FUNCS.c **** {
 184              		.loc 1 117 0
 185              		.cfi_startproc
 186              		@ args = 0, pretend = 0, frame = 0
 187              		@ frame_needed = 0, uses_anonymous_args = 0
 188              		@ link register save eliminated.
 118:Generated_Source\PSoC4/nRF24_FUNCS.c **** }
 189              		.loc 1 118 0
 190              		@ sp needed
 191 0000 7047     		bx	lr
 192              		.cfi_endproc
 193              	.LFE4:
 194              		.size	nRF24_enable, .-nRF24_enable
 195 0002 C046     		.section	.text.nRF24_stop,"ax",%progbits
 196              		.align	2
 197              		.global	nRF24_stop
 198              		.code	16
 199              		.thumb_func
 200              		.type	nRF24_stop, %function
 201              	nRF24_stop:
 202              	.LFB5:
 119:Generated_Source\PSoC4/nRF24_FUNCS.c **** 
 120:Generated_Source\PSoC4/nRF24_FUNCS.c **** /**
 121:Generated_Source\PSoC4/nRF24_FUNCS.c ****  * Stop the nRF24 radio.
 122:Generated_Source\PSoC4/nRF24_FUNCS.c ****  *
 123:Generated_Source\PSoC4/nRF24_FUNCS.c ****  * @todo Implement this function
 124:Generated_Source\PSoC4/nRF24_FUNCS.c ****  */
 125:Generated_Source\PSoC4/nRF24_FUNCS.c **** void nRF24_stop(void)
 126:Generated_Source\PSoC4/nRF24_FUNCS.c **** {
 203              		.loc 1 126 0
 204              		.cfi_startproc
 205              		@ args = 0, pretend = 0, frame = 0
 206              		@ frame_needed = 0, uses_anonymous_args = 0
 207              		@ link register save eliminated.
 127:Generated_Source\PSoC4/nRF24_FUNCS.c **** }
 208              		.loc 1 127 0
 209              		@ sp needed
 210 0000 7047     		bx	lr
 211              		.cfi_endproc
 212              	.LFE5:
 213              		.size	nRF24_stop, .-nRF24_stop
 214 0002 C046     		.section	.text.nRF24_wakeup,"ax",%progbits
 215              		.align	2
ARM GAS  C:\Users\d3bug\AppData\Local\Temp\ccQAmDn0.s 			page 7


 216              		.global	nRF24_wakeup
 217              		.code	16
 218              		.thumb_func
 219              		.type	nRF24_wakeup, %function
 220              	nRF24_wakeup:
 221              	.LFB7:
 128:Generated_Source\PSoC4/nRF24_FUNCS.c **** 
 129:Generated_Source\PSoC4/nRF24_FUNCS.c **** /**
 130:Generated_Source\PSoC4/nRF24_FUNCS.c ****  * Put the nRF24 radio on Standby-I mode.
 131:Generated_Source\PSoC4/nRF24_FUNCS.c ****  * 
 132:Generated_Source\PSoC4/nRF24_FUNCS.c ****  * @note Is standby-I the lowest power mode?
 133:Generated_Source\PSoC4/nRF24_FUNCS.c ****  */
 134:Generated_Source\PSoC4/nRF24_FUNCS.c **** void nRF24_sleep(void)
 135:Generated_Source\PSoC4/nRF24_FUNCS.c **** {
 136:Generated_Source\PSoC4/nRF24_FUNCS.c ****     nRF24_set_standby_i_mode();
 137:Generated_Source\PSoC4/nRF24_FUNCS.c **** }
 138:Generated_Source\PSoC4/nRF24_FUNCS.c **** 
 139:Generated_Source\PSoC4/nRF24_FUNCS.c **** /**
 140:Generated_Source\PSoC4/nRF24_FUNCS.c ****  * Wakeup the nRF24 radio, and restore the configuration.
 141:Generated_Source\PSoC4/nRF24_FUNCS.c ****  */
 142:Generated_Source\PSoC4/nRF24_FUNCS.c **** void nRF24_wakeup(void)
 143:Generated_Source\PSoC4/nRF24_FUNCS.c **** {
 222              		.loc 1 143 0
 223              		.cfi_startproc
 224              		@ args = 0, pretend = 0, frame = 0
 225              		@ frame_needed = 0, uses_anonymous_args = 0
 226 0000 10B5     		push	{r4, lr}
 227              		.cfi_def_cfa_offset 8
 228              		.cfi_offset 4, -8
 229              		.cfi_offset 14, -4
 144:Generated_Source\PSoC4/nRF24_FUNCS.c ****     nRF24_set_bit(NRF_REG_CONFIG, NRF_CONFIG_BIT_PWR_UP);
 230              		.loc 1 144 0
 231 0002 0121     		movs	r1, #1
 232 0004 0020     		movs	r0, #0
 233 0006 FFF7FEFF 		bl	nRF24_set_bit
 234              	.LVL12:
 145:Generated_Source\PSoC4/nRF24_FUNCS.c ****     // after leaving standby-I mode the radio need a time to return to TX or
 146:Generated_Source\PSoC4/nRF24_FUNCS.c ****     // RX Mode
 147:Generated_Source\PSoC4/nRF24_FUNCS.c ****     CyDelay(5);
 235              		.loc 1 147 0
 236 000a 0520     		movs	r0, #5
 237 000c FFF7FEFF 		bl	CyDelay
 238              	.LVL13:
 148:Generated_Source\PSoC4/nRF24_FUNCS.c **** }
 239              		.loc 1 148 0
 240              		@ sp needed
 241 0010 10BD     		pop	{r4, pc}
 242              		.cfi_endproc
 243              	.LFE7:
 244              		.size	nRF24_wakeup, .-nRF24_wakeup
 245 0012 C046     		.section	.text.nRF24_save_config,"ax",%progbits
 246              		.align	2
 247              		.global	nRF24_save_config
 248              		.code	16
 249              		.thumb_func
 250              		.type	nRF24_save_config, %function
 251              	nRF24_save_config:
ARM GAS  C:\Users\d3bug\AppData\Local\Temp\ccQAmDn0.s 			page 8


 252              	.LFB8:
 149:Generated_Source\PSoC4/nRF24_FUNCS.c **** 
 150:Generated_Source\PSoC4/nRF24_FUNCS.c **** /**
 151:Generated_Source\PSoC4/nRF24_FUNCS.c ****  * Save the nRF24 radio configuration.
 152:Generated_Source\PSoC4/nRF24_FUNCS.c ****  *
 153:Generated_Source\PSoC4/nRF24_FUNCS.c ****  * @todo Implement this function.
 154:Generated_Source\PSoC4/nRF24_FUNCS.c ****  */
 155:Generated_Source\PSoC4/nRF24_FUNCS.c **** void nRF24_save_config(void)
 156:Generated_Source\PSoC4/nRF24_FUNCS.c **** {
 253              		.loc 1 156 0
 254              		.cfi_startproc
 255              		@ args = 0, pretend = 0, frame = 0
 256              		@ frame_needed = 0, uses_anonymous_args = 0
 257              		@ link register save eliminated.
 157:Generated_Source\PSoC4/nRF24_FUNCS.c **** }
 258              		.loc 1 157 0
 259              		@ sp needed
 260 0000 7047     		bx	lr
 261              		.cfi_endproc
 262              	.LFE8:
 263              		.size	nRF24_save_config, .-nRF24_save_config
 264 0002 C046     		.section	.text.nRF24_restore_config,"ax",%progbits
 265              		.align	2
 266              		.global	nRF24_restore_config
 267              		.code	16
 268              		.thumb_func
 269              		.type	nRF24_restore_config, %function
 270              	nRF24_restore_config:
 271              	.LFB9:
 158:Generated_Source\PSoC4/nRF24_FUNCS.c **** 
 159:Generated_Source\PSoC4/nRF24_FUNCS.c **** /**
 160:Generated_Source\PSoC4/nRF24_FUNCS.c ****  * Restore the nRF24 radio configuration.
 161:Generated_Source\PSoC4/nRF24_FUNCS.c ****  *
 162:Generated_Source\PSoC4/nRF24_FUNCS.c ****  * @todo Implement this function.
 163:Generated_Source\PSoC4/nRF24_FUNCS.c ****  */
 164:Generated_Source\PSoC4/nRF24_FUNCS.c **** void nRF24_restore_config(void)
 165:Generated_Source\PSoC4/nRF24_FUNCS.c **** {
 272              		.loc 1 165 0
 273              		.cfi_startproc
 274              		@ args = 0, pretend = 0, frame = 0
 275              		@ frame_needed = 0, uses_anonymous_args = 0
 276              		@ link register save eliminated.
 166:Generated_Source\PSoC4/nRF24_FUNCS.c **** }
 277              		.loc 1 166 0
 278              		@ sp needed
 279 0000 7047     		bx	lr
 280              		.cfi_endproc
 281              	.LFE9:
 282              		.size	nRF24_restore_config, .-nRF24_restore_config
 283 0002 C046     		.section	.text.nRF24_set_power_down_mode,"ax",%progbits
 284              		.align	2
 285              		.global	nRF24_set_power_down_mode
 286              		.code	16
 287              		.thumb_func
 288              		.type	nRF24_set_power_down_mode, %function
 289              	nRF24_set_power_down_mode:
 290              	.LFB11:
ARM GAS  C:\Users\d3bug\AppData\Local\Temp\ccQAmDn0.s 			page 9


 167:Generated_Source\PSoC4/nRF24_FUNCS.c **** 
 168:Generated_Source\PSoC4/nRF24_FUNCS.c **** /**
 169:Generated_Source\PSoC4/nRF24_FUNCS.c ****  * Configure the radio as Receiver or Transmitter.
 170:Generated_Source\PSoC4/nRF24_FUNCS.c ****  *
 171:Generated_Source\PSoC4/nRF24_FUNCS.c ****  * @param const nrf_mode mode: The radio can be configured as Receiver (PRX)
 172:Generated_Source\PSoC4/nRF24_FUNCS.c ****  * or Transmitter (PTX).
 173:Generated_Source\PSoC4/nRF24_FUNCS.c ****  */
 174:Generated_Source\PSoC4/nRF24_FUNCS.c **** void nRF24_set_mode(const nrf_mode mode)
 175:Generated_Source\PSoC4/nRF24_FUNCS.c **** {
 176:Generated_Source\PSoC4/nRF24_FUNCS.c ****     mode == NRF_MODE_RX ? nRF24_set_rx_mode() : nRF24_set_tx_mode();
 177:Generated_Source\PSoC4/nRF24_FUNCS.c **** }
 178:Generated_Source\PSoC4/nRF24_FUNCS.c **** 
 179:Generated_Source\PSoC4/nRF24_FUNCS.c **** /**
 180:Generated_Source\PSoC4/nRF24_FUNCS.c ****  * @brief Set radio in Power Down Mode.
 181:Generated_Source\PSoC4/nRF24_FUNCS.c ****  *
 182:Generated_Source\PSoC4/nRF24_FUNCS.c ****  * In power down mode nRF24 is disabled using minimal current consumption.
 183:Generated_Source\PSoC4/nRF24_FUNCS.c ****  * All register values available are maintained and the SPI is kept active,
 184:Generated_Source\PSoC4/nRF24_FUNCS.c ****  * enabling change of configuration and the uploading/downloading of data
 185:Generated_Source\PSoC4/nRF24_FUNCS.c ****  * registers.
 186:Generated_Source\PSoC4/nRF24_FUNCS.c ****  * Power down mode is entered by setting the PWR_UP bit (CONFIG register) to 0.
 187:Generated_Source\PSoC4/nRF24_FUNCS.c ****  */
 188:Generated_Source\PSoC4/nRF24_FUNCS.c **** void nRF24_set_power_down_mode(void)
 189:Generated_Source\PSoC4/nRF24_FUNCS.c **** {
 291              		.loc 1 189 0
 292              		.cfi_startproc
 293              		@ args = 0, pretend = 0, frame = 0
 294              		@ frame_needed = 0, uses_anonymous_args = 0
 295 0000 10B5     		push	{r4, lr}
 296              		.cfi_def_cfa_offset 8
 297              		.cfi_offset 4, -8
 298              		.cfi_offset 14, -4
 190:Generated_Source\PSoC4/nRF24_FUNCS.c ****     nRF24_clear_bit(NRF_REG_CONFIG, NRF_CONFIG_BIT_PWR_UP);
 299              		.loc 1 190 0
 300 0002 0121     		movs	r1, #1
 301 0004 0020     		movs	r0, #0
 302 0006 FFF7FEFF 		bl	nRF24_clear_bit
 303              	.LVL14:
 191:Generated_Source\PSoC4/nRF24_FUNCS.c **** }
 304              		.loc 1 191 0
 305              		@ sp needed
 306 000a 10BD     		pop	{r4, pc}
 307              		.cfi_endproc
 308              	.LFE11:
 309              		.size	nRF24_set_power_down_mode, .-nRF24_set_power_down_mode
 310              		.section	.text.nRF24_set_rx_mode,"ax",%progbits
 311              		.align	2
 312              		.global	nRF24_set_rx_mode
 313              		.code	16
 314              		.thumb_func
 315              		.type	nRF24_set_rx_mode, %function
 316              	nRF24_set_rx_mode:
 317              	.LFB14:
 192:Generated_Source\PSoC4/nRF24_FUNCS.c **** 
 193:Generated_Source\PSoC4/nRF24_FUNCS.c **** /**
 194:Generated_Source\PSoC4/nRF24_FUNCS.c ****  * @brief Set the radio in Standby I Mode.
 195:Generated_Source\PSoC4/nRF24_FUNCS.c ****  *
 196:Generated_Source\PSoC4/nRF24_FUNCS.c ****  * By setting the PWR_UP bit in the CONFIG register to 1, the device enters
ARM GAS  C:\Users\d3bug\AppData\Local\Temp\ccQAmDn0.s 			page 10


 197:Generated_Source\PSoC4/nRF24_FUNCS.c ****  * standby-I mode. Standby-I mode is used to minimize average current
 198:Generated_Source\PSoC4/nRF24_FUNCS.c ****  * consumption while maintaining short start up times.
 199:Generated_Source\PSoC4/nRF24_FUNCS.c ****  * In this mode only part of the crystal oscillator is active. Change to
 200:Generated_Source\PSoC4/nRF24_FUNCS.c ****  * active modes only happens if CE is set high and when CE is set low,
 201:Generated_Source\PSoC4/nRF24_FUNCS.c ****  * the nRF24 returns to standby-I mode from both the TX and RX modes.
 202:Generated_Source\PSoC4/nRF24_FUNCS.c ****  */
 203:Generated_Source\PSoC4/nRF24_FUNCS.c **** void nRF24_set_standby_i_mode(void)
 204:Generated_Source\PSoC4/nRF24_FUNCS.c **** {
 205:Generated_Source\PSoC4/nRF24_FUNCS.c ****     nRF24_stop_listening();
 206:Generated_Source\PSoC4/nRF24_FUNCS.c ****     nRF24_set_bit(NRF_REG_CONFIG, NRF_CONFIG_PWR_UP);
 207:Generated_Source\PSoC4/nRF24_FUNCS.c **** }
 208:Generated_Source\PSoC4/nRF24_FUNCS.c **** 
 209:Generated_Source\PSoC4/nRF24_FUNCS.c **** /**
 210:Generated_Source\PSoC4/nRF24_FUNCS.c ****  * @brief Set the radio in Standby II Mode.
 211:Generated_Source\PSoC4/nRF24_FUNCS.c ****  *
 212:Generated_Source\PSoC4/nRF24_FUNCS.c ****  * In standby-II mode extra clock buffers are active and more current is used
 213:Generated_Source\PSoC4/nRF24_FUNCS.c ****  * compared to standby-I mode. nRF24 enters standby-II mode if CE is held high
 214:Generated_Source\PSoC4/nRF24_FUNCS.c ****  * on a TX device with an empty TX FIFO.
 215:Generated_Source\PSoC4/nRF24_FUNCS.c ****  * If a new packet is uploaded to the TX FIFO, the PLL immediately starts and
 216:Generated_Source\PSoC4/nRF24_FUNCS.c ****  * the packet is transmitted after the normal PLL settling  delay (130us).
 217:Generated_Source\PSoC4/nRF24_FUNCS.c ****  */
 218:Generated_Source\PSoC4/nRF24_FUNCS.c **** void nRF24_set_standby_ii_mode(void)
 219:Generated_Source\PSoC4/nRF24_FUNCS.c **** {
 220:Generated_Source\PSoC4/nRF24_FUNCS.c ****     nRF24_start_listening();
 221:Generated_Source\PSoC4/nRF24_FUNCS.c ****     nRF24_set_bit(NRF_REG_CONFIG, NRF_CONFIG_BIT_PWR_UP);
 222:Generated_Source\PSoC4/nRF24_FUNCS.c **** }
 223:Generated_Source\PSoC4/nRF24_FUNCS.c **** 
 224:Generated_Source\PSoC4/nRF24_FUNCS.c **** /**
 225:Generated_Source\PSoC4/nRF24_FUNCS.c ****  * @brief Set the radio in Receiver (Rx) Mode.
 226:Generated_Source\PSoC4/nRF24_FUNCS.c ****  *
 227:Generated_Source\PSoC4/nRF24_FUNCS.c ****  * RX mode is an active mode where the nRF24 radio is used as receiver. To
 228:Generated_Source\PSoC4/nRF24_FUNCS.c ****  * enter this mode, the nRF24 must have the PWR_UP bit, PRIM_RX bit and the CE
 229:Generated_Source\PSoC4/nRF24_FUNCS.c ****  * pin set high.
 230:Generated_Source\PSoC4/nRF24_FUNCS.c ****  */
 231:Generated_Source\PSoC4/nRF24_FUNCS.c **** void nRF24_set_rx_mode(void)
 232:Generated_Source\PSoC4/nRF24_FUNCS.c **** {
 318              		.loc 1 232 0
 319              		.cfi_startproc
 320              		@ args = 0, pretend = 0, frame = 0
 321              		@ frame_needed = 0, uses_anonymous_args = 0
 322 0000 10B5     		push	{r4, lr}
 323              		.cfi_def_cfa_offset 8
 324              		.cfi_offset 4, -8
 325              		.cfi_offset 14, -4
 233:Generated_Source\PSoC4/nRF24_FUNCS.c ****     nRF24_set_bit(NRF_REG_CONFIG, NRF_CONFIG_BIT_PRIM_RX);
 326              		.loc 1 233 0
 327 0002 0021     		movs	r1, #0
 328 0004 0020     		movs	r0, #0
 329 0006 FFF7FEFF 		bl	nRF24_set_bit
 330              	.LVL15:
 234:Generated_Source\PSoC4/nRF24_FUNCS.c **** }
 331              		.loc 1 234 0
 332              		@ sp needed
 333 000a 10BD     		pop	{r4, pc}
 334              		.cfi_endproc
 335              	.LFE14:
 336              		.size	nRF24_set_rx_mode, .-nRF24_set_rx_mode
ARM GAS  C:\Users\d3bug\AppData\Local\Temp\ccQAmDn0.s 			page 11


 337              		.section	.text.nRF24_set_tx_mode,"ax",%progbits
 338              		.align	2
 339              		.global	nRF24_set_tx_mode
 340              		.code	16
 341              		.thumb_func
 342              		.type	nRF24_set_tx_mode, %function
 343              	nRF24_set_tx_mode:
 344              	.LFB15:
 235:Generated_Source\PSoC4/nRF24_FUNCS.c **** 
 236:Generated_Source\PSoC4/nRF24_FUNCS.c **** /**
 237:Generated_Source\PSoC4/nRF24_FUNCS.c ****  * @brief Set the radio in Transmitted (Tx) Mode.
 238:Generated_Source\PSoC4/nRF24_FUNCS.c ****  *
 239:Generated_Source\PSoC4/nRF24_FUNCS.c ****  * TX mode is an active mode for transmitting packets. To enter this mode,
 240:Generated_Source\PSoC4/nRF24_FUNCS.c ****  * the nRF24 must have the PWR_UP bit set high, PRIM_RX bit set low, a payload
 241:Generated_Source\PSoC4/nRF24_FUNCS.c ****  * in the TX FIFO and a high pulse on the CE for more than 10us.
 242:Generated_Source\PSoC4/nRF24_FUNCS.c ****  */
 243:Generated_Source\PSoC4/nRF24_FUNCS.c **** void nRF24_set_tx_mode(void)
 244:Generated_Source\PSoC4/nRF24_FUNCS.c **** {
 345              		.loc 1 244 0
 346              		.cfi_startproc
 347              		@ args = 0, pretend = 0, frame = 0
 348              		@ frame_needed = 0, uses_anonymous_args = 0
 349 0000 10B5     		push	{r4, lr}
 350              		.cfi_def_cfa_offset 8
 351              		.cfi_offset 4, -8
 352              		.cfi_offset 14, -4
 245:Generated_Source\PSoC4/nRF24_FUNCS.c ****     nRF24_clear_bit(NRF_REG_CONFIG, NRF_CONFIG_BIT_PRIM_RX);
 353              		.loc 1 245 0
 354 0002 0021     		movs	r1, #0
 355 0004 0020     		movs	r0, #0
 356 0006 FFF7FEFF 		bl	nRF24_clear_bit
 357              	.LVL16:
 246:Generated_Source\PSoC4/nRF24_FUNCS.c **** }
 358              		.loc 1 246 0
 359              		@ sp needed
 360 000a 10BD     		pop	{r4, pc}
 361              		.cfi_endproc
 362              	.LFE15:
 363              		.size	nRF24_set_tx_mode, .-nRF24_set_tx_mode
 364              		.section	.text.nRF24_set_mode,"ax",%progbits
 365              		.align	2
 366              		.global	nRF24_set_mode
 367              		.code	16
 368              		.thumb_func
 369              		.type	nRF24_set_mode, %function
 370              	nRF24_set_mode:
 371              	.LFB10:
 175:Generated_Source\PSoC4/nRF24_FUNCS.c ****     mode == NRF_MODE_RX ? nRF24_set_rx_mode() : nRF24_set_tx_mode();
 372              		.loc 1 175 0
 373              		.cfi_startproc
 374              		@ args = 0, pretend = 0, frame = 0
 375              		@ frame_needed = 0, uses_anonymous_args = 0
 376              	.LVL17:
 377 0000 10B5     		push	{r4, lr}
 378              		.cfi_def_cfa_offset 8
 379              		.cfi_offset 4, -8
 380              		.cfi_offset 14, -4
ARM GAS  C:\Users\d3bug\AppData\Local\Temp\ccQAmDn0.s 			page 12


 176:Generated_Source\PSoC4/nRF24_FUNCS.c **** }
 381              		.loc 1 176 0
 382 0002 0128     		cmp	r0, #1
 383 0004 02D1     		bne	.L18
 176:Generated_Source\PSoC4/nRF24_FUNCS.c **** }
 384              		.loc 1 176 0 is_stmt 0 discriminator 1
 385 0006 FFF7FEFF 		bl	nRF24_set_rx_mode
 386              	.LVL18:
 387 000a 01E0     		b	.L17
 388              	.LVL19:
 389              	.L18:
 176:Generated_Source\PSoC4/nRF24_FUNCS.c **** }
 390              		.loc 1 176 0 discriminator 2
 391 000c FFF7FEFF 		bl	nRF24_set_tx_mode
 392              	.LVL20:
 393              	.L17:
 177:Generated_Source\PSoC4/nRF24_FUNCS.c **** 
 394              		.loc 1 177 0 is_stmt 1
 395              		@ sp needed
 396 0010 10BD     		pop	{r4, pc}
 397              		.cfi_endproc
 398              	.LFE10:
 399              		.size	nRF24_set_mode, .-nRF24_set_mode
 400 0012 C046     		.section	.text.nRF24_enable_auto_ack,"ax",%progbits
 401              		.align	2
 402              		.global	nRF24_enable_auto_ack
 403              		.code	16
 404              		.thumb_func
 405              		.type	nRF24_enable_auto_ack, %function
 406              	nRF24_enable_auto_ack:
 407              	.LFB16:
 247:Generated_Source\PSoC4/nRF24_FUNCS.c **** 
 248:Generated_Source\PSoC4/nRF24_FUNCS.c **** /**
 249:Generated_Source\PSoC4/nRF24_FUNCS.c ****  * @brief Enable AutoACK in the given pipe.
 250:Generated_Source\PSoC4/nRF24_FUNCS.c ****  *
 251:Generated_Source\PSoC4/nRF24_FUNCS.c ****  * @param pipe: Enable AutoACK in the given pipe.
 252:Generated_Source\PSoC4/nRF24_FUNCS.c ****  */
 253:Generated_Source\PSoC4/nRF24_FUNCS.c **** void nRF24_enable_auto_ack(const nrf_pipe pipe)
 254:Generated_Source\PSoC4/nRF24_FUNCS.c **** {
 408              		.loc 1 254 0
 409              		.cfi_startproc
 410              		@ args = 0, pretend = 0, frame = 0
 411              		@ frame_needed = 0, uses_anonymous_args = 0
 412              	.LVL21:
 413 0000 10B5     		push	{r4, lr}
 414              		.cfi_def_cfa_offset 8
 415              		.cfi_offset 4, -8
 416              		.cfi_offset 14, -4
 417 0002 0100     		movs	r1, r0
 255:Generated_Source\PSoC4/nRF24_FUNCS.c ****     nRF24_set_bit(NRF_REG_EN_AA, pipe);
 418              		.loc 1 255 0
 419 0004 0120     		movs	r0, #1
 420              	.LVL22:
 421 0006 FFF7FEFF 		bl	nRF24_set_bit
 422              	.LVL23:
 256:Generated_Source\PSoC4/nRF24_FUNCS.c **** }
 423              		.loc 1 256 0
ARM GAS  C:\Users\d3bug\AppData\Local\Temp\ccQAmDn0.s 			page 13


 424              		@ sp needed
 425 000a 10BD     		pop	{r4, pc}
 426              		.cfi_endproc
 427              	.LFE16:
 428              		.size	nRF24_enable_auto_ack, .-nRF24_enable_auto_ack
 429              		.section	.text.nRF24_disable_auto_ack,"ax",%progbits
 430              		.align	2
 431              		.global	nRF24_disable_auto_ack
 432              		.code	16
 433              		.thumb_func
 434              		.type	nRF24_disable_auto_ack, %function
 435              	nRF24_disable_auto_ack:
 436              	.LFB17:
 257:Generated_Source\PSoC4/nRF24_FUNCS.c **** 
 258:Generated_Source\PSoC4/nRF24_FUNCS.c **** /**
 259:Generated_Source\PSoC4/nRF24_FUNCS.c ****  * @brief Disable AutoACK in the given pipe.
 260:Generated_Source\PSoC4/nRF24_FUNCS.c ****  *
 261:Generated_Source\PSoC4/nRF24_FUNCS.c ****  * @param pipe: Disable AutoACK in the given pipe.
 262:Generated_Source\PSoC4/nRF24_FUNCS.c ****  */
 263:Generated_Source\PSoC4/nRF24_FUNCS.c **** void nRF24_disable_auto_ack(const nrf_pipe pipe)
 264:Generated_Source\PSoC4/nRF24_FUNCS.c **** {
 437              		.loc 1 264 0
 438              		.cfi_startproc
 439              		@ args = 0, pretend = 0, frame = 0
 440              		@ frame_needed = 0, uses_anonymous_args = 0
 441              	.LVL24:
 442 0000 10B5     		push	{r4, lr}
 443              		.cfi_def_cfa_offset 8
 444              		.cfi_offset 4, -8
 445              		.cfi_offset 14, -4
 446 0002 0100     		movs	r1, r0
 265:Generated_Source\PSoC4/nRF24_FUNCS.c ****     nRF24_clear_bit(NRF_REG_EN_AA, pipe);
 447              		.loc 1 265 0
 448 0004 0120     		movs	r0, #1
 449              	.LVL25:
 450 0006 FFF7FEFF 		bl	nRF24_clear_bit
 451              	.LVL26:
 266:Generated_Source\PSoC4/nRF24_FUNCS.c **** }
 452              		.loc 1 266 0
 453              		@ sp needed
 454 000a 10BD     		pop	{r4, pc}
 455              		.cfi_endproc
 456              	.LFE17:
 457              		.size	nRF24_disable_auto_ack, .-nRF24_disable_auto_ack
 458              		.section	.text.nRF24_set_channel,"ax",%progbits
 459              		.align	2
 460              		.global	nRF24_set_channel
 461              		.code	16
 462              		.thumb_func
 463              		.type	nRF24_set_channel, %function
 464              	nRF24_set_channel:
 465              	.LFB18:
 267:Generated_Source\PSoC4/nRF24_FUNCS.c **** 
 268:Generated_Source\PSoC4/nRF24_FUNCS.c **** /**
 269:Generated_Source\PSoC4/nRF24_FUNCS.c ****  * @brief Set the channel where the radio will work.
 270:Generated_Source\PSoC4/nRF24_FUNCS.c ****  *
 271:Generated_Source\PSoC4/nRF24_FUNCS.c ****  * @param uint8_t channel: Channel where the radio will work.
ARM GAS  C:\Users\d3bug\AppData\Local\Temp\ccQAmDn0.s 			page 14


 272:Generated_Source\PSoC4/nRF24_FUNCS.c ****  */
 273:Generated_Source\PSoC4/nRF24_FUNCS.c **** void nRF24_set_channel(uint8_t channel)
 274:Generated_Source\PSoC4/nRF24_FUNCS.c **** {
 466              		.loc 1 274 0
 467              		.cfi_startproc
 468              		@ args = 0, pretend = 0, frame = 8
 469              		@ frame_needed = 0, uses_anonymous_args = 0
 470              	.LVL27:
 471 0000 00B5     		push	{lr}
 472              		.cfi_def_cfa_offset 4
 473              		.cfi_offset 14, -4
 474 0002 83B0     		sub	sp, sp, #12
 475              		.cfi_def_cfa_offset 16
 476 0004 6B46     		mov	r3, sp
 477 0006 D871     		strb	r0, [r3, #7]
 275:Generated_Source\PSoC4/nRF24_FUNCS.c ****     if (NRF_MAX_RF_CHANNEL < channel) {
 478              		.loc 1 275 0
 479 0008 7D28     		cmp	r0, #125
 480 000a 02D9     		bls	.L23
 276:Generated_Source\PSoC4/nRF24_FUNCS.c ****         channel = NRF_MAX_RF_CHANNEL;
 481              		.loc 1 276 0
 482 000c 7D22     		movs	r2, #125
 483 000e 6B46     		mov	r3, sp
 484 0010 DA71     		strb	r2, [r3, #7]
 485              	.L23:
 277:Generated_Source\PSoC4/nRF24_FUNCS.c ****     }
 278:Generated_Source\PSoC4/nRF24_FUNCS.c **** 
 279:Generated_Source\PSoC4/nRF24_FUNCS.c ****     nRF24_write_reg(NRF_REG_RF_CH, &channel, 1);
 486              		.loc 1 279 0
 487 0012 0122     		movs	r2, #1
 488 0014 6B46     		mov	r3, sp
 489 0016 D91D     		adds	r1, r3, #7
 490 0018 0520     		movs	r0, #5
 491              	.LVL28:
 492 001a FFF7FEFF 		bl	nRF24_write_reg
 493              	.LVL29:
 280:Generated_Source\PSoC4/nRF24_FUNCS.c **** 
 281:Generated_Source\PSoC4/nRF24_FUNCS.c ****     nRF24_cmd_flush_rx();
 494              		.loc 1 281 0
 495 001e FFF7FEFF 		bl	nRF24_cmd_flush_rx
 496              	.LVL30:
 282:Generated_Source\PSoC4/nRF24_FUNCS.c ****     nRF24_cmd_flush_tx();
 497              		.loc 1 282 0
 498 0022 FFF7FEFF 		bl	nRF24_cmd_flush_tx
 499              	.LVL31:
 283:Generated_Source\PSoC4/nRF24_FUNCS.c **** }
 500              		.loc 1 283 0
 501 0026 03B0     		add	sp, sp, #12
 502              		@ sp needed
 503 0028 00BD     		pop	{pc}
 504              		.cfi_endproc
 505              	.LFE18:
 506              		.size	nRF24_set_channel, .-nRF24_set_channel
 507 002a C046     		.section	.text.nRF24_get_channel,"ax",%progbits
 508              		.align	2
 509              		.global	nRF24_get_channel
 510              		.code	16
ARM GAS  C:\Users\d3bug\AppData\Local\Temp\ccQAmDn0.s 			page 15


 511              		.thumb_func
 512              		.type	nRF24_get_channel, %function
 513              	nRF24_get_channel:
 514              	.LFB19:
 284:Generated_Source\PSoC4/nRF24_FUNCS.c **** 
 285:Generated_Source\PSoC4/nRF24_FUNCS.c **** /**
 286:Generated_Source\PSoC4/nRF24_FUNCS.c ****  * @brief Set the data pipes address width.
 287:Generated_Source\PSoC4/nRF24_FUNCS.c ****  *
 288:Generated_Source\PSoC4/nRF24_FUNCS.c ****  * @param const nrf_setup_address_width addr_width:
 289:Generated_Source\PSoC4/nRF24_FUNCS.c ****  */
 290:Generated_Source\PSoC4/nRF24_FUNCS.c **** uint8_t nRF24_get_channel(void)
 291:Generated_Source\PSoC4/nRF24_FUNCS.c **** {
 515              		.loc 1 291 0
 516              		.cfi_startproc
 517              		@ args = 0, pretend = 0, frame = 8
 518              		@ frame_needed = 0, uses_anonymous_args = 0
 519 0000 10B5     		push	{r4, lr}
 520              		.cfi_def_cfa_offset 8
 521              		.cfi_offset 4, -8
 522              		.cfi_offset 14, -4
 523 0002 82B0     		sub	sp, sp, #8
 524              		.cfi_def_cfa_offset 16
 292:Generated_Source\PSoC4/nRF24_FUNCS.c ****     uint8_t channel;
 293:Generated_Source\PSoC4/nRF24_FUNCS.c ****     nRF24_read_reg(NRF_REG_RF_CH, &channel, 1);
 525              		.loc 1 293 0
 526 0004 6B46     		mov	r3, sp
 527 0006 DC1D     		adds	r4, r3, #7
 528 0008 0122     		movs	r2, #1
 529 000a 2100     		movs	r1, r4
 530 000c 0520     		movs	r0, #5
 531 000e FFF7FEFF 		bl	nRF24_read_reg
 532              	.LVL32:
 294:Generated_Source\PSoC4/nRF24_FUNCS.c ****     return channel;
 533              		.loc 1 294 0
 534 0012 2078     		ldrb	r0, [r4]
 295:Generated_Source\PSoC4/nRF24_FUNCS.c **** }
 535              		.loc 1 295 0
 536 0014 02B0     		add	sp, sp, #8
 537              		@ sp needed
 538 0016 10BD     		pop	{r4, pc}
 539              		.cfi_endproc
 540              	.LFE19:
 541              		.size	nRF24_get_channel, .-nRF24_get_channel
 542              		.section	.text.nRF24_set_address_width,"ax",%progbits
 543              		.align	2
 544              		.global	nRF24_set_address_width
 545              		.code	16
 546              		.thumb_func
 547              		.type	nRF24_set_address_width, %function
 548              	nRF24_set_address_width:
 549              	.LFB20:
 296:Generated_Source\PSoC4/nRF24_FUNCS.c **** 
 297:Generated_Source\PSoC4/nRF24_FUNCS.c **** /**
 298:Generated_Source\PSoC4/nRF24_FUNCS.c ****  * @brief Set the data pipes address width.
 299:Generated_Source\PSoC4/nRF24_FUNCS.c ****  *
 300:Generated_Source\PSoC4/nRF24_FUNCS.c ****  * @param const nrf_addr_width addr_width:
 301:Generated_Source\PSoC4/nRF24_FUNCS.c ****  */
ARM GAS  C:\Users\d3bug\AppData\Local\Temp\ccQAmDn0.s 			page 16


 302:Generated_Source\PSoC4/nRF24_FUNCS.c **** void nRF24_set_address_width(const nrf_addr_width addr_width)
 303:Generated_Source\PSoC4/nRF24_FUNCS.c **** {
 550              		.loc 1 303 0
 551              		.cfi_startproc
 552              		@ args = 0, pretend = 0, frame = 8
 553              		@ frame_needed = 0, uses_anonymous_args = 0
 554              	.LVL33:
 555 0000 10B5     		push	{r4, lr}
 556              		.cfi_def_cfa_offset 8
 557              		.cfi_offset 4, -8
 558              		.cfi_offset 14, -4
 559 0002 82B0     		sub	sp, sp, #8
 560              		.cfi_def_cfa_offset 16
 561 0004 6B46     		mov	r3, sp
 562 0006 DC1D     		adds	r4, r3, #7
 563 0008 D871     		strb	r0, [r3, #7]
 304:Generated_Source\PSoC4/nRF24_FUNCS.c ****     nRF24_write_reg(NRF_REG_SETUP_AW, &addr_width, 1);
 564              		.loc 1 304 0
 565 000a 0122     		movs	r2, #1
 566 000c 2100     		movs	r1, r4
 567 000e 0320     		movs	r0, #3
 568              	.LVL34:
 569 0010 FFF7FEFF 		bl	nRF24_write_reg
 570              	.LVL35:
 305:Generated_Source\PSoC4/nRF24_FUNCS.c **** 
 306:Generated_Source\PSoC4/nRF24_FUNCS.c ****     // update the _nrf_addr_width variable
 307:Generated_Source\PSoC4/nRF24_FUNCS.c ****     _addr_width_conf_to_bytes(addr_width);
 571              		.loc 1 307 0
 572 0014 2078     		ldrb	r0, [r4]
 573 0016 FFF7FEFF 		bl	_addr_width_conf_to_bytes
 574              	.LVL36:
 308:Generated_Source\PSoC4/nRF24_FUNCS.c **** }
 575              		.loc 1 308 0
 576 001a 02B0     		add	sp, sp, #8
 577              		@ sp needed
 578              	.LVL37:
 579 001c 10BD     		pop	{r4, pc}
 580              		.cfi_endproc
 581              	.LFE20:
 582              		.size	nRF24_set_address_width, .-nRF24_set_address_width
 583 001e C046     		.section	.text.nRF24_get_address_width,"ax",%progbits
 584              		.align	2
 585              		.global	nRF24_get_address_width
 586              		.code	16
 587              		.thumb_func
 588              		.type	nRF24_get_address_width, %function
 589              	nRF24_get_address_width:
 590              	.LFB21:
 309:Generated_Source\PSoC4/nRF24_FUNCS.c **** 
 310:Generated_Source\PSoC4/nRF24_FUNCS.c **** /**
 311:Generated_Source\PSoC4/nRF24_FUNCS.c ****  * @brief Get the address width of the data pipes.
 312:Generated_Source\PSoC4/nRF24_FUNCS.c ****  *
 313:Generated_Source\PSoC4/nRF24_FUNCS.c ****  * @return uint8_t: Address width in bytes.
 314:Generated_Source\PSoC4/nRF24_FUNCS.c ****  */
 315:Generated_Source\PSoC4/nRF24_FUNCS.c **** uint8_t nRF24_get_address_width(void)
 316:Generated_Source\PSoC4/nRF24_FUNCS.c **** {
 591              		.loc 1 316 0
ARM GAS  C:\Users\d3bug\AppData\Local\Temp\ccQAmDn0.s 			page 17


 592              		.cfi_startproc
 593              		@ args = 0, pretend = 0, frame = 0
 594              		@ frame_needed = 0, uses_anonymous_args = 0
 595              		@ link register save eliminated.
 317:Generated_Source\PSoC4/nRF24_FUNCS.c ****     return _nrf_addr_width;
 596              		.loc 1 317 0
 597 0000 014B     		ldr	r3, .L27
 598 0002 1878     		ldrb	r0, [r3]
 318:Generated_Source\PSoC4/nRF24_FUNCS.c **** }
 599              		.loc 1 318 0
 600              		@ sp needed
 601 0004 7047     		bx	lr
 602              	.L28:
 603 0006 C046     		.align	2
 604              	.L27:
 605 0008 00000000 		.word	.LANCHOR0
 606              		.cfi_endproc
 607              	.LFE21:
 608              		.size	nRF24_get_address_width, .-nRF24_get_address_width
 609              		.section	.text.nRF24_set_rx_pipe_address,"ax",%progbits
 610              		.align	2
 611              		.global	nRF24_set_rx_pipe_address
 612              		.code	16
 613              		.thumb_func
 614              		.type	nRF24_set_rx_pipe_address, %function
 615              	nRF24_set_rx_pipe_address:
 616              	.LFB22:
 319:Generated_Source\PSoC4/nRF24_FUNCS.c **** 
 320:Generated_Source\PSoC4/nRF24_FUNCS.c **** /**
 321:Generated_Source\PSoC4/nRF24_FUNCS.c ****  * @brief Set the address of the RX Pipe 0 in the radio.
 322:Generated_Source\PSoC4/nRF24_FUNCS.c ****  *
 323:Generated_Source\PSoC4/nRF24_FUNCS.c ****  * This function configure the address of the Rx Pipe 0 of the radio.
 324:Generated_Source\PSoC4/nRF24_FUNCS.c ****  *
 325:Generated_Source\PSoC4/nRF24_FUNCS.c ****  * @param const uint8_t* addr:
 326:Generated_Source\PSoC4/nRF24_FUNCS.c ****  * @param size_t size:
 327:Generated_Source\PSoC4/nRF24_FUNCS.c ****  */
 328:Generated_Source\PSoC4/nRF24_FUNCS.c **** void nRF24_set_rx_pipe_address(const nrf_addr_rx_pipe pipe,
 329:Generated_Source\PSoC4/nRF24_FUNCS.c ****                                             const uint8_t *addr, size_t size)
 330:Generated_Source\PSoC4/nRF24_FUNCS.c **** {
 617              		.loc 1 330 0
 618              		.cfi_startproc
 619              		@ args = 0, pretend = 0, frame = 0
 620              		@ frame_needed = 0, uses_anonymous_args = 0
 621              	.LVL38:
 622 0000 10B5     		push	{r4, lr}
 623              		.cfi_def_cfa_offset 8
 624              		.cfi_offset 4, -8
 625              		.cfi_offset 14, -4
 331:Generated_Source\PSoC4/nRF24_FUNCS.c ****     if (NULL == addr) {
 626              		.loc 1 331 0
 627 0002 0029     		cmp	r1, #0
 628 0004 12D0     		beq	.L29
 332:Generated_Source\PSoC4/nRF24_FUNCS.c ****         return;
 333:Generated_Source\PSoC4/nRF24_FUNCS.c ****     }
 334:Generated_Source\PSoC4/nRF24_FUNCS.c ****     
 335:Generated_Source\PSoC4/nRF24_FUNCS.c ****     switch(pipe) {
 629              		.loc 1 335 0
ARM GAS  C:\Users\d3bug\AppData\Local\Temp\ccQAmDn0.s 			page 18


 630 0006 0A28     		cmp	r0, #10
 631 0008 10D3     		bcc	.L29
 632 000a 0B28     		cmp	r0, #11
 633 000c 02D9     		bls	.L31
 634 000e 0F28     		cmp	r0, #15
 635 0010 09D9     		bls	.L34
 636 0012 0BE0     		b	.L29
 637              	.L31:
 336:Generated_Source\PSoC4/nRF24_FUNCS.c ****     // For pipes 0 and 1 we can change up to 5 bytes of it's addresses
 337:Generated_Source\PSoC4/nRF24_FUNCS.c ****     case NRF_ADDR_PIPE0:
 338:Generated_Source\PSoC4/nRF24_FUNCS.c ****     case NRF_ADDR_PIPE1:
 339:Generated_Source\PSoC4/nRF24_FUNCS.c ****         // The smaller address is 3 bytes
 340:Generated_Source\PSoC4/nRF24_FUNCS.c ****         if (NRF_PIPE_ADDR_WIDTH_3BYTES > size) {
 341:Generated_Source\PSoC4/nRF24_FUNCS.c ****             // TODO
 342:Generated_Source\PSoC4/nRF24_FUNCS.c ****         }
 343:Generated_Source\PSoC4/nRF24_FUNCS.c ****         
 344:Generated_Source\PSoC4/nRF24_FUNCS.c ****         if (_nrf_addr_width < size) {
 638              		.loc 1 344 0
 639 0014 064B     		ldr	r3, .L35
 640 0016 1B78     		ldrb	r3, [r3]
 641 0018 9342     		cmp	r3, r2
 642 001a 00D3     		bcc	.L33
 643 001c 1300     		movs	r3, r2
 644              	.L33:
 645              	.LVL39:
 345:Generated_Source\PSoC4/nRF24_FUNCS.c ****             size = _nrf_addr_width;
 346:Generated_Source\PSoC4/nRF24_FUNCS.c ****         }
 347:Generated_Source\PSoC4/nRF24_FUNCS.c ****         nRF24_write_reg(pipe, addr, size);
 646              		.loc 1 347 0
 647 001e 1A00     		movs	r2, r3
 648 0020 FFF7FEFF 		bl	nRF24_write_reg
 649              	.LVL40:
 348:Generated_Source\PSoC4/nRF24_FUNCS.c ****         break;
 650              		.loc 1 348 0
 651 0024 02E0     		b	.L29
 652              	.LVL41:
 653              	.L34:
 349:Generated_Source\PSoC4/nRF24_FUNCS.c ****     // For pipes 2, 3, 4 and 5 we can change only the LSB of it's address
 350:Generated_Source\PSoC4/nRF24_FUNCS.c ****     case NRF_ADDR_PIPE2:
 351:Generated_Source\PSoC4/nRF24_FUNCS.c ****     case NRF_ADDR_PIPE3:
 352:Generated_Source\PSoC4/nRF24_FUNCS.c ****     case NRF_ADDR_PIPE4:
 353:Generated_Source\PSoC4/nRF24_FUNCS.c ****     case NRF_ADDR_PIPE5:
 354:Generated_Source\PSoC4/nRF24_FUNCS.c ****         (void)size; // so we don't get a warning on unused variable
 355:Generated_Source\PSoC4/nRF24_FUNCS.c ****         nRF24_write_reg(pipe, addr, 1);
 654              		.loc 1 355 0
 655 0026 0122     		movs	r2, #1
 656              	.LVL42:
 657 0028 FFF7FEFF 		bl	nRF24_write_reg
 658              	.LVL43:
 659              	.L29:
 356:Generated_Source\PSoC4/nRF24_FUNCS.c ****         break;
 357:Generated_Source\PSoC4/nRF24_FUNCS.c ****     }
 358:Generated_Source\PSoC4/nRF24_FUNCS.c **** }
 660              		.loc 1 358 0
 661              		@ sp needed
 662 002c 10BD     		pop	{r4, pc}
 663              	.L36:
ARM GAS  C:\Users\d3bug\AppData\Local\Temp\ccQAmDn0.s 			page 19


 664 002e C046     		.align	2
 665              	.L35:
 666 0030 00000000 		.word	.LANCHOR0
 667              		.cfi_endproc
 668              	.LFE22:
 669              		.size	nRF24_set_rx_pipe_address, .-nRF24_set_rx_pipe_address
 670              		.section	.text.nRF24_get_rx_pipe_address,"ax",%progbits
 671              		.align	2
 672              		.global	nRF24_get_rx_pipe_address
 673              		.code	16
 674              		.thumb_func
 675              		.type	nRF24_get_rx_pipe_address, %function
 676              	nRF24_get_rx_pipe_address:
 677              	.LFB23:
 359:Generated_Source\PSoC4/nRF24_FUNCS.c **** 
 360:Generated_Source\PSoC4/nRF24_FUNCS.c **** /**
 361:Generated_Source\PSoC4/nRF24_FUNCS.c ****  * @brief Get the address of the RX Pipe 0 in the radio.
 362:Generated_Source\PSoC4/nRF24_FUNCS.c ****  *
 363:Generated_Source\PSoC4/nRF24_FUNCS.c ****  * @param uint8_t* addr:
 364:Generated_Source\PSoC4/nRF24_FUNCS.c ****  * @param size_t size:
 365:Generated_Source\PSoC4/nRF24_FUNCS.c ****  */
 366:Generated_Source\PSoC4/nRF24_FUNCS.c **** void nRF24_get_rx_pipe_address(const nrf_addr_rx_pipe pipe,
 367:Generated_Source\PSoC4/nRF24_FUNCS.c ****                                             uint8_t *addr, size_t size)
 368:Generated_Source\PSoC4/nRF24_FUNCS.c **** {
 678              		.loc 1 368 0
 679              		.cfi_startproc
 680              		@ args = 0, pretend = 0, frame = 0
 681              		@ frame_needed = 0, uses_anonymous_args = 0
 682              	.LVL44:
 683 0000 70B5     		push	{r4, r5, r6, lr}
 684              		.cfi_def_cfa_offset 16
 685              		.cfi_offset 4, -16
 686              		.cfi_offset 5, -12
 687              		.cfi_offset 6, -8
 688              		.cfi_offset 14, -4
 689 0002 0500     		movs	r5, r0
 690 0004 0E1E     		subs	r6, r1, #0
 369:Generated_Source\PSoC4/nRF24_FUNCS.c ****     if (NULL == addr) {
 691              		.loc 1 369 0
 692 0006 1CD0     		beq	.L37
 370:Generated_Source\PSoC4/nRF24_FUNCS.c ****         return;
 371:Generated_Source\PSoC4/nRF24_FUNCS.c ****     }
 372:Generated_Source\PSoC4/nRF24_FUNCS.c ****     
 373:Generated_Source\PSoC4/nRF24_FUNCS.c ****     // The smaller address is 3 bytes
 374:Generated_Source\PSoC4/nRF24_FUNCS.c ****     if (NRF_PIPE_ADDR_WIDTH_3BYTES > size) {
 375:Generated_Source\PSoC4/nRF24_FUNCS.c ****         // TODO
 376:Generated_Source\PSoC4/nRF24_FUNCS.c ****     }
 377:Generated_Source\PSoC4/nRF24_FUNCS.c ****     
 378:Generated_Source\PSoC4/nRF24_FUNCS.c ****     if (_nrf_addr_width < size) {
 693              		.loc 1 378 0
 694 0008 0E4B     		ldr	r3, .L43
 695 000a 1B78     		ldrb	r3, [r3]
 696 000c 9342     		cmp	r3, r2
 697 000e 00D3     		bcc	.L39
 698 0010 1300     		movs	r3, r2
 699              	.L39:
 700              	.LVL45:
ARM GAS  C:\Users\d3bug\AppData\Local\Temp\ccQAmDn0.s 			page 20


 379:Generated_Source\PSoC4/nRF24_FUNCS.c ****         size = _nrf_addr_width;
 380:Generated_Source\PSoC4/nRF24_FUNCS.c ****     }
 381:Generated_Source\PSoC4/nRF24_FUNCS.c ****     
 382:Generated_Source\PSoC4/nRF24_FUNCS.c ****     switch(pipe) {
 701              		.loc 1 382 0
 702 0012 0A2D     		cmp	r5, #10
 703 0014 15D3     		bcc	.L37
 704 0016 0B2D     		cmp	r5, #11
 705 0018 02D9     		bls	.L40
 706 001a 0F2D     		cmp	r5, #15
 707 001c 06D9     		bls	.L42
 708 001e 10E0     		b	.L37
 709              	.L40:
 383:Generated_Source\PSoC4/nRF24_FUNCS.c ****     // For pipes 0 and 1 we can read up to 5 bytes of it's addresses
 384:Generated_Source\PSoC4/nRF24_FUNCS.c ****     case NRF_ADDR_PIPE0:
 385:Generated_Source\PSoC4/nRF24_FUNCS.c ****     case NRF_ADDR_PIPE1:
 386:Generated_Source\PSoC4/nRF24_FUNCS.c ****         nRF24_read_reg(pipe, addr, size);
 710              		.loc 1 386 0
 711 0020 1A00     		movs	r2, r3
 712 0022 3100     		movs	r1, r6
 713              	.LVL46:
 714 0024 2800     		movs	r0, r5
 715              	.LVL47:
 716 0026 FFF7FEFF 		bl	nRF24_read_reg
 717              	.LVL48:
 387:Generated_Source\PSoC4/nRF24_FUNCS.c ****         break;
 718              		.loc 1 387 0
 719 002a 0AE0     		b	.L37
 720              	.LVL49:
 721              	.L42:
 388:Generated_Source\PSoC4/nRF24_FUNCS.c ****     // For pipes 2, 3, 4 and 5 the address is the same to pipe1 except the LSB
 389:Generated_Source\PSoC4/nRF24_FUNCS.c ****     case NRF_ADDR_PIPE2:
 390:Generated_Source\PSoC4/nRF24_FUNCS.c ****     case NRF_ADDR_PIPE3:
 391:Generated_Source\PSoC4/nRF24_FUNCS.c ****     case NRF_ADDR_PIPE4:
 392:Generated_Source\PSoC4/nRF24_FUNCS.c ****     case NRF_ADDR_PIPE5:
 393:Generated_Source\PSoC4/nRF24_FUNCS.c ****         nRF24_read_reg(NRF_REG_RX_ADDR_P1, addr, size - 1);
 722              		.loc 1 393 0
 723 002c 5C1E     		subs	r4, r3, #1
 724 002e 2200     		movs	r2, r4
 725 0030 3100     		movs	r1, r6
 726              	.LVL50:
 727 0032 0B20     		movs	r0, #11
 728              	.LVL51:
 729 0034 FFF7FEFF 		bl	nRF24_read_reg
 730              	.LVL52:
 394:Generated_Source\PSoC4/nRF24_FUNCS.c ****         nRF24_read_reg(pipe, &addr[size - 1], 1);
 731              		.loc 1 394 0
 732 0038 3119     		adds	r1, r6, r4
 733 003a 0122     		movs	r2, #1
 734 003c 2800     		movs	r0, r5
 735 003e FFF7FEFF 		bl	nRF24_read_reg
 736              	.LVL53:
 737              	.L37:
 395:Generated_Source\PSoC4/nRF24_FUNCS.c ****         break;
 396:Generated_Source\PSoC4/nRF24_FUNCS.c ****     }
 397:Generated_Source\PSoC4/nRF24_FUNCS.c **** }
 738              		.loc 1 397 0
ARM GAS  C:\Users\d3bug\AppData\Local\Temp\ccQAmDn0.s 			page 21


 739              		@ sp needed
 740              	.LVL54:
 741 0042 70BD     		pop	{r4, r5, r6, pc}
 742              	.L44:
 743              		.align	2
 744              	.L43:
 745 0044 00000000 		.word	.LANCHOR0
 746              		.cfi_endproc
 747              	.LFE23:
 748              		.size	nRF24_get_rx_pipe_address, .-nRF24_get_rx_pipe_address
 749              		.section	.text.nRF24_set_tx_address,"ax",%progbits
 750              		.align	2
 751              		.global	nRF24_set_tx_address
 752              		.code	16
 753              		.thumb_func
 754              		.type	nRF24_set_tx_address, %function
 755              	nRF24_set_tx_address:
 756              	.LFB24:
 398:Generated_Source\PSoC4/nRF24_FUNCS.c **** 
 399:Generated_Source\PSoC4/nRF24_FUNCS.c **** /**
 400:Generated_Source\PSoC4/nRF24_FUNCS.c ****  * @brief Set the TX Address of the radio.
 401:Generated_Source\PSoC4/nRF24_FUNCS.c ****  *
 402:Generated_Source\PSoC4/nRF24_FUNCS.c ****  * @param const uint8_t* addr:
 403:Generated_Source\PSoC4/nRF24_FUNCS.c ****  * @param size_t size:
 404:Generated_Source\PSoC4/nRF24_FUNCS.c ****  */
 405:Generated_Source\PSoC4/nRF24_FUNCS.c **** void nRF24_set_tx_address(const uint8_t *const addr, size_t size)
 406:Generated_Source\PSoC4/nRF24_FUNCS.c **** {
 757              		.loc 1 406 0
 758              		.cfi_startproc
 759              		@ args = 0, pretend = 0, frame = 0
 760              		@ frame_needed = 0, uses_anonymous_args = 0
 761              	.LVL55:
 762 0000 10B5     		push	{r4, lr}
 763              		.cfi_def_cfa_offset 8
 764              		.cfi_offset 4, -8
 765              		.cfi_offset 14, -4
 407:Generated_Source\PSoC4/nRF24_FUNCS.c ****     if (NULL == addr) {
 766              		.loc 1 407 0
 767 0002 0028     		cmp	r0, #0
 768 0004 08D0     		beq	.L45
 408:Generated_Source\PSoC4/nRF24_FUNCS.c ****         return;
 409:Generated_Source\PSoC4/nRF24_FUNCS.c ****     }
 410:Generated_Source\PSoC4/nRF24_FUNCS.c **** 
 411:Generated_Source\PSoC4/nRF24_FUNCS.c ****     if (_nrf_addr_width < size) {
 769              		.loc 1 411 0
 770 0006 054B     		ldr	r3, .L48
 771 0008 1A78     		ldrb	r2, [r3]
 772 000a 8A42     		cmp	r2, r1
 773 000c 00D3     		bcc	.L47
 774 000e 0A00     		movs	r2, r1
 775              	.L47:
 776              	.LVL56:
 412:Generated_Source\PSoC4/nRF24_FUNCS.c ****         size = _nrf_addr_width;
 413:Generated_Source\PSoC4/nRF24_FUNCS.c ****     }
 414:Generated_Source\PSoC4/nRF24_FUNCS.c **** 
 415:Generated_Source\PSoC4/nRF24_FUNCS.c ****     nRF24_write_reg(NRF_REG_TX_ADDR, addr, size);
 777              		.loc 1 415 0
ARM GAS  C:\Users\d3bug\AppData\Local\Temp\ccQAmDn0.s 			page 22


 778 0010 0100     		movs	r1, r0
 779 0012 1020     		movs	r0, #16
 780              	.LVL57:
 781 0014 FFF7FEFF 		bl	nRF24_write_reg
 782              	.LVL58:
 783              	.L45:
 416:Generated_Source\PSoC4/nRF24_FUNCS.c **** }
 784              		.loc 1 416 0
 785              		@ sp needed
 786 0018 10BD     		pop	{r4, pc}
 787              	.L49:
 788 001a C046     		.align	2
 789              	.L48:
 790 001c 00000000 		.word	.LANCHOR0
 791              		.cfi_endproc
 792              	.LFE24:
 793              		.size	nRF24_set_tx_address, .-nRF24_set_tx_address
 794              		.section	.text.nRF24_get_tx_address,"ax",%progbits
 795              		.align	2
 796              		.global	nRF24_get_tx_address
 797              		.code	16
 798              		.thumb_func
 799              		.type	nRF24_get_tx_address, %function
 800              	nRF24_get_tx_address:
 801              	.LFB25:
 417:Generated_Source\PSoC4/nRF24_FUNCS.c **** 
 418:Generated_Source\PSoC4/nRF24_FUNCS.c **** /**
 419:Generated_Source\PSoC4/nRF24_FUNCS.c ****  * @brief Get the TX Address of the radio.
 420:Generated_Source\PSoC4/nRF24_FUNCS.c ****  *
 421:Generated_Source\PSoC4/nRF24_FUNCS.c ****  * @param const uint8_t* addr:
 422:Generated_Source\PSoC4/nRF24_FUNCS.c ****  * @param const size_t size:
 423:Generated_Source\PSoC4/nRF24_FUNCS.c ****  */
 424:Generated_Source\PSoC4/nRF24_FUNCS.c **** void nRF24_get_tx_address(uint8_t* addr, size_t size)
 425:Generated_Source\PSoC4/nRF24_FUNCS.c **** {
 802              		.loc 1 425 0
 803              		.cfi_startproc
 804              		@ args = 0, pretend = 0, frame = 0
 805              		@ frame_needed = 0, uses_anonymous_args = 0
 806              	.LVL59:
 807 0000 10B5     		push	{r4, lr}
 808              		.cfi_def_cfa_offset 8
 809              		.cfi_offset 4, -8
 810              		.cfi_offset 14, -4
 426:Generated_Source\PSoC4/nRF24_FUNCS.c ****     if (NULL == addr) {
 811              		.loc 1 426 0
 812 0002 0028     		cmp	r0, #0
 813 0004 08D0     		beq	.L50
 427:Generated_Source\PSoC4/nRF24_FUNCS.c ****         return;
 428:Generated_Source\PSoC4/nRF24_FUNCS.c ****     }
 429:Generated_Source\PSoC4/nRF24_FUNCS.c **** 
 430:Generated_Source\PSoC4/nRF24_FUNCS.c ****     if (_nrf_addr_width < size) {
 814              		.loc 1 430 0
 815 0006 054B     		ldr	r3, .L53
 816 0008 1A78     		ldrb	r2, [r3]
 817 000a 8A42     		cmp	r2, r1
 818 000c 00D3     		bcc	.L52
 819 000e 0A00     		movs	r2, r1
ARM GAS  C:\Users\d3bug\AppData\Local\Temp\ccQAmDn0.s 			page 23


 820              	.L52:
 821              	.LVL60:
 431:Generated_Source\PSoC4/nRF24_FUNCS.c ****         size = _nrf_addr_width;
 432:Generated_Source\PSoC4/nRF24_FUNCS.c ****     }
 433:Generated_Source\PSoC4/nRF24_FUNCS.c **** 
 434:Generated_Source\PSoC4/nRF24_FUNCS.c ****     nRF24_read_reg(NRF_REG_TX_ADDR, addr, size);
 822              		.loc 1 434 0
 823 0010 0100     		movs	r1, r0
 824 0012 1020     		movs	r0, #16
 825              	.LVL61:
 826 0014 FFF7FEFF 		bl	nRF24_read_reg
 827              	.LVL62:
 828              	.L50:
 435:Generated_Source\PSoC4/nRF24_FUNCS.c **** }
 829              		.loc 1 435 0
 830              		@ sp needed
 831 0018 10BD     		pop	{r4, pc}
 832              	.L54:
 833 001a C046     		.align	2
 834              	.L53:
 835 001c 00000000 		.word	.LANCHOR0
 836              		.cfi_endproc
 837              	.LFE25:
 838              		.size	nRF24_get_tx_address, .-nRF24_get_tx_address
 839              		.section	.text.nRF24_set_payload_size,"ax",%progbits
 840              		.align	2
 841              		.global	nRF24_set_payload_size
 842              		.code	16
 843              		.thumb_func
 844              		.type	nRF24_set_payload_size, %function
 845              	nRF24_set_payload_size:
 846              	.LFB26:
 436:Generated_Source\PSoC4/nRF24_FUNCS.c **** 
 437:Generated_Source\PSoC4/nRF24_FUNCS.c **** /**
 438:Generated_Source\PSoC4/nRF24_FUNCS.c ****  * @brief Set the payload size of the given pipe.
 439:Generated_Source\PSoC4/nRF24_FUNCS.c ****  *
 440:Generated_Source\PSoC4/nRF24_FUNCS.c ****  * Configure the payload size of the given pipe.
 441:Generated_Source\PSoC4/nRF24_FUNCS.c ****  *
 442:Generated_Source\PSoC4/nRF24_FUNCS.c ****  * @param const nrf_pipe pipe:
 443:Generated_Source\PSoC4/nRF24_FUNCS.c ****  * @param uint8_t size:
 444:Generated_Source\PSoC4/nRF24_FUNCS.c ****  */
 445:Generated_Source\PSoC4/nRF24_FUNCS.c **** void nRF24_set_payload_size(const nrf_pld_size pipe, uint8_t size)
 446:Generated_Source\PSoC4/nRF24_FUNCS.c **** {
 847              		.loc 1 446 0
 848              		.cfi_startproc
 849              		@ args = 0, pretend = 0, frame = 8
 850              		@ frame_needed = 0, uses_anonymous_args = 0
 851              	.LVL63:
 852 0000 00B5     		push	{lr}
 853              		.cfi_def_cfa_offset 4
 854              		.cfi_offset 14, -4
 855 0002 83B0     		sub	sp, sp, #12
 856              		.cfi_def_cfa_offset 16
 857 0004 6B46     		mov	r3, sp
 858 0006 D971     		strb	r1, [r3, #7]
 447:Generated_Source\PSoC4/nRF24_FUNCS.c ****     if (NRF_PAYLOAD_SIZE_MAX < size) {
 859              		.loc 1 447 0
ARM GAS  C:\Users\d3bug\AppData\Local\Temp\ccQAmDn0.s 			page 24


 860 0008 2029     		cmp	r1, #32
 861 000a 02D9     		bls	.L56
 448:Generated_Source\PSoC4/nRF24_FUNCS.c ****         size = NRF_PAYLOAD_SIZE_MAX;
 862              		.loc 1 448 0
 863 000c 2022     		movs	r2, #32
 864 000e 6B46     		mov	r3, sp
 865 0010 DA71     		strb	r2, [r3, #7]
 866              	.L56:
 449:Generated_Source\PSoC4/nRF24_FUNCS.c ****     }
 450:Generated_Source\PSoC4/nRF24_FUNCS.c **** 
 451:Generated_Source\PSoC4/nRF24_FUNCS.c ****     nRF24_write_reg(pipe, &size, 1);
 867              		.loc 1 451 0
 868 0012 0122     		movs	r2, #1
 869 0014 6B46     		mov	r3, sp
 870 0016 D91D     		adds	r1, r3, #7
 871              	.LVL64:
 872 0018 FFF7FEFF 		bl	nRF24_write_reg
 873              	.LVL65:
 452:Generated_Source\PSoC4/nRF24_FUNCS.c **** }
 874              		.loc 1 452 0
 875 001c 03B0     		add	sp, sp, #12
 876              		@ sp needed
 877 001e 00BD     		pop	{pc}
 878              		.cfi_endproc
 879              	.LFE26:
 880              		.size	nRF24_set_payload_size, .-nRF24_set_payload_size
 881              		.section	.text.nRF24_get_payload_size,"ax",%progbits
 882              		.align	2
 883              		.global	nRF24_get_payload_size
 884              		.code	16
 885              		.thumb_func
 886              		.type	nRF24_get_payload_size, %function
 887              	nRF24_get_payload_size:
 888              	.LFB27:
 453:Generated_Source\PSoC4/nRF24_FUNCS.c **** 
 454:Generated_Source\PSoC4/nRF24_FUNCS.c **** /**
 455:Generated_Source\PSoC4/nRF24_FUNCS.c ****  * Get the payload size of the given pipe.
 456:Generated_Source\PSoC4/nRF24_FUNCS.c ****  *
 457:Generated_Source\PSoC4/nRF24_FUNCS.c ****  * @param const nrf_pipe pipe: Pipe to be read.
 458:Generated_Source\PSoC4/nRF24_FUNCS.c ****  *
 459:Generated_Source\PSoC4/nRF24_FUNCS.c ****  * @return uint8_t: Configured payload size of the given pipe.
 460:Generated_Source\PSoC4/nRF24_FUNCS.c ****  */
 461:Generated_Source\PSoC4/nRF24_FUNCS.c **** uint8_t nRF24_get_payload_size(const nrf_pld_size pipe)
 462:Generated_Source\PSoC4/nRF24_FUNCS.c **** {
 889              		.loc 1 462 0
 890              		.cfi_startproc
 891              		@ args = 0, pretend = 0, frame = 8
 892              		@ frame_needed = 0, uses_anonymous_args = 0
 893              	.LVL66:
 894 0000 10B5     		push	{r4, lr}
 895              		.cfi_def_cfa_offset 8
 896              		.cfi_offset 4, -8
 897              		.cfi_offset 14, -4
 898 0002 82B0     		sub	sp, sp, #8
 899              		.cfi_def_cfa_offset 16
 463:Generated_Source\PSoC4/nRF24_FUNCS.c ****     uint8_t payload_size;
 464:Generated_Source\PSoC4/nRF24_FUNCS.c ****     nRF24_read_reg(pipe, &payload_size, 1);
ARM GAS  C:\Users\d3bug\AppData\Local\Temp\ccQAmDn0.s 			page 25


 900              		.loc 1 464 0
 901 0004 6B46     		mov	r3, sp
 902 0006 DC1D     		adds	r4, r3, #7
 903 0008 0122     		movs	r2, #1
 904 000a 2100     		movs	r1, r4
 905 000c FFF7FEFF 		bl	nRF24_read_reg
 906              	.LVL67:
 465:Generated_Source\PSoC4/nRF24_FUNCS.c ****     return payload_size;
 907              		.loc 1 465 0
 908 0010 2078     		ldrb	r0, [r4]
 466:Generated_Source\PSoC4/nRF24_FUNCS.c **** }
 909              		.loc 1 466 0
 910 0012 02B0     		add	sp, sp, #8
 911              		@ sp needed
 912 0014 10BD     		pop	{r4, pc}
 913              		.cfi_endproc
 914              	.LFE27:
 915              		.size	nRF24_get_payload_size, .-nRF24_get_payload_size
 916 0016 C046     		.section	.text.nRF24_enable_dynamic_payload,"ax",%progbits
 917              		.align	2
 918              		.global	nRF24_enable_dynamic_payload
 919              		.code	16
 920              		.thumb_func
 921              		.type	nRF24_enable_dynamic_payload, %function
 922              	nRF24_enable_dynamic_payload:
 923              	.LFB29:
 467:Generated_Source\PSoC4/nRF24_FUNCS.c **** 
 468:Generated_Source\PSoC4/nRF24_FUNCS.c **** /**
 469:Generated_Source\PSoC4/nRF24_FUNCS.c ****  * @brief Reuse last transmitted payload.
 470:Generated_Source\PSoC4/nRF24_FUNCS.c ****  *
 471:Generated_Source\PSoC4/nRF24_FUNCS.c ****  * This function issue the command ReuseTxPayload and then toggle the CE pin
 472:Generated_Source\PSoC4/nRF24_FUNCS.c ****  * to transmit the last transmitted payload.
 473:Generated_Source\PSoC4/nRF24_FUNCS.c ****  */
 474:Generated_Source\PSoC4/nRF24_FUNCS.c **** void nRF24_reuse_last_transmitted_payload(void)
 475:Generated_Source\PSoC4/nRF24_FUNCS.c **** {
 476:Generated_Source\PSoC4/nRF24_FUNCS.c ****     nRF24_cmd_reuse_tx_payload();
 477:Generated_Source\PSoC4/nRF24_FUNCS.c ****     nRF24_transmit_pulse();
 478:Generated_Source\PSoC4/nRF24_FUNCS.c **** }
 479:Generated_Source\PSoC4/nRF24_FUNCS.c **** 
 480:Generated_Source\PSoC4/nRF24_FUNCS.c **** /**
 481:Generated_Source\PSoC4/nRF24_FUNCS.c ****  * @brief Enable dynamic payload on the given pipe.
 482:Generated_Source\PSoC4/nRF24_FUNCS.c ****  *
 483:Generated_Source\PSoC4/nRF24_FUNCS.c ****  * @param const nrf_pipe pipe:
 484:Generated_Source\PSoC4/nRF24_FUNCS.c ****  */
 485:Generated_Source\PSoC4/nRF24_FUNCS.c **** void nRF24_enable_dynamic_payload(void)
 486:Generated_Source\PSoC4/nRF24_FUNCS.c **** {
 924              		.loc 1 486 0
 925              		.cfi_startproc
 926              		@ args = 0, pretend = 0, frame = 0
 927              		@ frame_needed = 0, uses_anonymous_args = 0
 928 0000 10B5     		push	{r4, lr}
 929              		.cfi_def_cfa_offset 8
 930              		.cfi_offset 4, -8
 931              		.cfi_offset 14, -4
 487:Generated_Source\PSoC4/nRF24_FUNCS.c ****     // TODO: Read the FEATURE register, check the needed values and set
 488:Generated_Source\PSoC4/nRF24_FUNCS.c ****     // the bits if not set already
 489:Generated_Source\PSoC4/nRF24_FUNCS.c ****     nRF24_set_bit(NRF_REG_FEATURE, NRF_FEATURE_BIT_EN_ACK_PAY);
ARM GAS  C:\Users\d3bug\AppData\Local\Temp\ccQAmDn0.s 			page 26


 932              		.loc 1 489 0
 933 0002 0121     		movs	r1, #1
 934 0004 1D20     		movs	r0, #29
 935 0006 FFF7FEFF 		bl	nRF24_set_bit
 936              	.LVL68:
 490:Generated_Source\PSoC4/nRF24_FUNCS.c ****     nRF24_set_bit(NRF_REG_FEATURE, NRF_FEATURE_BIT_EN_DPL);
 937              		.loc 1 490 0
 938 000a 0221     		movs	r1, #2
 939 000c 1D20     		movs	r0, #29
 940 000e FFF7FEFF 		bl	nRF24_set_bit
 941              	.LVL69:
 491:Generated_Source\PSoC4/nRF24_FUNCS.c **** }
 942              		.loc 1 491 0
 943              		@ sp needed
 944 0012 10BD     		pop	{r4, pc}
 945              		.cfi_endproc
 946              	.LFE29:
 947              		.size	nRF24_enable_dynamic_payload, .-nRF24_enable_dynamic_payload
 948              		.section	.text.nRF24_enable_dynamic_payload_on_pipe,"ax",%progbits
 949              		.align	2
 950              		.global	nRF24_enable_dynamic_payload_on_pipe
 951              		.code	16
 952              		.thumb_func
 953              		.type	nRF24_enable_dynamic_payload_on_pipe, %function
 954              	nRF24_enable_dynamic_payload_on_pipe:
 955              	.LFB30:
 492:Generated_Source\PSoC4/nRF24_FUNCS.c **** 
 493:Generated_Source\PSoC4/nRF24_FUNCS.c **** /**
 494:Generated_Source\PSoC4/nRF24_FUNCS.c ****  * @brief Enable dynamic payload on the given pipe.
 495:Generated_Source\PSoC4/nRF24_FUNCS.c ****  *
 496:Generated_Source\PSoC4/nRF24_FUNCS.c ****  * @param const nrf_pipe pipe:
 497:Generated_Source\PSoC4/nRF24_FUNCS.c ****  */
 498:Generated_Source\PSoC4/nRF24_FUNCS.c **** void nRF24_enable_dynamic_payload_on_pipe(const nrf_pipe pipe)
 499:Generated_Source\PSoC4/nRF24_FUNCS.c **** {
 956              		.loc 1 499 0
 957              		.cfi_startproc
 958              		@ args = 0, pretend = 0, frame = 0
 959              		@ frame_needed = 0, uses_anonymous_args = 0
 960              	.LVL70:
 961 0000 10B5     		push	{r4, lr}
 962              		.cfi_def_cfa_offset 8
 963              		.cfi_offset 4, -8
 964              		.cfi_offset 14, -4
 965 0002 0400     		movs	r4, r0
 500:Generated_Source\PSoC4/nRF24_FUNCS.c ****     nRF24_set_bit(NRF_REG_EN_AA, pipe);
 966              		.loc 1 500 0
 967 0004 0100     		movs	r1, r0
 968 0006 0120     		movs	r0, #1
 969              	.LVL71:
 970 0008 FFF7FEFF 		bl	nRF24_set_bit
 971              	.LVL72:
 501:Generated_Source\PSoC4/nRF24_FUNCS.c ****     nRF24_set_bit(NRF_REG_DYNPD, pipe);
 972              		.loc 1 501 0
 973 000c 2100     		movs	r1, r4
 974 000e 1C20     		movs	r0, #28
 975 0010 FFF7FEFF 		bl	nRF24_set_bit
 976              	.LVL73:
ARM GAS  C:\Users\d3bug\AppData\Local\Temp\ccQAmDn0.s 			page 27


 502:Generated_Source\PSoC4/nRF24_FUNCS.c **** }
 977              		.loc 1 502 0
 978              		@ sp needed
 979 0014 10BD     		pop	{r4, pc}
 980              		.cfi_endproc
 981              	.LFE30:
 982              		.size	nRF24_enable_dynamic_payload_on_pipe, .-nRF24_enable_dynamic_payload_on_pipe
 983 0016 C046     		.section	.text.nRF24_disable_dynamic_payload,"ax",%progbits
 984              		.align	2
 985              		.global	nRF24_disable_dynamic_payload
 986              		.code	16
 987              		.thumb_func
 988              		.type	nRF24_disable_dynamic_payload, %function
 989              	nRF24_disable_dynamic_payload:
 990              	.LFB31:
 503:Generated_Source\PSoC4/nRF24_FUNCS.c **** 
 504:Generated_Source\PSoC4/nRF24_FUNCS.c **** /**
 505:Generated_Source\PSoC4/nRF24_FUNCS.c ****  * @brief Disable dynamic payload on the given pipe.
 506:Generated_Source\PSoC4/nRF24_FUNCS.c ****  *
 507:Generated_Source\PSoC4/nRF24_FUNCS.c ****  * @param const nrf_pipe pipe:
 508:Generated_Source\PSoC4/nRF24_FUNCS.c ****  */
 509:Generated_Source\PSoC4/nRF24_FUNCS.c **** void nRF24_disable_dynamic_payload()
 510:Generated_Source\PSoC4/nRF24_FUNCS.c **** {
 991              		.loc 1 510 0
 992              		.cfi_startproc
 993              		@ args = 0, pretend = 0, frame = 0
 994              		@ frame_needed = 0, uses_anonymous_args = 0
 995 0000 10B5     		push	{r4, lr}
 996              		.cfi_def_cfa_offset 8
 997              		.cfi_offset 4, -8
 998              		.cfi_offset 14, -4
 511:Generated_Source\PSoC4/nRF24_FUNCS.c ****     // TODO: Read the FEATURE register, check the needed values and clear
 512:Generated_Source\PSoC4/nRF24_FUNCS.c ****     // the bits if not clear already
 513:Generated_Source\PSoC4/nRF24_FUNCS.c ****     nRF24_clear_bit(NRF_REG_FEATURE, NRF_FEATURE_BIT_EN_ACK_PAY);
 999              		.loc 1 513 0
 1000 0002 0121     		movs	r1, #1
 1001 0004 1D20     		movs	r0, #29
 1002 0006 FFF7FEFF 		bl	nRF24_clear_bit
 1003              	.LVL74:
 514:Generated_Source\PSoC4/nRF24_FUNCS.c ****     nRF24_clear_bit(NRF_REG_FEATURE, NRF_FEATURE_BIT_EN_DPL);
 1004              		.loc 1 514 0
 1005 000a 0221     		movs	r1, #2
 1006 000c 1D20     		movs	r0, #29
 1007 000e FFF7FEFF 		bl	nRF24_clear_bit
 1008              	.LVL75:
 515:Generated_Source\PSoC4/nRF24_FUNCS.c **** }
 1009              		.loc 1 515 0
 1010              		@ sp needed
 1011 0012 10BD     		pop	{r4, pc}
 1012              		.cfi_endproc
 1013              	.LFE31:
 1014              		.size	nRF24_disable_dynamic_payload, .-nRF24_disable_dynamic_payload
 1015              		.section	.text.nRF24_disable_dynamic_payload_on_pipe,"ax",%progbits
 1016              		.align	2
 1017              		.global	nRF24_disable_dynamic_payload_on_pipe
 1018              		.code	16
 1019              		.thumb_func
ARM GAS  C:\Users\d3bug\AppData\Local\Temp\ccQAmDn0.s 			page 28


 1020              		.type	nRF24_disable_dynamic_payload_on_pipe, %function
 1021              	nRF24_disable_dynamic_payload_on_pipe:
 1022              	.LFB32:
 516:Generated_Source\PSoC4/nRF24_FUNCS.c **** 
 517:Generated_Source\PSoC4/nRF24_FUNCS.c **** /**
 518:Generated_Source\PSoC4/nRF24_FUNCS.c ****  * @brief Disable dynamic payload on the given pipe.
 519:Generated_Source\PSoC4/nRF24_FUNCS.c ****  *
 520:Generated_Source\PSoC4/nRF24_FUNCS.c ****  * @param const nrf_pipe pipe:
 521:Generated_Source\PSoC4/nRF24_FUNCS.c ****  */
 522:Generated_Source\PSoC4/nRF24_FUNCS.c **** void nRF24_disable_dynamic_payload_on_pipe(const nrf_pipe pipe)
 523:Generated_Source\PSoC4/nRF24_FUNCS.c **** {
 1023              		.loc 1 523 0
 1024              		.cfi_startproc
 1025              		@ args = 0, pretend = 0, frame = 0
 1026              		@ frame_needed = 0, uses_anonymous_args = 0
 1027              	.LVL76:
 1028 0000 10B5     		push	{r4, lr}
 1029              		.cfi_def_cfa_offset 8
 1030              		.cfi_offset 4, -8
 1031              		.cfi_offset 14, -4
 1032 0002 0400     		movs	r4, r0
 524:Generated_Source\PSoC4/nRF24_FUNCS.c ****     nRF24_clear_bit(NRF_REG_EN_AA, pipe);
 1033              		.loc 1 524 0
 1034 0004 0100     		movs	r1, r0
 1035 0006 0120     		movs	r0, #1
 1036              	.LVL77:
 1037 0008 FFF7FEFF 		bl	nRF24_clear_bit
 1038              	.LVL78:
 525:Generated_Source\PSoC4/nRF24_FUNCS.c ****     nRF24_clear_bit(NRF_REG_DYNPD, pipe);
 1039              		.loc 1 525 0
 1040 000c 2100     		movs	r1, r4
 1041 000e 1C20     		movs	r0, #28
 1042 0010 FFF7FEFF 		bl	nRF24_clear_bit
 1043              	.LVL79:
 526:Generated_Source\PSoC4/nRF24_FUNCS.c **** }
 1044              		.loc 1 526 0
 1045              		@ sp needed
 1046 0014 10BD     		pop	{r4, pc}
 1047              		.cfi_endproc
 1048              	.LFE32:
 1049              		.size	nRF24_disable_dynamic_payload_on_pipe, .-nRF24_disable_dynamic_payload_on_pipe
 1050 0016 C046     		.section	.text.nRF24_enable_dynamic_payload_length,"ax",%progbits
 1051              		.align	2
 1052              		.global	nRF24_enable_dynamic_payload_length
 1053              		.code	16
 1054              		.thumb_func
 1055              		.type	nRF24_enable_dynamic_payload_length, %function
 1056              	nRF24_enable_dynamic_payload_length:
 1057              	.LFB33:
 527:Generated_Source\PSoC4/nRF24_FUNCS.c **** 
 528:Generated_Source\PSoC4/nRF24_FUNCS.c **** /**
 529:Generated_Source\PSoC4/nRF24_FUNCS.c ****  * @brief Enable dinamic payload length.
 530:Generated_Source\PSoC4/nRF24_FUNCS.c ****  */
 531:Generated_Source\PSoC4/nRF24_FUNCS.c **** void nRF24_enable_dynamic_payload_length(void)
 532:Generated_Source\PSoC4/nRF24_FUNCS.c **** {
 1058              		.loc 1 532 0
 1059              		.cfi_startproc
ARM GAS  C:\Users\d3bug\AppData\Local\Temp\ccQAmDn0.s 			page 29


 1060              		@ args = 0, pretend = 0, frame = 0
 1061              		@ frame_needed = 0, uses_anonymous_args = 0
 1062 0000 10B5     		push	{r4, lr}
 1063              		.cfi_def_cfa_offset 8
 1064              		.cfi_offset 4, -8
 1065              		.cfi_offset 14, -4
 533:Generated_Source\PSoC4/nRF24_FUNCS.c ****     nRF24_set_bit(NRF_REG_FEATURE, NRF_FEATURE_BIT_EN_DPL);
 1066              		.loc 1 533 0
 1067 0002 0221     		movs	r1, #2
 1068 0004 1D20     		movs	r0, #29
 1069 0006 FFF7FEFF 		bl	nRF24_set_bit
 1070              	.LVL80:
 534:Generated_Source\PSoC4/nRF24_FUNCS.c **** }
 1071              		.loc 1 534 0
 1072              		@ sp needed
 1073 000a 10BD     		pop	{r4, pc}
 1074              		.cfi_endproc
 1075              	.LFE33:
 1076              		.size	nRF24_enable_dynamic_payload_length, .-nRF24_enable_dynamic_payload_length
 1077              		.section	.text.nRF24_disable_dynamic_payload_length,"ax",%progbits
 1078              		.align	2
 1079              		.global	nRF24_disable_dynamic_payload_length
 1080              		.code	16
 1081              		.thumb_func
 1082              		.type	nRF24_disable_dynamic_payload_length, %function
 1083              	nRF24_disable_dynamic_payload_length:
 1084              	.LFB34:
 535:Generated_Source\PSoC4/nRF24_FUNCS.c **** 
 536:Generated_Source\PSoC4/nRF24_FUNCS.c **** /**
 537:Generated_Source\PSoC4/nRF24_FUNCS.c ****  * @brief Disable dynamic payload length.
 538:Generated_Source\PSoC4/nRF24_FUNCS.c ****  */
 539:Generated_Source\PSoC4/nRF24_FUNCS.c **** void nRF24_disable_dynamic_payload_length(void)
 540:Generated_Source\PSoC4/nRF24_FUNCS.c **** {
 1085              		.loc 1 540 0
 1086              		.cfi_startproc
 1087              		@ args = 0, pretend = 0, frame = 0
 1088              		@ frame_needed = 0, uses_anonymous_args = 0
 1089 0000 10B5     		push	{r4, lr}
 1090              		.cfi_def_cfa_offset 8
 1091              		.cfi_offset 4, -8
 1092              		.cfi_offset 14, -4
 541:Generated_Source\PSoC4/nRF24_FUNCS.c ****     nRF24_clear_bit(NRF_REG_FEATURE, NRF_FEATURE_BIT_EN_DPL);
 1093              		.loc 1 541 0
 1094 0002 0221     		movs	r1, #2
 1095 0004 1D20     		movs	r0, #29
 1096 0006 FFF7FEFF 		bl	nRF24_clear_bit
 1097              	.LVL81:
 542:Generated_Source\PSoC4/nRF24_FUNCS.c **** }
 1098              		.loc 1 542 0
 1099              		@ sp needed
 1100 000a 10BD     		pop	{r4, pc}
 1101              		.cfi_endproc
 1102              	.LFE34:
 1103              		.size	nRF24_disable_dynamic_payload_length, .-nRF24_disable_dynamic_payload_length
 1104              		.section	.text.nRF24_enable_payload_with_ack,"ax",%progbits
 1105              		.align	2
 1106              		.global	nRF24_enable_payload_with_ack
ARM GAS  C:\Users\d3bug\AppData\Local\Temp\ccQAmDn0.s 			page 30


 1107              		.code	16
 1108              		.thumb_func
 1109              		.type	nRF24_enable_payload_with_ack, %function
 1110              	nRF24_enable_payload_with_ack:
 1111              	.LFB35:
 543:Generated_Source\PSoC4/nRF24_FUNCS.c **** 
 544:Generated_Source\PSoC4/nRF24_FUNCS.c **** /**
 545:Generated_Source\PSoC4/nRF24_FUNCS.c ****  * @brief Enable payload with ACK.
 546:Generated_Source\PSoC4/nRF24_FUNCS.c ****  */
 547:Generated_Source\PSoC4/nRF24_FUNCS.c **** void nRF24_enable_payload_with_ack(void)
 548:Generated_Source\PSoC4/nRF24_FUNCS.c **** {
 1112              		.loc 1 548 0
 1113              		.cfi_startproc
 1114              		@ args = 0, pretend = 0, frame = 0
 1115              		@ frame_needed = 0, uses_anonymous_args = 0
 1116 0000 10B5     		push	{r4, lr}
 1117              		.cfi_def_cfa_offset 8
 1118              		.cfi_offset 4, -8
 1119              		.cfi_offset 14, -4
 549:Generated_Source\PSoC4/nRF24_FUNCS.c ****     nRF24_set_bit(NRF_REG_FEATURE, NRF_FEATURE_BIT_EN_ACK_PAY);
 1120              		.loc 1 549 0
 1121 0002 0121     		movs	r1, #1
 1122 0004 1D20     		movs	r0, #29
 1123 0006 FFF7FEFF 		bl	nRF24_set_bit
 1124              	.LVL82:
 550:Generated_Source\PSoC4/nRF24_FUNCS.c **** }
 1125              		.loc 1 550 0
 1126              		@ sp needed
 1127 000a 10BD     		pop	{r4, pc}
 1128              		.cfi_endproc
 1129              	.LFE35:
 1130              		.size	nRF24_enable_payload_with_ack, .-nRF24_enable_payload_with_ack
 1131              		.section	.text.nRF24_disable_payload_with_ack,"ax",%progbits
 1132              		.align	2
 1133              		.global	nRF24_disable_payload_with_ack
 1134              		.code	16
 1135              		.thumb_func
 1136              		.type	nRF24_disable_payload_with_ack, %function
 1137              	nRF24_disable_payload_with_ack:
 1138              	.LFB36:
 551:Generated_Source\PSoC4/nRF24_FUNCS.c **** 
 552:Generated_Source\PSoC4/nRF24_FUNCS.c **** /**
 553:Generated_Source\PSoC4/nRF24_FUNCS.c ****  * @brief Disable Payload with ACK.
 554:Generated_Source\PSoC4/nRF24_FUNCS.c ****  */
 555:Generated_Source\PSoC4/nRF24_FUNCS.c **** void nRF24_disable_payload_with_ack(void)
 556:Generated_Source\PSoC4/nRF24_FUNCS.c **** {
 1139              		.loc 1 556 0
 1140              		.cfi_startproc
 1141              		@ args = 0, pretend = 0, frame = 0
 1142              		@ frame_needed = 0, uses_anonymous_args = 0
 1143 0000 10B5     		push	{r4, lr}
 1144              		.cfi_def_cfa_offset 8
 1145              		.cfi_offset 4, -8
 1146              		.cfi_offset 14, -4
 557:Generated_Source\PSoC4/nRF24_FUNCS.c ****     nRF24_clear_bit(NRF_REG_FEATURE, NRF_FEATURE_BIT_EN_ACK_PAY);
 1147              		.loc 1 557 0
 1148 0002 0121     		movs	r1, #1
ARM GAS  C:\Users\d3bug\AppData\Local\Temp\ccQAmDn0.s 			page 31


 1149 0004 1D20     		movs	r0, #29
 1150 0006 FFF7FEFF 		bl	nRF24_clear_bit
 1151              	.LVL83:
 558:Generated_Source\PSoC4/nRF24_FUNCS.c **** }
 1152              		.loc 1 558 0
 1153              		@ sp needed
 1154 000a 10BD     		pop	{r4, pc}
 1155              		.cfi_endproc
 1156              	.LFE36:
 1157              		.size	nRF24_disable_payload_with_ack, .-nRF24_disable_payload_with_ack
 1158              		.section	.text.nRF24_enable_payload_with_no_ack,"ax",%progbits
 1159              		.align	2
 1160              		.global	nRF24_enable_payload_with_no_ack
 1161              		.code	16
 1162              		.thumb_func
 1163              		.type	nRF24_enable_payload_with_no_ack, %function
 1164              	nRF24_enable_payload_with_no_ack:
 1165              	.LFB37:
 559:Generated_Source\PSoC4/nRF24_FUNCS.c **** 
 560:Generated_Source\PSoC4/nRF24_FUNCS.c **** /**
 561:Generated_Source\PSoC4/nRF24_FUNCS.c ****  * @brief Enable dynamic payload length.
 562:Generated_Source\PSoC4/nRF24_FUNCS.c ****  */
 563:Generated_Source\PSoC4/nRF24_FUNCS.c **** void nRF24_enable_payload_with_no_ack(void)
 564:Generated_Source\PSoC4/nRF24_FUNCS.c **** {
 1166              		.loc 1 564 0
 1167              		.cfi_startproc
 1168              		@ args = 0, pretend = 0, frame = 0
 1169              		@ frame_needed = 0, uses_anonymous_args = 0
 1170 0000 10B5     		push	{r4, lr}
 1171              		.cfi_def_cfa_offset 8
 1172              		.cfi_offset 4, -8
 1173              		.cfi_offset 14, -4
 565:Generated_Source\PSoC4/nRF24_FUNCS.c ****     nRF24_set_bit(NRF_REG_FEATURE, NRF_FEATURE_BIT_EN_DYN_ACK);
 1174              		.loc 1 565 0
 1175 0002 0021     		movs	r1, #0
 1176 0004 1D20     		movs	r0, #29
 1177 0006 FFF7FEFF 		bl	nRF24_set_bit
 1178              	.LVL84:
 566:Generated_Source\PSoC4/nRF24_FUNCS.c **** }
 1179              		.loc 1 566 0
 1180              		@ sp needed
 1181 000a 10BD     		pop	{r4, pc}
 1182              		.cfi_endproc
 1183              	.LFE37:
 1184              		.size	nRF24_enable_payload_with_no_ack, .-nRF24_enable_payload_with_no_ack
 1185              		.section	.text.nRF24_disable_payload_with_no_ack,"ax",%progbits
 1186              		.align	2
 1187              		.global	nRF24_disable_payload_with_no_ack
 1188              		.code	16
 1189              		.thumb_func
 1190              		.type	nRF24_disable_payload_with_no_ack, %function
 1191              	nRF24_disable_payload_with_no_ack:
 1192              	.LFB38:
 567:Generated_Source\PSoC4/nRF24_FUNCS.c **** 
 568:Generated_Source\PSoC4/nRF24_FUNCS.c **** /**
 569:Generated_Source\PSoC4/nRF24_FUNCS.c ****  * @brief Disable Payload with no ACK.
 570:Generated_Source\PSoC4/nRF24_FUNCS.c ****  */
ARM GAS  C:\Users\d3bug\AppData\Local\Temp\ccQAmDn0.s 			page 32


 571:Generated_Source\PSoC4/nRF24_FUNCS.c **** void nRF24_disable_payload_with_no_ack(void)
 572:Generated_Source\PSoC4/nRF24_FUNCS.c **** {
 1193              		.loc 1 572 0
 1194              		.cfi_startproc
 1195              		@ args = 0, pretend = 0, frame = 0
 1196              		@ frame_needed = 0, uses_anonymous_args = 0
 1197 0000 10B5     		push	{r4, lr}
 1198              		.cfi_def_cfa_offset 8
 1199              		.cfi_offset 4, -8
 1200              		.cfi_offset 14, -4
 573:Generated_Source\PSoC4/nRF24_FUNCS.c ****     nRF24_clear_bit(NRF_REG_FEATURE, NRF_FEATURE_BIT_EN_DYN_ACK);
 1201              		.loc 1 573 0
 1202 0002 0021     		movs	r1, #0
 1203 0004 1D20     		movs	r0, #29
 1204 0006 FFF7FEFF 		bl	nRF24_clear_bit
 1205              	.LVL85:
 574:Generated_Source\PSoC4/nRF24_FUNCS.c **** }
 1206              		.loc 1 574 0
 1207              		@ sp needed
 1208 000a 10BD     		pop	{r4, pc}
 1209              		.cfi_endproc
 1210              	.LFE38:
 1211              		.size	nRF24_disable_payload_with_no_ack, .-nRF24_disable_payload_with_no_ack
 1212              		.section	.text.nRF24_start_listening,"ax",%progbits
 1213              		.align	2
 1214              		.global	nRF24_start_listening
 1215              		.code	16
 1216              		.thumb_func
 1217              		.type	nRF24_start_listening, %function
 1218              	nRF24_start_listening:
 1219              	.LFB39:
 575:Generated_Source\PSoC4/nRF24_FUNCS.c **** 
 576:Generated_Source\PSoC4/nRF24_FUNCS.c **** /**
 577:Generated_Source\PSoC4/nRF24_FUNCS.c ****  * @brief The nRF24 radio will start listening.
 578:Generated_Source\PSoC4/nRF24_FUNCS.c ****  *
 579:Generated_Source\PSoC4/nRF24_FUNCS.c ****  * This function set the pin CE to logic high, this enable the radio for
 580:Generated_Source\PSoC4/nRF24_FUNCS.c ****  * listening.
 581:Generated_Source\PSoC4/nRF24_FUNCS.c ****  */
 582:Generated_Source\PSoC4/nRF24_FUNCS.c **** void nRF24_start_listening(void)
 583:Generated_Source\PSoC4/nRF24_FUNCS.c **** {
 1220              		.loc 1 583 0
 1221              		.cfi_startproc
 1222              		@ args = 0, pretend = 0, frame = 0
 1223              		@ frame_needed = 0, uses_anonymous_args = 0
 1224 0000 10B5     		push	{r4, lr}
 1225              		.cfi_def_cfa_offset 8
 1226              		.cfi_offset 4, -8
 1227              		.cfi_offset 14, -4
 584:Generated_Source\PSoC4/nRF24_FUNCS.c ****     nRF24_ce_write(GPIO_SET);
 1228              		.loc 1 584 0
 1229 0002 0120     		movs	r0, #1
 1230 0004 FFF7FEFF 		bl	nRF24_ce_write
 1231              	.LVL86:
 585:Generated_Source\PSoC4/nRF24_FUNCS.c **** }
 1232              		.loc 1 585 0
 1233              		@ sp needed
 1234 0008 10BD     		pop	{r4, pc}
ARM GAS  C:\Users\d3bug\AppData\Local\Temp\ccQAmDn0.s 			page 33


 1235              		.cfi_endproc
 1236              	.LFE39:
 1237              		.size	nRF24_start_listening, .-nRF24_start_listening
 1238 000a C046     		.section	.text.nRF24_set_standby_ii_mode,"ax",%progbits
 1239              		.align	2
 1240              		.global	nRF24_set_standby_ii_mode
 1241              		.code	16
 1242              		.thumb_func
 1243              		.type	nRF24_set_standby_ii_mode, %function
 1244              	nRF24_set_standby_ii_mode:
 1245              	.LFB13:
 219:Generated_Source\PSoC4/nRF24_FUNCS.c ****     nRF24_start_listening();
 1246              		.loc 1 219 0
 1247              		.cfi_startproc
 1248              		@ args = 0, pretend = 0, frame = 0
 1249              		@ frame_needed = 0, uses_anonymous_args = 0
 1250 0000 10B5     		push	{r4, lr}
 1251              		.cfi_def_cfa_offset 8
 1252              		.cfi_offset 4, -8
 1253              		.cfi_offset 14, -4
 220:Generated_Source\PSoC4/nRF24_FUNCS.c ****     nRF24_set_bit(NRF_REG_CONFIG, NRF_CONFIG_BIT_PWR_UP);
 1254              		.loc 1 220 0
 1255 0002 FFF7FEFF 		bl	nRF24_start_listening
 1256              	.LVL87:
 221:Generated_Source\PSoC4/nRF24_FUNCS.c **** }
 1257              		.loc 1 221 0
 1258 0006 0121     		movs	r1, #1
 1259 0008 0020     		movs	r0, #0
 1260 000a FFF7FEFF 		bl	nRF24_set_bit
 1261              	.LVL88:
 222:Generated_Source\PSoC4/nRF24_FUNCS.c **** 
 1262              		.loc 1 222 0
 1263              		@ sp needed
 1264 000e 10BD     		pop	{r4, pc}
 1265              		.cfi_endproc
 1266              	.LFE13:
 1267              		.size	nRF24_set_standby_ii_mode, .-nRF24_set_standby_ii_mode
 1268              		.section	.text.nRF24_stop_listening,"ax",%progbits
 1269              		.align	2
 1270              		.global	nRF24_stop_listening
 1271              		.code	16
 1272              		.thumb_func
 1273              		.type	nRF24_stop_listening, %function
 1274              	nRF24_stop_listening:
 1275              	.LFB40:
 586:Generated_Source\PSoC4/nRF24_FUNCS.c **** 
 587:Generated_Source\PSoC4/nRF24_FUNCS.c **** /**
 588:Generated_Source\PSoC4/nRF24_FUNCS.c ****  * @brief The nRF24 radio will stop listening.
 589:Generated_Source\PSoC4/nRF24_FUNCS.c ****  *
 590:Generated_Source\PSoC4/nRF24_FUNCS.c ****  * This function the pin CE of the nRF24 radio will be set to logic low,
 591:Generated_Source\PSoC4/nRF24_FUNCS.c ****  * this disable the radio for listening.
 592:Generated_Source\PSoC4/nRF24_FUNCS.c ****  */
 593:Generated_Source\PSoC4/nRF24_FUNCS.c **** void nRF24_stop_listening(void)
 594:Generated_Source\PSoC4/nRF24_FUNCS.c **** {
 1276              		.loc 1 594 0
 1277              		.cfi_startproc
 1278              		@ args = 0, pretend = 0, frame = 0
ARM GAS  C:\Users\d3bug\AppData\Local\Temp\ccQAmDn0.s 			page 34


 1279              		@ frame_needed = 0, uses_anonymous_args = 0
 1280 0000 10B5     		push	{r4, lr}
 1281              		.cfi_def_cfa_offset 8
 1282              		.cfi_offset 4, -8
 1283              		.cfi_offset 14, -4
 595:Generated_Source\PSoC4/nRF24_FUNCS.c ****     nRF24_ce_write(GPIO_CLEAR);
 1284              		.loc 1 595 0
 1285 0002 0020     		movs	r0, #0
 1286 0004 FFF7FEFF 		bl	nRF24_ce_write
 1287              	.LVL89:
 596:Generated_Source\PSoC4/nRF24_FUNCS.c **** }
 1288              		.loc 1 596 0
 1289              		@ sp needed
 1290 0008 10BD     		pop	{r4, pc}
 1291              		.cfi_endproc
 1292              	.LFE40:
 1293              		.size	nRF24_stop_listening, .-nRF24_stop_listening
 1294 000a C046     		.section	.text.nRF24_set_standby_i_mode,"ax",%progbits
 1295              		.align	2
 1296              		.global	nRF24_set_standby_i_mode
 1297              		.code	16
 1298              		.thumb_func
 1299              		.type	nRF24_set_standby_i_mode, %function
 1300              	nRF24_set_standby_i_mode:
 1301              	.LFB12:
 204:Generated_Source\PSoC4/nRF24_FUNCS.c ****     nRF24_stop_listening();
 1302              		.loc 1 204 0
 1303              		.cfi_startproc
 1304              		@ args = 0, pretend = 0, frame = 0
 1305              		@ frame_needed = 0, uses_anonymous_args = 0
 1306 0000 10B5     		push	{r4, lr}
 1307              		.cfi_def_cfa_offset 8
 1308              		.cfi_offset 4, -8
 1309              		.cfi_offset 14, -4
 205:Generated_Source\PSoC4/nRF24_FUNCS.c ****     nRF24_set_bit(NRF_REG_CONFIG, NRF_CONFIG_PWR_UP);
 1310              		.loc 1 205 0
 1311 0002 FFF7FEFF 		bl	nRF24_stop_listening
 1312              	.LVL90:
 206:Generated_Source\PSoC4/nRF24_FUNCS.c **** }
 1313              		.loc 1 206 0
 1314 0006 0221     		movs	r1, #2
 1315 0008 0020     		movs	r0, #0
 1316 000a FFF7FEFF 		bl	nRF24_set_bit
 1317              	.LVL91:
 207:Generated_Source\PSoC4/nRF24_FUNCS.c **** 
 1318              		.loc 1 207 0
 1319              		@ sp needed
 1320 000e 10BD     		pop	{r4, pc}
 1321              		.cfi_endproc
 1322              	.LFE12:
 1323              		.size	nRF24_set_standby_i_mode, .-nRF24_set_standby_i_mode
 1324              		.section	.text.nRF24_sleep,"ax",%progbits
 1325              		.align	2
 1326              		.global	nRF24_sleep
 1327              		.code	16
 1328              		.thumb_func
 1329              		.type	nRF24_sleep, %function
ARM GAS  C:\Users\d3bug\AppData\Local\Temp\ccQAmDn0.s 			page 35


 1330              	nRF24_sleep:
 1331              	.LFB6:
 135:Generated_Source\PSoC4/nRF24_FUNCS.c ****     nRF24_set_standby_i_mode();
 1332              		.loc 1 135 0
 1333              		.cfi_startproc
 1334              		@ args = 0, pretend = 0, frame = 0
 1335              		@ frame_needed = 0, uses_anonymous_args = 0
 1336 0000 10B5     		push	{r4, lr}
 1337              		.cfi_def_cfa_offset 8
 1338              		.cfi_offset 4, -8
 1339              		.cfi_offset 14, -4
 136:Generated_Source\PSoC4/nRF24_FUNCS.c **** }
 1340              		.loc 1 136 0
 1341 0002 FFF7FEFF 		bl	nRF24_set_standby_i_mode
 1342              	.LVL92:
 137:Generated_Source\PSoC4/nRF24_FUNCS.c **** 
 1343              		.loc 1 137 0
 1344              		@ sp needed
 1345 0006 10BD     		pop	{r4, pc}
 1346              		.cfi_endproc
 1347              	.LFE6:
 1348              		.size	nRF24_sleep, .-nRF24_sleep
 1349              		.section	.text.nRF24_transmit_pulse,"ax",%progbits
 1350              		.align	2
 1351              		.global	nRF24_transmit_pulse
 1352              		.code	16
 1353              		.thumb_func
 1354              		.type	nRF24_transmit_pulse, %function
 1355              	nRF24_transmit_pulse:
 1356              	.LFB41:
 597:Generated_Source\PSoC4/nRF24_FUNCS.c **** 
 598:Generated_Source\PSoC4/nRF24_FUNCS.c **** /**
 599:Generated_Source\PSoC4/nRF24_FUNCS.c ****  * @brief Transmit pulse on the CE pin.
 600:Generated_Source\PSoC4/nRF24_FUNCS.c ****  *
 601:Generated_Source\PSoC4/nRF24_FUNCS.c ****  * With this function the CE pin of the nRF24 radio will have a pulse of 15us,
 602:Generated_Source\PSoC4/nRF24_FUNCS.c ****  * this pulse trigger a transmission of the content of the TX FIFO.
 603:Generated_Source\PSoC4/nRF24_FUNCS.c ****  */
 604:Generated_Source\PSoC4/nRF24_FUNCS.c **** void nRF24_transmit_pulse(void)
 605:Generated_Source\PSoC4/nRF24_FUNCS.c **** {
 1357              		.loc 1 605 0
 1358              		.cfi_startproc
 1359              		@ args = 0, pretend = 0, frame = 0
 1360              		@ frame_needed = 0, uses_anonymous_args = 0
 1361 0000 10B5     		push	{r4, lr}
 1362              		.cfi_def_cfa_offset 8
 1363              		.cfi_offset 4, -8
 1364              		.cfi_offset 14, -4
 606:Generated_Source\PSoC4/nRF24_FUNCS.c ****     nRF24_ce_write(GPIO_SET);
 1365              		.loc 1 606 0
 1366 0002 0120     		movs	r0, #1
 1367 0004 FFF7FEFF 		bl	nRF24_ce_write
 1368              	.LVL93:
 607:Generated_Source\PSoC4/nRF24_FUNCS.c ****     CyDelayUs(NRF_CE_PULSE_WIDTH_US);
 1369              		.loc 1 607 0
 1370 0008 0F20     		movs	r0, #15
 1371 000a FFF7FEFF 		bl	CyDelayUs
 1372              	.LVL94:
ARM GAS  C:\Users\d3bug\AppData\Local\Temp\ccQAmDn0.s 			page 36


 608:Generated_Source\PSoC4/nRF24_FUNCS.c ****     nRF24_ce_write(GPIO_CLEAR);
 1373              		.loc 1 608 0
 1374 000e 0020     		movs	r0, #0
 1375 0010 FFF7FEFF 		bl	nRF24_ce_write
 1376              	.LVL95:
 609:Generated_Source\PSoC4/nRF24_FUNCS.c **** }
 1377              		.loc 1 609 0
 1378              		@ sp needed
 1379 0014 10BD     		pop	{r4, pc}
 1380              		.cfi_endproc
 1381              	.LFE41:
 1382              		.size	nRF24_transmit_pulse, .-nRF24_transmit_pulse
 1383 0016 C046     		.section	.text.nRF24_reuse_last_transmitted_payload,"ax",%progbits
 1384              		.align	2
 1385              		.global	nRF24_reuse_last_transmitted_payload
 1386              		.code	16
 1387              		.thumb_func
 1388              		.type	nRF24_reuse_last_transmitted_payload, %function
 1389              	nRF24_reuse_last_transmitted_payload:
 1390              	.LFB28:
 475:Generated_Source\PSoC4/nRF24_FUNCS.c ****     nRF24_cmd_reuse_tx_payload();
 1391              		.loc 1 475 0
 1392              		.cfi_startproc
 1393              		@ args = 0, pretend = 0, frame = 0
 1394              		@ frame_needed = 0, uses_anonymous_args = 0
 1395 0000 10B5     		push	{r4, lr}
 1396              		.cfi_def_cfa_offset 8
 1397              		.cfi_offset 4, -8
 1398              		.cfi_offset 14, -4
 476:Generated_Source\PSoC4/nRF24_FUNCS.c ****     nRF24_transmit_pulse();
 1399              		.loc 1 476 0
 1400 0002 FFF7FEFF 		bl	nRF24_cmd_reuse_tx_payload
 1401              	.LVL96:
 477:Generated_Source\PSoC4/nRF24_FUNCS.c **** }
 1402              		.loc 1 477 0
 1403 0006 FFF7FEFF 		bl	nRF24_transmit_pulse
 1404              	.LVL97:
 478:Generated_Source\PSoC4/nRF24_FUNCS.c **** 
 1405              		.loc 1 478 0
 1406              		@ sp needed
 1407 000a 10BD     		pop	{r4, pc}
 1408              		.cfi_endproc
 1409              	.LFE28:
 1410              		.size	nRF24_reuse_last_transmitted_payload, .-nRF24_reuse_last_transmitted_payload
 1411              		.section	.text.nRF24_get_status,"ax",%progbits
 1412              		.align	2
 1413              		.global	nRF24_get_status
 1414              		.code	16
 1415              		.thumb_func
 1416              		.type	nRF24_get_status, %function
 1417              	nRF24_get_status:
 1418              	.LFB42:
 610:Generated_Source\PSoC4/nRF24_FUNCS.c **** 
 611:Generated_Source\PSoC4/nRF24_FUNCS.c **** /**
 612:Generated_Source\PSoC4/nRF24_FUNCS.c ****  * @brief Get the STATUS register of the nRF24.
 613:Generated_Source\PSoC4/nRF24_FUNCS.c ****  *
 614:Generated_Source\PSoC4/nRF24_FUNCS.c ****  * @return uint8_t: STATUS register of the nRF24.
ARM GAS  C:\Users\d3bug\AppData\Local\Temp\ccQAmDn0.s 			page 37


 615:Generated_Source\PSoC4/nRF24_FUNCS.c ****  */
 616:Generated_Source\PSoC4/nRF24_FUNCS.c **** uint8_t nRF24_get_status(void)
 617:Generated_Source\PSoC4/nRF24_FUNCS.c **** {
 1419              		.loc 1 617 0
 1420              		.cfi_startproc
 1421              		@ args = 0, pretend = 0, frame = 0
 1422              		@ frame_needed = 0, uses_anonymous_args = 0
 1423 0000 10B5     		push	{r4, lr}
 1424              		.cfi_def_cfa_offset 8
 1425              		.cfi_offset 4, -8
 1426              		.cfi_offset 14, -4
 618:Generated_Source\PSoC4/nRF24_FUNCS.c ****     return nRF24_cmd_nop();
 1427              		.loc 1 618 0
 1428 0002 FFF7FEFF 		bl	nRF24_cmd_nop
 1429              	.LVL98:
 619:Generated_Source\PSoC4/nRF24_FUNCS.c **** }
 1430              		.loc 1 619 0
 1431              		@ sp needed
 1432 0006 10BD     		pop	{r4, pc}
 1433              		.cfi_endproc
 1434              	.LFE42:
 1435              		.size	nRF24_get_status, .-nRF24_get_status
 1436              		.section	.text.nRF24_get_fifo_status,"ax",%progbits
 1437              		.align	2
 1438              		.global	nRF24_get_fifo_status
 1439              		.code	16
 1440              		.thumb_func
 1441              		.type	nRF24_get_fifo_status, %function
 1442              	nRF24_get_fifo_status:
 1443              	.LFB43:
 620:Generated_Source\PSoC4/nRF24_FUNCS.c **** 
 621:Generated_Source\PSoC4/nRF24_FUNCS.c **** /**
 622:Generated_Source\PSoC4/nRF24_FUNCS.c ****  * @brief Get the STATUS register of the nRF24.
 623:Generated_Source\PSoC4/nRF24_FUNCS.c ****  *
 624:Generated_Source\PSoC4/nRF24_FUNCS.c ****  * @return uint8_t: STATUS register of the nRF24.
 625:Generated_Source\PSoC4/nRF24_FUNCS.c ****  */
 626:Generated_Source\PSoC4/nRF24_FUNCS.c **** uint8_t nRF24_get_fifo_status(void)
 627:Generated_Source\PSoC4/nRF24_FUNCS.c **** {
 1444              		.loc 1 627 0
 1445              		.cfi_startproc
 1446              		@ args = 0, pretend = 0, frame = 8
 1447              		@ frame_needed = 0, uses_anonymous_args = 0
 1448 0000 10B5     		push	{r4, lr}
 1449              		.cfi_def_cfa_offset 8
 1450              		.cfi_offset 4, -8
 1451              		.cfi_offset 14, -4
 1452 0002 82B0     		sub	sp, sp, #8
 1453              		.cfi_def_cfa_offset 16
 628:Generated_Source\PSoC4/nRF24_FUNCS.c ****     uint8_t fifo_status;
 629:Generated_Source\PSoC4/nRF24_FUNCS.c ****     nRF24_read_reg(NRF_REG_FIFO_STATUS, &fifo_status, 1);
 1454              		.loc 1 629 0
 1455 0004 6B46     		mov	r3, sp
 1456 0006 DC1D     		adds	r4, r3, #7
 1457 0008 0122     		movs	r2, #1
 1458 000a 2100     		movs	r1, r4
 1459 000c 1720     		movs	r0, #23
 1460 000e FFF7FEFF 		bl	nRF24_read_reg
ARM GAS  C:\Users\d3bug\AppData\Local\Temp\ccQAmDn0.s 			page 38


 1461              	.LVL99:
 630:Generated_Source\PSoC4/nRF24_FUNCS.c ****     return fifo_status;
 1462              		.loc 1 630 0
 1463 0012 2078     		ldrb	r0, [r4]
 631:Generated_Source\PSoC4/nRF24_FUNCS.c **** }
 1464              		.loc 1 631 0
 1465 0014 02B0     		add	sp, sp, #8
 1466              		@ sp needed
 1467 0016 10BD     		pop	{r4, pc}
 1468              		.cfi_endproc
 1469              	.LFE43:
 1470              		.size	nRF24_get_fifo_status, .-nRF24_get_fifo_status
 1471              		.section	.text.nRF24_get_retransmissions_count,"ax",%progbits
 1472              		.align	2
 1473              		.global	nRF24_get_retransmissions_count
 1474              		.code	16
 1475              		.thumb_func
 1476              		.type	nRF24_get_retransmissions_count, %function
 1477              	nRF24_get_retransmissions_count:
 1478              	.LFB44:
 632:Generated_Source\PSoC4/nRF24_FUNCS.c **** 
 633:Generated_Source\PSoC4/nRF24_FUNCS.c **** /**
 634:Generated_Source\PSoC4/nRF24_FUNCS.c ****  * @brief Get the number of retransmissions.
 635:Generated_Source\PSoC4/nRF24_FUNCS.c ****  *
 636:Generated_Source\PSoC4/nRF24_FUNCS.c ****  * @return uint8_t: Retransmissions count.
 637:Generated_Source\PSoC4/nRF24_FUNCS.c ****  */
 638:Generated_Source\PSoC4/nRF24_FUNCS.c **** uint8_t nRF24_get_retransmissions_count(void)
 639:Generated_Source\PSoC4/nRF24_FUNCS.c **** {
 1479              		.loc 1 639 0
 1480              		.cfi_startproc
 1481              		@ args = 0, pretend = 0, frame = 8
 1482              		@ frame_needed = 0, uses_anonymous_args = 0
 1483 0000 10B5     		push	{r4, lr}
 1484              		.cfi_def_cfa_offset 8
 1485              		.cfi_offset 4, -8
 1486              		.cfi_offset 14, -4
 1487 0002 82B0     		sub	sp, sp, #8
 1488              		.cfi_def_cfa_offset 16
 640:Generated_Source\PSoC4/nRF24_FUNCS.c ****     uint8_t count;
 641:Generated_Source\PSoC4/nRF24_FUNCS.c ****     nRF24_read_reg(NRF_REG_OBSERVE_TX, &count, 1);
 1489              		.loc 1 641 0
 1490 0004 6B46     		mov	r3, sp
 1491 0006 DC1D     		adds	r4, r3, #7
 1492 0008 0122     		movs	r2, #1
 1493 000a 2100     		movs	r1, r4
 1494 000c 0820     		movs	r0, #8
 1495 000e FFF7FEFF 		bl	nRF24_read_reg
 1496              	.LVL100:
 642:Generated_Source\PSoC4/nRF24_FUNCS.c ****     return count & NRF_OBSERVE_TX_ARC_CNT_MASK;
 1497              		.loc 1 642 0
 1498 0012 2378     		ldrb	r3, [r4]
 1499 0014 0F20     		movs	r0, #15
 1500 0016 1840     		ands	r0, r3
 643:Generated_Source\PSoC4/nRF24_FUNCS.c **** }
 1501              		.loc 1 643 0
 1502 0018 02B0     		add	sp, sp, #8
 1503              		@ sp needed
ARM GAS  C:\Users\d3bug\AppData\Local\Temp\ccQAmDn0.s 			page 39


 1504 001a 10BD     		pop	{r4, pc}
 1505              		.cfi_endproc
 1506              	.LFE44:
 1507              		.size	nRF24_get_retransmissions_count, .-nRF24_get_retransmissions_count
 1508              		.section	.text.nRF24_get_lost_packets_count,"ax",%progbits
 1509              		.align	2
 1510              		.global	nRF24_get_lost_packets_count
 1511              		.code	16
 1512              		.thumb_func
 1513              		.type	nRF24_get_lost_packets_count, %function
 1514              	nRF24_get_lost_packets_count:
 1515              	.LFB45:
 644:Generated_Source\PSoC4/nRF24_FUNCS.c **** 
 645:Generated_Source\PSoC4/nRF24_FUNCS.c **** /**
 646:Generated_Source\PSoC4/nRF24_FUNCS.c ****  * @brief Get the number of lost packets.
 647:Generated_Source\PSoC4/nRF24_FUNCS.c ****  *
 648:Generated_Source\PSoC4/nRF24_FUNCS.c ****  * @return uint8_t: Lost packets.
 649:Generated_Source\PSoC4/nRF24_FUNCS.c ****  */
 650:Generated_Source\PSoC4/nRF24_FUNCS.c **** uint8_t nRF24_get_lost_packets_count(void)
 651:Generated_Source\PSoC4/nRF24_FUNCS.c **** {
 1516              		.loc 1 651 0
 1517              		.cfi_startproc
 1518              		@ args = 0, pretend = 0, frame = 8
 1519              		@ frame_needed = 0, uses_anonymous_args = 0
 1520 0000 10B5     		push	{r4, lr}
 1521              		.cfi_def_cfa_offset 8
 1522              		.cfi_offset 4, -8
 1523              		.cfi_offset 14, -4
 1524 0002 82B0     		sub	sp, sp, #8
 1525              		.cfi_def_cfa_offset 16
 652:Generated_Source\PSoC4/nRF24_FUNCS.c ****     uint8_t lostPackets;
 653:Generated_Source\PSoC4/nRF24_FUNCS.c ****     nRF24_read_reg(NRF_REG_OBSERVE_TX, &lostPackets, 1);
 1526              		.loc 1 653 0
 1527 0004 6B46     		mov	r3, sp
 1528 0006 DC1D     		adds	r4, r3, #7
 1529 0008 0122     		movs	r2, #1
 1530 000a 2100     		movs	r1, r4
 1531 000c 0820     		movs	r0, #8
 1532 000e FFF7FEFF 		bl	nRF24_read_reg
 1533              	.LVL101:
 654:Generated_Source\PSoC4/nRF24_FUNCS.c ****     lostPackets = lostPackets & NRF_OBSERVE_TX_PLOS_CNT_MASK;
 1534              		.loc 1 654 0
 1535 0012 2078     		ldrb	r0, [r4]
 1536 0014 0F23     		movs	r3, #15
 1537 0016 9843     		bics	r0, r3
 1538              	.LVL102:
 655:Generated_Source\PSoC4/nRF24_FUNCS.c ****     return lostPackets >> NRF_OBSERVE_TX_BIT_PLOS_CNT;
 1539              		.loc 1 655 0
 1540 0018 0009     		lsrs	r0, r0, #4
 1541              	.LVL103:
 656:Generated_Source\PSoC4/nRF24_FUNCS.c **** }
 1542              		.loc 1 656 0
 1543 001a 02B0     		add	sp, sp, #8
 1544              		@ sp needed
 1545              	.LVL104:
 1546 001c 10BD     		pop	{r4, pc}
 1547              		.cfi_endproc
ARM GAS  C:\Users\d3bug\AppData\Local\Temp\ccQAmDn0.s 			page 40


 1548              	.LFE45:
 1549              		.size	nRF24_get_lost_packets_count, .-nRF24_get_lost_packets_count
 1550 001e C046     		.section	.text.nRF24_put_in_tx_fifo,"ax",%progbits
 1551              		.align	2
 1552              		.global	nRF24_put_in_tx_fifo
 1553              		.code	16
 1554              		.thumb_func
 1555              		.type	nRF24_put_in_tx_fifo, %function
 1556              	nRF24_put_in_tx_fifo:
 1557              	.LFB46:
 657:Generated_Source\PSoC4/nRF24_FUNCS.c **** 
 658:Generated_Source\PSoC4/nRF24_FUNCS.c **** /**
 659:Generated_Source\PSoC4/nRF24_FUNCS.c ****  * Put data into the TX FIFO wihout sending it.
 660:Generated_Source\PSoC4/nRF24_FUNCS.c ****  *
 661:Generated_Source\PSoC4/nRF24_FUNCS.c ****  * @param const uint8_t* data:
 662:Generated_Source\PSoC4/nRF24_FUNCS.c ****  * @param const size_t size:
 663:Generated_Source\PSoC4/nRF24_FUNCS.c ****  */
 664:Generated_Source\PSoC4/nRF24_FUNCS.c **** void nRF24_put_in_tx_fifo(const uint8_t* payload, size_t payload_size)
 665:Generated_Source\PSoC4/nRF24_FUNCS.c **** {
 1558              		.loc 1 665 0
 1559              		.cfi_startproc
 1560              		@ args = 0, pretend = 0, frame = 0
 1561              		@ frame_needed = 0, uses_anonymous_args = 0
 1562              	.LVL105:
 1563 0000 10B5     		push	{r4, lr}
 1564              		.cfi_def_cfa_offset 8
 1565              		.cfi_offset 4, -8
 1566              		.cfi_offset 14, -4
 666:Generated_Source\PSoC4/nRF24_FUNCS.c ****     if (NULL == payload) {
 1567              		.loc 1 666 0
 1568 0002 0028     		cmp	r0, #0
 1569 0004 04D0     		beq	.L79
 667:Generated_Source\PSoC4/nRF24_FUNCS.c ****         return;
 668:Generated_Source\PSoC4/nRF24_FUNCS.c ****     }
 669:Generated_Source\PSoC4/nRF24_FUNCS.c **** 
 670:Generated_Source\PSoC4/nRF24_FUNCS.c ****     if (NRF_PAYLOAD_SIZE_MAX < payload_size) {
 1570              		.loc 1 670 0
 1571 0006 2029     		cmp	r1, #32
 1572 0008 00D9     		bls	.L81
 671:Generated_Source\PSoC4/nRF24_FUNCS.c ****         payload_size = NRF_PAYLOAD_SIZE_MAX;
 1573              		.loc 1 671 0
 1574 000a 2021     		movs	r1, #32
 1575              	.LVL106:
 1576              	.L81:
 672:Generated_Source\PSoC4/nRF24_FUNCS.c ****     }
 673:Generated_Source\PSoC4/nRF24_FUNCS.c **** 
 674:Generated_Source\PSoC4/nRF24_FUNCS.c ****     nRF24_cmd_write_tx_payload(payload, payload_size);
 1577              		.loc 1 674 0
 1578 000c FFF7FEFF 		bl	nRF24_cmd_write_tx_payload
 1579              	.LVL107:
 1580              	.L79:
 675:Generated_Source\PSoC4/nRF24_FUNCS.c **** }
 1581              		.loc 1 675 0
 1582              		@ sp needed
 1583 0010 10BD     		pop	{r4, pc}
 1584              		.cfi_endproc
 1585              	.LFE46:
ARM GAS  C:\Users\d3bug\AppData\Local\Temp\ccQAmDn0.s 			page 41


 1586              		.size	nRF24_put_in_tx_fifo, .-nRF24_put_in_tx_fifo
 1587 0012 C046     		.section	.text.nRF24_transmit,"ax",%progbits
 1588              		.align	2
 1589              		.global	nRF24_transmit
 1590              		.code	16
 1591              		.thumb_func
 1592              		.type	nRF24_transmit, %function
 1593              	nRF24_transmit:
 1594              	.LFB47:
 676:Generated_Source\PSoC4/nRF24_FUNCS.c **** 
 677:Generated_Source\PSoC4/nRF24_FUNCS.c **** /**
 678:Generated_Source\PSoC4/nRF24_FUNCS.c ****  * Put data in TX FIFO and transmit it.
 679:Generated_Source\PSoC4/nRF24_FUNCS.c ****  *
 680:Generated_Source\PSoC4/nRF24_FUNCS.c ****  * @param const uint8_t* data:
 681:Generated_Source\PSoC4/nRF24_FUNCS.c ****  * @param const size_t size:
 682:Generated_Source\PSoC4/nRF24_FUNCS.c ****  */
 683:Generated_Source\PSoC4/nRF24_FUNCS.c **** void nRF24_transmit(const uint8_t* payload, size_t payload_size)
 684:Generated_Source\PSoC4/nRF24_FUNCS.c **** {
 1595              		.loc 1 684 0
 1596              		.cfi_startproc
 1597              		@ args = 0, pretend = 0, frame = 0
 1598              		@ frame_needed = 0, uses_anonymous_args = 0
 1599              	.LVL108:
 1600 0000 10B5     		push	{r4, lr}
 1601              		.cfi_def_cfa_offset 8
 1602              		.cfi_offset 4, -8
 1603              		.cfi_offset 14, -4
 685:Generated_Source\PSoC4/nRF24_FUNCS.c ****     if (NULL == payload) {
 1604              		.loc 1 685 0
 1605 0002 0028     		cmp	r0, #0
 1606 0004 06D0     		beq	.L83
 686:Generated_Source\PSoC4/nRF24_FUNCS.c ****         return;
 687:Generated_Source\PSoC4/nRF24_FUNCS.c ****     }
 688:Generated_Source\PSoC4/nRF24_FUNCS.c **** 
 689:Generated_Source\PSoC4/nRF24_FUNCS.c ****     if (NRF_PAYLOAD_SIZE_MAX < payload_size) {
 1607              		.loc 1 689 0
 1608 0006 2029     		cmp	r1, #32
 1609 0008 00D9     		bls	.L85
 690:Generated_Source\PSoC4/nRF24_FUNCS.c ****         payload_size = NRF_PAYLOAD_SIZE_MAX;
 1610              		.loc 1 690 0
 1611 000a 2021     		movs	r1, #32
 1612              	.LVL109:
 1613              	.L85:
 691:Generated_Source\PSoC4/nRF24_FUNCS.c ****     }
 692:Generated_Source\PSoC4/nRF24_FUNCS.c **** 
 693:Generated_Source\PSoC4/nRF24_FUNCS.c ****     nRF24_put_in_tx_fifo(payload, payload_size);
 1614              		.loc 1 693 0
 1615 000c FFF7FEFF 		bl	nRF24_put_in_tx_fifo
 1616              	.LVL110:
 694:Generated_Source\PSoC4/nRF24_FUNCS.c ****     nRF24_transmit_pulse();
 1617              		.loc 1 694 0
 1618 0010 FFF7FEFF 		bl	nRF24_transmit_pulse
 1619              	.LVL111:
 1620              	.L83:
 695:Generated_Source\PSoC4/nRF24_FUNCS.c **** }
 1621              		.loc 1 695 0
 1622              		@ sp needed
ARM GAS  C:\Users\d3bug\AppData\Local\Temp\ccQAmDn0.s 			page 42


 1623 0014 10BD     		pop	{r4, pc}
 1624              		.cfi_endproc
 1625              	.LFE47:
 1626              		.size	nRF24_transmit, .-nRF24_transmit
 1627 0016 C046     		.section	.text.nRF24_is_data_ready,"ax",%progbits
 1628              		.align	2
 1629              		.global	nRF24_is_data_ready
 1630              		.code	16
 1631              		.thumb_func
 1632              		.type	nRF24_is_data_ready, %function
 1633              	nRF24_is_data_ready:
 1634              	.LFB48:
 696:Generated_Source\PSoC4/nRF24_FUNCS.c **** 
 697:Generated_Source\PSoC4/nRF24_FUNCS.c **** /**
 698:Generated_Source\PSoC4/nRF24_FUNCS.c ****  * @brief
 699:Generated_Source\PSoC4/nRF24_FUNCS.c ****  *
 700:Generated_Source\PSoC4/nRF24_FUNCS.c ****  * @return bool: True if there's data ready.
 701:Generated_Source\PSoC4/nRF24_FUNCS.c ****  */
 702:Generated_Source\PSoC4/nRF24_FUNCS.c **** bool nRF24_is_data_ready(void)
 703:Generated_Source\PSoC4/nRF24_FUNCS.c **** {
 1635              		.loc 1 703 0
 1636              		.cfi_startproc
 1637              		@ args = 0, pretend = 0, frame = 0
 1638              		@ frame_needed = 0, uses_anonymous_args = 0
 1639 0000 10B5     		push	{r4, lr}
 1640              		.cfi_def_cfa_offset 8
 1641              		.cfi_offset 4, -8
 1642              		.cfi_offset 14, -4
 704:Generated_Source\PSoC4/nRF24_FUNCS.c ****     return NRF_STATUS_RX_DR_MASK & nRF24_get_status();
 1643              		.loc 1 704 0
 1644 0002 FFF7FEFF 		bl	nRF24_get_status
 1645              	.LVL112:
 1646 0006 8009     		lsrs	r0, r0, #6
 1647 0008 0123     		movs	r3, #1
 1648 000a 1840     		ands	r0, r3
 705:Generated_Source\PSoC4/nRF24_FUNCS.c **** }
 1649              		.loc 1 705 0
 1650              		@ sp needed
 1651 000c 10BD     		pop	{r4, pc}
 1652              		.cfi_endproc
 1653              	.LFE48:
 1654              		.size	nRF24_is_data_ready, .-nRF24_is_data_ready
 1655 000e C046     		.section	.text.nRF24_get_rx_payload,"ax",%progbits
 1656              		.align	2
 1657              		.global	nRF24_get_rx_payload
 1658              		.code	16
 1659              		.thumb_func
 1660              		.type	nRF24_get_rx_payload, %function
 1661              	nRF24_get_rx_payload:
 1662              	.LFB49:
 706:Generated_Source\PSoC4/nRF24_FUNCS.c **** 
 707:Generated_Source\PSoC4/nRF24_FUNCS.c **** /**
 708:Generated_Source\PSoC4/nRF24_FUNCS.c ****  * @brief
 709:Generated_Source\PSoC4/nRF24_FUNCS.c ****  *
 710:Generated_Source\PSoC4/nRF24_FUNCS.c ****  * @param uint8_t* data:
 711:Generated_Source\PSoC4/nRF24_FUNCS.c ****  * @param const size_t size:
 712:Generated_Source\PSoC4/nRF24_FUNCS.c ****  */
ARM GAS  C:\Users\d3bug\AppData\Local\Temp\ccQAmDn0.s 			page 43


 713:Generated_Source\PSoC4/nRF24_FUNCS.c **** void nRF24_get_rx_payload(uint8_t *payload, const size_t payload_size)
 714:Generated_Source\PSoC4/nRF24_FUNCS.c **** {
 1663              		.loc 1 714 0
 1664              		.cfi_startproc
 1665              		@ args = 0, pretend = 0, frame = 0
 1666              		@ frame_needed = 0, uses_anonymous_args = 0
 1667              	.LVL113:
 1668 0000 70B5     		push	{r4, r5, r6, lr}
 1669              		.cfi_def_cfa_offset 16
 1670              		.cfi_offset 4, -16
 1671              		.cfi_offset 5, -12
 1672              		.cfi_offset 6, -8
 1673              		.cfi_offset 14, -4
 1674 0002 0400     		movs	r4, r0
 1675 0004 0D00     		movs	r5, r1
 715:Generated_Source\PSoC4/nRF24_FUNCS.c ****     if (NULL == payload) {
 1676              		.loc 1 715 0
 1677 0006 0028     		cmp	r0, #0
 1678 0008 09D0     		beq	.L88
 716:Generated_Source\PSoC4/nRF24_FUNCS.c ****         return;
 717:Generated_Source\PSoC4/nRF24_FUNCS.c ****     }
 718:Generated_Source\PSoC4/nRF24_FUNCS.c **** 
 719:Generated_Source\PSoC4/nRF24_FUNCS.c ****     nRF24_ce_write(GPIO_CLEAR);
 1679              		.loc 1 719 0
 1680 000a 0020     		movs	r0, #0
 1681              	.LVL114:
 1682 000c FFF7FEFF 		bl	nRF24_ce_write
 1683              	.LVL115:
 720:Generated_Source\PSoC4/nRF24_FUNCS.c ****     nRF24_cmd_read_rx_payload(payload, payload_size);
 1684              		.loc 1 720 0
 1685 0010 2900     		movs	r1, r5
 1686 0012 2000     		movs	r0, r4
 1687 0014 FFF7FEFF 		bl	nRF24_cmd_read_rx_payload
 1688              	.LVL116:
 721:Generated_Source\PSoC4/nRF24_FUNCS.c ****     nRF24_ce_write(GPIO_SET);
 1689              		.loc 1 721 0
 1690 0018 0120     		movs	r0, #1
 1691 001a FFF7FEFF 		bl	nRF24_ce_write
 1692              	.LVL117:
 1693              	.L88:
 722:Generated_Source\PSoC4/nRF24_FUNCS.c **** }
 1694              		.loc 1 722 0
 1695              		@ sp needed
 1696              	.LVL118:
 1697              	.LVL119:
 1698 001e 70BD     		pop	{r4, r5, r6, pc}
 1699              		.cfi_endproc
 1700              	.LFE49:
 1701              		.size	nRF24_get_rx_payload, .-nRF24_get_rx_payload
 1702              		.section	.text.nRF24_tx_transmit_no_ack,"ax",%progbits
 1703              		.align	2
 1704              		.global	nRF24_tx_transmit_no_ack
 1705              		.code	16
 1706              		.thumb_func
 1707              		.type	nRF24_tx_transmit_no_ack, %function
 1708              	nRF24_tx_transmit_no_ack:
 1709              	.LFB50:
ARM GAS  C:\Users\d3bug\AppData\Local\Temp\ccQAmDn0.s 			page 44


 723:Generated_Source\PSoC4/nRF24_FUNCS.c **** 
 724:Generated_Source\PSoC4/nRF24_FUNCS.c **** /**
 725:Generated_Source\PSoC4/nRF24_FUNCS.c ****  * @brief
 726:Generated_Source\PSoC4/nRF24_FUNCS.c ****  *
 727:Generated_Source\PSoC4/nRF24_FUNCS.c ****  * @param const uint8_t* data:
 728:Generated_Source\PSoC4/nRF24_FUNCS.c ****  * @param size_t size:
 729:Generated_Source\PSoC4/nRF24_FUNCS.c ****  */
 730:Generated_Source\PSoC4/nRF24_FUNCS.c **** void nRF24_tx_transmit_no_ack(const uint8_t *payload, size_t payload_size)
 731:Generated_Source\PSoC4/nRF24_FUNCS.c **** {
 1710              		.loc 1 731 0
 1711              		.cfi_startproc
 1712              		@ args = 0, pretend = 0, frame = 0
 1713              		@ frame_needed = 0, uses_anonymous_args = 0
 1714              	.LVL120:
 1715 0000 10B5     		push	{r4, lr}
 1716              		.cfi_def_cfa_offset 8
 1717              		.cfi_offset 4, -8
 1718              		.cfi_offset 14, -4
 732:Generated_Source\PSoC4/nRF24_FUNCS.c ****     if (NULL == payload) {
 1719              		.loc 1 732 0
 1720 0002 0028     		cmp	r0, #0
 1721 0004 05D0     		beq	.L90
 733:Generated_Source\PSoC4/nRF24_FUNCS.c ****         return;
 734:Generated_Source\PSoC4/nRF24_FUNCS.c ****     }
 735:Generated_Source\PSoC4/nRF24_FUNCS.c **** 
 736:Generated_Source\PSoC4/nRF24_FUNCS.c ****     if (NRF_PAYLOAD_SIZE_MAX < payload_size) {
 1722              		.loc 1 736 0
 1723 0006 2029     		cmp	r1, #32
 1724 0008 03D8     		bhi	.L90
 737:Generated_Source\PSoC4/nRF24_FUNCS.c ****         return;
 738:Generated_Source\PSoC4/nRF24_FUNCS.c ****     }
 739:Generated_Source\PSoC4/nRF24_FUNCS.c **** 
 740:Generated_Source\PSoC4/nRF24_FUNCS.c ****     nRF24_cmd_no_ack_payload(payload, payload_size);
 1725              		.loc 1 740 0
 1726 000a FFF7FEFF 		bl	nRF24_cmd_no_ack_payload
 1727              	.LVL121:
 741:Generated_Source\PSoC4/nRF24_FUNCS.c ****     nRF24_transmit_pulse();
 1728              		.loc 1 741 0
 1729 000e FFF7FEFF 		bl	nRF24_transmit_pulse
 1730              	.LVL122:
 1731              	.L90:
 742:Generated_Source\PSoC4/nRF24_FUNCS.c **** }
 1732              		.loc 1 742 0
 1733              		@ sp needed
 1734 0012 10BD     		pop	{r4, pc}
 1735              		.cfi_endproc
 1736              	.LFE50:
 1737              		.size	nRF24_tx_transmit_no_ack, .-nRF24_tx_transmit_no_ack
 1738              		.section	.text.nRF24_rx_write_payload,"ax",%progbits
 1739              		.align	2
 1740              		.global	nRF24_rx_write_payload
 1741              		.code	16
 1742              		.thumb_func
 1743              		.type	nRF24_rx_write_payload, %function
 1744              	nRF24_rx_write_payload:
 1745              	.LFB51:
 743:Generated_Source\PSoC4/nRF24_FUNCS.c **** 
ARM GAS  C:\Users\d3bug\AppData\Local\Temp\ccQAmDn0.s 			page 45


 744:Generated_Source\PSoC4/nRF24_FUNCS.c **** /**
 745:Generated_Source\PSoC4/nRF24_FUNCS.c ****  * @brief
 746:Generated_Source\PSoC4/nRF24_FUNCS.c ****  *
 747:Generated_Source\PSoC4/nRF24_FUNCS.c ****  * @param const nrf_pipe pipe:
 748:Generated_Source\PSoC4/nRF24_FUNCS.c ****  * @param const uint8_t* data:
 749:Generated_Source\PSoC4/nRF24_FUNCS.c ****  * @param size_t size:
 750:Generated_Source\PSoC4/nRF24_FUNCS.c ****  */
 751:Generated_Source\PSoC4/nRF24_FUNCS.c **** void nRF24_rx_write_payload(const nrf_pipe pipe,
 752:Generated_Source\PSoC4/nRF24_FUNCS.c ****                                         const uint8_t *payload, size_t payload_size)
 753:Generated_Source\PSoC4/nRF24_FUNCS.c **** {
 1746              		.loc 1 753 0
 1747              		.cfi_startproc
 1748              		@ args = 0, pretend = 0, frame = 0
 1749              		@ frame_needed = 0, uses_anonymous_args = 0
 1750              	.LVL123:
 1751 0000 10B5     		push	{r4, lr}
 1752              		.cfi_def_cfa_offset 8
 1753              		.cfi_offset 4, -8
 1754              		.cfi_offset 14, -4
 754:Generated_Source\PSoC4/nRF24_FUNCS.c ****     if (NULL == payload) {
 1755              		.loc 1 754 0
 1756 0002 0029     		cmp	r1, #0
 1757 0004 04D0     		beq	.L92
 755:Generated_Source\PSoC4/nRF24_FUNCS.c ****         return;
 756:Generated_Source\PSoC4/nRF24_FUNCS.c ****     }
 757:Generated_Source\PSoC4/nRF24_FUNCS.c **** 
 758:Generated_Source\PSoC4/nRF24_FUNCS.c ****     if (NRF_PAYLOAD_SIZE_MAX < payload_size) {
 1758              		.loc 1 758 0
 1759 0006 202A     		cmp	r2, #32
 1760 0008 00D9     		bls	.L94
 759:Generated_Source\PSoC4/nRF24_FUNCS.c ****         payload_size = NRF_PAYLOAD_SIZE_MAX;
 1761              		.loc 1 759 0
 1762 000a 2022     		movs	r2, #32
 1763              	.LVL124:
 1764              	.L94:
 760:Generated_Source\PSoC4/nRF24_FUNCS.c ****     }
 761:Generated_Source\PSoC4/nRF24_FUNCS.c **** 
 762:Generated_Source\PSoC4/nRF24_FUNCS.c ****     nRF24_cmd_write_ack_payload(pipe, payload, payload_size);
 1765              		.loc 1 762 0
 1766 000c FFF7FEFF 		bl	nRF24_cmd_write_ack_payload
 1767              	.LVL125:
 1768              	.L92:
 763:Generated_Source\PSoC4/nRF24_FUNCS.c **** }
 1769              		.loc 1 763 0
 1770              		@ sp needed
 1771 0010 10BD     		pop	{r4, pc}
 1772              		.cfi_endproc
 1773              	.LFE51:
 1774              		.size	nRF24_rx_write_payload, .-nRF24_rx_write_payload
 1775 0012 C046     		.section	.text.nRF24_get_data_pipe_with_payload,"ax",%progbits
 1776              		.align	2
 1777              		.global	nRF24_get_data_pipe_with_payload
 1778              		.code	16
 1779              		.thumb_func
 1780              		.type	nRF24_get_data_pipe_with_payload, %function
 1781              	nRF24_get_data_pipe_with_payload:
 1782              	.LFB52:
ARM GAS  C:\Users\d3bug\AppData\Local\Temp\ccQAmDn0.s 			page 46


 764:Generated_Source\PSoC4/nRF24_FUNCS.c **** 
 765:Generated_Source\PSoC4/nRF24_FUNCS.c **** /**
 766:Generated_Source\PSoC4/nRF24_FUNCS.c ****  * Return the pipe number with data.
 767:Generated_Source\PSoC4/nRF24_FUNCS.c ****  *
 768:Generated_Source\PSoC4/nRF24_FUNCS.c ****  * @return uint8_t:
 769:Generated_Source\PSoC4/nRF24_FUNCS.c ****  */
 770:Generated_Source\PSoC4/nRF24_FUNCS.c **** uint8_t nRF24_get_data_pipe_with_payload(void)
 771:Generated_Source\PSoC4/nRF24_FUNCS.c **** {
 1783              		.loc 1 771 0
 1784              		.cfi_startproc
 1785              		@ args = 0, pretend = 0, frame = 8
 1786              		@ frame_needed = 0, uses_anonymous_args = 0
 1787 0000 10B5     		push	{r4, lr}
 1788              		.cfi_def_cfa_offset 8
 1789              		.cfi_offset 4, -8
 1790              		.cfi_offset 14, -4
 1791 0002 82B0     		sub	sp, sp, #8
 1792              		.cfi_def_cfa_offset 16
 772:Generated_Source\PSoC4/nRF24_FUNCS.c ****     uint8_t pipe;
 773:Generated_Source\PSoC4/nRF24_FUNCS.c ****     nRF24_read_reg(NRF_REG_STATUS, &pipe, 1);
 1793              		.loc 1 773 0
 1794 0004 6B46     		mov	r3, sp
 1795 0006 DC1D     		adds	r4, r3, #7
 1796 0008 0122     		movs	r2, #1
 1797 000a 2100     		movs	r1, r4
 1798 000c 0720     		movs	r0, #7
 1799 000e FFF7FEFF 		bl	nRF24_read_reg
 1800              	.LVL126:
 774:Generated_Source\PSoC4/nRF24_FUNCS.c ****     return (pipe & NRF_STATUS_PIPES_MASK) >> NRF_STATUS_PIPES_SHIFT;
 1801              		.loc 1 774 0
 1802 0012 2078     		ldrb	r0, [r4]
 1803 0014 4010     		asrs	r0, r0, #1
 1804 0016 0723     		movs	r3, #7
 1805 0018 1840     		ands	r0, r3
 775:Generated_Source\PSoC4/nRF24_FUNCS.c **** }
 1806              		.loc 1 775 0
 1807 001a 02B0     		add	sp, sp, #8
 1808              		@ sp needed
 1809 001c 10BD     		pop	{r4, pc}
 1810              		.cfi_endproc
 1811              	.LFE52:
 1812              		.size	nRF24_get_data_pipe_with_payload, .-nRF24_get_data_pipe_with_payload
 1813 001e C046     		.section	.text.nRF24_received_power_detector,"ax",%progbits
 1814              		.align	2
 1815              		.global	nRF24_received_power_detector
 1816              		.code	16
 1817              		.thumb_func
 1818              		.type	nRF24_received_power_detector, %function
 1819              	nRF24_received_power_detector:
 1820              	.LFB53:
 776:Generated_Source\PSoC4/nRF24_FUNCS.c **** 
 777:Generated_Source\PSoC4/nRF24_FUNCS.c **** /**
 778:Generated_Source\PSoC4/nRF24_FUNCS.c ****  * @brief
 779:Generated_Source\PSoC4/nRF24_FUNCS.c ****  *
 780:Generated_Source\PSoC4/nRF24_FUNCS.c ****  * @return uint8_t:
 781:Generated_Source\PSoC4/nRF24_FUNCS.c ****  */
 782:Generated_Source\PSoC4/nRF24_FUNCS.c **** uint8_t nRF24_received_power_detector(void)
ARM GAS  C:\Users\d3bug\AppData\Local\Temp\ccQAmDn0.s 			page 47


 783:Generated_Source\PSoC4/nRF24_FUNCS.c **** {
 1821              		.loc 1 783 0
 1822              		.cfi_startproc
 1823              		@ args = 0, pretend = 0, frame = 0
 1824              		@ frame_needed = 0, uses_anonymous_args = 0
 1825 0000 10B5     		push	{r4, lr}
 1826              		.cfi_def_cfa_offset 8
 1827              		.cfi_offset 4, -8
 1828              		.cfi_offset 14, -4
 784:Generated_Source\PSoC4/nRF24_FUNCS.c ****     return nRF24_read_bit(NRF_REG_RPD, NRF_RPD_BIT_RPD);
 1829              		.loc 1 784 0
 1830 0002 0021     		movs	r1, #0
 1831 0004 0920     		movs	r0, #9
 1832 0006 FFF7FEFF 		bl	nRF24_read_bit
 1833              	.LVL127:
 785:Generated_Source\PSoC4/nRF24_FUNCS.c **** }
 1834              		.loc 1 785 0
 1835              		@ sp needed
 1836 000a 10BD     		pop	{r4, pc}
 1837              		.cfi_endproc
 1838              	.LFE53:
 1839              		.size	nRF24_received_power_detector, .-nRF24_received_power_detector
 1840              		.section	.text.nRF24_is_tx_fifo_full,"ax",%progbits
 1841              		.align	2
 1842              		.global	nRF24_is_tx_fifo_full
 1843              		.code	16
 1844              		.thumb_func
 1845              		.type	nRF24_is_tx_fifo_full, %function
 1846              	nRF24_is_tx_fifo_full:
 1847              	.LFB54:
 786:Generated_Source\PSoC4/nRF24_FUNCS.c **** 
 787:Generated_Source\PSoC4/nRF24_FUNCS.c **** /**
 788:Generated_Source\PSoC4/nRF24_FUNCS.c ****  * @return bool: true if the TX FIFO is full, false if it have available
 789:Generated_Source\PSoC4/nRF24_FUNCS.c ****  * locations.
 790:Generated_Source\PSoC4/nRF24_FUNCS.c ****  */
 791:Generated_Source\PSoC4/nRF24_FUNCS.c **** bool nRF24_is_tx_fifo_full(void)
 792:Generated_Source\PSoC4/nRF24_FUNCS.c **** {
 1848              		.loc 1 792 0
 1849              		.cfi_startproc
 1850              		@ args = 0, pretend = 0, frame = 0
 1851              		@ frame_needed = 0, uses_anonymous_args = 0
 1852 0000 10B5     		push	{r4, lr}
 1853              		.cfi_def_cfa_offset 8
 1854              		.cfi_offset 4, -8
 1855              		.cfi_offset 14, -4
 793:Generated_Source\PSoC4/nRF24_FUNCS.c ****     return nRF24_read_bit(NRF_REG_FIFO_STATUS, NRF_FIFO_STATUS_BIT_TX_FULL);
 1856              		.loc 1 793 0
 1857 0002 0521     		movs	r1, #5
 1858 0004 1720     		movs	r0, #23
 1859 0006 FFF7FEFF 		bl	nRF24_read_bit
 1860              	.LVL128:
 794:Generated_Source\PSoC4/nRF24_FUNCS.c **** }
 1861              		.loc 1 794 0
 1862              		@ sp needed
 1863 000a 10BD     		pop	{r4, pc}
 1864              		.cfi_endproc
 1865              	.LFE54:
ARM GAS  C:\Users\d3bug\AppData\Local\Temp\ccQAmDn0.s 			page 48


 1866              		.size	nRF24_is_tx_fifo_full, .-nRF24_is_tx_fifo_full
 1867              		.section	.text.nRF24_is_rx_fifo_empty,"ax",%progbits
 1868              		.align	2
 1869              		.global	nRF24_is_rx_fifo_empty
 1870              		.code	16
 1871              		.thumb_func
 1872              		.type	nRF24_is_rx_fifo_empty, %function
 1873              	nRF24_is_rx_fifo_empty:
 1874              	.LFB55:
 795:Generated_Source\PSoC4/nRF24_FUNCS.c **** 
 796:Generated_Source\PSoC4/nRF24_FUNCS.c **** /**
 797:Generated_Source\PSoC4/nRF24_FUNCS.c ****  * @return bool: true if the RX FIFO es empty, false if any pipe have data.
 798:Generated_Source\PSoC4/nRF24_FUNCS.c ****  */
 799:Generated_Source\PSoC4/nRF24_FUNCS.c **** bool nRF24_is_rx_fifo_empty(void)
 800:Generated_Source\PSoC4/nRF24_FUNCS.c **** {
 1875              		.loc 1 800 0
 1876              		.cfi_startproc
 1877              		@ args = 0, pretend = 0, frame = 0
 1878              		@ frame_needed = 0, uses_anonymous_args = 0
 1879 0000 10B5     		push	{r4, lr}
 1880              		.cfi_def_cfa_offset 8
 1881              		.cfi_offset 4, -8
 1882              		.cfi_offset 14, -4
 801:Generated_Source\PSoC4/nRF24_FUNCS.c ****     return nRF24_read_bit(NRF_REG_FIFO_STATUS, NRF_FIFO_STATUS_BIT_RX_EMPTY);
 1883              		.loc 1 801 0
 1884 0002 0021     		movs	r1, #0
 1885 0004 1720     		movs	r0, #23
 1886 0006 FFF7FEFF 		bl	nRF24_read_bit
 1887              	.LVL129:
 802:Generated_Source\PSoC4/nRF24_FUNCS.c **** }
 1888              		.loc 1 802 0
 1889              		@ sp needed
 1890 000a 10BD     		pop	{r4, pc}
 1891              		.cfi_endproc
 1892              	.LFE55:
 1893              		.size	nRF24_is_rx_fifo_empty, .-nRF24_is_rx_fifo_empty
 1894              		.section	.text.nRF24_test_carrier,"ax",%progbits
 1895              		.align	2
 1896              		.global	nRF24_test_carrier
 1897              		.code	16
 1898              		.thumb_func
 1899              		.type	nRF24_test_carrier, %function
 1900              	nRF24_test_carrier:
 1901              	.LFB56:
 803:Generated_Source\PSoC4/nRF24_FUNCS.c **** 
 804:Generated_Source\PSoC4/nRF24_FUNCS.c **** /**
 805:Generated_Source\PSoC4/nRF24_FUNCS.c ****  * Received Power Detector triggers at received power levels above -64dBm that
 806:Generated_Source\PSoC4/nRF24_FUNCS.c ****  * are present in the RF channel you receive on. If the received power is less
 807:Generated_Source\PSoC4/nRF24_FUNCS.c ****  * than -64dBm, RDP = 0.
 808:Generated_Source\PSoC4/nRF24_FUNCS.c ****  * The RPD can be read out at any time while nRF24L01+ is in receive mode.
 809:Generated_Source\PSoC4/nRF24_FUNCS.c ****  */
 810:Generated_Source\PSoC4/nRF24_FUNCS.c **** bool nRF24_test_carrier(void)
 811:Generated_Source\PSoC4/nRF24_FUNCS.c **** {
 1902              		.loc 1 811 0
 1903              		.cfi_startproc
 1904              		@ args = 0, pretend = 0, frame = 0
 1905              		@ frame_needed = 0, uses_anonymous_args = 0
ARM GAS  C:\Users\d3bug\AppData\Local\Temp\ccQAmDn0.s 			page 49


 1906 0000 10B5     		push	{r4, lr}
 1907              		.cfi_def_cfa_offset 8
 1908              		.cfi_offset 4, -8
 1909              		.cfi_offset 14, -4
 812:Generated_Source\PSoC4/nRF24_FUNCS.c ****     return nRF24_read_bit(NRF_REG_RPD, NRF_RPD_BIT_RPD);
 1910              		.loc 1 812 0
 1911 0002 0021     		movs	r1, #0
 1912 0004 0920     		movs	r0, #9
 1913 0006 FFF7FEFF 		bl	nRF24_read_bit
 1914              	.LVL130:
 813:Generated_Source\PSoC4/nRF24_FUNCS.c **** }
 1915              		.loc 1 813 0
 1916              		@ sp needed
 1917 000a 10BD     		pop	{r4, pc}
 1918              		.cfi_endproc
 1919              	.LFE56:
 1920              		.size	nRF24_test_carrier, .-nRF24_test_carrier
 1921              		.section	.text.nRF24_clear_all_irqs,"ax",%progbits
 1922              		.align	2
 1923              		.global	nRF24_clear_all_irqs
 1924              		.code	16
 1925              		.thumb_func
 1926              		.type	nRF24_clear_all_irqs, %function
 1927              	nRF24_clear_all_irqs:
 1928              	.LFB57:
 814:Generated_Source\PSoC4/nRF24_FUNCS.c **** 
 815:Generated_Source\PSoC4/nRF24_FUNCS.c **** /**
 816:Generated_Source\PSoC4/nRF24_FUNCS.c ****  * This function will write 1 to all the three IRQ "flag" bits on the
 817:Generated_Source\PSoC4/nRF24_FUNCS.c ****  * STATUS register.
 818:Generated_Source\PSoC4/nRF24_FUNCS.c ****  */
 819:Generated_Source\PSoC4/nRF24_FUNCS.c **** void nRF24_clear_all_irqs(void)
 820:Generated_Source\PSoC4/nRF24_FUNCS.c **** {
 1929              		.loc 1 820 0
 1930              		.cfi_startproc
 1931              		@ args = 0, pretend = 0, frame = 8
 1932              		@ frame_needed = 0, uses_anonymous_args = 0
 1933 0000 00B5     		push	{lr}
 1934              		.cfi_def_cfa_offset 4
 1935              		.cfi_offset 14, -4
 1936 0002 83B0     		sub	sp, sp, #12
 1937              		.cfi_def_cfa_offset 16
 821:Generated_Source\PSoC4/nRF24_FUNCS.c ****     uint8_t mask = NRF_ALL_IRQ_MASK;
 1938              		.loc 1 821 0
 1939 0004 6B46     		mov	r3, sp
 1940 0006 D91D     		adds	r1, r3, #7
 1941 0008 7023     		movs	r3, #112
 1942 000a 0B70     		strb	r3, [r1]
 822:Generated_Source\PSoC4/nRF24_FUNCS.c ****     nRF24_write_reg(NRF_REG_STATUS, &mask, 1);
 1943              		.loc 1 822 0
 1944 000c 0122     		movs	r2, #1
 1945 000e 0720     		movs	r0, #7
 1946 0010 FFF7FEFF 		bl	nRF24_write_reg
 1947              	.LVL131:
 823:Generated_Source\PSoC4/nRF24_FUNCS.c **** }
 1948              		.loc 1 823 0
 1949 0014 03B0     		add	sp, sp, #12
 1950              		@ sp needed
ARM GAS  C:\Users\d3bug\AppData\Local\Temp\ccQAmDn0.s 			page 50


 1951 0016 00BD     		pop	{pc}
 1952              		.cfi_endproc
 1953              	.LFE57:
 1954              		.size	nRF24_clear_all_irqs, .-nRF24_clear_all_irqs
 1955              		.section	.text.nRF24_start,"ax",%progbits
 1956              		.align	2
 1957              		.global	nRF24_start
 1958              		.code	16
 1959              		.thumb_func
 1960              		.type	nRF24_start, %function
 1961              	nRF24_start:
 1962              	.LFB2:
  38:Generated_Source\PSoC4/nRF24_FUNCS.c ****     // Recommended delay before start using the nRF24
 1963              		.loc 1 38 0
 1964              		.cfi_startproc
 1965              		@ args = 0, pretend = 0, frame = 0
 1966              		@ frame_needed = 0, uses_anonymous_args = 0
 1967 0000 10B5     		push	{r4, lr}
 1968              		.cfi_def_cfa_offset 8
 1969              		.cfi_offset 4, -8
 1970              		.cfi_offset 14, -4
  40:Generated_Source\PSoC4/nRF24_FUNCS.c **** 
 1971              		.loc 1 40 0
 1972 0002 6420     		movs	r0, #100
 1973 0004 FFF7FEFF 		bl	CyDelay
 1974              	.LVL132:
  49:Generated_Source\PSoC4/nRF24_FUNCS.c **** #endif
 1975              		.loc 1 49 0
 1976 0008 FFF7FEFF 		bl	SPI_Start
 1977              	.LVL133:
  51:Generated_Source\PSoC4/nRF24_FUNCS.c ****     nRF24_ce_write(GPIO_CLEAR);
 1978              		.loc 1 51 0
 1979 000c 0120     		movs	r0, #1
 1980 000e FFF7FEFF 		bl	nRF24_ss_write
 1981              	.LVL134:
  52:Generated_Source\PSoC4/nRF24_FUNCS.c **** 
 1982              		.loc 1 52 0
 1983 0012 0020     		movs	r0, #0
 1984 0014 FFF7FEFF 		bl	nRF24_ce_write
 1985              	.LVL135:
  55:Generated_Source\PSoC4/nRF24_FUNCS.c ****     nRF24_cmd_flush_tx();
 1986              		.loc 1 55 0
 1987 0018 FFF7FEFF 		bl	nRF24_cmd_flush_rx
 1988              	.LVL136:
  56:Generated_Source\PSoC4/nRF24_FUNCS.c ****     // Clear IRQ flags
 1989              		.loc 1 56 0
 1990 001c FFF7FEFF 		bl	nRF24_cmd_flush_tx
 1991              	.LVL137:
  58:Generated_Source\PSoC4/nRF24_FUNCS.c **** 
 1992              		.loc 1 58 0
 1993 0020 FFF7FEFF 		bl	nRF24_clear_all_irqs
 1994              	.LVL138:
  61:Generated_Source\PSoC4/nRF24_FUNCS.c **** 
 1995              		.loc 1 61 0
 1996 0024 FFF7FEFF 		bl	nRF24_init
 1997              	.LVL139:
  64:Generated_Source\PSoC4/nRF24_FUNCS.c **** }
ARM GAS  C:\Users\d3bug\AppData\Local\Temp\ccQAmDn0.s 			page 51


 1998              		.loc 1 64 0
 1999 0028 9620     		movs	r0, #150
 2000 002a FFF7FEFF 		bl	CyDelayUs
 2001              	.LVL140:
  65:Generated_Source\PSoC4/nRF24_FUNCS.c **** 
 2002              		.loc 1 65 0
 2003              		@ sp needed
 2004 002e 10BD     		pop	{r4, pc}
 2005              		.cfi_endproc
 2006              	.LFE2:
 2007              		.size	nRF24_start, .-nRF24_start
 2008              		.section	.text.nRF24_clear_irq_flag,"ax",%progbits
 2009              		.align	2
 2010              		.global	nRF24_clear_irq_flag
 2011              		.code	16
 2012              		.thumb_func
 2013              		.type	nRF24_clear_irq_flag, %function
 2014              	nRF24_clear_irq_flag:
 2015              	.LFB58:
 824:Generated_Source\PSoC4/nRF24_FUNCS.c **** 
 825:Generated_Source\PSoC4/nRF24_FUNCS.c **** /**
 826:Generated_Source\PSoC4/nRF24_FUNCS.c ****  * @brief Clears the specific IRQ flag.
 827:Generated_Source\PSoC4/nRF24_FUNCS.c ****  *
 828:Generated_Source\PSoC4/nRF24_FUNCS.c ****  * Clear the flag by writing 1 to the interrupt flag bit.
 829:Generated_Source\PSoC4/nRF24_FUNCS.c ****  *
 830:Generated_Source\PSoC4/nRF24_FUNCS.c ****  * @param nrf_irq irq_flag: Interrupt flag to clear.
 831:Generated_Source\PSoC4/nRF24_FUNCS.c ****  */
 832:Generated_Source\PSoC4/nRF24_FUNCS.c **** void nRF24_clear_irq_flag(const nrf_irq irq_flag)
 833:Generated_Source\PSoC4/nRF24_FUNCS.c **** {
 2016              		.loc 1 833 0
 2017              		.cfi_startproc
 2018              		@ args = 0, pretend = 0, frame = 8
 2019              		@ frame_needed = 0, uses_anonymous_args = 0
 2020              	.LVL141:
 2021 0000 00B5     		push	{lr}
 2022              		.cfi_def_cfa_offset 4
 2023              		.cfi_offset 14, -4
 2024 0002 83B0     		sub	sp, sp, #12
 2025              		.cfi_def_cfa_offset 16
 834:Generated_Source\PSoC4/nRF24_FUNCS.c ****     uint8_t mask = 1 << irq_flag;
 2026              		.loc 1 834 0
 2027 0004 0123     		movs	r3, #1
 2028 0006 8340     		lsls	r3, r3, r0
 2029 0008 6A46     		mov	r2, sp
 2030 000a D11D     		adds	r1, r2, #7
 2031 000c 0B70     		strb	r3, [r1]
 835:Generated_Source\PSoC4/nRF24_FUNCS.c ****     nRF24_write_reg(NRF_REG_STATUS, &mask, 1);
 2032              		.loc 1 835 0
 2033 000e 0122     		movs	r2, #1
 2034 0010 0720     		movs	r0, #7
 2035              	.LVL142:
 2036 0012 FFF7FEFF 		bl	nRF24_write_reg
 2037              	.LVL143:
 836:Generated_Source\PSoC4/nRF24_FUNCS.c **** }
 2038              		.loc 1 836 0
 2039 0016 03B0     		add	sp, sp, #12
 2040              		@ sp needed
ARM GAS  C:\Users\d3bug\AppData\Local\Temp\ccQAmDn0.s 			page 52


 2041 0018 00BD     		pop	{pc}
 2042              		.cfi_endproc
 2043              	.LFE58:
 2044              		.size	nRF24_clear_irq_flag, .-nRF24_clear_irq_flag
 2045 001a C046     		.section	.text.nRF24_get_irq_flag,"ax",%progbits
 2046              		.align	2
 2047              		.global	nRF24_get_irq_flag
 2048              		.code	16
 2049              		.thumb_func
 2050              		.type	nRF24_get_irq_flag, %function
 2051              	nRF24_get_irq_flag:
 2052              	.LFB59:
 837:Generated_Source\PSoC4/nRF24_FUNCS.c **** 
 838:Generated_Source\PSoC4/nRF24_FUNCS.c **** /**
 839:Generated_Source\PSoC4/nRF24_FUNCS.c ****  * This method is used to get if any of the IRQ "flag" bits on the STATUS
 840:Generated_Source\PSoC4/nRF24_FUNCS.c ****  * register is set to 1. This function returns 0 is none of the flag bits
 841:Generated_Source\PSoC4/nRF24_FUNCS.c ****  * is not set to 1.
 842:Generated_Source\PSoC4/nRF24_FUNCS.c ****  *
 843:Generated_Source\PSoC4/nRF24_FUNCS.c ****  * @return nrf_irq: Asserted bit of the interrupt flags.
 844:Generated_Source\PSoC4/nRF24_FUNCS.c ****  */
 845:Generated_Source\PSoC4/nRF24_FUNCS.c **** nrf_irq nRF24_get_irq_flag(void)
 846:Generated_Source\PSoC4/nRF24_FUNCS.c **** {
 2053              		.loc 1 846 0
 2054              		.cfi_startproc
 2055              		@ args = 0, pretend = 0, frame = 0
 2056              		@ frame_needed = 0, uses_anonymous_args = 0
 2057 0000 10B5     		push	{r4, lr}
 2058              		.cfi_def_cfa_offset 8
 2059              		.cfi_offset 4, -8
 2060              		.cfi_offset 14, -4
 2061              	.LVL144:
 847:Generated_Source\PSoC4/nRF24_FUNCS.c ****     nrf_irq irq = NRF_NONE_IRQ;
 848:Generated_Source\PSoC4/nRF24_FUNCS.c **** 
 849:Generated_Source\PSoC4/nRF24_FUNCS.c ****     // Get the STATUS register
 850:Generated_Source\PSoC4/nRF24_FUNCS.c ****     uint8_t sts = nRF24_cmd_nop();
 2062              		.loc 1 850 0
 2063 0002 FFF7FEFF 		bl	nRF24_cmd_nop
 2064              	.LVL145:
 851:Generated_Source\PSoC4/nRF24_FUNCS.c **** 
 852:Generated_Source\PSoC4/nRF24_FUNCS.c ****     // We only care if bits 4, 5 or 6 are set, so we mask the STATUS with 0x0111_0000
 853:Generated_Source\PSoC4/nRF24_FUNCS.c ****     switch (sts & NRF_ALL_IRQ_MASK) {
 2065              		.loc 1 853 0
 2066 0006 7023     		movs	r3, #112
 2067 0008 1840     		ands	r0, r3
 2068              	.LVL146:
 2069 000a 2028     		cmp	r0, #32
 2070 000c 0AD0     		beq	.L109
 2071 000e 4028     		cmp	r0, #64
 2072 0010 02D0     		beq	.L107
 2073 0012 1028     		cmp	r0, #16
 2074 0014 04D1     		bne	.L110
 2075 0016 01E0     		b	.L108
 2076              	.L107:
 854:Generated_Source\PSoC4/nRF24_FUNCS.c ****     case NRF_STATUS_RX_DR_MASK:
 855:Generated_Source\PSoC4/nRF24_FUNCS.c ****         irq = NRF_RX_DR_IRQ;
 2077              		.loc 1 855 0
 2078 0018 0620     		movs	r0, #6
ARM GAS  C:\Users\d3bug\AppData\Local\Temp\ccQAmDn0.s 			page 53


 2079 001a 04E0     		b	.L106
 2080              	.L108:
 2081              	.LVL147:
 856:Generated_Source\PSoC4/nRF24_FUNCS.c ****         break;
 857:Generated_Source\PSoC4/nRF24_FUNCS.c ****     case NRF_STATUS_TX_DS_MASK:
 858:Generated_Source\PSoC4/nRF24_FUNCS.c ****         irq = NRF_TX_DS_IRQ;
 859:Generated_Source\PSoC4/nRF24_FUNCS.c ****         break;
 860:Generated_Source\PSoC4/nRF24_FUNCS.c ****     case NRF_STATUS_MAX_RT_MASK:
 861:Generated_Source\PSoC4/nRF24_FUNCS.c ****         irq = NRF_MAX_RT_IRQ;
 2082              		.loc 1 861 0
 2083 001c 0420     		movs	r0, #4
 862:Generated_Source\PSoC4/nRF24_FUNCS.c ****         break;
 2084              		.loc 1 862 0
 2085 001e 02E0     		b	.L106
 2086              	.LVL148:
 2087              	.L110:
 863:Generated_Source\PSoC4/nRF24_FUNCS.c ****     default:
 864:Generated_Source\PSoC4/nRF24_FUNCS.c ****         irq = NRF_ALL_IRQ_MASK;
 2088              		.loc 1 864 0
 2089 0020 7020     		movs	r0, #112
 865:Generated_Source\PSoC4/nRF24_FUNCS.c ****         break;
 2090              		.loc 1 865 0
 2091 0022 00E0     		b	.L106
 2092              	.LVL149:
 2093              	.L109:
 858:Generated_Source\PSoC4/nRF24_FUNCS.c ****         break;
 2094              		.loc 1 858 0
 2095 0024 0520     		movs	r0, #5
 2096              	.LVL150:
 2097              	.L106:
 866:Generated_Source\PSoC4/nRF24_FUNCS.c ****     }
 867:Generated_Source\PSoC4/nRF24_FUNCS.c **** 
 868:Generated_Source\PSoC4/nRF24_FUNCS.c ****     return irq;
 869:Generated_Source\PSoC4/nRF24_FUNCS.c **** }
 2098              		.loc 1 869 0
 2099              		@ sp needed
 2100 0026 10BD     		pop	{r4, pc}
 2101              		.cfi_endproc
 2102              	.LFE59:
 2103              		.size	nRF24_get_irq_flag, .-nRF24_get_irq_flag
 2104              		.section	.text.nRF24_poll_interrupt,"ax",%progbits
 2105              		.align	2
 2106              		.global	nRF24_poll_interrupt
 2107              		.code	16
 2108              		.thumb_func
 2109              		.type	nRF24_poll_interrupt, %function
 2110              	nRF24_poll_interrupt:
 2111              	.LFB60:
 870:Generated_Source\PSoC4/nRF24_FUNCS.c **** 
 871:Generated_Source\PSoC4/nRF24_FUNCS.c **** void nRF24_poll_interrupt(void)
 872:Generated_Source\PSoC4/nRF24_FUNCS.c **** {
 2112              		.loc 1 872 0
 2113              		.cfi_startproc
 2114              		@ args = 0, pretend = 0, frame = 0
 2115              		@ frame_needed = 0, uses_anonymous_args = 0
 2116              		@ link register save eliminated.
 873:Generated_Source\PSoC4/nRF24_FUNCS.c ****     // TODO
ARM GAS  C:\Users\d3bug\AppData\Local\Temp\ccQAmDn0.s 			page 54


 874:Generated_Source\PSoC4/nRF24_FUNCS.c **** }
 2117              		.loc 1 874 0
 2118              		@ sp needed
 2119 0000 7047     		bx	lr
 2120              		.cfi_endproc
 2121              	.LFE60:
 2122              		.size	nRF24_poll_interrupt, .-nRF24_poll_interrupt
 2123 0002 C046     		.section	.text.nRF24_get_status_clear_irq,"ax",%progbits
 2124              		.align	2
 2125              		.global	nRF24_get_status_clear_irq
 2126              		.code	16
 2127              		.thumb_func
 2128              		.type	nRF24_get_status_clear_irq, %function
 2129              	nRF24_get_status_clear_irq:
 2130              	.LFB61:
 875:Generated_Source\PSoC4/nRF24_FUNCS.c **** 
 876:Generated_Source\PSoC4/nRF24_FUNCS.c **** uint8_t nRF24_get_status_clear_irq(void)
 877:Generated_Source\PSoC4/nRF24_FUNCS.c **** {
 2131              		.loc 1 877 0
 2132              		.cfi_startproc
 2133              		@ args = 0, pretend = 0, frame = 8
 2134              		@ frame_needed = 0, uses_anonymous_args = 0
 2135 0000 00B5     		push	{lr}
 2136              		.cfi_def_cfa_offset 4
 2137              		.cfi_offset 14, -4
 2138 0002 83B0     		sub	sp, sp, #12
 2139              		.cfi_def_cfa_offset 16
 878:Generated_Source\PSoC4/nRF24_FUNCS.c ****     uint8_t mask = NRF_ALL_IRQ_MASK;
 2140              		.loc 1 878 0
 2141 0004 6B46     		mov	r3, sp
 2142 0006 D91D     		adds	r1, r3, #7
 2143 0008 7023     		movs	r3, #112
 2144 000a 0B70     		strb	r3, [r1]
 879:Generated_Source\PSoC4/nRF24_FUNCS.c ****     return nRF24_write_reg(NRF_REG_STATUS, &mask, 1);
 2145              		.loc 1 879 0
 2146 000c 0122     		movs	r2, #1
 2147 000e 0720     		movs	r0, #7
 2148 0010 FFF7FEFF 		bl	nRF24_write_reg
 2149              	.LVL151:
 880:Generated_Source\PSoC4/nRF24_FUNCS.c **** }
 2150              		.loc 1 880 0
 2151 0014 03B0     		add	sp, sp, #12
 2152              		@ sp needed
 2153 0016 00BD     		pop	{pc}
 2154              		.cfi_endproc
 2155              	.LFE61:
 2156              		.size	nRF24_get_status_clear_irq, .-nRF24_get_status_clear_irq
 2157              		.section	.text.nRF24_flush_rx,"ax",%progbits
 2158              		.align	2
 2159              		.global	nRF24_flush_rx
 2160              		.code	16
 2161              		.thumb_func
 2162              		.type	nRF24_flush_rx, %function
 2163              	nRF24_flush_rx:
 2164              	.LFB62:
 881:Generated_Source\PSoC4/nRF24_FUNCS.c **** 
 882:Generated_Source\PSoC4/nRF24_FUNCS.c **** // command wrappers
ARM GAS  C:\Users\d3bug\AppData\Local\Temp\ccQAmDn0.s 			page 55


 883:Generated_Source\PSoC4/nRF24_FUNCS.c **** void nRF24_flush_rx(void)
 884:Generated_Source\PSoC4/nRF24_FUNCS.c **** {
 2165              		.loc 1 884 0
 2166              		.cfi_startproc
 2167              		@ args = 0, pretend = 0, frame = 0
 2168              		@ frame_needed = 0, uses_anonymous_args = 0
 2169 0000 10B5     		push	{r4, lr}
 2170              		.cfi_def_cfa_offset 8
 2171              		.cfi_offset 4, -8
 2172              		.cfi_offset 14, -4
 885:Generated_Source\PSoC4/nRF24_FUNCS.c ****     nRF24_cmd_flush_rx();
 2173              		.loc 1 885 0
 2174 0002 FFF7FEFF 		bl	nRF24_cmd_flush_rx
 2175              	.LVL152:
 886:Generated_Source\PSoC4/nRF24_FUNCS.c **** }
 2176              		.loc 1 886 0
 2177              		@ sp needed
 2178 0006 10BD     		pop	{r4, pc}
 2179              		.cfi_endproc
 2180              	.LFE62:
 2181              		.size	nRF24_flush_rx, .-nRF24_flush_rx
 2182              		.section	.text.nRF24_flush_tx,"ax",%progbits
 2183              		.align	2
 2184              		.global	nRF24_flush_tx
 2185              		.code	16
 2186              		.thumb_func
 2187              		.type	nRF24_flush_tx, %function
 2188              	nRF24_flush_tx:
 2189              	.LFB63:
 887:Generated_Source\PSoC4/nRF24_FUNCS.c **** 
 888:Generated_Source\PSoC4/nRF24_FUNCS.c **** void nRF24_flush_tx(void)
 889:Generated_Source\PSoC4/nRF24_FUNCS.c **** {
 2190              		.loc 1 889 0
 2191              		.cfi_startproc
 2192              		@ args = 0, pretend = 0, frame = 0
 2193              		@ frame_needed = 0, uses_anonymous_args = 0
 2194 0000 10B5     		push	{r4, lr}
 2195              		.cfi_def_cfa_offset 8
 2196              		.cfi_offset 4, -8
 2197              		.cfi_offset 14, -4
 890:Generated_Source\PSoC4/nRF24_FUNCS.c ****     nRF24_cmd_flush_tx();
 2198              		.loc 1 890 0
 2199 0002 FFF7FEFF 		bl	nRF24_cmd_flush_tx
 2200              	.LVL153:
 891:Generated_Source\PSoC4/nRF24_FUNCS.c **** }
 2201              		.loc 1 891 0
 2202              		@ sp needed
 2203 0006 10BD     		pop	{r4, pc}
 2204              		.cfi_endproc
 2205              	.LFE63:
 2206              		.size	nRF24_flush_tx, .-nRF24_flush_tx
 2207              		.data
 2208              		.set	.LANCHOR0,. + 0
 2209              		.type	_nrf_addr_width, %object
 2210              		.size	_nrf_addr_width, 1
 2211              	_nrf_addr_width:
 2212 0000 05       		.byte	5
ARM GAS  C:\Users\d3bug\AppData\Local\Temp\ccQAmDn0.s 			page 56


 2213              		.text
 2214              	.Letext0:
 2215              		.file 2 "c:\\program files (x86)\\cypress\\psoc creator\\4.2\\psoc creator\\import\\gnu\\arm\\5.4.
 2216              		.file 3 "c:\\program files (x86)\\cypress\\psoc creator\\4.2\\psoc creator\\import\\gnu\\arm\\5.4.
 2217              		.file 4 "c:\\program files (x86)\\cypress\\psoc creator\\4.2\\psoc creator\\import\\gnu\\arm\\5.4.
 2218              		.file 5 "Generated_Source\\PSoC4\\nRF24_DEFS.h"
 2219              		.file 6 "Generated_Source\\PSoC4\\nRF24_HAL.h"
 2220              		.file 7 "Generated_Source\\PSoC4/CyLib.h"
 2221              		.file 8 "Generated_Source\\PSoC4\\nRF24_COMMANDS.h"
 2222              		.file 9 "Generated_Source\\PSoC4\\SPI.h"