ARM GAS  C:\Users\Xwx47\AppData\Local\Temp\ccTSjOcG.s 			page 1


   1              		.syntax unified
   2              		.cpu cortex-m0plus
   3              		.fpu softvfp
   4              		.eabi_attribute 20, 1
   5              		.eabi_attribute 21, 1
   6              		.eabi_attribute 23, 3
   7              		.eabi_attribute 24, 1
   8              		.eabi_attribute 25, 1
   9              		.eabi_attribute 26, 1
  10              		.eabi_attribute 30, 1
  11              		.eabi_attribute 34, 0
  12              		.eabi_attribute 18, 4
  13              		.thumb
  14              		.syntax unified
  15              		.file	"nRF24_NRF_COMMANDS.c"
  16              		.text
  17              	.Ltext0:
  18              		.cfi_sections	.debug_frame
  19              		.section	.text.nRF24_sendCommand,"ax",%progbits
  20              		.align	2
  21              		.global	nRF24_sendCommand
  22              		.code	16
  23              		.thumb_func
  24              		.type	nRF24_sendCommand, %function
  25              	nRF24_sendCommand:
  26              	.LFB1:
  27              		.file 1 "Generated_Source\\PSoC4\\nRF24_NRF_COMMANDS.c"
   1:Generated_Source\PSoC4/nRF24_NRF_COMMANDS.c **** /****************************************************************************
   2:Generated_Source\PSoC4/nRF24_NRF_COMMANDS.c **** * This file is part of the nRF24 Custom Component for PSoC Devices.
   3:Generated_Source\PSoC4/nRF24_NRF_COMMANDS.c **** *
   4:Generated_Source\PSoC4/nRF24_NRF_COMMANDS.c **** * Copyright (C) 2017 Carlos Diaz <carlos.santiago.diaz@gmail.com>
   5:Generated_Source\PSoC4/nRF24_NRF_COMMANDS.c **** *
   6:Generated_Source\PSoC4/nRF24_NRF_COMMANDS.c **** * Permission to use, copy, modify, and/or distribute this software for any
   7:Generated_Source\PSoC4/nRF24_NRF_COMMANDS.c **** * purpose with or without fee is hereby granted, provided that the above
   8:Generated_Source\PSoC4/nRF24_NRF_COMMANDS.c **** * copyright notice and this permission notice appear in all copies.
   9:Generated_Source\PSoC4/nRF24_NRF_COMMANDS.c **** *
  10:Generated_Source\PSoC4/nRF24_NRF_COMMANDS.c **** * THE SOFTWARE IS PROVIDED "AS IS" AND THE AUTHOR DISCLAIMS ALL WARRANTIES
  11:Generated_Source\PSoC4/nRF24_NRF_COMMANDS.c **** * WITH REGARD TO THIS SOFTWARE INCLUDING ALL IMPLIED WARRANTIES OF
  12:Generated_Source\PSoC4/nRF24_NRF_COMMANDS.c **** * MERCHANTABILITY AND FITNESS. IN NO EVENT SHALL THE AUTHOR BE LIABLE FOR
  13:Generated_Source\PSoC4/nRF24_NRF_COMMANDS.c **** * ANY SPECIAL, DIRECT, INDIRECT, OR CONSEQUENTIAL DAMAGES OR ANY DAMAGES
  14:Generated_Source\PSoC4/nRF24_NRF_COMMANDS.c **** * WHATSOEVER RESULTING FROM LOSS OF USE, DATA OR PROFITS, WHETHER IN AN
  15:Generated_Source\PSoC4/nRF24_NRF_COMMANDS.c **** * ACTION OF CONTRACT, NEGLIGENCE OR OTHER TORTIOUS ACTION, ARISING OUT OF
  16:Generated_Source\PSoC4/nRF24_NRF_COMMANDS.c **** * OR IN CONNECTION WITH THE USE OR PERFORMANCE OF THIS SOFTWARE.
  17:Generated_Source\PSoC4/nRF24_NRF_COMMANDS.c **** ****************************************************************************/
  18:Generated_Source\PSoC4/nRF24_NRF_COMMANDS.c **** 
  19:Generated_Source\PSoC4/nRF24_NRF_COMMANDS.c **** /**
  20:Generated_Source\PSoC4/nRF24_NRF_COMMANDS.c **** * @file nRF24_NRF_COMMANDS.c
  21:Generated_Source\PSoC4/nRF24_NRF_COMMANDS.c **** *
  22:Generated_Source\PSoC4/nRF24_NRF_COMMANDS.c **** * @brief The nRF24 radio is controlled via commands, this file implement all
  23:Generated_Source\PSoC4/nRF24_NRF_COMMANDS.c **** * the available commands.
  24:Generated_Source\PSoC4/nRF24_NRF_COMMANDS.c **** * 
  25:Generated_Source\PSoC4/nRF24_NRF_COMMANDS.c **** */
  26:Generated_Source\PSoC4/nRF24_NRF_COMMANDS.c **** 
  27:Generated_Source\PSoC4/nRF24_NRF_COMMANDS.c **** #include <CE.h>
  28:Generated_Source\PSoC4/nRF24_NRF_COMMANDS.c **** #include <SPI.h>
  29:Generated_Source\PSoC4/nRF24_NRF_COMMANDS.c **** #include <SS.h>
  30:Generated_Source\PSoC4/nRF24_NRF_COMMANDS.c **** 
ARM GAS  C:\Users\Xwx47\AppData\Local\Temp\ccTSjOcG.s 			page 2


  31:Generated_Source\PSoC4/nRF24_NRF_COMMANDS.c **** #if defined(CY_SCB_SPI_H)
  32:Generated_Source\PSoC4/nRF24_NRF_COMMANDS.c **** #include <SPI_SPI_UART.h>
  33:Generated_Source\PSoC4/nRF24_NRF_COMMANDS.c **** #endif
  34:Generated_Source\PSoC4/nRF24_NRF_COMMANDS.c **** 
  35:Generated_Source\PSoC4/nRF24_NRF_COMMANDS.c **** #include "nRF24_LL_SPI.h"
  36:Generated_Source\PSoC4/nRF24_NRF_COMMANDS.c **** #include "nRF24_NRF_COMMANDS.h"
  37:Generated_Source\PSoC4/nRF24_NRF_COMMANDS.c **** #include "nRF24_NRF_FUNCS.h"
  38:Generated_Source\PSoC4/nRF24_NRF_COMMANDS.c **** #include "nRF24_NRF_REGS.h"
  39:Generated_Source\PSoC4/nRF24_NRF_COMMANDS.c **** 
  40:Generated_Source\PSoC4/nRF24_NRF_COMMANDS.c **** /**
  41:Generated_Source\PSoC4/nRF24_NRF_COMMANDS.c ****  * Send a command to the nRF24 radio.
  42:Generated_Source\PSoC4/nRF24_NRF_COMMANDS.c ****  *
  43:Generated_Source\PSoC4/nRF24_NRF_COMMANDS.c ****  * @param const NrfCmd cmd: Command to send to the nRF24 radio.
  44:Generated_Source\PSoC4/nRF24_NRF_COMMANDS.c ****  */
  45:Generated_Source\PSoC4/nRF24_NRF_COMMANDS.c **** void nRF24_sendCommand(const NrfCmd cmd)
  46:Generated_Source\PSoC4/nRF24_NRF_COMMANDS.c **** {
  28              		.loc 1 46 0
  29              		.cfi_startproc
  30              		@ args = 0, pretend = 0, frame = 0
  31              		@ frame_needed = 0, uses_anonymous_args = 0
  32              	.LVL0:
  33 0000 10B5     		push	{r4, lr}
  34              		.cfi_def_cfa_offset 8
  35              		.cfi_offset 4, -8
  36              		.cfi_offset 14, -4
  37 0002 0400     		movs	r4, r0
  47:Generated_Source\PSoC4/nRF24_NRF_COMMANDS.c **** #if defined(CY_SCB_SPI_H) // SCB Block
  48:Generated_Source\PSoC4/nRF24_NRF_COMMANDS.c **** 
  49:Generated_Source\PSoC4/nRF24_NRF_COMMANDS.c ****     SPI_SpiUartClearRxBuffer();
  38              		.loc 1 49 0
  39 0004 FFF7FEFF 		bl	SPI_SpiUartClearRxBuffer
  40              	.LVL1:
  50:Generated_Source\PSoC4/nRF24_NRF_COMMANDS.c ****     SPI_SpiUartClearTxBuffer();
  41              		.loc 1 50 0
  42 0008 FFF7FEFF 		bl	SPI_SpiUartClearTxBuffer
  43              	.LVL2:
  51:Generated_Source\PSoC4/nRF24_NRF_COMMANDS.c **** 
  52:Generated_Source\PSoC4/nRF24_NRF_COMMANDS.c ****     SS_Write(0);
  44              		.loc 1 52 0
  45 000c 0020     		movs	r0, #0
  46 000e FFF7FEFF 		bl	SS_Write
  47              	.LVL3:
  53:Generated_Source\PSoC4/nRF24_NRF_COMMANDS.c ****     SPI_SpiUartWriteTxData(cmd);
  48              		.loc 1 53 0
  49 0012 2000     		movs	r0, r4
  50 0014 FFF7FEFF 		bl	SPI_SpiUartWriteTxData
  51              	.LVL4:
  52              	.L2:
  54:Generated_Source\PSoC4/nRF24_NRF_COMMANDS.c **** 
  55:Generated_Source\PSoC4/nRF24_NRF_COMMANDS.c ****     while (SPI_SpiUartGetRxBufferSize() != 1) {
  53              		.loc 1 55 0 discriminator 1
  54 0018 FFF7FEFF 		bl	SPI_SpiUartGetRxBufferSize
  55              	.LVL5:
  56 001c 0128     		cmp	r0, #1
  57 001e FBD1     		bne	.L2
  56:Generated_Source\PSoC4/nRF24_NRF_COMMANDS.c ****     }
  57:Generated_Source\PSoC4/nRF24_NRF_COMMANDS.c ****     SS_Write(1);
ARM GAS  C:\Users\Xwx47\AppData\Local\Temp\ccTSjOcG.s 			page 3


  58              		.loc 1 57 0
  59 0020 FFF7FEFF 		bl	SS_Write
  60              	.LVL6:
  58:Generated_Source\PSoC4/nRF24_NRF_COMMANDS.c **** 
  59:Generated_Source\PSoC4/nRF24_NRF_COMMANDS.c **** #else // UDB Block
  60:Generated_Source\PSoC4/nRF24_NRF_COMMANDS.c **** 
  61:Generated_Source\PSoC4/nRF24_NRF_COMMANDS.c ****     SPI_ClearRxBuffer();
  62:Generated_Source\PSoC4/nRF24_NRF_COMMANDS.c ****     SPI_ClearTxBuffer();
  63:Generated_Source\PSoC4/nRF24_NRF_COMMANDS.c **** 
  64:Generated_Source\PSoC4/nRF24_NRF_COMMANDS.c ****     SS_Write(0);
  65:Generated_Source\PSoC4/nRF24_NRF_COMMANDS.c ****     SPI_WriteTxData(cmd);
  66:Generated_Source\PSoC4/nRF24_NRF_COMMANDS.c **** 
  67:Generated_Source\PSoC4/nRF24_NRF_COMMANDS.c ****     while (!(SPI_ReadTxStatus() & SPI_STS_BYTE_COMPLETE)) {
  68:Generated_Source\PSoC4/nRF24_NRF_COMMANDS.c ****     }
  69:Generated_Source\PSoC4/nRF24_NRF_COMMANDS.c ****     SS_Write(1);
  70:Generated_Source\PSoC4/nRF24_NRF_COMMANDS.c **** 
  71:Generated_Source\PSoC4/nRF24_NRF_COMMANDS.c **** #endif
  72:Generated_Source\PSoC4/nRF24_NRF_COMMANDS.c **** }
  61              		.loc 1 72 0
  62              		@ sp needed
  63 0024 10BD     		pop	{r4, pc}
  64              		.cfi_endproc
  65              	.LFE1:
  66              		.size	nRF24_sendCommand, .-nRF24_sendCommand
  67 0026 C046     		.section	.text.nRF24_reuseTxPayloadCmd,"ax",%progbits
  68              		.align	2
  69              		.global	nRF24_reuseTxPayloadCmd
  70              		.code	16
  71              		.thumb_func
  72              		.type	nRF24_reuseTxPayloadCmd, %function
  73              	nRF24_reuseTxPayloadCmd:
  74              	.LFB2:
  73:Generated_Source\PSoC4/nRF24_NRF_COMMANDS.c **** 
  74:Generated_Source\PSoC4/nRF24_NRF_COMMANDS.c **** /**
  75:Generated_Source\PSoC4/nRF24_NRF_COMMANDS.c ****  * @brief Reuse last transmitted payload.
  76:Generated_Source\PSoC4/nRF24_NRF_COMMANDS.c ****  *
  77:Generated_Source\PSoC4/nRF24_NRF_COMMANDS.c ****  * Used for a PTX device.
  78:Generated_Source\PSoC4/nRF24_NRF_COMMANDS.c ****  * Reuse last transmitted payload. TX payload reuse is active until
  79:Generated_Source\PSoC4/nRF24_NRF_COMMANDS.c ****  * W_TX_PAYLOAD or FLUSH_TX is executed.
  80:Generated_Source\PSoC4/nRF24_NRF_COMMANDS.c ****  * TX payload reuse must not be activated or deactivated during package
  81:Generated_Source\PSoC4/nRF24_NRF_COMMANDS.c ****  * transmission.
  82:Generated_Source\PSoC4/nRF24_NRF_COMMANDS.c ****  */
  83:Generated_Source\PSoC4/nRF24_NRF_COMMANDS.c **** void nRF24_reuseTxPayloadCmd(void)
  84:Generated_Source\PSoC4/nRF24_NRF_COMMANDS.c **** {
  75              		.loc 1 84 0
  76              		.cfi_startproc
  77              		@ args = 0, pretend = 0, frame = 0
  78              		@ frame_needed = 0, uses_anonymous_args = 0
  79 0000 10B5     		push	{r4, lr}
  80              		.cfi_def_cfa_offset 8
  81              		.cfi_offset 4, -8
  82              		.cfi_offset 14, -4
  85:Generated_Source\PSoC4/nRF24_NRF_COMMANDS.c ****     nRF24_sendCommand(NRF_REUSE_TX_PL_CMD);
  83              		.loc 1 85 0
  84 0002 E320     		movs	r0, #227
  85 0004 FFF7FEFF 		bl	nRF24_sendCommand
  86              	.LVL7:
ARM GAS  C:\Users\Xwx47\AppData\Local\Temp\ccTSjOcG.s 			page 4


  86:Generated_Source\PSoC4/nRF24_NRF_COMMANDS.c **** }
  87              		.loc 1 86 0
  88              		@ sp needed
  89 0008 10BD     		pop	{r4, pc}
  90              		.cfi_endproc
  91              	.LFE2:
  92              		.size	nRF24_reuseTxPayloadCmd, .-nRF24_reuseTxPayloadCmd
  93 000a C046     		.section	.text.nRF24_flushRxCmd,"ax",%progbits
  94              		.align	2
  95              		.global	nRF24_flushRxCmd
  96              		.code	16
  97              		.thumb_func
  98              		.type	nRF24_flushRxCmd, %function
  99              	nRF24_flushRxCmd:
 100              	.LFB3:
  87:Generated_Source\PSoC4/nRF24_NRF_COMMANDS.c **** 
  88:Generated_Source\PSoC4/nRF24_NRF_COMMANDS.c **** /**
  89:Generated_Source\PSoC4/nRF24_NRF_COMMANDS.c ****  * @brief Flush RX FIFO.
  90:Generated_Source\PSoC4/nRF24_NRF_COMMANDS.c ****  *
  91:Generated_Source\PSoC4/nRF24_NRF_COMMANDS.c ****  * Used in RX mode.
  92:Generated_Source\PSoC4/nRF24_NRF_COMMANDS.c ****  * Flush RX FIFO. Should be not executed during transmission of acknowledge,
  93:Generated_Source\PSoC4/nRF24_NRF_COMMANDS.c ****  * that is, acknowledge package will not be completed.
  94:Generated_Source\PSoC4/nRF24_NRF_COMMANDS.c ****  */
  95:Generated_Source\PSoC4/nRF24_NRF_COMMANDS.c **** void nRF24_flushRxCmd(void)
  96:Generated_Source\PSoC4/nRF24_NRF_COMMANDS.c **** {
 101              		.loc 1 96 0
 102              		.cfi_startproc
 103              		@ args = 0, pretend = 0, frame = 0
 104              		@ frame_needed = 0, uses_anonymous_args = 0
 105 0000 10B5     		push	{r4, lr}
 106              		.cfi_def_cfa_offset 8
 107              		.cfi_offset 4, -8
 108              		.cfi_offset 14, -4
  97:Generated_Source\PSoC4/nRF24_NRF_COMMANDS.c ****     nRF24_sendCommand(NRF_FLUSH_RX_CMD);
 109              		.loc 1 97 0
 110 0002 E220     		movs	r0, #226
 111 0004 FFF7FEFF 		bl	nRF24_sendCommand
 112              	.LVL8:
  98:Generated_Source\PSoC4/nRF24_NRF_COMMANDS.c **** }
 113              		.loc 1 98 0
 114              		@ sp needed
 115 0008 10BD     		pop	{r4, pc}
 116              		.cfi_endproc
 117              	.LFE3:
 118              		.size	nRF24_flushRxCmd, .-nRF24_flushRxCmd
 119 000a C046     		.section	.text.nRF24_flushTxCmd,"ax",%progbits
 120              		.align	2
 121              		.global	nRF24_flushTxCmd
 122              		.code	16
 123              		.thumb_func
 124              		.type	nRF24_flushTxCmd, %function
 125              	nRF24_flushTxCmd:
 126              	.LFB4:
  99:Generated_Source\PSoC4/nRF24_NRF_COMMANDS.c **** 
 100:Generated_Source\PSoC4/nRF24_NRF_COMMANDS.c **** /**
 101:Generated_Source\PSoC4/nRF24_NRF_COMMANDS.c ****  * Used in TX mode.
 102:Generated_Source\PSoC4/nRF24_NRF_COMMANDS.c ****  * Flush TX FIFO.
ARM GAS  C:\Users\Xwx47\AppData\Local\Temp\ccTSjOcG.s 			page 5


 103:Generated_Source\PSoC4/nRF24_NRF_COMMANDS.c ****  */
 104:Generated_Source\PSoC4/nRF24_NRF_COMMANDS.c **** void nRF24_flushTxCmd(void)
 105:Generated_Source\PSoC4/nRF24_NRF_COMMANDS.c **** {
 127              		.loc 1 105 0
 128              		.cfi_startproc
 129              		@ args = 0, pretend = 0, frame = 0
 130              		@ frame_needed = 0, uses_anonymous_args = 0
 131 0000 10B5     		push	{r4, lr}
 132              		.cfi_def_cfa_offset 8
 133              		.cfi_offset 4, -8
 134              		.cfi_offset 14, -4
 106:Generated_Source\PSoC4/nRF24_NRF_COMMANDS.c ****     nRF24_sendCommand(NRF_FLUSH_TX_CMD);
 135              		.loc 1 106 0
 136 0002 E120     		movs	r0, #225
 137 0004 FFF7FEFF 		bl	nRF24_sendCommand
 138              	.LVL9:
 107:Generated_Source\PSoC4/nRF24_NRF_COMMANDS.c **** }
 139              		.loc 1 107 0
 140              		@ sp needed
 141 0008 10BD     		pop	{r4, pc}
 142              		.cfi_endproc
 143              	.LFE4:
 144              		.size	nRF24_flushTxCmd, .-nRF24_flushTxCmd
 145 000a C046     		.section	.text.nRF24_readRXPayloadCmd,"ax",%progbits
 146              		.align	2
 147              		.global	nRF24_readRXPayloadCmd
 148              		.code	16
 149              		.thumb_func
 150              		.type	nRF24_readRXPayloadCmd, %function
 151              	nRF24_readRXPayloadCmd:
 152              	.LFB5:
 108:Generated_Source\PSoC4/nRF24_NRF_COMMANDS.c **** 
 109:Generated_Source\PSoC4/nRF24_NRF_COMMANDS.c **** /**
 110:Generated_Source\PSoC4/nRF24_NRF_COMMANDS.c ****  * Used in RX mode.
 111:Generated_Source\PSoC4/nRF24_NRF_COMMANDS.c ****  * Read RX payload: 1 - 32 bytes. A read operation always starts at byte 0.
 112:Generated_Source\PSoC4/nRF24_NRF_COMMANDS.c ****  * Payload is deleted from FIFO after it is read.
 113:Generated_Source\PSoC4/nRF24_NRF_COMMANDS.c ****  *
 114:Generated_Source\PSoC4/nRF24_NRF_COMMANDS.c ****  * @param uint8_t* data:
 115:Generated_Source\PSoC4/nRF24_NRF_COMMANDS.c ****  * @param const size_t size:
 116:Generated_Source\PSoC4/nRF24_NRF_COMMANDS.c ****  */
 117:Generated_Source\PSoC4/nRF24_NRF_COMMANDS.c **** void nRF24_readRXPayloadCmd(uint8_t* data, const size_t size)
 118:Generated_Source\PSoC4/nRF24_NRF_COMMANDS.c **** {
 153              		.loc 1 118 0
 154              		.cfi_startproc
 155              		@ args = 0, pretend = 0, frame = 0
 156              		@ frame_needed = 0, uses_anonymous_args = 0
 157              	.LVL10:
 158 0000 F8B5     		push	{r3, r4, r5, r6, r7, lr}
 159              		.cfi_def_cfa_offset 24
 160              		.cfi_offset 3, -24
 161              		.cfi_offset 4, -20
 162              		.cfi_offset 5, -16
 163              		.cfi_offset 6, -12
 164              		.cfi_offset 7, -8
 165              		.cfi_offset 14, -4
 166 0002 0700     		movs	r7, r0
 167 0004 0E00     		movs	r6, r1
ARM GAS  C:\Users\Xwx47\AppData\Local\Temp\ccTSjOcG.s 			page 6


 119:Generated_Source\PSoC4/nRF24_NRF_COMMANDS.c **** #if defined(CY_SCB_SPI_H) // SCB Block
 120:Generated_Source\PSoC4/nRF24_NRF_COMMANDS.c **** 
 121:Generated_Source\PSoC4/nRF24_NRF_COMMANDS.c ****     SPI_SpiUartClearRxBuffer();
 168              		.loc 1 121 0
 169 0006 FFF7FEFF 		bl	SPI_SpiUartClearRxBuffer
 170              	.LVL11:
 122:Generated_Source\PSoC4/nRF24_NRF_COMMANDS.c ****     SPI_SpiUartClearTxBuffer();
 171              		.loc 1 122 0
 172 000a FFF7FEFF 		bl	SPI_SpiUartClearTxBuffer
 173              	.LVL12:
 123:Generated_Source\PSoC4/nRF24_NRF_COMMANDS.c **** 
 124:Generated_Source\PSoC4/nRF24_NRF_COMMANDS.c ****     SS_Write(0);
 174              		.loc 1 124 0
 175 000e 0020     		movs	r0, #0
 176 0010 FFF7FEFF 		bl	SS_Write
 177              	.LVL13:
 125:Generated_Source\PSoC4/nRF24_NRF_COMMANDS.c ****     SPI_SpiUartWriteTxData(NRF_R_RX_PAYLOAD_CMD);
 178              		.loc 1 125 0
 179 0014 6120     		movs	r0, #97
 180 0016 FFF7FEFF 		bl	SPI_SpiUartWriteTxData
 181              	.LVL14:
 182              	.L7:
 126:Generated_Source\PSoC4/nRF24_NRF_COMMANDS.c ****     while (SPI_SpiUartGetRxBufferSize() == 0){
 183              		.loc 1 126 0 discriminator 1
 184 001a FFF7FEFF 		bl	SPI_SpiUartGetRxBufferSize
 185              	.LVL15:
 186 001e 0028     		cmp	r0, #0
 187 0020 FBD0     		beq	.L7
 127:Generated_Source\PSoC4/nRF24_NRF_COMMANDS.c ****     }
 128:Generated_Source\PSoC4/nRF24_NRF_COMMANDS.c ****     // Read the status register, just to clear the rx fifo
 129:Generated_Source\PSoC4/nRF24_NRF_COMMANDS.c ****     SPI_SpiUartReadRxData();
 188              		.loc 1 129 0
 189 0022 FFF7FEFF 		bl	SPI_SpiUartReadRxData
 190              	.LVL16:
 191              	.LBB2:
 130:Generated_Source\PSoC4/nRF24_NRF_COMMANDS.c **** 
 131:Generated_Source\PSoC4/nRF24_NRF_COMMANDS.c ****     for (size_t i = 0; i < size; i++) {
 192              		.loc 1 131 0
 193 0026 0024     		movs	r4, #0
 194 0028 0BE0     		b	.L8
 195              	.LVL17:
 196              	.L10:
 132:Generated_Source\PSoC4/nRF24_NRF_COMMANDS.c ****         SPI_SpiUartWriteTxData(NRF_NOP_CMD);
 197              		.loc 1 132 0
 198 002a FF20     		movs	r0, #255
 199 002c FFF7FEFF 		bl	SPI_SpiUartWriteTxData
 200              	.LVL18:
 201              	.L9:
 133:Generated_Source\PSoC4/nRF24_NRF_COMMANDS.c ****         while (SPI_SpiUartGetRxBufferSize() == 0){
 202              		.loc 1 133 0 discriminator 1
 203 0030 FFF7FEFF 		bl	SPI_SpiUartGetRxBufferSize
 204              	.LVL19:
 205 0034 0028     		cmp	r0, #0
 206 0036 FBD0     		beq	.L9
 134:Generated_Source\PSoC4/nRF24_NRF_COMMANDS.c ****         }
 135:Generated_Source\PSoC4/nRF24_NRF_COMMANDS.c ****         data[i] = SPI_SpiUartReadRxData();
 207              		.loc 1 135 0 discriminator 2
ARM GAS  C:\Users\Xwx47\AppData\Local\Temp\ccTSjOcG.s 			page 7


 208 0038 3D19     		adds	r5, r7, r4
 209 003a FFF7FEFF 		bl	SPI_SpiUartReadRxData
 210              	.LVL20:
 211 003e 2870     		strb	r0, [r5]
 131:Generated_Source\PSoC4/nRF24_NRF_COMMANDS.c ****         SPI_SpiUartWriteTxData(NRF_NOP_CMD);
 212              		.loc 1 131 0 discriminator 2
 213 0040 0134     		adds	r4, r4, #1
 214              	.LVL21:
 215              	.L8:
 131:Generated_Source\PSoC4/nRF24_NRF_COMMANDS.c ****         SPI_SpiUartWriteTxData(NRF_NOP_CMD);
 216              		.loc 1 131 0 is_stmt 0 discriminator 1
 217 0042 B442     		cmp	r4, r6
 218 0044 F1D3     		bcc	.L10
 219              	.LBE2:
 136:Generated_Source\PSoC4/nRF24_NRF_COMMANDS.c ****     }
 137:Generated_Source\PSoC4/nRF24_NRF_COMMANDS.c ****     SS_Write(1);
 220              		.loc 1 137 0 is_stmt 1
 221 0046 0120     		movs	r0, #1
 222 0048 FFF7FEFF 		bl	SS_Write
 223              	.LVL22:
 138:Generated_Source\PSoC4/nRF24_NRF_COMMANDS.c **** 
 139:Generated_Source\PSoC4/nRF24_NRF_COMMANDS.c **** #else // UDB Block
 140:Generated_Source\PSoC4/nRF24_NRF_COMMANDS.c **** 
 141:Generated_Source\PSoC4/nRF24_NRF_COMMANDS.c ****     SPI_ClearRxBuffer();
 142:Generated_Source\PSoC4/nRF24_NRF_COMMANDS.c ****     SPI_ClearTxBuffer();
 143:Generated_Source\PSoC4/nRF24_NRF_COMMANDS.c **** 
 144:Generated_Source\PSoC4/nRF24_NRF_COMMANDS.c ****     SS_Write(0);
 145:Generated_Source\PSoC4/nRF24_NRF_COMMANDS.c ****     SPI_WriteTxData(NRF_R_RX_PAYLOAD_CMD);
 146:Generated_Source\PSoC4/nRF24_NRF_COMMANDS.c **** 
 147:Generated_Source\PSoC4/nRF24_NRF_COMMANDS.c ****     // Wait for the byte to be sent
 148:Generated_Source\PSoC4/nRF24_NRF_COMMANDS.c ****     while (!(SPI_ReadTxStatus() & SPI_STS_BYTE_COMPLETE)) {
 149:Generated_Source\PSoC4/nRF24_NRF_COMMANDS.c ****     }
 150:Generated_Source\PSoC4/nRF24_NRF_COMMANDS.c **** 
 151:Generated_Source\PSoC4/nRF24_NRF_COMMANDS.c ****     // Read the status register, just to clear the rx fifo
 152:Generated_Source\PSoC4/nRF24_NRF_COMMANDS.c ****     SPI_ReadRxData();
 153:Generated_Source\PSoC4/nRF24_NRF_COMMANDS.c ****     
 154:Generated_Source\PSoC4/nRF24_NRF_COMMANDS.c ****     for (size_t i = 0; i < size; i++) {
 155:Generated_Source\PSoC4/nRF24_NRF_COMMANDS.c ****         SPI_WriteTxData(NRF_NOP_CMD);
 156:Generated_Source\PSoC4/nRF24_NRF_COMMANDS.c ****         while (!(SPI_ReadTxStatus() & SPI_STS_BYTE_COMPLETE)) {
 157:Generated_Source\PSoC4/nRF24_NRF_COMMANDS.c ****         }
 158:Generated_Source\PSoC4/nRF24_NRF_COMMANDS.c ****         data[i] = SPI_ReadRxData();
 159:Generated_Source\PSoC4/nRF24_NRF_COMMANDS.c ****     }
 160:Generated_Source\PSoC4/nRF24_NRF_COMMANDS.c ****     SS_Write(1);
 161:Generated_Source\PSoC4/nRF24_NRF_COMMANDS.c **** 
 162:Generated_Source\PSoC4/nRF24_NRF_COMMANDS.c **** #endif
 163:Generated_Source\PSoC4/nRF24_NRF_COMMANDS.c **** }
 224              		.loc 1 163 0
 225              		@ sp needed
 226              	.LVL23:
 227              	.LVL24:
 228              	.LVL25:
 229 004c F8BD     		pop	{r3, r4, r5, r6, r7, pc}
 230              		.cfi_endproc
 231              	.LFE5:
 232              		.size	nRF24_readRXPayloadCmd, .-nRF24_readRXPayloadCmd
 233 004e C046     		.section	.text.nRF24_writeTXPayloadCmd,"ax",%progbits
 234              		.align	2
ARM GAS  C:\Users\Xwx47\AppData\Local\Temp\ccTSjOcG.s 			page 8


 235              		.global	nRF24_writeTXPayloadCmd
 236              		.code	16
 237              		.thumb_func
 238              		.type	nRF24_writeTXPayloadCmd, %function
 239              	nRF24_writeTXPayloadCmd:
 240              	.LFB6:
 164:Generated_Source\PSoC4/nRF24_NRF_COMMANDS.c **** 
 165:Generated_Source\PSoC4/nRF24_NRF_COMMANDS.c **** /**
 166:Generated_Source\PSoC4/nRF24_NRF_COMMANDS.c ****  * Write TX payload: 1 - 32 bytes.
 167:Generated_Source\PSoC4/nRF24_NRF_COMMANDS.c ****  * A write operation always starts at byte 0 used in TX payload.
 168:Generated_Source\PSoC4/nRF24_NRF_COMMANDS.c ****  *
 169:Generated_Source\PSoC4/nRF24_NRF_COMMANDS.c ****  * @param const uint8_t* data:
 170:Generated_Source\PSoC4/nRF24_NRF_COMMANDS.c ****  * @param const size_t size:
 171:Generated_Source\PSoC4/nRF24_NRF_COMMANDS.c ****  */
 172:Generated_Source\PSoC4/nRF24_NRF_COMMANDS.c **** void nRF24_writeTXPayloadCmd(const uint8_t* data, const size_t size)
 173:Generated_Source\PSoC4/nRF24_NRF_COMMANDS.c **** {
 241              		.loc 1 173 0
 242              		.cfi_startproc
 243              		@ args = 0, pretend = 0, frame = 0
 244              		@ frame_needed = 0, uses_anonymous_args = 0
 245              	.LVL26:
 246 0000 70B5     		push	{r4, r5, r6, lr}
 247              		.cfi_def_cfa_offset 16
 248              		.cfi_offset 4, -16
 249              		.cfi_offset 5, -12
 250              		.cfi_offset 6, -8
 251              		.cfi_offset 14, -4
 252 0002 0500     		movs	r5, r0
 253 0004 0C00     		movs	r4, r1
 174:Generated_Source\PSoC4/nRF24_NRF_COMMANDS.c **** #if defined(CY_SCB_SPI_H) // SCB Block
 175:Generated_Source\PSoC4/nRF24_NRF_COMMANDS.c **** 
 176:Generated_Source\PSoC4/nRF24_NRF_COMMANDS.c ****     SPI_SpiUartClearRxBuffer();
 254              		.loc 1 176 0
 255 0006 FFF7FEFF 		bl	SPI_SpiUartClearRxBuffer
 256              	.LVL27:
 177:Generated_Source\PSoC4/nRF24_NRF_COMMANDS.c ****     SPI_SpiUartClearTxBuffer();
 257              		.loc 1 177 0
 258 000a FFF7FEFF 		bl	SPI_SpiUartClearTxBuffer
 259              	.LVL28:
 178:Generated_Source\PSoC4/nRF24_NRF_COMMANDS.c **** 
 179:Generated_Source\PSoC4/nRF24_NRF_COMMANDS.c ****     SS_Write(0);
 260              		.loc 1 179 0
 261 000e 0020     		movs	r0, #0
 262 0010 FFF7FEFF 		bl	SS_Write
 263              	.LVL29:
 180:Generated_Source\PSoC4/nRF24_NRF_COMMANDS.c ****     SPI_SpiUartWriteTxData(NRF_W_TX_PAYLOAD_CMD);
 264              		.loc 1 180 0
 265 0014 A020     		movs	r0, #160
 266 0016 FFF7FEFF 		bl	SPI_SpiUartWriteTxData
 267              	.LVL30:
 181:Generated_Source\PSoC4/nRF24_NRF_COMMANDS.c ****     SPI_SpiUartPutArray(data, size);
 268              		.loc 1 181 0
 269 001a 2100     		movs	r1, r4
 270 001c 2800     		movs	r0, r5
 271 001e FFF7FEFF 		bl	SPI_SpiUartPutArray
 272              	.LVL31:
 273              	.L12:
ARM GAS  C:\Users\Xwx47\AppData\Local\Temp\ccTSjOcG.s 			page 9


 182:Generated_Source\PSoC4/nRF24_NRF_COMMANDS.c **** 
 183:Generated_Source\PSoC4/nRF24_NRF_COMMANDS.c ****     while (SPI_SpiUartGetRxBufferSize() != (1 + size)) {
 274              		.loc 1 183 0 discriminator 1
 275 0022 FFF7FEFF 		bl	SPI_SpiUartGetRxBufferSize
 276              	.LVL32:
 277 0026 631C     		adds	r3, r4, #1
 278 0028 9842     		cmp	r0, r3
 279 002a FAD1     		bne	.L12
 184:Generated_Source\PSoC4/nRF24_NRF_COMMANDS.c ****     }
 185:Generated_Source\PSoC4/nRF24_NRF_COMMANDS.c ****     SS_Write(1);
 280              		.loc 1 185 0
 281 002c 0120     		movs	r0, #1
 282 002e FFF7FEFF 		bl	SS_Write
 283              	.LVL33:
 186:Generated_Source\PSoC4/nRF24_NRF_COMMANDS.c **** 
 187:Generated_Source\PSoC4/nRF24_NRF_COMMANDS.c **** #else // UDB Block
 188:Generated_Source\PSoC4/nRF24_NRF_COMMANDS.c **** 
 189:Generated_Source\PSoC4/nRF24_NRF_COMMANDS.c ****     SPI_ClearRxBuffer();
 190:Generated_Source\PSoC4/nRF24_NRF_COMMANDS.c ****     SPI_ClearTxBuffer();
 191:Generated_Source\PSoC4/nRF24_NRF_COMMANDS.c **** 
 192:Generated_Source\PSoC4/nRF24_NRF_COMMANDS.c ****     SS_Write(0);
 193:Generated_Source\PSoC4/nRF24_NRF_COMMANDS.c ****     SPI_WriteTxData(NRF_W_TX_PAYLOAD_CMD);
 194:Generated_Source\PSoC4/nRF24_NRF_COMMANDS.c ****     SPI_PutArray(data, size);
 195:Generated_Source\PSoC4/nRF24_NRF_COMMANDS.c ****     
 196:Generated_Source\PSoC4/nRF24_NRF_COMMANDS.c ****     while (!(SPI_ReadTxStatus() & SPI_STS_BYTE_COMPLETE)) {
 197:Generated_Source\PSoC4/nRF24_NRF_COMMANDS.c ****     }
 198:Generated_Source\PSoC4/nRF24_NRF_COMMANDS.c ****     SS_Write(1);
 199:Generated_Source\PSoC4/nRF24_NRF_COMMANDS.c **** 
 200:Generated_Source\PSoC4/nRF24_NRF_COMMANDS.c **** #endif
 201:Generated_Source\PSoC4/nRF24_NRF_COMMANDS.c **** }
 284              		.loc 1 201 0
 285              		@ sp needed
 286              	.LVL34:
 287              	.LVL35:
 288 0032 70BD     		pop	{r4, r5, r6, pc}
 289              		.cfi_endproc
 290              	.LFE6:
 291              		.size	nRF24_writeTXPayloadCmd, .-nRF24_writeTXPayloadCmd
 292              		.section	.text.nRF24_readPayloadWidthCmd,"ax",%progbits
 293              		.align	2
 294              		.global	nRF24_readPayloadWidthCmd
 295              		.code	16
 296              		.thumb_func
 297              		.type	nRF24_readPayloadWidthCmd, %function
 298              	nRF24_readPayloadWidthCmd:
 299              	.LFB7:
 202:Generated_Source\PSoC4/nRF24_NRF_COMMANDS.c **** 
 203:Generated_Source\PSoC4/nRF24_NRF_COMMANDS.c **** /**
 204:Generated_Source\PSoC4/nRF24_NRF_COMMANDS.c ****  * Read RX payload width for the top R_RX_PAYLOAD in the RX FIFO.
 205:Generated_Source\PSoC4/nRF24_NRF_COMMANDS.c ****  * Note: Flush RX FIFO if the read value is larger than 32 bytes.
 206:Generated_Source\PSoC4/nRF24_NRF_COMMANDS.c ****  *
 207:Generated_Source\PSoC4/nRF24_NRF_COMMANDS.c ****  * @return uint8_t: width of the payload on the top of the RX FIFO.
 208:Generated_Source\PSoC4/nRF24_NRF_COMMANDS.c ****  */
 209:Generated_Source\PSoC4/nRF24_NRF_COMMANDS.c **** uint8_t nRF24_readPayloadWidthCmd(void)
 210:Generated_Source\PSoC4/nRF24_NRF_COMMANDS.c **** {
 300              		.loc 1 210 0
 301              		.cfi_startproc
ARM GAS  C:\Users\Xwx47\AppData\Local\Temp\ccTSjOcG.s 			page 10


 302              		@ args = 0, pretend = 0, frame = 0
 303              		@ frame_needed = 0, uses_anonymous_args = 0
 304 0000 10B5     		push	{r4, lr}
 305              		.cfi_def_cfa_offset 8
 306              		.cfi_offset 4, -8
 307              		.cfi_offset 14, -4
 308              	.LVL36:
 211:Generated_Source\PSoC4/nRF24_NRF_COMMANDS.c ****     uint8_t width = 0;
 212:Generated_Source\PSoC4/nRF24_NRF_COMMANDS.c **** 
 213:Generated_Source\PSoC4/nRF24_NRF_COMMANDS.c **** #if defined(CY_SCB_SPI_H) // SCB Block
 214:Generated_Source\PSoC4/nRF24_NRF_COMMANDS.c **** 
 215:Generated_Source\PSoC4/nRF24_NRF_COMMANDS.c ****     SPI_SpiUartClearRxBuffer();
 309              		.loc 1 215 0
 310 0002 FFF7FEFF 		bl	SPI_SpiUartClearRxBuffer
 311              	.LVL37:
 216:Generated_Source\PSoC4/nRF24_NRF_COMMANDS.c ****     SPI_SpiUartClearTxBuffer();
 312              		.loc 1 216 0
 313 0006 FFF7FEFF 		bl	SPI_SpiUartClearTxBuffer
 314              	.LVL38:
 217:Generated_Source\PSoC4/nRF24_NRF_COMMANDS.c **** 
 218:Generated_Source\PSoC4/nRF24_NRF_COMMANDS.c ****     SS_Write(0);
 315              		.loc 1 218 0
 316 000a 0020     		movs	r0, #0
 317 000c FFF7FEFF 		bl	SS_Write
 318              	.LVL39:
 219:Generated_Source\PSoC4/nRF24_NRF_COMMANDS.c ****     SPI_SpiUartWriteTxData(NRF_R_RX_PL_WID_CMD);
 319              		.loc 1 219 0
 320 0010 6020     		movs	r0, #96
 321 0012 FFF7FEFF 		bl	SPI_SpiUartWriteTxData
 322              	.LVL40:
 220:Generated_Source\PSoC4/nRF24_NRF_COMMANDS.c ****     SPI_SpiUartWriteTxData(NRF_NOP_CMD);
 323              		.loc 1 220 0
 324 0016 FF20     		movs	r0, #255
 325 0018 FFF7FEFF 		bl	SPI_SpiUartWriteTxData
 326              	.LVL41:
 327              	.L14:
 221:Generated_Source\PSoC4/nRF24_NRF_COMMANDS.c **** 
 222:Generated_Source\PSoC4/nRF24_NRF_COMMANDS.c ****     while (SPI_SpiUartGetRxBufferSize() != 2) {
 328              		.loc 1 222 0 discriminator 1
 329 001c FFF7FEFF 		bl	SPI_SpiUartGetRxBufferSize
 330              	.LVL42:
 331 0020 0228     		cmp	r0, #2
 332 0022 FBD1     		bne	.L14
 223:Generated_Source\PSoC4/nRF24_NRF_COMMANDS.c ****     }
 224:Generated_Source\PSoC4/nRF24_NRF_COMMANDS.c ****     SS_Write(1);
 333              		.loc 1 224 0
 334 0024 0138     		subs	r0, r0, #1
 335 0026 FFF7FEFF 		bl	SS_Write
 336              	.LVL43:
 225:Generated_Source\PSoC4/nRF24_NRF_COMMANDS.c **** 
 226:Generated_Source\PSoC4/nRF24_NRF_COMMANDS.c ****     // This is the STATUS Register
 227:Generated_Source\PSoC4/nRF24_NRF_COMMANDS.c ****     (void)SPI_SpiUartReadRxData();
 337              		.loc 1 227 0
 338 002a FFF7FEFF 		bl	SPI_SpiUartReadRxData
 339              	.LVL44:
 228:Generated_Source\PSoC4/nRF24_NRF_COMMANDS.c ****     // This is the data we want
 229:Generated_Source\PSoC4/nRF24_NRF_COMMANDS.c ****     width = SPI_SpiUartReadRxData();
ARM GAS  C:\Users\Xwx47\AppData\Local\Temp\ccTSjOcG.s 			page 11


 340              		.loc 1 229 0
 341 002e FFF7FEFF 		bl	SPI_SpiUartReadRxData
 342              	.LVL45:
 343 0032 C4B2     		uxtb	r4, r0
 344              	.LVL46:
 230:Generated_Source\PSoC4/nRF24_NRF_COMMANDS.c **** 
 231:Generated_Source\PSoC4/nRF24_NRF_COMMANDS.c **** #else // UDB Block
 232:Generated_Source\PSoC4/nRF24_NRF_COMMANDS.c **** 
 233:Generated_Source\PSoC4/nRF24_NRF_COMMANDS.c ****     SPI_ClearRxBuffer();
 234:Generated_Source\PSoC4/nRF24_NRF_COMMANDS.c ****     SPI_ClearTxBuffer();
 235:Generated_Source\PSoC4/nRF24_NRF_COMMANDS.c **** 
 236:Generated_Source\PSoC4/nRF24_NRF_COMMANDS.c ****     SS_Write(0);
 237:Generated_Source\PSoC4/nRF24_NRF_COMMANDS.c ****     SPI_WriteTxData(NRF_R_RX_PL_WID_CMD);
 238:Generated_Source\PSoC4/nRF24_NRF_COMMANDS.c ****     SPI_WriteTxData(NRF_NOP_CMD);
 239:Generated_Source\PSoC4/nRF24_NRF_COMMANDS.c **** 
 240:Generated_Source\PSoC4/nRF24_NRF_COMMANDS.c ****     while (!(SPI_ReadTxStatus() & SPI_STS_BYTE_COMPLETE)) {
 241:Generated_Source\PSoC4/nRF24_NRF_COMMANDS.c ****     }
 242:Generated_Source\PSoC4/nRF24_NRF_COMMANDS.c ****     SS_Write(1);
 243:Generated_Source\PSoC4/nRF24_NRF_COMMANDS.c **** 
 244:Generated_Source\PSoC4/nRF24_NRF_COMMANDS.c ****     // This is the STATUS Register
 245:Generated_Source\PSoC4/nRF24_NRF_COMMANDS.c ****     (void)SPI_ReadRxData();
 246:Generated_Source\PSoC4/nRF24_NRF_COMMANDS.c ****     // This is the data we want
 247:Generated_Source\PSoC4/nRF24_NRF_COMMANDS.c ****     width = SPI_ReadRxData();
 248:Generated_Source\PSoC4/nRF24_NRF_COMMANDS.c **** 
 249:Generated_Source\PSoC4/nRF24_NRF_COMMANDS.c **** #endif
 250:Generated_Source\PSoC4/nRF24_NRF_COMMANDS.c **** 
 251:Generated_Source\PSoC4/nRF24_NRF_COMMANDS.c ****     // If width is greater than 32 then is garbage, we must flush the RX FIFO
 252:Generated_Source\PSoC4/nRF24_NRF_COMMANDS.c ****     if (32 < width) {
 345              		.loc 1 252 0
 346 0034 202C     		cmp	r4, #32
 347 0036 01D9     		bls	.L15
 253:Generated_Source\PSoC4/nRF24_NRF_COMMANDS.c ****         nRF24_flushRxCmd();
 348              		.loc 1 253 0
 349 0038 FFF7FEFF 		bl	nRF24_flushRxCmd
 350              	.LVL47:
 351              	.L15:
 254:Generated_Source\PSoC4/nRF24_NRF_COMMANDS.c ****     }
 255:Generated_Source\PSoC4/nRF24_NRF_COMMANDS.c **** 
 256:Generated_Source\PSoC4/nRF24_NRF_COMMANDS.c ****     return width;
 257:Generated_Source\PSoC4/nRF24_NRF_COMMANDS.c **** }
 352              		.loc 1 257 0
 353 003c 2000     		movs	r0, r4
 354              		@ sp needed
 355              	.LVL48:
 356 003e 10BD     		pop	{r4, pc}
 357              		.cfi_endproc
 358              	.LFE7:
 359              		.size	nRF24_readPayloadWidthCmd, .-nRF24_readPayloadWidthCmd
 360              		.section	.text.nRF24_writeACKPayloadCmd,"ax",%progbits
 361              		.align	2
 362              		.global	nRF24_writeACKPayloadCmd
 363              		.code	16
 364              		.thumb_func
 365              		.type	nRF24_writeACKPayloadCmd, %function
 366              	nRF24_writeACKPayloadCmd:
 367              	.LFB8:
 258:Generated_Source\PSoC4/nRF24_NRF_COMMANDS.c **** 
ARM GAS  C:\Users\Xwx47\AppData\Local\Temp\ccTSjOcG.s 			page 12


 259:Generated_Source\PSoC4/nRF24_NRF_COMMANDS.c **** /**
 260:Generated_Source\PSoC4/nRF24_NRF_COMMANDS.c ****  * @brief Write Payload to be transmitted together with ACK packet.
 261:Generated_Source\PSoC4/nRF24_NRF_COMMANDS.c ****  *
 262:Generated_Source\PSoC4/nRF24_NRF_COMMANDS.c ****  * Used in RX mode.
 263:Generated_Source\PSoC4/nRF24_NRF_COMMANDS.c ****  * Write Payload to be transmitted together with ACK packet on PIPE PPP
 264:Generated_Source\PSoC4/nRF24_NRF_COMMANDS.c ****  * (PPP valid in the range from 000 to 101). Maximum three ACK  packet
 265:Generated_Source\PSoC4/nRF24_NRF_COMMANDS.c ****  * payloads can be pending. Payloads with same PPP are handled using
 266:Generated_Source\PSoC4/nRF24_NRF_COMMANDS.c ****  * first in - first out principle.
 267:Generated_Source\PSoC4/nRF24_NRF_COMMANDS.c ****  * Write payload: 1 - 32 bytes.
 268:Generated_Source\PSoC4/nRF24_NRF_COMMANDS.c ****  * A write operation always starts at byte 0.
 269:Generated_Source\PSoC4/nRF24_NRF_COMMANDS.c ****  *
 270:Generated_Source\PSoC4/nRF24_NRF_COMMANDS.c ****  * @param const NrfPipe pipe:
 271:Generated_Source\PSoC4/nRF24_NRF_COMMANDS.c ****  * @param const uint8_t* data:
 272:Generated_Source\PSoC4/nRF24_NRF_COMMANDS.c ****  * @param const size_t size:
 273:Generated_Source\PSoC4/nRF24_NRF_COMMANDS.c ****  */
 274:Generated_Source\PSoC4/nRF24_NRF_COMMANDS.c **** void nRF24_writeACKPayloadCmd(const NrfPipe pipe, const uint8_t* data,
 275:Generated_Source\PSoC4/nRF24_NRF_COMMANDS.c ****                                         const size_t size)
 276:Generated_Source\PSoC4/nRF24_NRF_COMMANDS.c **** {
 368              		.loc 1 276 0
 369              		.cfi_startproc
 370              		@ args = 0, pretend = 0, frame = 0
 371              		@ frame_needed = 0, uses_anonymous_args = 0
 372              	.LVL49:
 373 0000 70B5     		push	{r4, r5, r6, lr}
 374              		.cfi_def_cfa_offset 16
 375              		.cfi_offset 4, -16
 376              		.cfi_offset 5, -12
 377              		.cfi_offset 6, -8
 378              		.cfi_offset 14, -4
 379 0002 0500     		movs	r5, r0
 380 0004 0E00     		movs	r6, r1
 381 0006 1400     		movs	r4, r2
 277:Generated_Source\PSoC4/nRF24_NRF_COMMANDS.c **** #if defined(CY_SCB_SPI_H) // SCB Block
 278:Generated_Source\PSoC4/nRF24_NRF_COMMANDS.c **** 
 279:Generated_Source\PSoC4/nRF24_NRF_COMMANDS.c ****     SPI_SpiUartClearRxBuffer();
 382              		.loc 1 279 0
 383 0008 FFF7FEFF 		bl	SPI_SpiUartClearRxBuffer
 384              	.LVL50:
 280:Generated_Source\PSoC4/nRF24_NRF_COMMANDS.c ****     SPI_SpiUartClearTxBuffer();
 385              		.loc 1 280 0
 386 000c FFF7FEFF 		bl	SPI_SpiUartClearTxBuffer
 387              	.LVL51:
 281:Generated_Source\PSoC4/nRF24_NRF_COMMANDS.c **** 
 282:Generated_Source\PSoC4/nRF24_NRF_COMMANDS.c ****     SS_Write(0);
 388              		.loc 1 282 0
 389 0010 0020     		movs	r0, #0
 390 0012 FFF7FEFF 		bl	SS_Write
 391              	.LVL52:
 283:Generated_Source\PSoC4/nRF24_NRF_COMMANDS.c **** 
 284:Generated_Source\PSoC4/nRF24_NRF_COMMANDS.c ****     SPI_SpiUartWriteTxData(NRF_W_ACK_PAYLOAD_CMD | pipe);
 392              		.loc 1 284 0
 393 0016 5820     		movs	r0, #88
 394 0018 4042     		rsbs	r0, r0, #0
 395 001a 0543     		orrs	r5, r0
 396 001c E8B2     		uxtb	r0, r5
 397 001e FFF7FEFF 		bl	SPI_SpiUartWriteTxData
 398              	.LVL53:
ARM GAS  C:\Users\Xwx47\AppData\Local\Temp\ccTSjOcG.s 			page 13


 285:Generated_Source\PSoC4/nRF24_NRF_COMMANDS.c ****     SPI_SpiUartPutArray(data, size);
 399              		.loc 1 285 0
 400 0022 2100     		movs	r1, r4
 401 0024 3000     		movs	r0, r6
 402 0026 FFF7FEFF 		bl	SPI_SpiUartPutArray
 403              	.LVL54:
 404              	.L17:
 286:Generated_Source\PSoC4/nRF24_NRF_COMMANDS.c **** 
 287:Generated_Source\PSoC4/nRF24_NRF_COMMANDS.c ****     while (SPI_SpiUartGetRxBufferSize() != (1 + size)) {
 405              		.loc 1 287 0 discriminator 1
 406 002a FFF7FEFF 		bl	SPI_SpiUartGetRxBufferSize
 407              	.LVL55:
 408 002e 631C     		adds	r3, r4, #1
 409 0030 9842     		cmp	r0, r3
 410 0032 FAD1     		bne	.L17
 288:Generated_Source\PSoC4/nRF24_NRF_COMMANDS.c ****     }
 289:Generated_Source\PSoC4/nRF24_NRF_COMMANDS.c ****     SS_Write(1);
 411              		.loc 1 289 0
 412 0034 0120     		movs	r0, #1
 413 0036 FFF7FEFF 		bl	SS_Write
 414              	.LVL56:
 290:Generated_Source\PSoC4/nRF24_NRF_COMMANDS.c **** 
 291:Generated_Source\PSoC4/nRF24_NRF_COMMANDS.c **** #else // UDB Block
 292:Generated_Source\PSoC4/nRF24_NRF_COMMANDS.c **** 
 293:Generated_Source\PSoC4/nRF24_NRF_COMMANDS.c ****     SPI_ClearRxBuffer();
 294:Generated_Source\PSoC4/nRF24_NRF_COMMANDS.c ****     SPI_ClearTxBuffer();
 295:Generated_Source\PSoC4/nRF24_NRF_COMMANDS.c **** 
 296:Generated_Source\PSoC4/nRF24_NRF_COMMANDS.c ****     SS_Write(0);
 297:Generated_Source\PSoC4/nRF24_NRF_COMMANDS.c **** 
 298:Generated_Source\PSoC4/nRF24_NRF_COMMANDS.c ****     SPI_WriteTxData(NRF_W_ACK_PAYLOAD_CMD | pipe);
 299:Generated_Source\PSoC4/nRF24_NRF_COMMANDS.c ****     SPI_PutArray(data, size);
 300:Generated_Source\PSoC4/nRF24_NRF_COMMANDS.c ****     
 301:Generated_Source\PSoC4/nRF24_NRF_COMMANDS.c ****     while (!(SPI_ReadTxStatus() & SPI_STS_BYTE_COMPLETE)) {
 302:Generated_Source\PSoC4/nRF24_NRF_COMMANDS.c ****     }
 303:Generated_Source\PSoC4/nRF24_NRF_COMMANDS.c ****     SS_Write(1);
 304:Generated_Source\PSoC4/nRF24_NRF_COMMANDS.c **** 
 305:Generated_Source\PSoC4/nRF24_NRF_COMMANDS.c **** #endif
 306:Generated_Source\PSoC4/nRF24_NRF_COMMANDS.c **** }
 415              		.loc 1 306 0
 416              		@ sp needed
 417              	.LVL57:
 418              	.LVL58:
 419 003a 70BD     		pop	{r4, r5, r6, pc}
 420              		.cfi_endproc
 421              	.LFE8:
 422              		.size	nRF24_writeACKPayloadCmd, .-nRF24_writeACKPayloadCmd
 423              		.section	.text.nRF24_noACKPayloadCmd,"ax",%progbits
 424              		.align	2
 425              		.global	nRF24_noACKPayloadCmd
 426              		.code	16
 427              		.thumb_func
 428              		.type	nRF24_noACKPayloadCmd, %function
 429              	nRF24_noACKPayloadCmd:
 430              	.LFB9:
 307:Generated_Source\PSoC4/nRF24_NRF_COMMANDS.c **** 
 308:Generated_Source\PSoC4/nRF24_NRF_COMMANDS.c **** /**
 309:Generated_Source\PSoC4/nRF24_NRF_COMMANDS.c ****  * Used in TX mode.
ARM GAS  C:\Users\Xwx47\AppData\Local\Temp\ccTSjOcG.s 			page 14


 310:Generated_Source\PSoC4/nRF24_NRF_COMMANDS.c ****  * Disable AUTOACK on this packet.
 311:Generated_Source\PSoC4/nRF24_NRF_COMMANDS.c ****  *
 312:Generated_Source\PSoC4/nRF24_NRF_COMMANDS.c ****  * @param const uint8_t* data:
 313:Generated_Source\PSoC4/nRF24_NRF_COMMANDS.c ****  * @param const size_t size:
 314:Generated_Source\PSoC4/nRF24_NRF_COMMANDS.c ****  */
 315:Generated_Source\PSoC4/nRF24_NRF_COMMANDS.c **** void nRF24_noACKPayloadCmd(const uint8_t* data, const size_t size)
 316:Generated_Source\PSoC4/nRF24_NRF_COMMANDS.c **** {
 431              		.loc 1 316 0
 432              		.cfi_startproc
 433              		@ args = 0, pretend = 0, frame = 0
 434              		@ frame_needed = 0, uses_anonymous_args = 0
 435              	.LVL59:
 436 0000 70B5     		push	{r4, r5, r6, lr}
 437              		.cfi_def_cfa_offset 16
 438              		.cfi_offset 4, -16
 439              		.cfi_offset 5, -12
 440              		.cfi_offset 6, -8
 441              		.cfi_offset 14, -4
 442 0002 0500     		movs	r5, r0
 443 0004 0C00     		movs	r4, r1
 317:Generated_Source\PSoC4/nRF24_NRF_COMMANDS.c **** #if defined(CY_SCB_SPI_H) // SCB Block
 318:Generated_Source\PSoC4/nRF24_NRF_COMMANDS.c **** 
 319:Generated_Source\PSoC4/nRF24_NRF_COMMANDS.c ****     SPI_SpiUartClearRxBuffer();
 444              		.loc 1 319 0
 445 0006 FFF7FEFF 		bl	SPI_SpiUartClearRxBuffer
 446              	.LVL60:
 320:Generated_Source\PSoC4/nRF24_NRF_COMMANDS.c ****     SPI_SpiUartClearTxBuffer();
 447              		.loc 1 320 0
 448 000a FFF7FEFF 		bl	SPI_SpiUartClearTxBuffer
 449              	.LVL61:
 321:Generated_Source\PSoC4/nRF24_NRF_COMMANDS.c **** 
 322:Generated_Source\PSoC4/nRF24_NRF_COMMANDS.c ****     SS_Write(0);
 450              		.loc 1 322 0
 451 000e 0020     		movs	r0, #0
 452 0010 FFF7FEFF 		bl	SS_Write
 453              	.LVL62:
 323:Generated_Source\PSoC4/nRF24_NRF_COMMANDS.c **** 
 324:Generated_Source\PSoC4/nRF24_NRF_COMMANDS.c ****     SPI_SpiUartWriteTxData(NRF_W_TX_PAYLOAD_NOACK_CMD);
 454              		.loc 1 324 0
 455 0014 B020     		movs	r0, #176
 456 0016 FFF7FEFF 		bl	SPI_SpiUartWriteTxData
 457              	.LVL63:
 325:Generated_Source\PSoC4/nRF24_NRF_COMMANDS.c ****     SPI_SpiUartPutArray(data, size);
 458              		.loc 1 325 0
 459 001a 2100     		movs	r1, r4
 460 001c 2800     		movs	r0, r5
 461 001e FFF7FEFF 		bl	SPI_SpiUartPutArray
 462              	.LVL64:
 463              	.L19:
 326:Generated_Source\PSoC4/nRF24_NRF_COMMANDS.c **** 
 327:Generated_Source\PSoC4/nRF24_NRF_COMMANDS.c ****     while (SPI_SpiUartGetRxBufferSize() != (1 + size)) {
 464              		.loc 1 327 0 discriminator 1
 465 0022 FFF7FEFF 		bl	SPI_SpiUartGetRxBufferSize
 466              	.LVL65:
 467 0026 631C     		adds	r3, r4, #1
 468 0028 9842     		cmp	r0, r3
 469 002a FAD1     		bne	.L19
ARM GAS  C:\Users\Xwx47\AppData\Local\Temp\ccTSjOcG.s 			page 15


 328:Generated_Source\PSoC4/nRF24_NRF_COMMANDS.c ****     }
 329:Generated_Source\PSoC4/nRF24_NRF_COMMANDS.c ****     SS_Write(1);
 470              		.loc 1 329 0
 471 002c 0120     		movs	r0, #1
 472 002e FFF7FEFF 		bl	SS_Write
 473              	.LVL66:
 330:Generated_Source\PSoC4/nRF24_NRF_COMMANDS.c **** 
 331:Generated_Source\PSoC4/nRF24_NRF_COMMANDS.c **** #else // UDB Block
 332:Generated_Source\PSoC4/nRF24_NRF_COMMANDS.c **** 
 333:Generated_Source\PSoC4/nRF24_NRF_COMMANDS.c ****     SPI_ClearRxBuffer();
 334:Generated_Source\PSoC4/nRF24_NRF_COMMANDS.c ****     SPI_ClearTxBuffer();
 335:Generated_Source\PSoC4/nRF24_NRF_COMMANDS.c **** 
 336:Generated_Source\PSoC4/nRF24_NRF_COMMANDS.c ****     SS_Write(0);
 337:Generated_Source\PSoC4/nRF24_NRF_COMMANDS.c **** 
 338:Generated_Source\PSoC4/nRF24_NRF_COMMANDS.c ****     SPI_WriteTxData(NRF_W_TX_PAYLOAD_NOACK_CMD);
 339:Generated_Source\PSoC4/nRF24_NRF_COMMANDS.c ****     SPI_PutArray(data, size);
 340:Generated_Source\PSoC4/nRF24_NRF_COMMANDS.c ****     
 341:Generated_Source\PSoC4/nRF24_NRF_COMMANDS.c ****     while (!(SPI_ReadTxStatus() & SPI_STS_BYTE_COMPLETE)) {
 342:Generated_Source\PSoC4/nRF24_NRF_COMMANDS.c ****     }
 343:Generated_Source\PSoC4/nRF24_NRF_COMMANDS.c ****     SS_Write(1);
 344:Generated_Source\PSoC4/nRF24_NRF_COMMANDS.c **** 
 345:Generated_Source\PSoC4/nRF24_NRF_COMMANDS.c **** #endif
 346:Generated_Source\PSoC4/nRF24_NRF_COMMANDS.c **** }
 474              		.loc 1 346 0
 475              		@ sp needed
 476              	.LVL67:
 477              	.LVL68:
 478 0032 70BD     		pop	{r4, r5, r6, pc}
 479              		.cfi_endproc
 480              	.LFE9:
 481              		.size	nRF24_noACKPayloadCmd, .-nRF24_noACKPayloadCmd
 482              		.section	.text.nRF24_NOPCmd,"ax",%progbits
 483              		.align	2
 484              		.global	nRF24_NOPCmd
 485              		.code	16
 486              		.thumb_func
 487              		.type	nRF24_NOPCmd, %function
 488              	nRF24_NOPCmd:
 489              	.LFB10:
 347:Generated_Source\PSoC4/nRF24_NRF_COMMANDS.c **** 
 348:Generated_Source\PSoC4/nRF24_NRF_COMMANDS.c **** /**
 349:Generated_Source\PSoC4/nRF24_NRF_COMMANDS.c ****  * Send NOP (No OPeration) Command. Might be used to read the STATUS register.
 350:Generated_Source\PSoC4/nRF24_NRF_COMMANDS.c ****  *
 351:Generated_Source\PSoC4/nRF24_NRF_COMMANDS.c ****  * @return uint8_t: STATUS register.
 352:Generated_Source\PSoC4/nRF24_NRF_COMMANDS.c ****  */
 353:Generated_Source\PSoC4/nRF24_NRF_COMMANDS.c **** uint8_t nRF24_NOPCmd(void)
 354:Generated_Source\PSoC4/nRF24_NRF_COMMANDS.c **** {
 490              		.loc 1 354 0
 491              		.cfi_startproc
 492              		@ args = 0, pretend = 0, frame = 0
 493              		@ frame_needed = 0, uses_anonymous_args = 0
 494 0000 10B5     		push	{r4, lr}
 495              		.cfi_def_cfa_offset 8
 496              		.cfi_offset 4, -8
 497              		.cfi_offset 14, -4
 355:Generated_Source\PSoC4/nRF24_NRF_COMMANDS.c **** #if defined(CY_SCB_SPI_H) // SCB Block
 356:Generated_Source\PSoC4/nRF24_NRF_COMMANDS.c **** 
ARM GAS  C:\Users\Xwx47\AppData\Local\Temp\ccTSjOcG.s 			page 16


 357:Generated_Source\PSoC4/nRF24_NRF_COMMANDS.c ****     SPI_SpiUartClearRxBuffer();
 498              		.loc 1 357 0
 499 0002 FFF7FEFF 		bl	SPI_SpiUartClearRxBuffer
 500              	.LVL69:
 358:Generated_Source\PSoC4/nRF24_NRF_COMMANDS.c ****     SPI_SpiUartClearTxBuffer();
 501              		.loc 1 358 0
 502 0006 FFF7FEFF 		bl	SPI_SpiUartClearTxBuffer
 503              	.LVL70:
 359:Generated_Source\PSoC4/nRF24_NRF_COMMANDS.c **** 
 360:Generated_Source\PSoC4/nRF24_NRF_COMMANDS.c ****     SS_Write(0);
 504              		.loc 1 360 0
 505 000a 0020     		movs	r0, #0
 506 000c FFF7FEFF 		bl	SS_Write
 507              	.LVL71:
 361:Generated_Source\PSoC4/nRF24_NRF_COMMANDS.c ****     SPI_SpiUartWriteTxData(NRF_NOP_CMD);
 508              		.loc 1 361 0
 509 0010 FF20     		movs	r0, #255
 510 0012 FFF7FEFF 		bl	SPI_SpiUartWriteTxData
 511              	.LVL72:
 512              	.L21:
 362:Generated_Source\PSoC4/nRF24_NRF_COMMANDS.c **** 
 363:Generated_Source\PSoC4/nRF24_NRF_COMMANDS.c ****     while (SPI_SpiUartGetRxBufferSize() != 1) {
 513              		.loc 1 363 0 discriminator 1
 514 0016 FFF7FEFF 		bl	SPI_SpiUartGetRxBufferSize
 515              	.LVL73:
 516 001a 0128     		cmp	r0, #1
 517 001c FBD1     		bne	.L21
 364:Generated_Source\PSoC4/nRF24_NRF_COMMANDS.c ****     }
 365:Generated_Source\PSoC4/nRF24_NRF_COMMANDS.c ****     SS_Write(1);
 518              		.loc 1 365 0
 519 001e FFF7FEFF 		bl	SS_Write
 520              	.LVL74:
 366:Generated_Source\PSoC4/nRF24_NRF_COMMANDS.c **** 
 367:Generated_Source\PSoC4/nRF24_NRF_COMMANDS.c ****     return SPI_SpiUartReadRxData();
 521              		.loc 1 367 0
 522 0022 FFF7FEFF 		bl	SPI_SpiUartReadRxData
 523              	.LVL75:
 524 0026 C0B2     		uxtb	r0, r0
 368:Generated_Source\PSoC4/nRF24_NRF_COMMANDS.c **** 
 369:Generated_Source\PSoC4/nRF24_NRF_COMMANDS.c **** #else // UDB Block
 370:Generated_Source\PSoC4/nRF24_NRF_COMMANDS.c **** 
 371:Generated_Source\PSoC4/nRF24_NRF_COMMANDS.c ****     SPI_ClearRxBuffer();
 372:Generated_Source\PSoC4/nRF24_NRF_COMMANDS.c ****     SPI_ClearTxBuffer();
 373:Generated_Source\PSoC4/nRF24_NRF_COMMANDS.c **** 
 374:Generated_Source\PSoC4/nRF24_NRF_COMMANDS.c ****     SS_Write(0);
 375:Generated_Source\PSoC4/nRF24_NRF_COMMANDS.c ****     SPI_WriteTxData(NRF_NOP_CMD);
 376:Generated_Source\PSoC4/nRF24_NRF_COMMANDS.c **** 
 377:Generated_Source\PSoC4/nRF24_NRF_COMMANDS.c ****     while (!(SPI_ReadTxStatus() & SPI_STS_BYTE_COMPLETE)) {
 378:Generated_Source\PSoC4/nRF24_NRF_COMMANDS.c ****     }
 379:Generated_Source\PSoC4/nRF24_NRF_COMMANDS.c ****     SS_Write(1);
 380:Generated_Source\PSoC4/nRF24_NRF_COMMANDS.c **** 
 381:Generated_Source\PSoC4/nRF24_NRF_COMMANDS.c ****     return SPI_ReadRxData();
 382:Generated_Source\PSoC4/nRF24_NRF_COMMANDS.c **** 
 383:Generated_Source\PSoC4/nRF24_NRF_COMMANDS.c **** #endif
 384:Generated_Source\PSoC4/nRF24_NRF_COMMANDS.c **** }
 525              		.loc 1 384 0
 526              		@ sp needed
ARM GAS  C:\Users\Xwx47\AppData\Local\Temp\ccTSjOcG.s 			page 17


 527 0028 10BD     		pop	{r4, pc}
 528              		.cfi_endproc
 529              	.LFE10:
 530              		.size	nRF24_NOPCmd, .-nRF24_NOPCmd
 531 002a C046     		.text
 532              	.Letext0:
 533              		.file 2 "c:\\program files (x86)\\cypress\\psoc creator\\4.1\\psoc creator\\import\\gnu\\arm\\5.4.
 534              		.file 3 "c:\\program files (x86)\\cypress\\psoc creator\\4.1\\psoc creator\\import\\gnu\\arm\\5.4.
 535              		.file 4 "c:\\program files (x86)\\cypress\\psoc creator\\4.1\\psoc creator\\import\\gnu\\arm\\5.4.
 536              		.file 5 "Generated_Source\\PSoC4\\nRF24_NRF_REGS.h"
 537              		.file 6 "Generated_Source\\PSoC4/SPI_SPI_UART.h"
 538              		.file 7 "Generated_Source\\PSoC4/SS.h"