ARM GAS  C:\Users\Xwx47\AppData\Local\Temp\ccYRwhps.s 			page 1


   1              		.syntax unified
   2              		.cpu cortex-m0plus
   3              		.fpu softvfp
   4              		.eabi_attribute 20, 1
   5              		.eabi_attribute 21, 1
   6              		.eabi_attribute 23, 3
   7              		.eabi_attribute 24, 1
   8              		.eabi_attribute 25, 1
   9              		.eabi_attribute 26, 1
  10              		.eabi_attribute 30, 1
  11              		.eabi_attribute 34, 0
  12              		.eabi_attribute 18, 4
  13              		.thumb
  14              		.syntax unified
  15              		.file	"nRF24_LL_SPI.c"
  16              		.text
  17              	.Ltext0:
  18              		.cfi_sections	.debug_frame
  19              		.section	.text.nRF24_readRegister,"ax",%progbits
  20              		.align	2
  21              		.global	nRF24_readRegister
  22              		.code	16
  23              		.thumb_func
  24              		.type	nRF24_readRegister, %function
  25              	nRF24_readRegister:
  26              	.LFB1:
  27              		.file 1 "Generated_Source\\PSoC4\\nRF24_LL_SPI.c"
   1:Generated_Source\PSoC4/nRF24_LL_SPI.c **** /****************************************************************************
   2:Generated_Source\PSoC4/nRF24_LL_SPI.c **** * This file is part of the nRF24 Custom Component for PSoC Devices.
   3:Generated_Source\PSoC4/nRF24_LL_SPI.c **** *
   4:Generated_Source\PSoC4/nRF24_LL_SPI.c **** * Copyright (C) 2017 Carlos Diaz <carlos.santiago.diaz@gmail.com>
   5:Generated_Source\PSoC4/nRF24_LL_SPI.c **** *
   6:Generated_Source\PSoC4/nRF24_LL_SPI.c **** * Permission to use, copy, modify, and/or distribute this software for any
   7:Generated_Source\PSoC4/nRF24_LL_SPI.c **** * purpose with or without fee is hereby granted, provided that the above
   8:Generated_Source\PSoC4/nRF24_LL_SPI.c **** * copyright notice and this permission notice appear in all copies.
   9:Generated_Source\PSoC4/nRF24_LL_SPI.c **** *
  10:Generated_Source\PSoC4/nRF24_LL_SPI.c **** * THE SOFTWARE IS PROVIDED "AS IS" AND THE AUTHOR DISCLAIMS ALL WARRANTIES
  11:Generated_Source\PSoC4/nRF24_LL_SPI.c **** * WITH REGARD TO THIS SOFTWARE INCLUDING ALL IMPLIED WARRANTIES OF
  12:Generated_Source\PSoC4/nRF24_LL_SPI.c **** * MERCHANTABILITY AND FITNESS. IN NO EVENT SHALL THE AUTHOR BE LIABLE FOR
  13:Generated_Source\PSoC4/nRF24_LL_SPI.c **** * ANY SPECIAL, DIRECT, INDIRECT, OR CONSEQUENTIAL DAMAGES OR ANY DAMAGES
  14:Generated_Source\PSoC4/nRF24_LL_SPI.c **** * WHATSOEVER RESULTING FROM LOSS OF USE, DATA OR PROFITS, WHETHER IN AN
  15:Generated_Source\PSoC4/nRF24_LL_SPI.c **** * ACTION OF CONTRACT, NEGLIGENCE OR OTHER TORTIOUS ACTION, ARISING OUT OF
  16:Generated_Source\PSoC4/nRF24_LL_SPI.c **** * OR IN CONNECTION WITH THE USE OR PERFORMANCE OF THIS SOFTWARE.
  17:Generated_Source\PSoC4/nRF24_LL_SPI.c **** ****************************************************************************/
  18:Generated_Source\PSoC4/nRF24_LL_SPI.c **** 
  19:Generated_Source\PSoC4/nRF24_LL_SPI.c **** /**
  20:Generated_Source\PSoC4/nRF24_LL_SPI.c **** * @file nRF24_LL_SPI.c
  21:Generated_Source\PSoC4/nRF24_LL_SPI.c **** *
  22:Generated_Source\PSoC4/nRF24_LL_SPI.c **** * @brief The nRF24 radio is controlled via SPI, this file have all the SPI
  23:Generated_Source\PSoC4/nRF24_LL_SPI.c **** * communication between the PSoC and the nRF24 radio.
  24:Generated_Source\PSoC4/nRF24_LL_SPI.c **** */
  25:Generated_Source\PSoC4/nRF24_LL_SPI.c **** 
  26:Generated_Source\PSoC4/nRF24_LL_SPI.c **** #include <CE.h>
  27:Generated_Source\PSoC4/nRF24_LL_SPI.c **** #include <SPI.h>
  28:Generated_Source\PSoC4/nRF24_LL_SPI.c **** #include <SS.h>
  29:Generated_Source\PSoC4/nRF24_LL_SPI.c **** 
  30:Generated_Source\PSoC4/nRF24_LL_SPI.c **** #if defined(CY_SCB_SPI_H)
ARM GAS  C:\Users\Xwx47\AppData\Local\Temp\ccYRwhps.s 			page 2


  31:Generated_Source\PSoC4/nRF24_LL_SPI.c **** #include <SPI_SPI_UART.h>
  32:Generated_Source\PSoC4/nRF24_LL_SPI.c **** #endif
  33:Generated_Source\PSoC4/nRF24_LL_SPI.c **** 
  34:Generated_Source\PSoC4/nRF24_LL_SPI.c **** #include "nRF24_LL_SPI.h"
  35:Generated_Source\PSoC4/nRF24_LL_SPI.c **** 
  36:Generated_Source\PSoC4/nRF24_LL_SPI.c **** /**
  37:Generated_Source\PSoC4/nRF24_LL_SPI.c ****  * Read 1byte of an nRF24 register.
  38:Generated_Source\PSoC4/nRF24_LL_SPI.c ****  *
  39:Generated_Source\PSoC4/nRF24_LL_SPI.c ****  * @param const NrfRegister reg: Register to be read.
  40:Generated_Source\PSoC4/nRF24_LL_SPI.c ****  *
  41:Generated_Source\PSoC4/nRF24_LL_SPI.c ****  * @return uint8_t: Content of the register.
  42:Generated_Source\PSoC4/nRF24_LL_SPI.c ****  */
  43:Generated_Source\PSoC4/nRF24_LL_SPI.c **** uint8_t nRF24_readRegister(const NrfRegister reg)
  44:Generated_Source\PSoC4/nRF24_LL_SPI.c **** {
  28              		.loc 1 44 0
  29              		.cfi_startproc
  30              		@ args = 0, pretend = 0, frame = 0
  31              		@ frame_needed = 0, uses_anonymous_args = 0
  32              	.LVL0:
  33 0000 10B5     		push	{r4, lr}
  34              		.cfi_def_cfa_offset 8
  35              		.cfi_offset 4, -8
  36              		.cfi_offset 14, -4
  37 0002 0400     		movs	r4, r0
  45:Generated_Source\PSoC4/nRF24_LL_SPI.c **** #if defined(CY_SCB_SPI_H) // SCB Block
  46:Generated_Source\PSoC4/nRF24_LL_SPI.c **** 
  47:Generated_Source\PSoC4/nRF24_LL_SPI.c ****     SPI_SpiUartClearRxBuffer();
  38              		.loc 1 47 0
  39 0004 FFF7FEFF 		bl	SPI_SpiUartClearRxBuffer
  40              	.LVL1:
  48:Generated_Source\PSoC4/nRF24_LL_SPI.c ****     SPI_SpiUartClearTxBuffer();
  41              		.loc 1 48 0
  42 0008 FFF7FEFF 		bl	SPI_SpiUartClearTxBuffer
  43              	.LVL2:
  49:Generated_Source\PSoC4/nRF24_LL_SPI.c **** 
  50:Generated_Source\PSoC4/nRF24_LL_SPI.c ****     SS_Write(0);
  44              		.loc 1 50 0
  45 000c 0020     		movs	r0, #0
  46 000e FFF7FEFF 		bl	SS_Write
  47              	.LVL3:
  51:Generated_Source\PSoC4/nRF24_LL_SPI.c ****     SPI_SpiUartWriteTxData(NRF_R_REGISTER_CMD | reg);
  48              		.loc 1 51 0
  49 0012 2000     		movs	r0, r4
  50 0014 FFF7FEFF 		bl	SPI_SpiUartWriteTxData
  51              	.LVL4:
  52:Generated_Source\PSoC4/nRF24_LL_SPI.c ****     SPI_SpiUartWriteTxData(NRF_NOP_CMD);
  52              		.loc 1 52 0
  53 0018 FF20     		movs	r0, #255
  54 001a FFF7FEFF 		bl	SPI_SpiUartWriteTxData
  55              	.LVL5:
  56              	.L2:
  53:Generated_Source\PSoC4/nRF24_LL_SPI.c **** 
  54:Generated_Source\PSoC4/nRF24_LL_SPI.c ****     while (SPI_SpiUartGetRxBufferSize() != 2) {
  57              		.loc 1 54 0 discriminator 1
  58 001e FFF7FEFF 		bl	SPI_SpiUartGetRxBufferSize
  59              	.LVL6:
  60 0022 0228     		cmp	r0, #2
ARM GAS  C:\Users\Xwx47\AppData\Local\Temp\ccYRwhps.s 			page 3


  61 0024 FBD1     		bne	.L2
  55:Generated_Source\PSoC4/nRF24_LL_SPI.c ****     }
  56:Generated_Source\PSoC4/nRF24_LL_SPI.c ****     SS_Write(1);
  62              		.loc 1 56 0
  63 0026 0138     		subs	r0, r0, #1
  64 0028 FFF7FEFF 		bl	SS_Write
  65              	.LVL7:
  57:Generated_Source\PSoC4/nRF24_LL_SPI.c **** 
  58:Generated_Source\PSoC4/nRF24_LL_SPI.c ****     // This is the STATUS Register
  59:Generated_Source\PSoC4/nRF24_LL_SPI.c ****     (void)SPI_SpiUartReadRxData();
  66              		.loc 1 59 0
  67 002c FFF7FEFF 		bl	SPI_SpiUartReadRxData
  68              	.LVL8:
  60:Generated_Source\PSoC4/nRF24_LL_SPI.c ****     // This is the data we want
  61:Generated_Source\PSoC4/nRF24_LL_SPI.c ****     return SPI_SpiUartReadRxData();
  69              		.loc 1 61 0
  70 0030 FFF7FEFF 		bl	SPI_SpiUartReadRxData
  71              	.LVL9:
  72 0034 C0B2     		uxtb	r0, r0
  62:Generated_Source\PSoC4/nRF24_LL_SPI.c **** 
  63:Generated_Source\PSoC4/nRF24_LL_SPI.c **** #else // UDB Block
  64:Generated_Source\PSoC4/nRF24_LL_SPI.c **** 
  65:Generated_Source\PSoC4/nRF24_LL_SPI.c ****     SPI_ClearRxBuffer();
  66:Generated_Source\PSoC4/nRF24_LL_SPI.c ****     SPI_ClearTxBuffer();
  67:Generated_Source\PSoC4/nRF24_LL_SPI.c **** 
  68:Generated_Source\PSoC4/nRF24_LL_SPI.c ****     SS_Write(0);
  69:Generated_Source\PSoC4/nRF24_LL_SPI.c ****     SPI_WriteTxData(NRF_R_REGISTER_CMD | reg);
  70:Generated_Source\PSoC4/nRF24_LL_SPI.c ****     SPI_WriteTxData(NRF_NOP_CMD);
  71:Generated_Source\PSoC4/nRF24_LL_SPI.c **** 
  72:Generated_Source\PSoC4/nRF24_LL_SPI.c ****     while (!(SPI_ReadTxStatus() & SPI_STS_SPI_IDLE)) {
  73:Generated_Source\PSoC4/nRF24_LL_SPI.c ****     }
  74:Generated_Source\PSoC4/nRF24_LL_SPI.c ****     SS_Write(1);
  75:Generated_Source\PSoC4/nRF24_LL_SPI.c **** 
  76:Generated_Source\PSoC4/nRF24_LL_SPI.c ****     // This is the STATUS Register
  77:Generated_Source\PSoC4/nRF24_LL_SPI.c ****     (void)SPI_ReadRxData();
  78:Generated_Source\PSoC4/nRF24_LL_SPI.c ****     // This is the data we want
  79:Generated_Source\PSoC4/nRF24_LL_SPI.c ****     return SPI_ReadRxData();
  80:Generated_Source\PSoC4/nRF24_LL_SPI.c **** 
  81:Generated_Source\PSoC4/nRF24_LL_SPI.c **** #endif
  82:Generated_Source\PSoC4/nRF24_LL_SPI.c **** }
  73              		.loc 1 82 0
  74              		@ sp needed
  75 0036 10BD     		pop	{r4, pc}
  76              		.cfi_endproc
  77              	.LFE1:
  78              		.size	nRF24_readRegister, .-nRF24_readRegister
  79              		.section	.text.nRF24_readLongRegister,"ax",%progbits
  80              		.align	2
  81              		.global	nRF24_readLongRegister
  82              		.code	16
  83              		.thumb_func
  84              		.type	nRF24_readLongRegister, %function
  85              	nRF24_readLongRegister:
  86              	.LFB2:
  83:Generated_Source\PSoC4/nRF24_LL_SPI.c **** 
  84:Generated_Source\PSoC4/nRF24_LL_SPI.c **** /**
  85:Generated_Source\PSoC4/nRF24_LL_SPI.c ****  * Read more than 1byte of a nRF24 register.
ARM GAS  C:\Users\Xwx47\AppData\Local\Temp\ccYRwhps.s 			page 4


  86:Generated_Source\PSoC4/nRF24_LL_SPI.c ****  *
  87:Generated_Source\PSoC4/nRF24_LL_SPI.c ****  * @param const NrfRegister reg: Register to be read.
  88:Generated_Source\PSoC4/nRF24_LL_SPI.c ****  * @param uint8_t* data: Pointer to where the content of the register
  89:Generated_Source\PSoC4/nRF24_LL_SPI.c ****  * will be stored.
  90:Generated_Source\PSoC4/nRF24_LL_SPI.c ****  * @param size_t size: Size of the register, larger register hold 5 bytes of
  91:Generated_Source\PSoC4/nRF24_LL_SPI.c ****  * data.
  92:Generated_Source\PSoC4/nRF24_LL_SPI.c ****  */
  93:Generated_Source\PSoC4/nRF24_LL_SPI.c **** void nRF24_readLongRegister(const NrfRegister reg,
  94:Generated_Source\PSoC4/nRF24_LL_SPI.c ****                                         uint8_t* data,
  95:Generated_Source\PSoC4/nRF24_LL_SPI.c ****                                        const size_t size)
  96:Generated_Source\PSoC4/nRF24_LL_SPI.c **** {
  87              		.loc 1 96 0
  88              		.cfi_startproc
  89              		@ args = 0, pretend = 0, frame = 0
  90              		@ frame_needed = 0, uses_anonymous_args = 0
  91              	.LVL10:
  92 0000 F8B5     		push	{r3, r4, r5, r6, r7, lr}
  93              		.cfi_def_cfa_offset 24
  94              		.cfi_offset 3, -24
  95              		.cfi_offset 4, -20
  96              		.cfi_offset 5, -16
  97              		.cfi_offset 6, -12
  98              		.cfi_offset 7, -8
  99              		.cfi_offset 14, -4
 100 0002 0F00     		movs	r7, r1
 101 0004 1600     		movs	r6, r2
  97:Generated_Source\PSoC4/nRF24_LL_SPI.c **** #if defined(CY_SCB_SPI_H) // SCB Block
  98:Generated_Source\PSoC4/nRF24_LL_SPI.c **** 
  99:Generated_Source\PSoC4/nRF24_LL_SPI.c ****     #if 0
 100:Generated_Source\PSoC4/nRF24_LL_SPI.c ****     SPI_SpiUartClearRxBuffer();
 101:Generated_Source\PSoC4/nRF24_LL_SPI.c ****     SPI_SpiUartClearTxBuffer();
 102:Generated_Source\PSoC4/nRF24_LL_SPI.c **** 
 103:Generated_Source\PSoC4/nRF24_LL_SPI.c ****     SS_Write(0);
 104:Generated_Source\PSoC4/nRF24_LL_SPI.c ****     SPI_SpiUartWriteTxData(NRF_R_REGISTER_CMD | reg);
 105:Generated_Source\PSoC4/nRF24_LL_SPI.c **** 
 106:Generated_Source\PSoC4/nRF24_LL_SPI.c ****     for (size_t i = 0; i < size; i++) {
 107:Generated_Source\PSoC4/nRF24_LL_SPI.c ****         SPI_SpiUartWriteTxData(NRF_NOP_CMD);
 108:Generated_Source\PSoC4/nRF24_LL_SPI.c ****     }
 109:Generated_Source\PSoC4/nRF24_LL_SPI.c **** 
 110:Generated_Source\PSoC4/nRF24_LL_SPI.c ****     while (SPI_SpiUartGetRxBufferSize() != (1 + size)) {
 111:Generated_Source\PSoC4/nRF24_LL_SPI.c ****     }
 112:Generated_Source\PSoC4/nRF24_LL_SPI.c ****     SS_Write(1);
 113:Generated_Source\PSoC4/nRF24_LL_SPI.c **** 
 114:Generated_Source\PSoC4/nRF24_LL_SPI.c ****     // This is the STATUS Register
 115:Generated_Source\PSoC4/nRF24_LL_SPI.c ****     (void)SPI_SpiUartReadRxData();
 116:Generated_Source\PSoC4/nRF24_LL_SPI.c ****     // This is the data we want
 117:Generated_Source\PSoC4/nRF24_LL_SPI.c ****     for (size_t j = 0; j < size; j++) {
 118:Generated_Source\PSoC4/nRF24_LL_SPI.c ****         data[j] = SPI_SpiUartReadRxData();
 119:Generated_Source\PSoC4/nRF24_LL_SPI.c ****     }
 120:Generated_Source\PSoC4/nRF24_LL_SPI.c ****     
 121:Generated_Source\PSoC4/nRF24_LL_SPI.c ****     #else
 122:Generated_Source\PSoC4/nRF24_LL_SPI.c ****         
 123:Generated_Source\PSoC4/nRF24_LL_SPI.c ****     SPI_SpiUartClearRxBuffer();
 102              		.loc 1 123 0
 103 0006 FFF7FEFF 		bl	SPI_SpiUartClearRxBuffer
 104              	.LVL11:
 124:Generated_Source\PSoC4/nRF24_LL_SPI.c ****     SPI_SpiUartClearTxBuffer();
ARM GAS  C:\Users\Xwx47\AppData\Local\Temp\ccYRwhps.s 			page 5


 105              		.loc 1 124 0
 106 000a FFF7FEFF 		bl	SPI_SpiUartClearTxBuffer
 107              	.LVL12:
 125:Generated_Source\PSoC4/nRF24_LL_SPI.c ****     
 126:Generated_Source\PSoC4/nRF24_LL_SPI.c ****     SS_Write(0);
 108              		.loc 1 126 0
 109 000e 0020     		movs	r0, #0
 110 0010 FFF7FEFF 		bl	SS_Write
 111              	.LVL13:
 127:Generated_Source\PSoC4/nRF24_LL_SPI.c ****     
 128:Generated_Source\PSoC4/nRF24_LL_SPI.c ****     SPI_SpiUartWriteTxData(NRF_R_REGISTER_CMD | NRF_RX_ADDR_P4_REG);
 112              		.loc 1 128 0
 113 0014 0E20     		movs	r0, #14
 114 0016 FFF7FEFF 		bl	SPI_SpiUartWriteTxData
 115              	.LVL14:
 116              	.L4:
 129:Generated_Source\PSoC4/nRF24_LL_SPI.c ****     while (SPI_SpiUartGetRxBufferSize() == 0){}
 117              		.loc 1 129 0 discriminator 1
 118 001a FFF7FEFF 		bl	SPI_SpiUartGetRxBufferSize
 119              	.LVL15:
 120 001e 0028     		cmp	r0, #0
 121 0020 FBD0     		beq	.L4
 130:Generated_Source\PSoC4/nRF24_LL_SPI.c ****     
 131:Generated_Source\PSoC4/nRF24_LL_SPI.c ****     // Read the status register, just to clear the rx fifo
 132:Generated_Source\PSoC4/nRF24_LL_SPI.c ****     SPI_SpiUartReadRxData();
 122              		.loc 1 132 0
 123 0022 FFF7FEFF 		bl	SPI_SpiUartReadRxData
 124              	.LVL16:
 125              	.LBB2:
 133:Generated_Source\PSoC4/nRF24_LL_SPI.c ****     //SPI_SpiUartClearRxBuffer();
 134:Generated_Source\PSoC4/nRF24_LL_SPI.c ****     
 135:Generated_Source\PSoC4/nRF24_LL_SPI.c ****     for (size_t i = 0; i < size; i++) {
 126              		.loc 1 135 0
 127 0026 0024     		movs	r4, #0
 128 0028 0BE0     		b	.L5
 129              	.LVL17:
 130              	.L7:
 136:Generated_Source\PSoC4/nRF24_LL_SPI.c ****         SPI_SpiUartWriteTxData(NRF_NOP_CMD);
 131              		.loc 1 136 0
 132 002a FF20     		movs	r0, #255
 133 002c FFF7FEFF 		bl	SPI_SpiUartWriteTxData
 134              	.LVL18:
 135              	.L6:
 137:Generated_Source\PSoC4/nRF24_LL_SPI.c ****         while (SPI_SpiUartGetRxBufferSize() == 0){}
 136              		.loc 1 137 0 discriminator 1
 137 0030 FFF7FEFF 		bl	SPI_SpiUartGetRxBufferSize
 138              	.LVL19:
 139 0034 0028     		cmp	r0, #0
 140 0036 FBD0     		beq	.L6
 138:Generated_Source\PSoC4/nRF24_LL_SPI.c ****         data[i] = SPI_SpiUartReadRxData();
 141              		.loc 1 138 0 discriminator 2
 142 0038 3D19     		adds	r5, r7, r4
 143 003a FFF7FEFF 		bl	SPI_SpiUartReadRxData
 144              	.LVL20:
 145 003e 2870     		strb	r0, [r5]
 135:Generated_Source\PSoC4/nRF24_LL_SPI.c ****         SPI_SpiUartWriteTxData(NRF_NOP_CMD);
 146              		.loc 1 135 0 discriminator 2
ARM GAS  C:\Users\Xwx47\AppData\Local\Temp\ccYRwhps.s 			page 6


 147 0040 0134     		adds	r4, r4, #1
 148              	.LVL21:
 149              	.L5:
 135:Generated_Source\PSoC4/nRF24_LL_SPI.c ****         SPI_SpiUartWriteTxData(NRF_NOP_CMD);
 150              		.loc 1 135 0 is_stmt 0 discriminator 1
 151 0042 B442     		cmp	r4, r6
 152 0044 F1D3     		bcc	.L7
 153              	.LBE2:
 139:Generated_Source\PSoC4/nRF24_LL_SPI.c ****     }
 140:Generated_Source\PSoC4/nRF24_LL_SPI.c **** 
 141:Generated_Source\PSoC4/nRF24_LL_SPI.c ****     SS_Write(1);
 154              		.loc 1 141 0 is_stmt 1
 155 0046 0120     		movs	r0, #1
 156 0048 FFF7FEFF 		bl	SS_Write
 157              	.LVL22:
 142:Generated_Source\PSoC4/nRF24_LL_SPI.c ****         
 143:Generated_Source\PSoC4/nRF24_LL_SPI.c ****     #endif
 144:Generated_Source\PSoC4/nRF24_LL_SPI.c **** 
 145:Generated_Source\PSoC4/nRF24_LL_SPI.c **** #else // UDB Block
 146:Generated_Source\PSoC4/nRF24_LL_SPI.c ****     
 147:Generated_Source\PSoC4/nRF24_LL_SPI.c ****     #if 0
 148:Generated_Source\PSoC4/nRF24_LL_SPI.c **** 
 149:Generated_Source\PSoC4/nRF24_LL_SPI.c ****     SPI_ClearRxBuffer();
 150:Generated_Source\PSoC4/nRF24_LL_SPI.c ****     SPI_ClearTxBuffer();
 151:Generated_Source\PSoC4/nRF24_LL_SPI.c **** 
 152:Generated_Source\PSoC4/nRF24_LL_SPI.c ****     SS_Write(0);
 153:Generated_Source\PSoC4/nRF24_LL_SPI.c ****     SPI_WriteTxData(NRF_R_REGISTER_CMD | reg);
 154:Generated_Source\PSoC4/nRF24_LL_SPI.c **** 
 155:Generated_Source\PSoC4/nRF24_LL_SPI.c ****     for (size_t i = 0; i < size; i++) {
 156:Generated_Source\PSoC4/nRF24_LL_SPI.c ****         SPI_WriteTxData(NRF_NOP_CMD);
 157:Generated_Source\PSoC4/nRF24_LL_SPI.c ****     }
 158:Generated_Source\PSoC4/nRF24_LL_SPI.c **** 
 159:Generated_Source\PSoC4/nRF24_LL_SPI.c ****     while (!(SPI_ReadTxStatus() & SPI_STS_SPI_IDLE)) {
 160:Generated_Source\PSoC4/nRF24_LL_SPI.c ****     }
 161:Generated_Source\PSoC4/nRF24_LL_SPI.c ****     SS_Write(1);
 162:Generated_Source\PSoC4/nRF24_LL_SPI.c **** 
 163:Generated_Source\PSoC4/nRF24_LL_SPI.c ****     // This is the STATUS Register
 164:Generated_Source\PSoC4/nRF24_LL_SPI.c ****     (void)SPI_ReadRxData();
 165:Generated_Source\PSoC4/nRF24_LL_SPI.c ****     // This is the data we want
 166:Generated_Source\PSoC4/nRF24_LL_SPI.c ****     for (size_t j = 0; j < size; j++) {
 167:Generated_Source\PSoC4/nRF24_LL_SPI.c ****         data[j] = SPI_ReadRxData();
 168:Generated_Source\PSoC4/nRF24_LL_SPI.c ****     }
 169:Generated_Source\PSoC4/nRF24_LL_SPI.c ****     
 170:Generated_Source\PSoC4/nRF24_LL_SPI.c ****     #else
 171:Generated_Source\PSoC4/nRF24_LL_SPI.c **** 
 172:Generated_Source\PSoC4/nRF24_LL_SPI.c ****     SPI_ClearFIFO();
 173:Generated_Source\PSoC4/nRF24_LL_SPI.c **** 
 174:Generated_Source\PSoC4/nRF24_LL_SPI.c ****     SS_Write(0);
 175:Generated_Source\PSoC4/nRF24_LL_SPI.c ****     SPI_WriteTxData(NRF_R_REGISTER_CMD | reg);
 176:Generated_Source\PSoC4/nRF24_LL_SPI.c **** 
 177:Generated_Source\PSoC4/nRF24_LL_SPI.c ****     // Wait for the byte to be sent
 178:Generated_Source\PSoC4/nRF24_LL_SPI.c ****     while (!(SPI_ReadTxStatus() & SPI_STS_BYTE_COMPLETE)) {}
 179:Generated_Source\PSoC4/nRF24_LL_SPI.c **** 
 180:Generated_Source\PSoC4/nRF24_LL_SPI.c ****     // Read the status register, just to clear the rx fifo
 181:Generated_Source\PSoC4/nRF24_LL_SPI.c ****     SPI_ReadRxData();
 182:Generated_Source\PSoC4/nRF24_LL_SPI.c ****     
 183:Generated_Source\PSoC4/nRF24_LL_SPI.c ****     for (size_t i = 0; i < size; i++) {
ARM GAS  C:\Users\Xwx47\AppData\Local\Temp\ccYRwhps.s 			page 7


 184:Generated_Source\PSoC4/nRF24_LL_SPI.c ****         SPI_WriteTxData(NRF_NOP_CMD);
 185:Generated_Source\PSoC4/nRF24_LL_SPI.c ****         while (!(SPI_ReadTxStatus() & SPI_STS_BYTE_COMPLETE)) {}
 186:Generated_Source\PSoC4/nRF24_LL_SPI.c ****         data[i] = SPI_ReadRxData();
 187:Generated_Source\PSoC4/nRF24_LL_SPI.c ****     }
 188:Generated_Source\PSoC4/nRF24_LL_SPI.c **** 
 189:Generated_Source\PSoC4/nRF24_LL_SPI.c ****     SS_Write(1);
 190:Generated_Source\PSoC4/nRF24_LL_SPI.c **** 
 191:Generated_Source\PSoC4/nRF24_LL_SPI.c ****     #endif
 192:Generated_Source\PSoC4/nRF24_LL_SPI.c **** 
 193:Generated_Source\PSoC4/nRF24_LL_SPI.c **** #endif
 194:Generated_Source\PSoC4/nRF24_LL_SPI.c **** }
 158              		.loc 1 194 0
 159              		@ sp needed
 160              	.LVL23:
 161              	.LVL24:
 162              	.LVL25:
 163 004c F8BD     		pop	{r3, r4, r5, r6, r7, pc}
 164              		.cfi_endproc
 165              	.LFE2:
 166              		.size	nRF24_readLongRegister, .-nRF24_readLongRegister
 167 004e C046     		.section	.text.nRF24_writeRegister,"ax",%progbits
 168              		.align	2
 169              		.global	nRF24_writeRegister
 170              		.code	16
 171              		.thumb_func
 172              		.type	nRF24_writeRegister, %function
 173              	nRF24_writeRegister:
 174              	.LFB3:
 195:Generated_Source\PSoC4/nRF24_LL_SPI.c **** 
 196:Generated_Source\PSoC4/nRF24_LL_SPI.c **** /**
 197:Generated_Source\PSoC4/nRF24_LL_SPI.c ****  * Write 1byte to a nRF24 Register.
 198:Generated_Source\PSoC4/nRF24_LL_SPI.c ****  *
 199:Generated_Source\PSoC4/nRF24_LL_SPI.c ****  * @param const NrfRegister reg: Register to be written.
 200:Generated_Source\PSoC4/nRF24_LL_SPI.c ****  * @param const uint8_t data: Data to be written into the register.
 201:Generated_Source\PSoC4/nRF24_LL_SPI.c ****  */
 202:Generated_Source\PSoC4/nRF24_LL_SPI.c **** void nRF24_writeRegister(const NrfRegister reg, const uint8_t data)
 203:Generated_Source\PSoC4/nRF24_LL_SPI.c **** {
 175              		.loc 1 203 0
 176              		.cfi_startproc
 177              		@ args = 0, pretend = 0, frame = 0
 178              		@ frame_needed = 0, uses_anonymous_args = 0
 179              	.LVL26:
 180 0000 70B5     		push	{r4, r5, r6, lr}
 181              		.cfi_def_cfa_offset 16
 182              		.cfi_offset 4, -16
 183              		.cfi_offset 5, -12
 184              		.cfi_offset 6, -8
 185              		.cfi_offset 14, -4
 186 0002 0500     		movs	r5, r0
 187 0004 0C00     		movs	r4, r1
 204:Generated_Source\PSoC4/nRF24_LL_SPI.c **** #if defined(CY_SCB_SPI_H) // SCB Block
 205:Generated_Source\PSoC4/nRF24_LL_SPI.c **** 
 206:Generated_Source\PSoC4/nRF24_LL_SPI.c ****     SPI_SpiUartClearRxBuffer();
 188              		.loc 1 206 0
 189 0006 FFF7FEFF 		bl	SPI_SpiUartClearRxBuffer
 190              	.LVL27:
 207:Generated_Source\PSoC4/nRF24_LL_SPI.c ****     SPI_SpiUartClearTxBuffer();
ARM GAS  C:\Users\Xwx47\AppData\Local\Temp\ccYRwhps.s 			page 8


 191              		.loc 1 207 0
 192 000a FFF7FEFF 		bl	SPI_SpiUartClearTxBuffer
 193              	.LVL28:
 208:Generated_Source\PSoC4/nRF24_LL_SPI.c **** 
 209:Generated_Source\PSoC4/nRF24_LL_SPI.c ****     SS_Write(0);
 194              		.loc 1 209 0
 195 000e 0020     		movs	r0, #0
 196 0010 FFF7FEFF 		bl	SS_Write
 197              	.LVL29:
 210:Generated_Source\PSoC4/nRF24_LL_SPI.c ****     SPI_SpiUartWriteTxData(NRF_W_REGISTER_CMD | reg);
 198              		.loc 1 210 0
 199 0014 2020     		movs	r0, #32
 200 0016 2843     		orrs	r0, r5
 201 0018 C0B2     		uxtb	r0, r0
 202 001a FFF7FEFF 		bl	SPI_SpiUartWriteTxData
 203              	.LVL30:
 211:Generated_Source\PSoC4/nRF24_LL_SPI.c ****     SPI_SpiUartWriteTxData(data);
 204              		.loc 1 211 0
 205 001e 2000     		movs	r0, r4
 206 0020 FFF7FEFF 		bl	SPI_SpiUartWriteTxData
 207              	.LVL31:
 208              	.L9:
 212:Generated_Source\PSoC4/nRF24_LL_SPI.c **** 
 213:Generated_Source\PSoC4/nRF24_LL_SPI.c ****     while (SPI_SpiUartGetRxBufferSize() != 2) {
 209              		.loc 1 213 0 discriminator 1
 210 0024 FFF7FEFF 		bl	SPI_SpiUartGetRxBufferSize
 211              	.LVL32:
 212 0028 0228     		cmp	r0, #2
 213 002a FBD1     		bne	.L9
 214:Generated_Source\PSoC4/nRF24_LL_SPI.c ****     }
 215:Generated_Source\PSoC4/nRF24_LL_SPI.c ****     SS_Write(1);
 214              		.loc 1 215 0
 215 002c 0138     		subs	r0, r0, #1
 216 002e FFF7FEFF 		bl	SS_Write
 217              	.LVL33:
 216:Generated_Source\PSoC4/nRF24_LL_SPI.c **** 
 217:Generated_Source\PSoC4/nRF24_LL_SPI.c **** #else // UDB Block
 218:Generated_Source\PSoC4/nRF24_LL_SPI.c **** 
 219:Generated_Source\PSoC4/nRF24_LL_SPI.c ****     SPI_ClearRxBuffer();
 220:Generated_Source\PSoC4/nRF24_LL_SPI.c ****     SPI_ClearTxBuffer();
 221:Generated_Source\PSoC4/nRF24_LL_SPI.c **** 
 222:Generated_Source\PSoC4/nRF24_LL_SPI.c ****     SS_Write(0);
 223:Generated_Source\PSoC4/nRF24_LL_SPI.c ****     SPI_WriteTxData(NRF_W_REGISTER_CMD | reg);
 224:Generated_Source\PSoC4/nRF24_LL_SPI.c ****     SPI_WriteTxData(data);
 225:Generated_Source\PSoC4/nRF24_LL_SPI.c **** 
 226:Generated_Source\PSoC4/nRF24_LL_SPI.c ****     while (!(SPI_ReadTxStatus() & SPI_STS_SPI_IDLE)) {
 227:Generated_Source\PSoC4/nRF24_LL_SPI.c ****     }
 228:Generated_Source\PSoC4/nRF24_LL_SPI.c ****     SS_Write(1);
 229:Generated_Source\PSoC4/nRF24_LL_SPI.c **** 
 230:Generated_Source\PSoC4/nRF24_LL_SPI.c **** #endif
 231:Generated_Source\PSoC4/nRF24_LL_SPI.c **** }
 218              		.loc 1 231 0
 219              		@ sp needed
 220 0032 70BD     		pop	{r4, r5, r6, pc}
 221              		.cfi_endproc
 222              	.LFE3:
 223              		.size	nRF24_writeRegister, .-nRF24_writeRegister
ARM GAS  C:\Users\Xwx47\AppData\Local\Temp\ccYRwhps.s 			page 9


 224              		.section	.text.nRF24_writeLongRegister,"ax",%progbits
 225              		.align	2
 226              		.global	nRF24_writeLongRegister
 227              		.code	16
 228              		.thumb_func
 229              		.type	nRF24_writeLongRegister, %function
 230              	nRF24_writeLongRegister:
 231              	.LFB4:
 232:Generated_Source\PSoC4/nRF24_LL_SPI.c **** 
 233:Generated_Source\PSoC4/nRF24_LL_SPI.c **** /**
 234:Generated_Source\PSoC4/nRF24_LL_SPI.c ****  * Write more than 1byte to a nRF24 Register, larger register is 5 bytes.
 235:Generated_Source\PSoC4/nRF24_LL_SPI.c ****  *
 236:Generated_Source\PSoC4/nRF24_LL_SPI.c ****  * @param const NrfRegister reg: Register to be written.
 237:Generated_Source\PSoC4/nRF24_LL_SPI.c ****  * @param const uint8_t* data: Data to write into the register.
 238:Generated_Source\PSoC4/nRF24_LL_SPI.c ****  * @param size_t size: Size (in bytes) of the data to be written.
 239:Generated_Source\PSoC4/nRF24_LL_SPI.c ****  */
 240:Generated_Source\PSoC4/nRF24_LL_SPI.c **** void nRF24_writeLongRegister(const NrfRegister reg,
 241:Generated_Source\PSoC4/nRF24_LL_SPI.c ****                                         const uint8_t* data,
 242:Generated_Source\PSoC4/nRF24_LL_SPI.c ****                                         const size_t size)
 243:Generated_Source\PSoC4/nRF24_LL_SPI.c **** {
 232              		.loc 1 243 0
 233              		.cfi_startproc
 234              		@ args = 0, pretend = 0, frame = 0
 235              		@ frame_needed = 0, uses_anonymous_args = 0
 236              	.LVL34:
 237 0000 70B5     		push	{r4, r5, r6, lr}
 238              		.cfi_def_cfa_offset 16
 239              		.cfi_offset 4, -16
 240              		.cfi_offset 5, -12
 241              		.cfi_offset 6, -8
 242              		.cfi_offset 14, -4
 243 0002 0600     		movs	r6, r0
 244 0004 0D00     		movs	r5, r1
 245 0006 1400     		movs	r4, r2
 244:Generated_Source\PSoC4/nRF24_LL_SPI.c **** #if defined(CY_SCB_SPI_H) // SCB Block
 245:Generated_Source\PSoC4/nRF24_LL_SPI.c **** 
 246:Generated_Source\PSoC4/nRF24_LL_SPI.c ****     SPI_SpiUartClearRxBuffer();
 246              		.loc 1 246 0
 247 0008 FFF7FEFF 		bl	SPI_SpiUartClearRxBuffer
 248              	.LVL35:
 247:Generated_Source\PSoC4/nRF24_LL_SPI.c ****     SPI_SpiUartClearTxBuffer();
 249              		.loc 1 247 0
 250 000c FFF7FEFF 		bl	SPI_SpiUartClearTxBuffer
 251              	.LVL36:
 248:Generated_Source\PSoC4/nRF24_LL_SPI.c **** 
 249:Generated_Source\PSoC4/nRF24_LL_SPI.c ****     SS_Write(0);
 252              		.loc 1 249 0
 253 0010 0020     		movs	r0, #0
 254 0012 FFF7FEFF 		bl	SS_Write
 255              	.LVL37:
 250:Generated_Source\PSoC4/nRF24_LL_SPI.c **** 
 251:Generated_Source\PSoC4/nRF24_LL_SPI.c ****     SPI_SpiUartWriteTxData(NRF_W_REGISTER_CMD | reg);
 256              		.loc 1 251 0
 257 0016 2020     		movs	r0, #32
 258 0018 3043     		orrs	r0, r6
 259 001a C0B2     		uxtb	r0, r0
 260 001c FFF7FEFF 		bl	SPI_SpiUartWriteTxData
ARM GAS  C:\Users\Xwx47\AppData\Local\Temp\ccYRwhps.s 			page 10


 261              	.LVL38:
 252:Generated_Source\PSoC4/nRF24_LL_SPI.c ****     SPI_SpiUartPutArray(data, size);
 262              		.loc 1 252 0
 263 0020 2100     		movs	r1, r4
 264 0022 2800     		movs	r0, r5
 265 0024 FFF7FEFF 		bl	SPI_SpiUartPutArray
 266              	.LVL39:
 267              	.L11:
 253:Generated_Source\PSoC4/nRF24_LL_SPI.c **** 
 254:Generated_Source\PSoC4/nRF24_LL_SPI.c ****     // Wait for the RxBuffer to have dataSize + 1 bytes,
 255:Generated_Source\PSoC4/nRF24_LL_SPI.c ****     // dataSize + 1 because we need to count the Command + Register
 256:Generated_Source\PSoC4/nRF24_LL_SPI.c ****     // byte at the beginning of the transaction.
 257:Generated_Source\PSoC4/nRF24_LL_SPI.c ****     while (SPI_SpiUartGetRxBufferSize() != (1 + size)) {
 268              		.loc 1 257 0 discriminator 1
 269 0028 FFF7FEFF 		bl	SPI_SpiUartGetRxBufferSize
 270              	.LVL40:
 271 002c 631C     		adds	r3, r4, #1
 272 002e 9842     		cmp	r0, r3
 273 0030 FAD1     		bne	.L11
 258:Generated_Source\PSoC4/nRF24_LL_SPI.c ****     }
 259:Generated_Source\PSoC4/nRF24_LL_SPI.c ****     SS_Write(1);
 274              		.loc 1 259 0
 275 0032 0120     		movs	r0, #1
 276 0034 FFF7FEFF 		bl	SS_Write
 277              	.LVL41:
 260:Generated_Source\PSoC4/nRF24_LL_SPI.c **** 
 261:Generated_Source\PSoC4/nRF24_LL_SPI.c **** #else // UDB Block
 262:Generated_Source\PSoC4/nRF24_LL_SPI.c **** 
 263:Generated_Source\PSoC4/nRF24_LL_SPI.c ****     SPI_ClearRxBuffer();
 264:Generated_Source\PSoC4/nRF24_LL_SPI.c ****     SPI_ClearTxBuffer();
 265:Generated_Source\PSoC4/nRF24_LL_SPI.c **** 
 266:Generated_Source\PSoC4/nRF24_LL_SPI.c ****     SS_Write(0);
 267:Generated_Source\PSoC4/nRF24_LL_SPI.c ****     SPI_WriteTxData(NRF_W_REGISTER_CMD | reg);
 268:Generated_Source\PSoC4/nRF24_LL_SPI.c ****     SPI_PutArray(data, size);
 269:Generated_Source\PSoC4/nRF24_LL_SPI.c **** 
 270:Generated_Source\PSoC4/nRF24_LL_SPI.c ****     while (!(SPI_ReadTxStatus() & SPI_STS_SPI_IDLE)){
 271:Generated_Source\PSoC4/nRF24_LL_SPI.c ****     }
 272:Generated_Source\PSoC4/nRF24_LL_SPI.c ****     SS_Write(1);
 273:Generated_Source\PSoC4/nRF24_LL_SPI.c **** 
 274:Generated_Source\PSoC4/nRF24_LL_SPI.c **** #endif
 275:Generated_Source\PSoC4/nRF24_LL_SPI.c **** }
 278              		.loc 1 275 0
 279              		@ sp needed
 280              	.LVL42:
 281              	.LVL43:
 282 0038 70BD     		pop	{r4, r5, r6, pc}
 283              		.cfi_endproc
 284              	.LFE4:
 285              		.size	nRF24_writeLongRegister, .-nRF24_writeLongRegister
 286 003a C046     		.section	.text.nRF24_readBit,"ax",%progbits
 287              		.align	2
 288              		.global	nRF24_readBit
 289              		.code	16
 290              		.thumb_func
 291              		.type	nRF24_readBit, %function
 292              	nRF24_readBit:
 293              	.LFB5:
ARM GAS  C:\Users\Xwx47\AppData\Local\Temp\ccYRwhps.s 			page 11


 276:Generated_Source\PSoC4/nRF24_LL_SPI.c **** 
 277:Generated_Source\PSoC4/nRF24_LL_SPI.c **** /**
 278:Generated_Source\PSoC4/nRF24_LL_SPI.c ****  * Read the bit state of a NrfRegister.
 279:Generated_Source\PSoC4/nRF24_LL_SPI.c ****  *
 280:Generated_Source\PSoC4/nRF24_LL_SPI.c ****  * @param const NrfRegister reg: Register to be read.
 281:Generated_Source\PSoC4/nRF24_LL_SPI.c ****  * @param uint8_t bit: Bit to be read.
 282:Generated_Source\PSoC4/nRF24_LL_SPI.c ****  *
 283:Generated_Source\PSoC4/nRF24_LL_SPI.c ****  * @return bool: Return 1 if bit is set (logic 1), return 0 if the bit
 284:Generated_Source\PSoC4/nRF24_LL_SPI.c ****  * is clear (logic 0).
 285:Generated_Source\PSoC4/nRF24_LL_SPI.c ****  */
 286:Generated_Source\PSoC4/nRF24_LL_SPI.c **** bool nRF24_readBit(const NrfRegister reg, const uint8_t bit)
 287:Generated_Source\PSoC4/nRF24_LL_SPI.c **** {
 294              		.loc 1 287 0
 295              		.cfi_startproc
 296              		@ args = 0, pretend = 0, frame = 0
 297              		@ frame_needed = 0, uses_anonymous_args = 0
 298              	.LVL44:
 299 0000 10B5     		push	{r4, lr}
 300              		.cfi_def_cfa_offset 8
 301              		.cfi_offset 4, -8
 302              		.cfi_offset 14, -4
 303 0002 0C00     		movs	r4, r1
 288:Generated_Source\PSoC4/nRF24_LL_SPI.c ****     return (nRF24_readRegister(reg) & (1 << bit)) != 0;
 304              		.loc 1 288 0
 305 0004 FFF7FEFF 		bl	nRF24_readRegister
 306              	.LVL45:
 307 0008 2041     		asrs	r0, r0, r4
 308 000a 0123     		movs	r3, #1
 309 000c 1840     		ands	r0, r3
 289:Generated_Source\PSoC4/nRF24_LL_SPI.c **** }
 310              		.loc 1 289 0
 311              		@ sp needed
 312 000e 10BD     		pop	{r4, pc}
 313              		.cfi_endproc
 314              	.LFE5:
 315              		.size	nRF24_readBit, .-nRF24_readBit
 316              		.section	.text.nRF24_writeBit,"ax",%progbits
 317              		.align	2
 318              		.global	nRF24_writeBit
 319              		.code	16
 320              		.thumb_func
 321              		.type	nRF24_writeBit, %function
 322              	nRF24_writeBit:
 323              	.LFB6:
 290:Generated_Source\PSoC4/nRF24_LL_SPI.c **** 
 291:Generated_Source\PSoC4/nRF24_LL_SPI.c **** /**
 292:Generated_Source\PSoC4/nRF24_LL_SPI.c ****  * Set (logic 1) or clear (logic 0) a given bit of a given nRF24 register.
 293:Generated_Source\PSoC4/nRF24_LL_SPI.c ****  *
 294:Generated_Source\PSoC4/nRF24_LL_SPI.c ****  * @param const NrfRegister reg: Register to be written.
 295:Generated_Source\PSoC4/nRF24_LL_SPI.c ****  * @param const uint8_t bit: Bit to be written.
 296:Generated_Source\PSoC4/nRF24_LL_SPI.c ****  * @param const bool value: Logic 1 or 0 to write into the bit.
 297:Generated_Source\PSoC4/nRF24_LL_SPI.c ****  */
 298:Generated_Source\PSoC4/nRF24_LL_SPI.c **** void nRF24_writeBit(const NrfRegister reg,
 299:Generated_Source\PSoC4/nRF24_LL_SPI.c ****                                 const uint8_t bit,
 300:Generated_Source\PSoC4/nRF24_LL_SPI.c ****                                const bool value)
 301:Generated_Source\PSoC4/nRF24_LL_SPI.c **** {
 324              		.loc 1 301 0
ARM GAS  C:\Users\Xwx47\AppData\Local\Temp\ccYRwhps.s 			page 12


 325              		.cfi_startproc
 326              		@ args = 0, pretend = 0, frame = 0
 327              		@ frame_needed = 0, uses_anonymous_args = 0
 328              	.LVL46:
 329 0000 70B5     		push	{r4, r5, r6, lr}
 330              		.cfi_def_cfa_offset 16
 331              		.cfi_offset 4, -16
 332              		.cfi_offset 5, -12
 333              		.cfi_offset 6, -8
 334              		.cfi_offset 14, -4
 335 0002 0400     		movs	r4, r0
 336 0004 0D00     		movs	r5, r1
 337 0006 1600     		movs	r6, r2
 302:Generated_Source\PSoC4/nRF24_LL_SPI.c ****     // Get the NrfRegister
 303:Generated_Source\PSoC4/nRF24_LL_SPI.c ****     uint8_t temp = nRF24_readRegister(reg);
 338              		.loc 1 303 0
 339 0008 FFF7FEFF 		bl	nRF24_readRegister
 340              	.LVL47:
 304:Generated_Source\PSoC4/nRF24_LL_SPI.c **** 
 305:Generated_Source\PSoC4/nRF24_LL_SPI.c ****     // Check if the bit of interest is set (logic 1)
 306:Generated_Source\PSoC4/nRF24_LL_SPI.c ****     if ((temp & (1 << bit)) != 0) {
 341              		.loc 1 306 0
 342 000c 0300     		movs	r3, r0
 343 000e 2B41     		asrs	r3, r3, r5
 344 0010 DB07     		lsls	r3, r3, #31
 345 0012 01D5     		bpl	.L14
 307:Generated_Source\PSoC4/nRF24_LL_SPI.c ****         // If we wanted to set it and it's already set we return early,
 308:Generated_Source\PSoC4/nRF24_LL_SPI.c ****         // continue if we wanted to clear it.
 309:Generated_Source\PSoC4/nRF24_LL_SPI.c ****         if (value)
 346              		.loc 1 309 0
 347 0014 002E     		cmp	r6, #0
 348 0016 0DD1     		bne	.L13
 349              	.L14:
 310:Generated_Source\PSoC4/nRF24_LL_SPI.c ****             return;
 311:Generated_Source\PSoC4/nRF24_LL_SPI.c ****     }
 312:Generated_Source\PSoC4/nRF24_LL_SPI.c **** 
 313:Generated_Source\PSoC4/nRF24_LL_SPI.c ****     // Calculate the new value of the NrfRegister, if @value is != 0, then
 314:Generated_Source\PSoC4/nRF24_LL_SPI.c ****     // we set the bit, if @value == 0, then we clear the bit
 315:Generated_Source\PSoC4/nRF24_LL_SPI.c ****     temp = value ? temp | (1 << bit) : temp & ~(1 << bit);
 350              		.loc 1 315 0
 351 0018 002E     		cmp	r6, #0
 352 001a 04D0     		beq	.L16
 353              		.loc 1 315 0 is_stmt 0 discriminator 1
 354 001c 0121     		movs	r1, #1
 355 001e A940     		lsls	r1, r1, r5
 356 0020 0843     		orrs	r0, r1
 357              	.LVL48:
 358 0022 C1B2     		uxtb	r1, r0
 359 0024 03E0     		b	.L17
 360              	.LVL49:
 361              	.L16:
 362              		.loc 1 315 0 discriminator 2
 363 0026 0123     		movs	r3, #1
 364 0028 AB40     		lsls	r3, r3, r5
 365 002a 9843     		bics	r0, r3
 366              	.LVL50:
 367 002c C1B2     		uxtb	r1, r0
ARM GAS  C:\Users\Xwx47\AppData\Local\Temp\ccYRwhps.s 			page 13


 368              	.L17:
 369              	.LVL51:
 316:Generated_Source\PSoC4/nRF24_LL_SPI.c **** 
 317:Generated_Source\PSoC4/nRF24_LL_SPI.c ****     // Write the new value to NrfRegister
 318:Generated_Source\PSoC4/nRF24_LL_SPI.c ****     nRF24_writeRegister(reg, temp);
 370              		.loc 1 318 0 is_stmt 1 discriminator 4
 371 002e 2000     		movs	r0, r4
 372 0030 FFF7FEFF 		bl	nRF24_writeRegister
 373              	.LVL52:
 374              	.L13:
 319:Generated_Source\PSoC4/nRF24_LL_SPI.c **** }
 375              		.loc 1 319 0
 376              		@ sp needed
 377 0034 70BD     		pop	{r4, r5, r6, pc}
 378              		.cfi_endproc
 379              	.LFE6:
 380              		.size	nRF24_writeBit, .-nRF24_writeBit
 381 0036 C046     		.section	.text.nRF24_clearBit,"ax",%progbits
 382              		.align	2
 383              		.global	nRF24_clearBit
 384              		.code	16
 385              		.thumb_func
 386              		.type	nRF24_clearBit, %function
 387              	nRF24_clearBit:
 388              	.LFB7:
 320:Generated_Source\PSoC4/nRF24_LL_SPI.c **** 
 321:Generated_Source\PSoC4/nRF24_LL_SPI.c **** /**
 322:Generated_Source\PSoC4/nRF24_LL_SPI.c ****  * Set a given bit of a given nRF24 register to logic 0.
 323:Generated_Source\PSoC4/nRF24_LL_SPI.c ****  *
 324:Generated_Source\PSoC4/nRF24_LL_SPI.c ****  * @param const NrfRegister reg: Register to be written.
 325:Generated_Source\PSoC4/nRF24_LL_SPI.c ****  * @param const uint8_t bit: Bit to be written.
 326:Generated_Source\PSoC4/nRF24_LL_SPI.c ****  */
 327:Generated_Source\PSoC4/nRF24_LL_SPI.c **** void nRF24_clearBit(const NrfRegister reg, const uint8_t bit)
 328:Generated_Source\PSoC4/nRF24_LL_SPI.c **** {
 389              		.loc 1 328 0
 390              		.cfi_startproc
 391              		@ args = 0, pretend = 0, frame = 0
 392              		@ frame_needed = 0, uses_anonymous_args = 0
 393              	.LVL53:
 394 0000 10B5     		push	{r4, lr}
 395              		.cfi_def_cfa_offset 8
 396              		.cfi_offset 4, -8
 397              		.cfi_offset 14, -4
 329:Generated_Source\PSoC4/nRF24_LL_SPI.c ****     nRF24_writeBit(reg, bit, 0);
 398              		.loc 1 329 0
 399 0002 0022     		movs	r2, #0
 400 0004 FFF7FEFF 		bl	nRF24_writeBit
 401              	.LVL54:
 330:Generated_Source\PSoC4/nRF24_LL_SPI.c **** }
 402              		.loc 1 330 0
 403              		@ sp needed
 404 0008 10BD     		pop	{r4, pc}
 405              		.cfi_endproc
 406              	.LFE7:
 407              		.size	nRF24_clearBit, .-nRF24_clearBit
 408 000a C046     		.section	.text.nRF24_setBit,"ax",%progbits
 409              		.align	2
ARM GAS  C:\Users\Xwx47\AppData\Local\Temp\ccYRwhps.s 			page 14


 410              		.global	nRF24_setBit
 411              		.code	16
 412              		.thumb_func
 413              		.type	nRF24_setBit, %function
 414              	nRF24_setBit:
 415              	.LFB8:
 331:Generated_Source\PSoC4/nRF24_LL_SPI.c **** 
 332:Generated_Source\PSoC4/nRF24_LL_SPI.c **** /**
 333:Generated_Source\PSoC4/nRF24_LL_SPI.c ****  * Set a given bit of a given nRF24 register to logic 1.
 334:Generated_Source\PSoC4/nRF24_LL_SPI.c ****  *
 335:Generated_Source\PSoC4/nRF24_LL_SPI.c ****  * @param const NrfRegister reg: Register to be written.
 336:Generated_Source\PSoC4/nRF24_LL_SPI.c ****  * @param const uint8_t bit: Bit to be written.
 337:Generated_Source\PSoC4/nRF24_LL_SPI.c ****  */
 338:Generated_Source\PSoC4/nRF24_LL_SPI.c **** void nRF24_setBit(const NrfRegister reg, const uint8_t bit)
 339:Generated_Source\PSoC4/nRF24_LL_SPI.c **** {
 416              		.loc 1 339 0
 417              		.cfi_startproc
 418              		@ args = 0, pretend = 0, frame = 0
 419              		@ frame_needed = 0, uses_anonymous_args = 0
 420              	.LVL55:
 421 0000 10B5     		push	{r4, lr}
 422              		.cfi_def_cfa_offset 8
 423              		.cfi_offset 4, -8
 424              		.cfi_offset 14, -4
 340:Generated_Source\PSoC4/nRF24_LL_SPI.c ****     nRF24_writeBit(reg, bit, 1);
 425              		.loc 1 340 0
 426 0002 0122     		movs	r2, #1
 427 0004 FFF7FEFF 		bl	nRF24_writeBit
 428              	.LVL56:
 341:Generated_Source\PSoC4/nRF24_LL_SPI.c **** }
 429              		.loc 1 341 0
 430              		@ sp needed
 431 0008 10BD     		pop	{r4, pc}
 432              		.cfi_endproc
 433              	.LFE8:
 434              		.size	nRF24_setBit, .-nRF24_setBit
 435 000a C046     		.text
 436              	.Letext0:
 437              		.file 2 "c:\\program files (x86)\\cypress\\psoc creator\\4.1\\psoc creator\\import\\gnu\\arm\\5.4.
 438              		.file 3 "c:\\program files (x86)\\cypress\\psoc creator\\4.1\\psoc creator\\import\\gnu\\arm\\5.4.
 439              		.file 4 "c:\\program files (x86)\\cypress\\psoc creator\\4.1\\psoc creator\\import\\gnu\\arm\\5.4.
 440              		.file 5 "Generated_Source\\PSoC4\\nRF24_NRF_REGS.h"
 441              		.file 6 "Generated_Source\\PSoC4/SPI_SPI_UART.h"
 442              		.file 7 "Generated_Source\\PSoC4/SS.h"