ARM GAS  C:\Users\d3bug\AppData\Local\Temp\ccQIvhDN.s 			page 1


   1              		.syntax unified
   2              		.cpu cortex-m0plus
   3              		.fpu softvfp
   4              		.eabi_attribute 20, 1
   5              		.eabi_attribute 21, 1
   6              		.eabi_attribute 23, 3
   7              		.eabi_attribute 24, 1
   8              		.eabi_attribute 25, 1
   9              		.eabi_attribute 26, 1
  10              		.eabi_attribute 30, 1
  11              		.eabi_attribute 34, 0
  12              		.eabi_attribute 18, 4
  13              		.thumb
  14              		.syntax unified
  15              		.file	"nRF24_COMMANDS.c"
  16              		.text
  17              	.Ltext0:
  18              		.cfi_sections	.debug_frame
  19              		.section	.text.nRF24_send_cmd,"ax",%progbits
  20              		.align	2
  21              		.code	16
  22              		.thumb_func
  23              		.type	nRF24_send_cmd, %function
  24              	nRF24_send_cmd:
  25              	.LFB10:
  26              		.file 1 "Generated_Source\\PSoC4\\nRF24_COMMANDS.c"
   1:Generated_Source\PSoC4/nRF24_COMMANDS.c **** /**
   2:Generated_Source\PSoC4/nRF24_COMMANDS.c **** * @file     nRF24_COMMANDS.c
   3:Generated_Source\PSoC4/nRF24_COMMANDS.c **** * @version  3
   4:Generated_Source\PSoC4/nRF24_COMMANDS.c **** * @brief    nRF24 commands.
   5:Generated_Source\PSoC4/nRF24_COMMANDS.c **** */
   6:Generated_Source\PSoC4/nRF24_COMMANDS.c **** 
   7:Generated_Source\PSoC4/nRF24_COMMANDS.c **** #include "nRF24_CONFIG.h"
   8:Generated_Source\PSoC4/nRF24_COMMANDS.c **** #include "nRF24_HAL.h"
   9:Generated_Source\PSoC4/nRF24_COMMANDS.c **** #include "nRF24_COMMANDS.h"
  10:Generated_Source\PSoC4/nRF24_COMMANDS.c **** #include "nRF24_DEFS.h"
  11:Generated_Source\PSoC4/nRF24_COMMANDS.c **** 
  12:Generated_Source\PSoC4/nRF24_COMMANDS.c **** /**
  13:Generated_Source\PSoC4/nRF24_COMMANDS.c ****  * @brief Send the @c cmd to the nRF24.
  14:Generated_Source\PSoC4/nRF24_COMMANDS.c ****  *
  15:Generated_Source\PSoC4/nRF24_COMMANDS.c ****  * @param[in]   nrf_cmd cmd: Command to be sent.
  16:Generated_Source\PSoC4/nRF24_COMMANDS.c ****  */
  17:Generated_Source\PSoC4/nRF24_COMMANDS.c **** static uint8_t nRF24_send_cmd(const nrf_cmd cmd);
  18:Generated_Source\PSoC4/nRF24_COMMANDS.c **** 
  19:Generated_Source\PSoC4/nRF24_COMMANDS.c **** /**
  20:Generated_Source\PSoC4/nRF24_COMMANDS.c ****  * @brief Reuse the last transmitted payload.
  21:Generated_Source\PSoC4/nRF24_COMMANDS.c ****  *
  22:Generated_Source\PSoC4/nRF24_COMMANDS.c ****  * Reuse last transmitted payload. TX payload reuse is active until
  23:Generated_Source\PSoC4/nRF24_COMMANDS.c ****  * NRF_CMD_W_TX_PAYLOAD or NRF_CMD_FLUSH_TX commands are executed.
  24:Generated_Source\PSoC4/nRF24_COMMANDS.c ****  *
  25:Generated_Source\PSoC4/nRF24_COMMANDS.c ****  * @note Used in TX mode.
  26:Generated_Source\PSoC4/nRF24_COMMANDS.c ****  *
  27:Generated_Source\PSoC4/nRF24_COMMANDS.c ****  * @warning TX payload reuse must not be activated or deactivated during
  28:Generated_Source\PSoC4/nRF24_COMMANDS.c ****  * package transmission.
  29:Generated_Source\PSoC4/nRF24_COMMANDS.c ****  */
  30:Generated_Source\PSoC4/nRF24_COMMANDS.c **** void nRF24_cmd_reuse_tx_payload(void)
  31:Generated_Source\PSoC4/nRF24_COMMANDS.c **** {
ARM GAS  C:\Users\d3bug\AppData\Local\Temp\ccQIvhDN.s 			page 2


  32:Generated_Source\PSoC4/nRF24_COMMANDS.c ****     nRF24_send_cmd(NRF_CMD_REUSE_TX_PL);
  33:Generated_Source\PSoC4/nRF24_COMMANDS.c **** }
  34:Generated_Source\PSoC4/nRF24_COMMANDS.c **** 
  35:Generated_Source\PSoC4/nRF24_COMMANDS.c **** /**
  36:Generated_Source\PSoC4/nRF24_COMMANDS.c ****  * @brief Flush the RX FIFO.
  37:Generated_Source\PSoC4/nRF24_COMMANDS.c ****  *
  38:Generated_Source\PSoC4/nRF24_COMMANDS.c ****  * @note Used in RX mode.
  39:Generated_Source\PSoC4/nRF24_COMMANDS.c ****  *
  40:Generated_Source\PSoC4/nRF24_COMMANDS.c ****  * @warning Should be not executed during transmission of acknowledge,
  41:Generated_Source\PSoC4/nRF24_COMMANDS.c ****  * that is, acknowledge package will not be completed.
  42:Generated_Source\PSoC4/nRF24_COMMANDS.c ****  */
  43:Generated_Source\PSoC4/nRF24_COMMANDS.c **** void nRF24_cmd_flush_rx(void)
  44:Generated_Source\PSoC4/nRF24_COMMANDS.c **** {
  45:Generated_Source\PSoC4/nRF24_COMMANDS.c ****     nRF24_send_cmd(NRF_CMD_FLUSH_RX);
  46:Generated_Source\PSoC4/nRF24_COMMANDS.c **** }
  47:Generated_Source\PSoC4/nRF24_COMMANDS.c **** 
  48:Generated_Source\PSoC4/nRF24_COMMANDS.c **** /**
  49:Generated_Source\PSoC4/nRF24_COMMANDS.c ****  * @brief Flush the TX FIFO.
  50:Generated_Source\PSoC4/nRF24_COMMANDS.c ****  * 
  51:Generated_Source\PSoC4/nRF24_COMMANDS.c ****  * @note Used in TX mode.
  52:Generated_Source\PSoC4/nRF24_COMMANDS.c ****  */
  53:Generated_Source\PSoC4/nRF24_COMMANDS.c **** void nRF24_cmd_flush_tx(void)
  54:Generated_Source\PSoC4/nRF24_COMMANDS.c **** {
  55:Generated_Source\PSoC4/nRF24_COMMANDS.c ****     nRF24_send_cmd(NRF_CMD_FLUSH_TX);
  56:Generated_Source\PSoC4/nRF24_COMMANDS.c **** }
  57:Generated_Source\PSoC4/nRF24_COMMANDS.c **** 
  58:Generated_Source\PSoC4/nRF24_COMMANDS.c **** /**
  59:Generated_Source\PSoC4/nRF24_COMMANDS.c ****  * @brief
  60:Generated_Source\PSoC4/nRF24_COMMANDS.c ****  * Read RX payload: 1 - 32 bytes. A read operation always starts at byte 0.
  61:Generated_Source\PSoC4/nRF24_COMMANDS.c ****  * Payload is deleted from FIFO after it is read.
  62:Generated_Source\PSoC4/nRF24_COMMANDS.c ****  *
  63:Generated_Source\PSoC4/nRF24_COMMANDS.c ****  * @note Used in RX mode.
  64:Generated_Source\PSoC4/nRF24_COMMANDS.c ****  *
  65:Generated_Source\PSoC4/nRF24_COMMANDS.c ****  * @param payload: payload to be read.
  66:Generated_Source\PSoC4/nRF24_COMMANDS.c ****  * @param data_size: Bytes of payload to be read (max 32).
  67:Generated_Source\PSoC4/nRF24_COMMANDS.c ****  */
  68:Generated_Source\PSoC4/nRF24_COMMANDS.c **** void nRF24_cmd_read_rx_payload(uint8_t *payload, const size_t payload_size)
  69:Generated_Source\PSoC4/nRF24_COMMANDS.c **** {
  70:Generated_Source\PSoC4/nRF24_COMMANDS.c ****     uint8_t nrf_data_out[payload_size + 1];
  71:Generated_Source\PSoC4/nRF24_COMMANDS.c ****     // the nrf_data_in array is to keep the spi sending dummy bytes so the
  72:Generated_Source\PSoC4/nRF24_COMMANDS.c ****     // radio can send us the payload, there's no need to set the array to
  73:Generated_Source\PSoC4/nRF24_COMMANDS.c ****     // any specific value, apart of the first element being the command
  74:Generated_Source\PSoC4/nRF24_COMMANDS.c ****     uint8_t nrf_data_in[payload_size + 1];
  75:Generated_Source\PSoC4/nRF24_COMMANDS.c ****     
  76:Generated_Source\PSoC4/nRF24_COMMANDS.c ****     nrf_data_in[0] = NRF_CMD_R_RX_PAYLOAD;
  77:Generated_Source\PSoC4/nRF24_COMMANDS.c ****     
  78:Generated_Source\PSoC4/nRF24_COMMANDS.c ****     nRF24_spi_xfer(nrf_data_in, nrf_data_out, sizeof(nrf_data_out));
  79:Generated_Source\PSoC4/nRF24_COMMANDS.c ****     
  80:Generated_Source\PSoC4/nRF24_COMMANDS.c ****     memcpy(payload, &nrf_data_out[1], payload_size);
  81:Generated_Source\PSoC4/nRF24_COMMANDS.c **** }
  82:Generated_Source\PSoC4/nRF24_COMMANDS.c **** 
  83:Generated_Source\PSoC4/nRF24_COMMANDS.c **** /**
  84:Generated_Source\PSoC4/nRF24_COMMANDS.c ****  * @brief Write TX payload: 1 - 32 bytes.
  85:Generated_Source\PSoC4/nRF24_COMMANDS.c ****  *
  86:Generated_Source\PSoC4/nRF24_COMMANDS.c ****  * A write operation always starts at byte 0 used in TX payload.
  87:Generated_Source\PSoC4/nRF24_COMMANDS.c ****  *
  88:Generated_Source\PSoC4/nRF24_COMMANDS.c ****  * @param const uint8_t* data: Data to be sent.
ARM GAS  C:\Users\d3bug\AppData\Local\Temp\ccQIvhDN.s 			page 3


  89:Generated_Source\PSoC4/nRF24_COMMANDS.c ****  * @param const size_t size: Bytes of data to be sent (max 32).
  90:Generated_Source\PSoC4/nRF24_COMMANDS.c ****  */
  91:Generated_Source\PSoC4/nRF24_COMMANDS.c **** void nRF24_cmd_write_tx_payload(const uint8_t *payload, const size_t payload_size)
  92:Generated_Source\PSoC4/nRF24_COMMANDS.c **** {
  93:Generated_Source\PSoC4/nRF24_COMMANDS.c ****     uint8_t nrf_data_in[payload_size + 1];
  94:Generated_Source\PSoC4/nRF24_COMMANDS.c ****     uint8_t nrf_data_out[payload_size + 1];
  95:Generated_Source\PSoC4/nRF24_COMMANDS.c ****     
  96:Generated_Source\PSoC4/nRF24_COMMANDS.c ****     nrf_data_in[0] = NRF_CMD_W_TX_PAYLOAD;
  97:Generated_Source\PSoC4/nRF24_COMMANDS.c ****     memcpy(&nrf_data_in[1], payload, payload_size);
  98:Generated_Source\PSoC4/nRF24_COMMANDS.c ****     
  99:Generated_Source\PSoC4/nRF24_COMMANDS.c ****     nRF24_spi_xfer(nrf_data_in, nrf_data_out, sizeof(nrf_data_in));
 100:Generated_Source\PSoC4/nRF24_COMMANDS.c **** }
 101:Generated_Source\PSoC4/nRF24_COMMANDS.c **** 
 102:Generated_Source\PSoC4/nRF24_COMMANDS.c **** /**
 103:Generated_Source\PSoC4/nRF24_COMMANDS.c ****  * @brief Read RX payload width for the top R_RX_PAYLOAD in the RX FIFO.
 104:Generated_Source\PSoC4/nRF24_COMMANDS.c ****  * 
 105:Generated_Source\PSoC4/nRF24_COMMANDS.c ****  * @note Flush RX FIFO if the read value is larger than 32 bytes.
 106:Generated_Source\PSoC4/nRF24_COMMANDS.c ****  *
 107:Generated_Source\PSoC4/nRF24_COMMANDS.c ****  * @return uint8_t: width of the payload on the top of the RX FIFO.
 108:Generated_Source\PSoC4/nRF24_COMMANDS.c ****  */
 109:Generated_Source\PSoC4/nRF24_COMMANDS.c **** uint8_t nRF24_cmd_read_payload_width(void)
 110:Generated_Source\PSoC4/nRF24_COMMANDS.c **** {
 111:Generated_Source\PSoC4/nRF24_COMMANDS.c ****     uint8_t nrf_data_in[2] = {
 112:Generated_Source\PSoC4/nRF24_COMMANDS.c ****         NRF_CMD_R_RX_PL_WID, NRF_CMD_NOP
 113:Generated_Source\PSoC4/nRF24_COMMANDS.c ****     };
 114:Generated_Source\PSoC4/nRF24_COMMANDS.c ****     // nrf_data_out[0] = STATUS_REGISTER, nrf_data_out[1] = payload_width
 115:Generated_Source\PSoC4/nRF24_COMMANDS.c ****     uint8_t nrf_data_out[2] = {0};
 116:Generated_Source\PSoC4/nRF24_COMMANDS.c ****     
 117:Generated_Source\PSoC4/nRF24_COMMANDS.c ****     nRF24_spi_xfer(nrf_data_in, nrf_data_out, sizeof(nrf_data_in));
 118:Generated_Source\PSoC4/nRF24_COMMANDS.c **** 
 119:Generated_Source\PSoC4/nRF24_COMMANDS.c ****     return nrf_data_out[1];
 120:Generated_Source\PSoC4/nRF24_COMMANDS.c **** }
 121:Generated_Source\PSoC4/nRF24_COMMANDS.c **** 
 122:Generated_Source\PSoC4/nRF24_COMMANDS.c **** /**
 123:Generated_Source\PSoC4/nRF24_COMMANDS.c ****  * @brief Write Payload to be transmitted together with ACK packet.
 124:Generated_Source\PSoC4/nRF24_COMMANDS.c ****  *
 125:Generated_Source\PSoC4/nRF24_COMMANDS.c ****  * Write Payload to be transmitted together with ACK packet on PIPE PPP
 126:Generated_Source\PSoC4/nRF24_COMMANDS.c ****  * (PPP valid in the range from 000 to 101). Maximum three ACK packet
 127:Generated_Source\PSoC4/nRF24_COMMANDS.c ****  * payloads can be pending. Payloads with same PPP are handled using
 128:Generated_Source\PSoC4/nRF24_COMMANDS.c ****  * first in - first out principle.
 129:Generated_Source\PSoC4/nRF24_COMMANDS.c ****  * Write payload: 1 - 32 bytes.
 130:Generated_Source\PSoC4/nRF24_COMMANDS.c ****  * A write operation always starts at byte 0.
 131:Generated_Source\PSoC4/nRF24_COMMANDS.c ****  *
 132:Generated_Source\PSoC4/nRF24_COMMANDS.c ****  * @param const nrf_pipe pipe: Pipe to use.
 133:Generated_Source\PSoC4/nRF24_COMMANDS.c ****  * @param const uint8_t* data: Data to be sent.
 134:Generated_Source\PSoC4/nRF24_COMMANDS.c ****  * @param const size_t size: Bytes of data to be sent (max 32)
 135:Generated_Source\PSoC4/nRF24_COMMANDS.c ****  *
 136:Generated_Source\PSoC4/nRF24_COMMANDS.c ****  * @note Used in RX mode.
 137:Generated_Source\PSoC4/nRF24_COMMANDS.c ****  */
 138:Generated_Source\PSoC4/nRF24_COMMANDS.c **** void nRF24_cmd_write_ack_payload(const nrf_pipe pipe,
 139:Generated_Source\PSoC4/nRF24_COMMANDS.c ****                                             const uint8_t* payload, const size_t payload_size)
 140:Generated_Source\PSoC4/nRF24_COMMANDS.c **** {
 141:Generated_Source\PSoC4/nRF24_COMMANDS.c ****     uint8_t nrf_data_in[payload_size + 1];
 142:Generated_Source\PSoC4/nRF24_COMMANDS.c ****     uint8_t nrf_data_out[payload_size + 1];
 143:Generated_Source\PSoC4/nRF24_COMMANDS.c ****     
 144:Generated_Source\PSoC4/nRF24_COMMANDS.c ****     nrf_data_in[0] = NRF_CMD_W_ACK_PAYLOAD | pipe;
 145:Generated_Source\PSoC4/nRF24_COMMANDS.c ****     memcpy(&nrf_data_in[1], payload, payload_size);
ARM GAS  C:\Users\d3bug\AppData\Local\Temp\ccQIvhDN.s 			page 4


 146:Generated_Source\PSoC4/nRF24_COMMANDS.c ****     
 147:Generated_Source\PSoC4/nRF24_COMMANDS.c ****     nRF24_spi_xfer(nrf_data_in, nrf_data_out, sizeof(nrf_data_in));
 148:Generated_Source\PSoC4/nRF24_COMMANDS.c **** }
 149:Generated_Source\PSoC4/nRF24_COMMANDS.c **** 
 150:Generated_Source\PSoC4/nRF24_COMMANDS.c **** /**
 151:Generated_Source\PSoC4/nRF24_COMMANDS.c ****  * @brief Disable AUTOACK on this packet.
 152:Generated_Source\PSoC4/nRF24_COMMANDS.c ****  *
 153:Generated_Source\PSoC4/nRF24_COMMANDS.c ****  * @param const uint8_t* data: Data to be sent.
 154:Generated_Source\PSoC4/nRF24_COMMANDS.c ****  * @param const size_t size: Bytes of data to be sent (max 32).
 155:Generated_Source\PSoC4/nRF24_COMMANDS.c ****  *
 156:Generated_Source\PSoC4/nRF24_COMMANDS.c ****  * @note Used in TX mode.
 157:Generated_Source\PSoC4/nRF24_COMMANDS.c ****  */
 158:Generated_Source\PSoC4/nRF24_COMMANDS.c **** void nRF24_cmd_no_ack_payload(const uint8_t* payload, const size_t payload_size)
 159:Generated_Source\PSoC4/nRF24_COMMANDS.c **** {
 160:Generated_Source\PSoC4/nRF24_COMMANDS.c ****     uint8_t nrf_data_in[payload_size + 1];
 161:Generated_Source\PSoC4/nRF24_COMMANDS.c ****     uint8_t nrf_data_out[payload_size + 1];
 162:Generated_Source\PSoC4/nRF24_COMMANDS.c ****     
 163:Generated_Source\PSoC4/nRF24_COMMANDS.c ****     nrf_data_in[0] = NRF_CMD_W_TX_PAYLOAD_NO_ACK;
 164:Generated_Source\PSoC4/nRF24_COMMANDS.c ****     memcpy(&nrf_data_in[1], payload, payload_size);
 165:Generated_Source\PSoC4/nRF24_COMMANDS.c ****     
 166:Generated_Source\PSoC4/nRF24_COMMANDS.c ****     nRF24_spi_xfer(nrf_data_in, nrf_data_out, sizeof(nrf_data_in));
 167:Generated_Source\PSoC4/nRF24_COMMANDS.c **** }
 168:Generated_Source\PSoC4/nRF24_COMMANDS.c **** 
 169:Generated_Source\PSoC4/nRF24_COMMANDS.c **** /**
 170:Generated_Source\PSoC4/nRF24_COMMANDS.c ****  * @brief NOP (No OPeration) Command. Useful to read the STATUS register.
 171:Generated_Source\PSoC4/nRF24_COMMANDS.c ****  *
 172:Generated_Source\PSoC4/nRF24_COMMANDS.c ****  * @return uint8_t: STATUS register.
 173:Generated_Source\PSoC4/nRF24_COMMANDS.c ****  */
 174:Generated_Source\PSoC4/nRF24_COMMANDS.c **** uint8_t nRF24_cmd_nop(void)
 175:Generated_Source\PSoC4/nRF24_COMMANDS.c **** {
 176:Generated_Source\PSoC4/nRF24_COMMANDS.c ****     return nRF24_send_cmd(NRF_CMD_NOP);
 177:Generated_Source\PSoC4/nRF24_COMMANDS.c **** }
 178:Generated_Source\PSoC4/nRF24_COMMANDS.c **** 
 179:Generated_Source\PSoC4/nRF24_COMMANDS.c **** static uint8_t nRF24_send_cmd(const nrf_cmd cmd)
 180:Generated_Source\PSoC4/nRF24_COMMANDS.c **** {
  27              		.loc 1 180 0
  28              		.cfi_startproc
  29              		@ args = 0, pretend = 0, frame = 16
  30              		@ frame_needed = 0, uses_anonymous_args = 0
  31              	.LVL0:
  32 0000 10B5     		push	{r4, lr}
  33              		.cfi_def_cfa_offset 8
  34              		.cfi_offset 4, -8
  35              		.cfi_offset 14, -4
  36 0002 84B0     		sub	sp, sp, #16
  37              		.cfi_def_cfa_offset 24
  38 0004 6B46     		mov	r3, sp
  39 0006 D871     		strb	r0, [r3, #7]
  40 0008 0733     		adds	r3, r3, #7
 181:Generated_Source\PSoC4/nRF24_COMMANDS.c ****     uint8_t status = 0;
  41              		.loc 1 181 0
  42 000a 0F24     		movs	r4, #15
  43 000c 6C44     		add	r4, r4, sp
  44 000e 0022     		movs	r2, #0
  45 0010 2270     		strb	r2, [r4]
 182:Generated_Source\PSoC4/nRF24_COMMANDS.c ****     nRF24_spi_xfer(&cmd, &status, 1);
  46              		.loc 1 182 0
ARM GAS  C:\Users\d3bug\AppData\Local\Temp\ccQIvhDN.s 			page 5


  47 0012 0132     		adds	r2, r2, #1
  48 0014 2100     		movs	r1, r4
  49 0016 1800     		movs	r0, r3
  50              	.LVL1:
  51 0018 FFF7FEFF 		bl	nRF24_spi_xfer
  52              	.LVL2:
 183:Generated_Source\PSoC4/nRF24_COMMANDS.c ****     return status;
  53              		.loc 1 183 0
  54 001c 2078     		ldrb	r0, [r4]
 184:Generated_Source\PSoC4/nRF24_COMMANDS.c **** }
  55              		.loc 1 184 0
  56 001e 04B0     		add	sp, sp, #16
  57              	.LVL3:
  58              		@ sp needed
  59 0020 10BD     		pop	{r4, pc}
  60              		.cfi_endproc
  61              	.LFE10:
  62              		.size	nRF24_send_cmd, .-nRF24_send_cmd
  63 0022 C046     		.section	.text.nRF24_cmd_reuse_tx_payload,"ax",%progbits
  64              		.align	2
  65              		.global	nRF24_cmd_reuse_tx_payload
  66              		.code	16
  67              		.thumb_func
  68              		.type	nRF24_cmd_reuse_tx_payload, %function
  69              	nRF24_cmd_reuse_tx_payload:
  70              	.LFB1:
  31:Generated_Source\PSoC4/nRF24_COMMANDS.c ****     nRF24_send_cmd(NRF_CMD_REUSE_TX_PL);
  71              		.loc 1 31 0
  72              		.cfi_startproc
  73              		@ args = 0, pretend = 0, frame = 0
  74              		@ frame_needed = 0, uses_anonymous_args = 0
  75 0000 10B5     		push	{r4, lr}
  76              		.cfi_def_cfa_offset 8
  77              		.cfi_offset 4, -8
  78              		.cfi_offset 14, -4
  32:Generated_Source\PSoC4/nRF24_COMMANDS.c **** }
  79              		.loc 1 32 0
  80 0002 E320     		movs	r0, #227
  81 0004 FFF7FEFF 		bl	nRF24_send_cmd
  82              	.LVL4:
  33:Generated_Source\PSoC4/nRF24_COMMANDS.c **** 
  83              		.loc 1 33 0
  84              		@ sp needed
  85 0008 10BD     		pop	{r4, pc}
  86              		.cfi_endproc
  87              	.LFE1:
  88              		.size	nRF24_cmd_reuse_tx_payload, .-nRF24_cmd_reuse_tx_payload
  89 000a C046     		.section	.text.nRF24_cmd_flush_rx,"ax",%progbits
  90              		.align	2
  91              		.global	nRF24_cmd_flush_rx
  92              		.code	16
  93              		.thumb_func
  94              		.type	nRF24_cmd_flush_rx, %function
  95              	nRF24_cmd_flush_rx:
  96              	.LFB2:
  44:Generated_Source\PSoC4/nRF24_COMMANDS.c ****     nRF24_send_cmd(NRF_CMD_FLUSH_RX);
  97              		.loc 1 44 0
ARM GAS  C:\Users\d3bug\AppData\Local\Temp\ccQIvhDN.s 			page 6


  98              		.cfi_startproc
  99              		@ args = 0, pretend = 0, frame = 0
 100              		@ frame_needed = 0, uses_anonymous_args = 0
 101 0000 10B5     		push	{r4, lr}
 102              		.cfi_def_cfa_offset 8
 103              		.cfi_offset 4, -8
 104              		.cfi_offset 14, -4
  45:Generated_Source\PSoC4/nRF24_COMMANDS.c **** }
 105              		.loc 1 45 0
 106 0002 E220     		movs	r0, #226
 107 0004 FFF7FEFF 		bl	nRF24_send_cmd
 108              	.LVL5:
  46:Generated_Source\PSoC4/nRF24_COMMANDS.c **** 
 109              		.loc 1 46 0
 110              		@ sp needed
 111 0008 10BD     		pop	{r4, pc}
 112              		.cfi_endproc
 113              	.LFE2:
 114              		.size	nRF24_cmd_flush_rx, .-nRF24_cmd_flush_rx
 115 000a C046     		.section	.text.nRF24_cmd_flush_tx,"ax",%progbits
 116              		.align	2
 117              		.global	nRF24_cmd_flush_tx
 118              		.code	16
 119              		.thumb_func
 120              		.type	nRF24_cmd_flush_tx, %function
 121              	nRF24_cmd_flush_tx:
 122              	.LFB3:
  54:Generated_Source\PSoC4/nRF24_COMMANDS.c ****     nRF24_send_cmd(NRF_CMD_FLUSH_TX);
 123              		.loc 1 54 0
 124              		.cfi_startproc
 125              		@ args = 0, pretend = 0, frame = 0
 126              		@ frame_needed = 0, uses_anonymous_args = 0
 127 0000 10B5     		push	{r4, lr}
 128              		.cfi_def_cfa_offset 8
 129              		.cfi_offset 4, -8
 130              		.cfi_offset 14, -4
  55:Generated_Source\PSoC4/nRF24_COMMANDS.c **** }
 131              		.loc 1 55 0
 132 0002 E120     		movs	r0, #225
 133 0004 FFF7FEFF 		bl	nRF24_send_cmd
 134              	.LVL6:
  56:Generated_Source\PSoC4/nRF24_COMMANDS.c **** 
 135              		.loc 1 56 0
 136              		@ sp needed
 137 0008 10BD     		pop	{r4, pc}
 138              		.cfi_endproc
 139              	.LFE3:
 140              		.size	nRF24_cmd_flush_tx, .-nRF24_cmd_flush_tx
 141 000a C046     		.section	.text.nRF24_cmd_read_rx_payload,"ax",%progbits
 142              		.align	2
 143              		.global	nRF24_cmd_read_rx_payload
 144              		.code	16
 145              		.thumb_func
 146              		.type	nRF24_cmd_read_rx_payload, %function
 147              	nRF24_cmd_read_rx_payload:
 148              	.LFB4:
  69:Generated_Source\PSoC4/nRF24_COMMANDS.c ****     uint8_t nrf_data_out[payload_size + 1];
ARM GAS  C:\Users\d3bug\AppData\Local\Temp\ccQIvhDN.s 			page 7


 149              		.loc 1 69 0
 150              		.cfi_startproc
 151              		@ args = 0, pretend = 0, frame = 0
 152              		@ frame_needed = 1, uses_anonymous_args = 0
 153              	.LVL7:
 154 0000 F8B5     		push	{r3, r4, r5, r6, r7, lr}
 155              		.cfi_def_cfa_offset 24
 156              		.cfi_offset 3, -24
 157              		.cfi_offset 4, -20
 158              		.cfi_offset 5, -16
 159              		.cfi_offset 6, -12
 160              		.cfi_offset 7, -8
 161              		.cfi_offset 14, -4
 162 0002 00AF     		add	r7, sp, #0
 163              		.cfi_def_cfa_register 7
 164 0004 0400     		movs	r4, r0
 165 0006 0E00     		movs	r6, r1
  70:Generated_Source\PSoC4/nRF24_COMMANDS.c ****     // the nrf_data_in array is to keep the spi sending dummy bytes so the
 166              		.loc 1 70 0
 167 0008 4A1C     		adds	r2, r1, #1
 168 000a 0B00     		movs	r3, r1
 169 000c 0833     		adds	r3, r3, #8
 170 000e DB08     		lsrs	r3, r3, #3
 171 0010 DB00     		lsls	r3, r3, #3
 172 0012 6946     		mov	r1, sp
 173              	.LVL8:
 174 0014 C91A     		subs	r1, r1, r3
 175 0016 8D46     		mov	sp, r1
 176 0018 6D46     		mov	r5, sp
 177              	.LVL9:
  74:Generated_Source\PSoC4/nRF24_COMMANDS.c ****     
 178              		.loc 1 74 0
 179 001a CB1A     		subs	r3, r1, r3
 180 001c 9D46     		mov	sp, r3
 181              	.LVL10:
  76:Generated_Source\PSoC4/nRF24_COMMANDS.c ****     
 182              		.loc 1 76 0
 183 001e 6121     		movs	r1, #97
 184              	.LVL11:
 185 0020 1970     		strb	r1, [r3]
  78:Generated_Source\PSoC4/nRF24_COMMANDS.c ****     
 186              		.loc 1 78 0
 187 0022 2900     		movs	r1, r5
 188 0024 6846     		mov	r0, sp
 189              	.LVL12:
 190 0026 FFF7FEFF 		bl	nRF24_spi_xfer
 191              	.LVL13:
  80:Generated_Source\PSoC4/nRF24_COMMANDS.c **** }
 192              		.loc 1 80 0
 193 002a 691C     		adds	r1, r5, #1
 194 002c 3200     		movs	r2, r6
 195 002e 2000     		movs	r0, r4
 196 0030 FFF7FEFF 		bl	memcpy
 197              	.LVL14:
  81:Generated_Source\PSoC4/nRF24_COMMANDS.c **** 
 198              		.loc 1 81 0
 199 0034 BD46     		mov	sp, r7
ARM GAS  C:\Users\d3bug\AppData\Local\Temp\ccQIvhDN.s 			page 8


 200              	.LVL15:
 201              		@ sp needed
 202              	.LVL16:
 203              	.LVL17:
 204              	.LVL18:
 205 0036 F8BD     		pop	{r3, r4, r5, r6, r7, pc}
 206              		.cfi_endproc
 207              	.LFE4:
 208              		.size	nRF24_cmd_read_rx_payload, .-nRF24_cmd_read_rx_payload
 209              		.section	.text.nRF24_cmd_write_tx_payload,"ax",%progbits
 210              		.align	2
 211              		.global	nRF24_cmd_write_tx_payload
 212              		.code	16
 213              		.thumb_func
 214              		.type	nRF24_cmd_write_tx_payload, %function
 215              	nRF24_cmd_write_tx_payload:
 216              	.LFB5:
  92:Generated_Source\PSoC4/nRF24_COMMANDS.c ****     uint8_t nrf_data_in[payload_size + 1];
 217              		.loc 1 92 0
 218              		.cfi_startproc
 219              		@ args = 0, pretend = 0, frame = 0
 220              		@ frame_needed = 1, uses_anonymous_args = 0
 221              	.LVL19:
 222 0000 F8B5     		push	{r3, r4, r5, r6, r7, lr}
 223              		.cfi_def_cfa_offset 24
 224              		.cfi_offset 3, -24
 225              		.cfi_offset 4, -20
 226              		.cfi_offset 5, -16
 227              		.cfi_offset 6, -12
 228              		.cfi_offset 7, -8
 229              		.cfi_offset 14, -4
 230 0002 00AF     		add	r7, sp, #0
 231              		.cfi_def_cfa_register 7
 232 0004 0500     		movs	r5, r0
 233 0006 0A00     		movs	r2, r1
  93:Generated_Source\PSoC4/nRF24_COMMANDS.c ****     uint8_t nrf_data_out[payload_size + 1];
 234              		.loc 1 93 0
 235 0008 4E1C     		adds	r6, r1, #1
 236 000a 0B00     		movs	r3, r1
 237 000c 0833     		adds	r3, r3, #8
 238 000e DB08     		lsrs	r3, r3, #3
 239 0010 DB00     		lsls	r3, r3, #3
 240 0012 6946     		mov	r1, sp
 241              	.LVL20:
 242 0014 C91A     		subs	r1, r1, r3
 243 0016 8D46     		mov	sp, r1
 244 0018 6C46     		mov	r4, sp
 245              	.LVL21:
  94:Generated_Source\PSoC4/nRF24_COMMANDS.c ****     
 246              		.loc 1 94 0
 247 001a CB1A     		subs	r3, r1, r3
 248 001c 9D46     		mov	sp, r3
 249              	.LVL22:
  96:Generated_Source\PSoC4/nRF24_COMMANDS.c ****     memcpy(&nrf_data_in[1], payload, payload_size);
 250              		.loc 1 96 0
 251 001e A023     		movs	r3, #160
 252              	.LVL23:
ARM GAS  C:\Users\d3bug\AppData\Local\Temp\ccQIvhDN.s 			page 9


 253 0020 2370     		strb	r3, [r4]
  97:Generated_Source\PSoC4/nRF24_COMMANDS.c ****     
 254              		.loc 1 97 0
 255 0022 601C     		adds	r0, r4, #1
 256              	.LVL24:
 257 0024 2900     		movs	r1, r5
 258              	.LVL25:
 259 0026 FFF7FEFF 		bl	memcpy
 260              	.LVL26:
  99:Generated_Source\PSoC4/nRF24_COMMANDS.c **** }
 261              		.loc 1 99 0
 262 002a 3200     		movs	r2, r6
 263 002c 6946     		mov	r1, sp
 264 002e 2000     		movs	r0, r4
 265 0030 FFF7FEFF 		bl	nRF24_spi_xfer
 266              	.LVL27:
 100:Generated_Source\PSoC4/nRF24_COMMANDS.c **** 
 267              		.loc 1 100 0
 268 0034 BD46     		mov	sp, r7
 269              	.LVL28:
 270              		@ sp needed
 271              	.LVL29:
 272              	.LVL30:
 273              	.LVL31:
 274 0036 F8BD     		pop	{r3, r4, r5, r6, r7, pc}
 275              		.cfi_endproc
 276              	.LFE5:
 277              		.size	nRF24_cmd_write_tx_payload, .-nRF24_cmd_write_tx_payload
 278              		.section	.text.nRF24_cmd_read_payload_width,"ax",%progbits
 279              		.align	2
 280              		.global	nRF24_cmd_read_payload_width
 281              		.code	16
 282              		.thumb_func
 283              		.type	nRF24_cmd_read_payload_width, %function
 284              	nRF24_cmd_read_payload_width:
 285              	.LFB6:
 110:Generated_Source\PSoC4/nRF24_COMMANDS.c ****     uint8_t nrf_data_in[2] = {
 286              		.loc 1 110 0
 287              		.cfi_startproc
 288              		@ args = 0, pretend = 0, frame = 8
 289              		@ frame_needed = 0, uses_anonymous_args = 0
 290 0000 00B5     		push	{lr}
 291              		.cfi_def_cfa_offset 4
 292              		.cfi_offset 14, -4
 293 0002 83B0     		sub	sp, sp, #12
 294              		.cfi_def_cfa_offset 16
 111:Generated_Source\PSoC4/nRF24_COMMANDS.c ****         NRF_CMD_R_RX_PL_WID, NRF_CMD_NOP
 295              		.loc 1 111 0
 296 0004 0222     		movs	r2, #2
 297 0006 0849     		ldr	r1, .L8
 298 0008 01A8     		add	r0, sp, #4
 299 000a FFF7FEFF 		bl	memcpy
 300              	.LVL32:
 115:Generated_Source\PSoC4/nRF24_COMMANDS.c ****     
 301              		.loc 1 115 0
 302 000e 0023     		movs	r3, #0
 303 0010 6A46     		mov	r2, sp
ARM GAS  C:\Users\d3bug\AppData\Local\Temp\ccQIvhDN.s 			page 10


 304 0012 1380     		strh	r3, [r2]
 117:Generated_Source\PSoC4/nRF24_COMMANDS.c **** 
 305              		.loc 1 117 0
 306 0014 0222     		movs	r2, #2
 307 0016 6946     		mov	r1, sp
 308 0018 01A8     		add	r0, sp, #4
 309 001a FFF7FEFF 		bl	nRF24_spi_xfer
 310              	.LVL33:
 119:Generated_Source\PSoC4/nRF24_COMMANDS.c **** }
 311              		.loc 1 119 0
 312 001e 6B46     		mov	r3, sp
 313 0020 5878     		ldrb	r0, [r3, #1]
 120:Generated_Source\PSoC4/nRF24_COMMANDS.c **** 
 314              		.loc 1 120 0
 315 0022 03B0     		add	sp, sp, #12
 316              		@ sp needed
 317 0024 00BD     		pop	{pc}
 318              	.L9:
 319 0026 C046     		.align	2
 320              	.L8:
 321 0028 00000000 		.word	.LANCHOR0
 322              		.cfi_endproc
 323              	.LFE6:
 324              		.size	nRF24_cmd_read_payload_width, .-nRF24_cmd_read_payload_width
 325              		.section	.text.nRF24_cmd_write_ack_payload,"ax",%progbits
 326              		.align	2
 327              		.global	nRF24_cmd_write_ack_payload
 328              		.code	16
 329              		.thumb_func
 330              		.type	nRF24_cmd_write_ack_payload, %function
 331              	nRF24_cmd_write_ack_payload:
 332              	.LFB7:
 140:Generated_Source\PSoC4/nRF24_COMMANDS.c ****     uint8_t nrf_data_in[payload_size + 1];
 333              		.loc 1 140 0
 334              		.cfi_startproc
 335              		@ args = 0, pretend = 0, frame = 0
 336              		@ frame_needed = 1, uses_anonymous_args = 0
 337              	.LVL34:
 338 0000 F8B5     		push	{r3, r4, r5, r6, r7, lr}
 339              		.cfi_def_cfa_offset 24
 340              		.cfi_offset 3, -24
 341              		.cfi_offset 4, -20
 342              		.cfi_offset 5, -16
 343              		.cfi_offset 6, -12
 344              		.cfi_offset 7, -8
 345              		.cfi_offset 14, -4
 346 0002 00AF     		add	r7, sp, #0
 347              		.cfi_def_cfa_register 7
 141:Generated_Source\PSoC4/nRF24_COMMANDS.c ****     uint8_t nrf_data_out[payload_size + 1];
 348              		.loc 1 141 0
 349 0004 551C     		adds	r5, r2, #1
 350 0006 1300     		movs	r3, r2
 351 0008 0833     		adds	r3, r3, #8
 352 000a DB08     		lsrs	r3, r3, #3
 353 000c DB00     		lsls	r3, r3, #3
 354 000e 6C46     		mov	r4, sp
 355 0010 E41A     		subs	r4, r4, r3
ARM GAS  C:\Users\d3bug\AppData\Local\Temp\ccQIvhDN.s 			page 11


 356 0012 A546     		mov	sp, r4
 357              	.LVL35:
 142:Generated_Source\PSoC4/nRF24_COMMANDS.c ****     
 358              		.loc 1 142 0
 359 0014 6E46     		mov	r6, sp
 360 0016 F31A     		subs	r3, r6, r3
 361 0018 9D46     		mov	sp, r3
 362              	.LVL36:
 144:Generated_Source\PSoC4/nRF24_COMMANDS.c ****     memcpy(&nrf_data_in[1], payload, payload_size);
 363              		.loc 1 144 0
 364 001a 5823     		movs	r3, #88
 365              	.LVL37:
 366 001c 5B42     		rsbs	r3, r3, #0
 367 001e 1843     		orrs	r0, r3
 368              	.LVL38:
 369 0020 2070     		strb	r0, [r4]
 145:Generated_Source\PSoC4/nRF24_COMMANDS.c ****     
 370              		.loc 1 145 0
 371 0022 601C     		adds	r0, r4, #1
 372 0024 FFF7FEFF 		bl	memcpy
 373              	.LVL39:
 147:Generated_Source\PSoC4/nRF24_COMMANDS.c **** }
 374              		.loc 1 147 0
 375 0028 2A00     		movs	r2, r5
 376 002a 6946     		mov	r1, sp
 377 002c 2000     		movs	r0, r4
 378 002e FFF7FEFF 		bl	nRF24_spi_xfer
 379              	.LVL40:
 148:Generated_Source\PSoC4/nRF24_COMMANDS.c **** 
 380              		.loc 1 148 0
 381 0032 BD46     		mov	sp, r7
 382              	.LVL41:
 383              		@ sp needed
 384              	.LVL42:
 385              	.LVL43:
 386              	.LVL44:
 387 0034 F8BD     		pop	{r3, r4, r5, r6, r7, pc}
 388              		.cfi_endproc
 389              	.LFE7:
 390              		.size	nRF24_cmd_write_ack_payload, .-nRF24_cmd_write_ack_payload
 391 0036 C046     		.section	.text.nRF24_cmd_no_ack_payload,"ax",%progbits
 392              		.align	2
 393              		.global	nRF24_cmd_no_ack_payload
 394              		.code	16
 395              		.thumb_func
 396              		.type	nRF24_cmd_no_ack_payload, %function
 397              	nRF24_cmd_no_ack_payload:
 398              	.LFB8:
 159:Generated_Source\PSoC4/nRF24_COMMANDS.c ****     uint8_t nrf_data_in[payload_size + 1];
 399              		.loc 1 159 0
 400              		.cfi_startproc
 401              		@ args = 0, pretend = 0, frame = 0
 402              		@ frame_needed = 1, uses_anonymous_args = 0
 403              	.LVL45:
 404 0000 F8B5     		push	{r3, r4, r5, r6, r7, lr}
 405              		.cfi_def_cfa_offset 24
 406              		.cfi_offset 3, -24
ARM GAS  C:\Users\d3bug\AppData\Local\Temp\ccQIvhDN.s 			page 12


 407              		.cfi_offset 4, -20
 408              		.cfi_offset 5, -16
 409              		.cfi_offset 6, -12
 410              		.cfi_offset 7, -8
 411              		.cfi_offset 14, -4
 412 0002 00AF     		add	r7, sp, #0
 413              		.cfi_def_cfa_register 7
 414 0004 0500     		movs	r5, r0
 415 0006 0A00     		movs	r2, r1
 160:Generated_Source\PSoC4/nRF24_COMMANDS.c ****     uint8_t nrf_data_out[payload_size + 1];
 416              		.loc 1 160 0
 417 0008 4E1C     		adds	r6, r1, #1
 418 000a 0B00     		movs	r3, r1
 419 000c 0833     		adds	r3, r3, #8
 420 000e DB08     		lsrs	r3, r3, #3
 421 0010 DB00     		lsls	r3, r3, #3
 422 0012 6946     		mov	r1, sp
 423              	.LVL46:
 424 0014 C91A     		subs	r1, r1, r3
 425 0016 8D46     		mov	sp, r1
 426 0018 6C46     		mov	r4, sp
 427              	.LVL47:
 161:Generated_Source\PSoC4/nRF24_COMMANDS.c ****     
 428              		.loc 1 161 0
 429 001a CB1A     		subs	r3, r1, r3
 430 001c 9D46     		mov	sp, r3
 431              	.LVL48:
 163:Generated_Source\PSoC4/nRF24_COMMANDS.c ****     memcpy(&nrf_data_in[1], payload, payload_size);
 432              		.loc 1 163 0
 433 001e B023     		movs	r3, #176
 434              	.LVL49:
 435 0020 2370     		strb	r3, [r4]
 164:Generated_Source\PSoC4/nRF24_COMMANDS.c ****     
 436              		.loc 1 164 0
 437 0022 601C     		adds	r0, r4, #1
 438              	.LVL50:
 439 0024 2900     		movs	r1, r5
 440              	.LVL51:
 441 0026 FFF7FEFF 		bl	memcpy
 442              	.LVL52:
 166:Generated_Source\PSoC4/nRF24_COMMANDS.c **** }
 443              		.loc 1 166 0
 444 002a 3200     		movs	r2, r6
 445 002c 6946     		mov	r1, sp
 446 002e 2000     		movs	r0, r4
 447 0030 FFF7FEFF 		bl	nRF24_spi_xfer
 448              	.LVL53:
 167:Generated_Source\PSoC4/nRF24_COMMANDS.c **** 
 449              		.loc 1 167 0
 450 0034 BD46     		mov	sp, r7
 451              	.LVL54:
 452              		@ sp needed
 453              	.LVL55:
 454              	.LVL56:
 455              	.LVL57:
 456 0036 F8BD     		pop	{r3, r4, r5, r6, r7, pc}
 457              		.cfi_endproc
ARM GAS  C:\Users\d3bug\AppData\Local\Temp\ccQIvhDN.s 			page 13


 458              	.LFE8:
 459              		.size	nRF24_cmd_no_ack_payload, .-nRF24_cmd_no_ack_payload
 460              		.section	.text.nRF24_cmd_nop,"ax",%progbits
 461              		.align	2
 462              		.global	nRF24_cmd_nop
 463              		.code	16
 464              		.thumb_func
 465              		.type	nRF24_cmd_nop, %function
 466              	nRF24_cmd_nop:
 467              	.LFB9:
 175:Generated_Source\PSoC4/nRF24_COMMANDS.c ****     return nRF24_send_cmd(NRF_CMD_NOP);
 468              		.loc 1 175 0
 469              		.cfi_startproc
 470              		@ args = 0, pretend = 0, frame = 0
 471              		@ frame_needed = 0, uses_anonymous_args = 0
 472 0000 10B5     		push	{r4, lr}
 473              		.cfi_def_cfa_offset 8
 474              		.cfi_offset 4, -8
 475              		.cfi_offset 14, -4
 176:Generated_Source\PSoC4/nRF24_COMMANDS.c **** }
 476              		.loc 1 176 0
 477 0002 FF20     		movs	r0, #255
 478 0004 FFF7FEFF 		bl	nRF24_send_cmd
 479              	.LVL58:
 177:Generated_Source\PSoC4/nRF24_COMMANDS.c **** 
 480              		.loc 1 177 0
 481              		@ sp needed
 482 0008 10BD     		pop	{r4, pc}
 483              		.cfi_endproc
 484              	.LFE9:
 485              		.size	nRF24_cmd_nop, .-nRF24_cmd_nop
 486 000a C046     		.section	.rodata
 487              		.align	2
 488              		.set	.LANCHOR0,. + 0
 489              	.LC0:
 490 0000 60       		.byte	96
 491 0001 FF       		.byte	-1
 492              		.text
 493              	.Letext0:
 494              		.file 2 "c:\\program files (x86)\\cypress\\psoc creator\\4.2\\psoc creator\\import\\gnu\\arm\\5.4.
 495              		.file 3 "c:\\program files (x86)\\cypress\\psoc creator\\4.2\\psoc creator\\import\\gnu\\arm\\5.4.
 496              		.file 4 "c:\\program files (x86)\\cypress\\psoc creator\\4.2\\psoc creator\\import\\gnu\\arm\\5.4.
 497              		.file 5 "Generated_Source\\PSoC4\\nRF24_DEFS.h"
 498              		.file 6 "Generated_Source\\PSoC4\\nRF24_HAL.h"