ARM GAS  C:\Users\Xwx47\AppData\Local\Temp\cceSWjoB.s 			page 1


   1              		.syntax unified
   2              		.cpu cortex-m0plus
   3              		.fpu softvfp
   4              		.eabi_attribute 20, 1
   5              		.eabi_attribute 21, 1
   6              		.eabi_attribute 23, 3
   7              		.eabi_attribute 24, 1
   8              		.eabi_attribute 25, 1
   9              		.eabi_attribute 26, 1
  10              		.eabi_attribute 30, 1
  11              		.eabi_attribute 34, 0
  12              		.eabi_attribute 18, 4
  13              		.thumb
  14              		.syntax unified
  15              		.file	"main.c"
  16              		.text
  17              	.Ltext0:
  18              		.cfi_sections	.debug_frame
  19              		.section	.text.IRQ_Handler,"ax",%progbits
  20              		.align	2
  21              		.global	IRQ_Handler
  22              		.code	16
  23              		.thumb_func
  24              		.type	IRQ_Handler, %function
  25              	IRQ_Handler:
  26              	.LFB36:
  27              		.file 1 "main.c"
   1:main.c        **** /*
   2:main.c        ****  * 00_Basic_Rx
   3:main.c        ****  * 
   4:main.c        ****  * The nrf24 is configured as Rx, it will print the received data via UART.
   5:main.c        ****  */
   6:main.c        **** 
   7:main.c        **** #include "project.h"
   8:main.c        **** #include <stdbool.h>
   9:main.c        **** #include <stdio.h>
  10:main.c        **** 
  11:main.c        **** volatile bool irq_flag = false;
  12:main.c        **** 
  13:main.c        **** // here we will store the received data
  14:main.c        **** unsigned char data;
  15:main.c        **** 
  16:main.c        **** // Executed when the IRQ pin triggers an interrupt
  17:main.c        **** CY_ISR_PROTO(IRQ_Handler);
  18:main.c        **** void print_status(void);
  19:main.c        **** 
  20:main.c        **** int main(void)
  21:main.c        **** {
  22:main.c        ****     const uint8_t RX_ADDR[5]= {0xBA, 0xAD, 0xC0, 0xFF, 0xEE};
  23:main.c        ****     
  24:main.c        ****     // here we will store the received data
  25:main.c        ****     unsigned char data = ' ';
  26:main.c        ****     uint8_t count = 0;
  27:main.c        ****     
  28:main.c        ****     // Set the Handler for the IRQ interrupt
  29:main.c        ****     isr_IRQ_StartEx(IRQ_Handler);
  30:main.c        ****     
ARM GAS  C:\Users\Xwx47\AppData\Local\Temp\cceSWjoB.s 			page 2


  31:main.c        ****     CyGlobalIntEnable;
  32:main.c        ****     
  33:main.c        ****     UART_Start();
  34:main.c        ****     UART_PutChar(0x0C);
  35:main.c        ****     UART_PutString("Echo project, Rx\r\n");
  36:main.c        ****     
  37:main.c        ****     nRF24_start();
  38:main.c        ****     
  39:main.c        ****     nRF24_rx_write_payload(NRF_PIPE0, &count, 1);
  40:main.c        ****     
  41:main.c        ****     nRF24_set_rx_pipe_0_address(RX_ADDR, 5);
  42:main.c        ****     nRF24_set_tx_address(RX_ADDR, 5);
  43:main.c        ****     
  44:main.c        ****     nRF24_start_listening();
  45:main.c        ****     
  46:main.c        ****     while (1) {
  47:main.c        ****         
  48:main.c        ****         UART_PutString("Waiting for data...\r\n");
  49:main.c        ****         
  50:main.c        ****         while(false == irq_flag);
  51:main.c        ****         LED_Write(~LED_Read());
  52:main.c        ****         irq_flag = false;
  53:main.c        ****         
  54:main.c        ****         // "Safe" zone
  55:main.c        ****         nRF24_stop_listening();
  56:main.c        **** 
  57:main.c        ****         nRF24_clear_all_irqs();
  58:main.c        ****         
  59:main.c        ****         // get the data from the transmitter
  60:main.c        ****         nRF24_get_rx_payload(&data, 1);
  61:main.c        ****         // put count into the TX FIFO
  62:main.c        ****         count++;
  63:main.c        ****         nRF24_rx_write_payload(NRF_PIPE0, &count, 1);
  64:main.c        ****         
  65:main.c        ****         // end of Safe zone
  66:main.c        ****         nRF24_start_listening();
  67:main.c        ****         
  68:main.c        ****         UART_PutString("Received: ");
  69:main.c        ****         UART_PutChar(data);
  70:main.c        ****         UART_PutCRLF();
  71:main.c        **** 
  72:main.c        ****     }
  73:main.c        **** }
  74:main.c        **** 
  75:main.c        **** void print_status(void)
  76:main.c        **** {
  77:main.c        ****     char array[10];
  78:main.c        ****     uint8_t sts = nRF24_get_status();
  79:main.c        ****     UART_PutString("Status: 0x");
  80:main.c        ****     sprintf(array, "%02X\r\n", sts);
  81:main.c        ****     UART_PutString(array);
  82:main.c        ****     UART_PutCRLF();
  83:main.c        **** }
  84:main.c        **** 
  85:main.c        **** CY_ISR(IRQ_Handler)
  86:main.c        **** {
  28              		.loc 1 86 0
ARM GAS  C:\Users\Xwx47\AppData\Local\Temp\cceSWjoB.s 			page 3


  29              		.cfi_startproc
  30              		@ args = 0, pretend = 0, frame = 0
  31              		@ frame_needed = 0, uses_anonymous_args = 0
  32 0000 10B5     		push	{r4, lr}
  33              		.cfi_def_cfa_offset 8
  34              		.cfi_offset 4, -8
  35              		.cfi_offset 14, -4
  87:main.c        ****     irq_flag = true;
  36              		.loc 1 87 0
  37 0002 0122     		movs	r2, #1
  38 0004 024B     		ldr	r3, .L2
  39 0006 1A70     		strb	r2, [r3]
  88:main.c        ****     IRQ_ClearInterrupt();
  40              		.loc 1 88 0
  41 0008 FFF7FEFF 		bl	IRQ_ClearInterrupt
  42              	.LVL0:
  89:main.c        **** }
  43              		.loc 1 89 0
  44              		@ sp needed
  45 000c 10BD     		pop	{r4, pc}
  46              	.L3:
  47 000e C046     		.align	2
  48              	.L2:
  49 0010 00000000 		.word	.LANCHOR0
  50              		.cfi_endproc
  51              	.LFE36:
  52              		.size	IRQ_Handler, .-IRQ_Handler
  53              		.section	.text.main,"ax",%progbits
  54              		.align	2
  55              		.global	main
  56              		.code	16
  57              		.thumb_func
  58              		.type	main, %function
  59              	main:
  60              	.LFB34:
  21:main.c        ****     const uint8_t RX_ADDR[5]= {0xBA, 0xAD, 0xC0, 0xFF, 0xEE};
  61              		.loc 1 21 0
  62              		.cfi_startproc
  63              		@ args = 0, pretend = 0, frame = 16
  64              		@ frame_needed = 0, uses_anonymous_args = 0
  65 0000 10B5     		push	{r4, lr}
  66              		.cfi_def_cfa_offset 8
  67              		.cfi_offset 4, -8
  68              		.cfi_offset 14, -4
  69 0002 84B0     		sub	sp, sp, #16
  70              		.cfi_def_cfa_offset 24
  22:main.c        ****     
  71              		.loc 1 22 0
  72 0004 0522     		movs	r2, #5
  73 0006 2B49     		ldr	r1, .L7
  74 0008 02A8     		add	r0, sp, #8
  75 000a FFF7FEFF 		bl	memcpy
  76              	.LVL1:
  25:main.c        ****     uint8_t count = 0;
  77              		.loc 1 25 0
  78 000e 2022     		movs	r2, #32
  79 0010 6B46     		mov	r3, sp
ARM GAS  C:\Users\Xwx47\AppData\Local\Temp\cceSWjoB.s 			page 4


  80 0012 DA71     		strb	r2, [r3, #7]
  26:main.c        ****     
  81              		.loc 1 26 0
  82 0014 6B46     		mov	r3, sp
  83 0016 9C1D     		adds	r4, r3, #6
  84 0018 0023     		movs	r3, #0
  85 001a 2370     		strb	r3, [r4]
  29:main.c        ****     
  86              		.loc 1 29 0
  87 001c 2648     		ldr	r0, .L7+4
  88 001e FFF7FEFF 		bl	isr_IRQ_StartEx
  89              	.LVL2:
  31:main.c        ****     
  90              		.loc 1 31 0
  91              		.syntax divided
  92              	@ 31 "main.c" 1
  93 0022 62B6     		CPSIE   i
  94              	@ 0 "" 2
  33:main.c        ****     UART_PutChar(0x0C);
  95              		.loc 1 33 0
  96              		.thumb
  97              		.syntax unified
  98 0024 FFF7FEFF 		bl	UART_Start
  99              	.LVL3:
  34:main.c        ****     UART_PutString("Echo project, Rx\r\n");
 100              		.loc 1 34 0
 101 0028 0C20     		movs	r0, #12
 102 002a FFF7FEFF 		bl	UART_PutChar
 103              	.LVL4:
  35:main.c        ****     
 104              		.loc 1 35 0
 105 002e 2348     		ldr	r0, .L7+8
 106 0030 FFF7FEFF 		bl	UART_PutString
 107              	.LVL5:
  37:main.c        ****     
 108              		.loc 1 37 0
 109 0034 FFF7FEFF 		bl	nRF24_start
 110              	.LVL6:
  39:main.c        ****     
 111              		.loc 1 39 0
 112 0038 0122     		movs	r2, #1
 113 003a 2100     		movs	r1, r4
 114 003c 0020     		movs	r0, #0
 115 003e FFF7FEFF 		bl	nRF24_rx_write_payload
 116              	.LVL7:
  41:main.c        ****     nRF24_set_tx_address(RX_ADDR, 5);
 117              		.loc 1 41 0
 118 0042 0521     		movs	r1, #5
 119 0044 02A8     		add	r0, sp, #8
 120 0046 FFF7FEFF 		bl	nRF24_set_rx_pipe_0_address
 121              	.LVL8:
  42:main.c        ****     
 122              		.loc 1 42 0
 123 004a 0521     		movs	r1, #5
 124 004c 02A8     		add	r0, sp, #8
 125 004e FFF7FEFF 		bl	nRF24_set_tx_address
 126              	.LVL9:
ARM GAS  C:\Users\Xwx47\AppData\Local\Temp\cceSWjoB.s 			page 5


  44:main.c        ****     
 127              		.loc 1 44 0
 128 0052 FFF7FEFF 		bl	nRF24_start_listening
 129              	.LVL10:
 130              	.L6:
  48:main.c        ****         
 131              		.loc 1 48 0
 132 0056 1A48     		ldr	r0, .L7+12
 133 0058 FFF7FEFF 		bl	UART_PutString
 134              	.LVL11:
 135              	.L5:
  50:main.c        ****         LED_Write(~LED_Read());
 136              		.loc 1 50 0 discriminator 1
 137 005c 194B     		ldr	r3, .L7+16
 138 005e 1B78     		ldrb	r3, [r3]
 139 0060 002B     		cmp	r3, #0
 140 0062 FBD0     		beq	.L5
  51:main.c        ****         irq_flag = false;
 141              		.loc 1 51 0
 142 0064 FFF7FEFF 		bl	LED_Read
 143              	.LVL12:
 144 0068 C043     		mvns	r0, r0
 145 006a C0B2     		uxtb	r0, r0
 146 006c FFF7FEFF 		bl	LED_Write
 147              	.LVL13:
  52:main.c        ****         
 148              		.loc 1 52 0
 149 0070 0022     		movs	r2, #0
 150 0072 144B     		ldr	r3, .L7+16
 151 0074 1A70     		strb	r2, [r3]
  55:main.c        **** 
 152              		.loc 1 55 0
 153 0076 FFF7FEFF 		bl	nRF24_stop_listening
 154              	.LVL14:
  57:main.c        ****         
 155              		.loc 1 57 0
 156 007a FFF7FEFF 		bl	nRF24_clear_all_irqs
 157              	.LVL15:
  60:main.c        ****         // put count into the TX FIFO
 158              		.loc 1 60 0
 159 007e 6B46     		mov	r3, sp
 160 0080 DC1D     		adds	r4, r3, #7
 161 0082 0121     		movs	r1, #1
 162 0084 2000     		movs	r0, r4
 163 0086 FFF7FEFF 		bl	nRF24_get_rx_payload
 164              	.LVL16:
  62:main.c        ****         nRF24_rx_write_payload(NRF_PIPE0, &count, 1);
 165              		.loc 1 62 0
 166 008a 6B46     		mov	r3, sp
 167 008c 991D     		adds	r1, r3, #6
 168 008e 0B78     		ldrb	r3, [r1]
 169 0090 0133     		adds	r3, r3, #1
 170 0092 0B70     		strb	r3, [r1]
  63:main.c        ****         
 171              		.loc 1 63 0
 172 0094 0122     		movs	r2, #1
 173 0096 0020     		movs	r0, #0
ARM GAS  C:\Users\Xwx47\AppData\Local\Temp\cceSWjoB.s 			page 6


 174 0098 FFF7FEFF 		bl	nRF24_rx_write_payload
 175              	.LVL17:
  66:main.c        ****         
 176              		.loc 1 66 0
 177 009c FFF7FEFF 		bl	nRF24_start_listening
 178              	.LVL18:
  68:main.c        ****         UART_PutChar(data);
 179              		.loc 1 68 0
 180 00a0 0948     		ldr	r0, .L7+20
 181 00a2 FFF7FEFF 		bl	UART_PutString
 182              	.LVL19:
  69:main.c        ****         UART_PutCRLF();
 183              		.loc 1 69 0
 184 00a6 2078     		ldrb	r0, [r4]
 185 00a8 FFF7FEFF 		bl	UART_PutChar
 186              	.LVL20:
  70:main.c        **** 
 187              		.loc 1 70 0
 188 00ac FFF7FEFF 		bl	UART_PutCRLF
 189              	.LVL21:
  72:main.c        **** }
 190              		.loc 1 72 0
 191 00b0 D1E7     		b	.L6
 192              	.L8:
 193 00b2 C046     		.align	2
 194              	.L7:
 195 00b4 00000000 		.word	.LANCHOR1
 196 00b8 00000000 		.word	IRQ_Handler
 197 00bc 00000000 		.word	.LC4
 198 00c0 14000000 		.word	.LC6
 199 00c4 00000000 		.word	.LANCHOR0
 200 00c8 2C000000 		.word	.LC9
 201              		.cfi_endproc
 202              	.LFE34:
 203              		.size	main, .-main
 204              		.section	.text.print_status,"ax",%progbits
 205              		.align	2
 206              		.global	print_status
 207              		.code	16
 208              		.thumb_func
 209              		.type	print_status, %function
 210              	print_status:
 211              	.LFB35:
  76:main.c        ****     char array[10];
 212              		.loc 1 76 0
 213              		.cfi_startproc
 214              		@ args = 0, pretend = 0, frame = 16
 215              		@ frame_needed = 0, uses_anonymous_args = 0
 216 0000 10B5     		push	{r4, lr}
 217              		.cfi_def_cfa_offset 8
 218              		.cfi_offset 4, -8
 219              		.cfi_offset 14, -4
 220 0002 84B0     		sub	sp, sp, #16
 221              		.cfi_def_cfa_offset 24
  78:main.c        ****     UART_PutString("Status: 0x");
 222              		.loc 1 78 0
 223 0004 FFF7FEFF 		bl	nRF24_get_status
ARM GAS  C:\Users\Xwx47\AppData\Local\Temp\cceSWjoB.s 			page 7


 224              	.LVL22:
 225 0008 0400     		movs	r4, r0
 226              	.LVL23:
  79:main.c        ****     sprintf(array, "%02X\r\n", sts);
 227              		.loc 1 79 0
 228 000a 0748     		ldr	r0, .L10
 229 000c FFF7FEFF 		bl	UART_PutString
 230              	.LVL24:
  80:main.c        ****     UART_PutString(array);
 231              		.loc 1 80 0
 232 0010 2200     		movs	r2, r4
 233 0012 0649     		ldr	r1, .L10+4
 234 0014 01A8     		add	r0, sp, #4
 235 0016 FFF7FEFF 		bl	sprintf
 236              	.LVL25:
  81:main.c        ****     UART_PutCRLF();
 237              		.loc 1 81 0
 238 001a 01A8     		add	r0, sp, #4
 239 001c FFF7FEFF 		bl	UART_PutString
 240              	.LVL26:
  82:main.c        **** }
 241              		.loc 1 82 0
 242 0020 FFF7FEFF 		bl	UART_PutCRLF
 243              	.LVL27:
  83:main.c        **** 
 244              		.loc 1 83 0
 245 0024 04B0     		add	sp, sp, #16
 246              		@ sp needed
 247              	.LVL28:
 248 0026 10BD     		pop	{r4, pc}
 249              	.L11:
 250              		.align	2
 251              	.L10:
 252 0028 38000000 		.word	.LC11
 253 002c 44000000 		.word	.LC13
 254              		.cfi_endproc
 255              	.LFE35:
 256              		.size	print_status, .-print_status
 257              		.comm	data,1,1
 258              		.global	irq_flag
 259              		.section	.rodata
 260              		.align	2
 261              		.set	.LANCHOR1,. + 0
 262              	.LC0:
 263 0000 BA       		.byte	-70
 264 0001 AD       		.byte	-83
 265 0002 C0       		.byte	-64
 266 0003 FF       		.byte	-1
 267 0004 EE       		.byte	-18
 268              		.section	.rodata.str1.4,"aMS",%progbits,1
 269              		.align	2
 270              	.LC4:
 271 0000 4563686F 		.ascii	"Echo project, Rx\015\012\000"
 271      2070726F 
 271      6A656374 
 271      2C205278 
 271      0D0A00
ARM GAS  C:\Users\Xwx47\AppData\Local\Temp\cceSWjoB.s 			page 8


 272 0013 00       		.space	1
 273              	.LC6:
 274 0014 57616974 		.ascii	"Waiting for data...\015\012\000"
 274      696E6720 
 274      666F7220 
 274      64617461 
 274      2E2E2E0D 
 275 002a 0000     		.space	2
 276              	.LC9:
 277 002c 52656365 		.ascii	"Received: \000"
 277      69766564 
 277      3A2000
 278 0037 00       		.space	1
 279              	.LC11:
 280 0038 53746174 		.ascii	"Status: 0x\000"
 280      75733A20 
 280      307800
 281 0043 00       		.space	1
 282              	.LC13:
 283 0044 25303258 		.ascii	"%02X\015\012\000"
 283      0D0A00
 284              		.bss
 285              		.set	.LANCHOR0,. + 0
 286              		.type	irq_flag, %object
 287              		.size	irq_flag, 1
 288              	irq_flag:
 289 0000 00       		.space	1
 290              		.text
 291              	.Letext0:
 292              		.file 2 "c:\\program files (x86)\\cypress\\psoc creator\\4.1\\psoc creator\\import\\gnu\\arm\\5.4.
 293              		.file 3 "c:\\program files (x86)\\cypress\\psoc creator\\4.1\\psoc creator\\import\\gnu\\arm\\5.4.
 294              		.file 4 "Generated_Source\\PSoC4/nRF24_DEFS.h"
 295              		.file 5 "Generated_Source\\PSoC4/IRQ.h"
 296              		.file 6 "Generated_Source\\PSoC4/isr_IRQ.h"
 297              		.file 7 "Generated_Source\\PSoC4/UART.h"
 298              		.file 8 "Generated_Source\\PSoC4/nRF24_FUNCS.h"
 299              		.file 9 "Generated_Source\\PSoC4/LED.h"
 300              		.file 10 "c:\\program files (x86)\\cypress\\psoc creator\\4.1\\psoc creator\\import\\gnu\\arm\\5.4