ARM GAS  C:\Users\Xwx47\AppData\Local\Temp\ccQXpmeQ.s 			page 1


   1              		.syntax unified
   2              		.cpu cortex-m0plus
   3              		.fpu softvfp
   4              		.eabi_attribute 20, 1
   5              		.eabi_attribute 21, 1
   6              		.eabi_attribute 23, 3
   7              		.eabi_attribute 24, 1
   8              		.eabi_attribute 25, 1
   9              		.eabi_attribute 26, 1
  10              		.eabi_attribute 30, 1
  11              		.eabi_attribute 34, 0
  12              		.eabi_attribute 18, 4
  13              		.thumb
  14              		.syntax unified
  15              		.file	"nRF24_LL_SPI.c"
  16              		.text
  17              	.Ltext0:
  18              		.cfi_sections	.debug_frame
  19              		.section	.text.nRF24_readRegister,"ax",%progbits
  20              		.align	2
  21              		.global	nRF24_readRegister
  22              		.code	16
  23              		.thumb_func
  24              		.type	nRF24_readRegister, %function
  25              	nRF24_readRegister:
  26              	.LFB33:
  27              		.file 1 "Generated_Source\\PSoC4\\nRF24_LL_SPI.c"
   1:Generated_Source\PSoC4/nRF24_LL_SPI.c **** /****************************************************************************
   2:Generated_Source\PSoC4/nRF24_LL_SPI.c **** * This file is part of the nRF24 Custom Component for PSoC Devices.
   3:Generated_Source\PSoC4/nRF24_LL_SPI.c **** *
   4:Generated_Source\PSoC4/nRF24_LL_SPI.c **** * Copyright (C) 2017 Carlos Diaz <carlos.santiago.diaz@gmail.com>
   5:Generated_Source\PSoC4/nRF24_LL_SPI.c **** *
   6:Generated_Source\PSoC4/nRF24_LL_SPI.c **** * Permission to use, copy, modify, and/or distribute this software for any
   7:Generated_Source\PSoC4/nRF24_LL_SPI.c **** * purpose with or without fee is hereby granted, provided that the above
   8:Generated_Source\PSoC4/nRF24_LL_SPI.c **** * copyright notice and this permission notice appear in all copies.
   9:Generated_Source\PSoC4/nRF24_LL_SPI.c **** *
  10:Generated_Source\PSoC4/nRF24_LL_SPI.c **** * THE SOFTWARE IS PROVIDED "AS IS" AND THE AUTHOR DISCLAIMS ALL WARRANTIES
  11:Generated_Source\PSoC4/nRF24_LL_SPI.c **** * WITH REGARD TO THIS SOFTWARE INCLUDING ALL IMPLIED WARRANTIES OF
  12:Generated_Source\PSoC4/nRF24_LL_SPI.c **** * MERCHANTABILITY AND FITNESS. IN NO EVENT SHALL THE AUTHOR BE LIABLE FOR
  13:Generated_Source\PSoC4/nRF24_LL_SPI.c **** * ANY SPECIAL, DIRECT, INDIRECT, OR CONSEQUENTIAL DAMAGES OR ANY DAMAGES
  14:Generated_Source\PSoC4/nRF24_LL_SPI.c **** * WHATSOEVER RESULTING FROM LOSS OF USE, DATA OR PROFITS, WHETHER IN AN
  15:Generated_Source\PSoC4/nRF24_LL_SPI.c **** * ACTION OF CONTRACT, NEGLIGENCE OR OTHER TORTIOUS ACTION, ARISING OUT OF
  16:Generated_Source\PSoC4/nRF24_LL_SPI.c **** * OR IN CONNECTION WITH THE USE OR PERFORMANCE OF THIS SOFTWARE.
  17:Generated_Source\PSoC4/nRF24_LL_SPI.c **** ****************************************************************************/
  18:Generated_Source\PSoC4/nRF24_LL_SPI.c **** 
  19:Generated_Source\PSoC4/nRF24_LL_SPI.c **** /**
  20:Generated_Source\PSoC4/nRF24_LL_SPI.c **** * @file nRF24_LL_SPI.c
  21:Generated_Source\PSoC4/nRF24_LL_SPI.c **** *
  22:Generated_Source\PSoC4/nRF24_LL_SPI.c **** * @brief The nRF24 radio is controlled via SPI, this file have all the SPI
  23:Generated_Source\PSoC4/nRF24_LL_SPI.c **** * communication between the PSoC and the nRF24 radio.
  24:Generated_Source\PSoC4/nRF24_LL_SPI.c **** */
  25:Generated_Source\PSoC4/nRF24_LL_SPI.c **** 
  26:Generated_Source\PSoC4/nRF24_LL_SPI.c **** #include "nRF24_NRF_CONFIG.h"
  27:Generated_Source\PSoC4/nRF24_LL_SPI.c **** #include "nRF24_LL_SPI.h"
  28:Generated_Source\PSoC4/nRF24_LL_SPI.c **** 
  29:Generated_Source\PSoC4/nRF24_LL_SPI.c **** /**
  30:Generated_Source\PSoC4/nRF24_LL_SPI.c ****  * Read 1byte of an nRF24 register.
ARM GAS  C:\Users\Xwx47\AppData\Local\Temp\ccQXpmeQ.s 			page 2


  31:Generated_Source\PSoC4/nRF24_LL_SPI.c ****  *
  32:Generated_Source\PSoC4/nRF24_LL_SPI.c ****  * @param const NrfRegister reg: Register to be read.
  33:Generated_Source\PSoC4/nRF24_LL_SPI.c ****  *
  34:Generated_Source\PSoC4/nRF24_LL_SPI.c ****  * @return uint8_t: Content of the register.
  35:Generated_Source\PSoC4/nRF24_LL_SPI.c ****  */
  36:Generated_Source\PSoC4/nRF24_LL_SPI.c **** uint8_t nRF24_readRegister(const NrfRegister reg)
  37:Generated_Source\PSoC4/nRF24_LL_SPI.c **** {
  28              		.loc 1 37 0
  29              		.cfi_startproc
  30              		@ args = 0, pretend = 0, frame = 0
  31              		@ frame_needed = 0, uses_anonymous_args = 0
  32              	.LVL0:
  33 0000 10B5     		push	{r4, lr}
  34              		.cfi_def_cfa_offset 8
  35              		.cfi_offset 4, -8
  36              		.cfi_offset 14, -4
  37 0002 0400     		movs	r4, r0
  38              	.LVL1:
  38:Generated_Source\PSoC4/nRF24_LL_SPI.c ****     uint8_t data = 0;
  39:Generated_Source\PSoC4/nRF24_LL_SPI.c **** #if defined(CY_SCB_SPI_H) // SCB Block
  40:Generated_Source\PSoC4/nRF24_LL_SPI.c **** #if defined(SPI_CY_SCB_SPI_PDL_H) // PSoC6
  41:Generated_Source\PSoC4/nRF24_LL_SPI.c ****     Cy_GPIO_Clr(SS_PORT, SS_NUM);
  42:Generated_Source\PSoC4/nRF24_LL_SPI.c ****     
  43:Generated_Source\PSoC4/nRF24_LL_SPI.c ****     Cy_SCB_SPI_Write(SPI_HW, NRF_R_REGISTER_CMD | reg);
  44:Generated_Source\PSoC4/nRF24_LL_SPI.c ****     Cy_SCB_SPI_Write(SPI_HW, NRF_NOP_CMD);
  45:Generated_Source\PSoC4/nRF24_LL_SPI.c ****     
  46:Generated_Source\PSoC4/nRF24_LL_SPI.c ****     while (Cy_SCB_SPI_GetNumInRxFifo(SPI_HW) != 2) {
  47:Generated_Source\PSoC4/nRF24_LL_SPI.c ****     }
  48:Generated_Source\PSoC4/nRF24_LL_SPI.c ****     
  49:Generated_Source\PSoC4/nRF24_LL_SPI.c ****     Cy_GPIO_Set(SS_PORT, SS_NUM);
  50:Generated_Source\PSoC4/nRF24_LL_SPI.c ****     
  51:Generated_Source\PSoC4/nRF24_LL_SPI.c ****     (void)Cy_SCB_SPI_Read(SPI_HW);
  52:Generated_Source\PSoC4/nRF24_LL_SPI.c ****     data = Cy_SCB_SPI_Read(SPI_HW);
  53:Generated_Source\PSoC4/nRF24_LL_SPI.c **** #else // PSoC4
  54:Generated_Source\PSoC4/nRF24_LL_SPI.c ****     SPI_SpiUartClearRxBuffer();
  39              		.loc 1 54 0
  40 0004 FFF7FEFF 		bl	SPI_SpiUartClearRxBuffer
  41              	.LVL2:
  55:Generated_Source\PSoC4/nRF24_LL_SPI.c ****     SPI_SpiUartClearTxBuffer();
  42              		.loc 1 55 0
  43 0008 FFF7FEFF 		bl	SPI_SpiUartClearTxBuffer
  44              	.LVL3:
  56:Generated_Source\PSoC4/nRF24_LL_SPI.c **** 
  57:Generated_Source\PSoC4/nRF24_LL_SPI.c ****     SS_Write(0);
  45              		.loc 1 57 0
  46 000c 0020     		movs	r0, #0
  47 000e FFF7FEFF 		bl	SS_Write
  48              	.LVL4:
  58:Generated_Source\PSoC4/nRF24_LL_SPI.c ****     SPI_SpiUartWriteTxData(NRF_R_REGISTER_CMD | reg);
  49              		.loc 1 58 0
  50 0012 2000     		movs	r0, r4
  51 0014 FFF7FEFF 		bl	SPI_SpiUartWriteTxData
  52              	.LVL5:
  59:Generated_Source\PSoC4/nRF24_LL_SPI.c ****     SPI_SpiUartWriteTxData(NRF_NOP_CMD);
  53              		.loc 1 59 0
  54 0018 FF20     		movs	r0, #255
  55 001a FFF7FEFF 		bl	SPI_SpiUartWriteTxData
ARM GAS  C:\Users\Xwx47\AppData\Local\Temp\ccQXpmeQ.s 			page 3


  56              	.LVL6:
  57              	.L2:
  60:Generated_Source\PSoC4/nRF24_LL_SPI.c **** 
  61:Generated_Source\PSoC4/nRF24_LL_SPI.c ****     while (SPI_SpiUartGetRxBufferSize() != 2) {
  58              		.loc 1 61 0 discriminator 1
  59 001e FFF7FEFF 		bl	SPI_SpiUartGetRxBufferSize
  60              	.LVL7:
  61 0022 0228     		cmp	r0, #2
  62 0024 FBD1     		bne	.L2
  62:Generated_Source\PSoC4/nRF24_LL_SPI.c ****     }
  63:Generated_Source\PSoC4/nRF24_LL_SPI.c ****     SS_Write(1);
  63              		.loc 1 63 0
  64 0026 0138     		subs	r0, r0, #1
  65 0028 FFF7FEFF 		bl	SS_Write
  66              	.LVL8:
  64:Generated_Source\PSoC4/nRF24_LL_SPI.c **** 
  65:Generated_Source\PSoC4/nRF24_LL_SPI.c ****     // This is the STATUS Register
  66:Generated_Source\PSoC4/nRF24_LL_SPI.c ****     (void)SPI_SpiUartReadRxData();
  67              		.loc 1 66 0
  68 002c FFF7FEFF 		bl	SPI_SpiUartReadRxData
  69              	.LVL9:
  67:Generated_Source\PSoC4/nRF24_LL_SPI.c ****     // This is the data we want
  68:Generated_Source\PSoC4/nRF24_LL_SPI.c ****     data = SPI_SpiUartReadRxData();
  70              		.loc 1 68 0
  71 0030 FFF7FEFF 		bl	SPI_SpiUartReadRxData
  72              	.LVL10:
  73 0034 C0B2     		uxtb	r0, r0
  74              	.LVL11:
  69:Generated_Source\PSoC4/nRF24_LL_SPI.c **** #endif
  70:Generated_Source\PSoC4/nRF24_LL_SPI.c **** #else // UDB Block
  71:Generated_Source\PSoC4/nRF24_LL_SPI.c ****     SPI_ClearRxBuffer();
  72:Generated_Source\PSoC4/nRF24_LL_SPI.c ****     SPI_ClearTxBuffer();
  73:Generated_Source\PSoC4/nRF24_LL_SPI.c **** 
  74:Generated_Source\PSoC4/nRF24_LL_SPI.c ****     SS_Write(0);
  75:Generated_Source\PSoC4/nRF24_LL_SPI.c ****     SPI_WriteTxData(NRF_R_REGISTER_CMD | reg);
  76:Generated_Source\PSoC4/nRF24_LL_SPI.c ****     SPI_WriteTxData(NRF_NOP_CMD);
  77:Generated_Source\PSoC4/nRF24_LL_SPI.c **** 
  78:Generated_Source\PSoC4/nRF24_LL_SPI.c ****     while (!(SPI_ReadTxStatus() & SPI_STS_BYTE_COMPLETE)) {
  79:Generated_Source\PSoC4/nRF24_LL_SPI.c ****     }
  80:Generated_Source\PSoC4/nRF24_LL_SPI.c ****     SS_Write(1);
  81:Generated_Source\PSoC4/nRF24_LL_SPI.c **** 
  82:Generated_Source\PSoC4/nRF24_LL_SPI.c ****     // This is the STATUS Register
  83:Generated_Source\PSoC4/nRF24_LL_SPI.c ****     (void)SPI_ReadRxData();
  84:Generated_Source\PSoC4/nRF24_LL_SPI.c ****     // This is the data we want
  85:Generated_Source\PSoC4/nRF24_LL_SPI.c ****     data = SPI_ReadRxData();
  86:Generated_Source\PSoC4/nRF24_LL_SPI.c **** #endif
  87:Generated_Source\PSoC4/nRF24_LL_SPI.c ****     return data;
  88:Generated_Source\PSoC4/nRF24_LL_SPI.c **** }
  75              		.loc 1 88 0
  76              		@ sp needed
  77 0036 10BD     		pop	{r4, pc}
  78              		.cfi_endproc
  79              	.LFE33:
  80              		.size	nRF24_readRegister, .-nRF24_readRegister
  81              		.section	.text.nRF24_readLongRegister,"ax",%progbits
  82              		.align	2
  83              		.global	nRF24_readLongRegister
ARM GAS  C:\Users\Xwx47\AppData\Local\Temp\ccQXpmeQ.s 			page 4


  84              		.code	16
  85              		.thumb_func
  86              		.type	nRF24_readLongRegister, %function
  87              	nRF24_readLongRegister:
  88              	.LFB34:
  89:Generated_Source\PSoC4/nRF24_LL_SPI.c **** 
  90:Generated_Source\PSoC4/nRF24_LL_SPI.c **** /**
  91:Generated_Source\PSoC4/nRF24_LL_SPI.c ****  * Read more than 1byte of a nRF24 register.
  92:Generated_Source\PSoC4/nRF24_LL_SPI.c ****  *
  93:Generated_Source\PSoC4/nRF24_LL_SPI.c ****  * @param const NrfRegister reg: Register to be read.
  94:Generated_Source\PSoC4/nRF24_LL_SPI.c ****  * @param uint8_t* data: Pointer to where the content of the register
  95:Generated_Source\PSoC4/nRF24_LL_SPI.c ****  * will be stored.
  96:Generated_Source\PSoC4/nRF24_LL_SPI.c ****  * @param size_t size: Size of the register, larger register hold 5 bytes of
  97:Generated_Source\PSoC4/nRF24_LL_SPI.c ****  * data.
  98:Generated_Source\PSoC4/nRF24_LL_SPI.c ****  */
  99:Generated_Source\PSoC4/nRF24_LL_SPI.c **** void nRF24_readLongRegister(const NrfRegister reg, uint8_t* data,
 100:Generated_Source\PSoC4/nRF24_LL_SPI.c ****                                        const size_t size)
 101:Generated_Source\PSoC4/nRF24_LL_SPI.c **** {
  89              		.loc 1 101 0
  90              		.cfi_startproc
  91              		@ args = 0, pretend = 0, frame = 0
  92              		@ frame_needed = 0, uses_anonymous_args = 0
  93              	.LVL12:
  94 0000 F8B5     		push	{r3, r4, r5, r6, r7, lr}
  95              		.cfi_def_cfa_offset 24
  96              		.cfi_offset 3, -24
  97              		.cfi_offset 4, -20
  98              		.cfi_offset 5, -16
  99              		.cfi_offset 6, -12
 100              		.cfi_offset 7, -8
 101              		.cfi_offset 14, -4
 102 0002 0400     		movs	r4, r0
 103 0004 0F00     		movs	r7, r1
 104 0006 1600     		movs	r6, r2
 102:Generated_Source\PSoC4/nRF24_LL_SPI.c **** #if defined(CY_SCB_SPI_H) // SCB Block
 103:Generated_Source\PSoC4/nRF24_LL_SPI.c **** #if defined(SPI_CY_SCB_SPI_PDL_H) // PSoC6
 104:Generated_Source\PSoC4/nRF24_LL_SPI.c ****     Cy_GPIO_Clr(SS_PORT, SS_NUM);
 105:Generated_Source\PSoC4/nRF24_LL_SPI.c ****     Cy_SCB_SPI_Write(SPI_HW, NRF_R_REGISTER_CMD | reg);
 106:Generated_Source\PSoC4/nRF24_LL_SPI.c ****     while (Cy_SCB_SPI_GetNumInRxFifo(SPI_HW) == 0) {
 107:Generated_Source\PSoC4/nRF24_LL_SPI.c ****     }
 108:Generated_Source\PSoC4/nRF24_LL_SPI.c ****     
 109:Generated_Source\PSoC4/nRF24_LL_SPI.c ****     (void)Cy_SCB_SPI_Read(SPI_HW);
 110:Generated_Source\PSoC4/nRF24_LL_SPI.c ****     for(size_t i = 0; i < size; i++){
 111:Generated_Source\PSoC4/nRF24_LL_SPI.c ****         Cy_SCB_SPI_Write(SPI_HW, NRF_NOP_CMD);
 112:Generated_Source\PSoC4/nRF24_LL_SPI.c ****         while (Cy_SCB_SPI_GetNumInRxFifo(SPI_HW) == 0) {}
 113:Generated_Source\PSoC4/nRF24_LL_SPI.c ****         data[1] = Cy_SCB_SPI_Read(SPI_HW);
 114:Generated_Source\PSoC4/nRF24_LL_SPI.c ****     }
 115:Generated_Source\PSoC4/nRF24_LL_SPI.c ****     
 116:Generated_Source\PSoC4/nRF24_LL_SPI.c ****     Cy_GPIO_Set(SS_PORT, SS_NUM);
 117:Generated_Source\PSoC4/nRF24_LL_SPI.c **** #else // PSoC4
 118:Generated_Source\PSoC4/nRF24_LL_SPI.c ****     SPI_SpiUartClearRxBuffer();
 105              		.loc 1 118 0
 106 0008 FFF7FEFF 		bl	SPI_SpiUartClearRxBuffer
 107              	.LVL13:
 119:Generated_Source\PSoC4/nRF24_LL_SPI.c ****     SPI_SpiUartClearTxBuffer();
 108              		.loc 1 119 0
 109 000c FFF7FEFF 		bl	SPI_SpiUartClearTxBuffer
ARM GAS  C:\Users\Xwx47\AppData\Local\Temp\ccQXpmeQ.s 			page 5


 110              	.LVL14:
 120:Generated_Source\PSoC4/nRF24_LL_SPI.c **** 
 121:Generated_Source\PSoC4/nRF24_LL_SPI.c ****     SS_Write(0);
 111              		.loc 1 121 0
 112 0010 0020     		movs	r0, #0
 113 0012 FFF7FEFF 		bl	SS_Write
 114              	.LVL15:
 122:Generated_Source\PSoC4/nRF24_LL_SPI.c ****     SPI_SpiUartWriteTxData(NRF_R_REGISTER_CMD | reg);
 115              		.loc 1 122 0
 116 0016 2000     		movs	r0, r4
 117 0018 FFF7FEFF 		bl	SPI_SpiUartWriteTxData
 118              	.LVL16:
 119              	.L4:
 123:Generated_Source\PSoC4/nRF24_LL_SPI.c ****     while (SPI_SpiUartGetRxBufferSize() == 0){
 120              		.loc 1 123 0 discriminator 1
 121 001c FFF7FEFF 		bl	SPI_SpiUartGetRxBufferSize
 122              	.LVL17:
 123 0020 0028     		cmp	r0, #0
 124 0022 FBD0     		beq	.L4
 124:Generated_Source\PSoC4/nRF24_LL_SPI.c ****     }
 125:Generated_Source\PSoC4/nRF24_LL_SPI.c ****     
 126:Generated_Source\PSoC4/nRF24_LL_SPI.c ****     // Read the status register, just to clear the rx fifo
 127:Generated_Source\PSoC4/nRF24_LL_SPI.c ****     SPI_SpiUartReadRxData();
 125              		.loc 1 127 0
 126 0024 FFF7FEFF 		bl	SPI_SpiUartReadRxData
 127              	.LVL18:
 128              	.LBB2:
 128:Generated_Source\PSoC4/nRF24_LL_SPI.c ****     //SPI_SpiUartClearRxBuffer();
 129:Generated_Source\PSoC4/nRF24_LL_SPI.c ****     
 130:Generated_Source\PSoC4/nRF24_LL_SPI.c ****     for (size_t i = 0; i < size; i++) {
 129              		.loc 1 130 0
 130 0028 0024     		movs	r4, #0
 131 002a 0BE0     		b	.L5
 132              	.LVL19:
 133              	.L7:
 131:Generated_Source\PSoC4/nRF24_LL_SPI.c ****         SPI_SpiUartWriteTxData(NRF_NOP_CMD);
 134              		.loc 1 131 0
 135 002c FF20     		movs	r0, #255
 136 002e FFF7FEFF 		bl	SPI_SpiUartWriteTxData
 137              	.LVL20:
 138              	.L6:
 132:Generated_Source\PSoC4/nRF24_LL_SPI.c ****         while (SPI_SpiUartGetRxBufferSize() == 0){}
 139              		.loc 1 132 0 discriminator 1
 140 0032 FFF7FEFF 		bl	SPI_SpiUartGetRxBufferSize
 141              	.LVL21:
 142 0036 0028     		cmp	r0, #0
 143 0038 FBD0     		beq	.L6
 133:Generated_Source\PSoC4/nRF24_LL_SPI.c ****         data[i] = SPI_SpiUartReadRxData();
 144              		.loc 1 133 0 discriminator 2
 145 003a 3D19     		adds	r5, r7, r4
 146 003c FFF7FEFF 		bl	SPI_SpiUartReadRxData
 147              	.LVL22:
 148 0040 2870     		strb	r0, [r5]
 130:Generated_Source\PSoC4/nRF24_LL_SPI.c ****         SPI_SpiUartWriteTxData(NRF_NOP_CMD);
 149              		.loc 1 130 0 discriminator 2
 150 0042 0134     		adds	r4, r4, #1
 151              	.LVL23:
ARM GAS  C:\Users\Xwx47\AppData\Local\Temp\ccQXpmeQ.s 			page 6


 152              	.L5:
 130:Generated_Source\PSoC4/nRF24_LL_SPI.c ****         SPI_SpiUartWriteTxData(NRF_NOP_CMD);
 153              		.loc 1 130 0 is_stmt 0 discriminator 1
 154 0044 B442     		cmp	r4, r6
 155 0046 F1D3     		bcc	.L7
 156              	.LBE2:
 134:Generated_Source\PSoC4/nRF24_LL_SPI.c ****     }
 135:Generated_Source\PSoC4/nRF24_LL_SPI.c ****     SS_Write(1);
 157              		.loc 1 135 0 is_stmt 1
 158 0048 0120     		movs	r0, #1
 159 004a FFF7FEFF 		bl	SS_Write
 160              	.LVL24:
 136:Generated_Source\PSoC4/nRF24_LL_SPI.c **** #endif
 137:Generated_Source\PSoC4/nRF24_LL_SPI.c **** #else // UDB Block
 138:Generated_Source\PSoC4/nRF24_LL_SPI.c ****     SPI_ClearFIFO();
 139:Generated_Source\PSoC4/nRF24_LL_SPI.c **** 
 140:Generated_Source\PSoC4/nRF24_LL_SPI.c ****     SS_Write(0);
 141:Generated_Source\PSoC4/nRF24_LL_SPI.c ****     SPI_WriteTxData(NRF_R_REGISTER_CMD | reg);
 142:Generated_Source\PSoC4/nRF24_LL_SPI.c ****     // Wait for the byte to be sent
 143:Generated_Source\PSoC4/nRF24_LL_SPI.c ****     while (!(SPI_ReadTxStatus() & SPI_STS_BYTE_COMPLETE)) {
 144:Generated_Source\PSoC4/nRF24_LL_SPI.c ****     }
 145:Generated_Source\PSoC4/nRF24_LL_SPI.c ****     // Read the status register, just to clear the rx fifo
 146:Generated_Source\PSoC4/nRF24_LL_SPI.c ****     SPI_ReadRxData();
 147:Generated_Source\PSoC4/nRF24_LL_SPI.c ****     
 148:Generated_Source\PSoC4/nRF24_LL_SPI.c ****     for (size_t i = 0; i < size; i++) {
 149:Generated_Source\PSoC4/nRF24_LL_SPI.c ****         SPI_WriteTxData(NRF_NOP_CMD);
 150:Generated_Source\PSoC4/nRF24_LL_SPI.c ****         while (!(SPI_ReadTxStatus() & SPI_STS_BYTE_COMPLETE)) {
 151:Generated_Source\PSoC4/nRF24_LL_SPI.c ****         }
 152:Generated_Source\PSoC4/nRF24_LL_SPI.c ****         data[i] = SPI_ReadRxData();
 153:Generated_Source\PSoC4/nRF24_LL_SPI.c ****     }
 154:Generated_Source\PSoC4/nRF24_LL_SPI.c **** 
 155:Generated_Source\PSoC4/nRF24_LL_SPI.c ****     SS_Write(1);
 156:Generated_Source\PSoC4/nRF24_LL_SPI.c **** #endif
 157:Generated_Source\PSoC4/nRF24_LL_SPI.c **** }
 161              		.loc 1 157 0
 162              		@ sp needed
 163              	.LVL25:
 164              	.LVL26:
 165              	.LVL27:
 166 004e F8BD     		pop	{r3, r4, r5, r6, r7, pc}
 167              		.cfi_endproc
 168              	.LFE34:
 169              		.size	nRF24_readLongRegister, .-nRF24_readLongRegister
 170              		.section	.text.nRF24_writeRegister,"ax",%progbits
 171              		.align	2
 172              		.global	nRF24_writeRegister
 173              		.code	16
 174              		.thumb_func
 175              		.type	nRF24_writeRegister, %function
 176              	nRF24_writeRegister:
 177              	.LFB35:
 158:Generated_Source\PSoC4/nRF24_LL_SPI.c **** 
 159:Generated_Source\PSoC4/nRF24_LL_SPI.c **** /**
 160:Generated_Source\PSoC4/nRF24_LL_SPI.c ****  * Write 1byte to a nRF24 Register.
 161:Generated_Source\PSoC4/nRF24_LL_SPI.c ****  *
 162:Generated_Source\PSoC4/nRF24_LL_SPI.c ****  * @param const NrfRegister reg: Register to be written.
 163:Generated_Source\PSoC4/nRF24_LL_SPI.c ****  * @param const uint8_t data: Data to be written into the register.
ARM GAS  C:\Users\Xwx47\AppData\Local\Temp\ccQXpmeQ.s 			page 7


 164:Generated_Source\PSoC4/nRF24_LL_SPI.c ****  */
 165:Generated_Source\PSoC4/nRF24_LL_SPI.c **** void nRF24_writeRegister(const NrfRegister reg, const uint8_t data)
 166:Generated_Source\PSoC4/nRF24_LL_SPI.c **** {
 178              		.loc 1 166 0
 179              		.cfi_startproc
 180              		@ args = 0, pretend = 0, frame = 0
 181              		@ frame_needed = 0, uses_anonymous_args = 0
 182              	.LVL28:
 183 0000 70B5     		push	{r4, r5, r6, lr}
 184              		.cfi_def_cfa_offset 16
 185              		.cfi_offset 4, -16
 186              		.cfi_offset 5, -12
 187              		.cfi_offset 6, -8
 188              		.cfi_offset 14, -4
 189 0002 0500     		movs	r5, r0
 190 0004 0C00     		movs	r4, r1
 167:Generated_Source\PSoC4/nRF24_LL_SPI.c **** #if defined(CY_SCB_SPI_H) // SCB Block
 168:Generated_Source\PSoC4/nRF24_LL_SPI.c **** #if defined(SPI_CY_SCB_SPI_PDL_H) // PSoC6
 169:Generated_Source\PSoC4/nRF24_LL_SPI.c ****     Cy_GPIO_Clr(SS_PORT, SS_NUM);
 170:Generated_Source\PSoC4/nRF24_LL_SPI.c ****     Cy_SCB_SPI_Write(SPI_HW, NRF_W_REGISTER_CMD | reg);
 171:Generated_Source\PSoC4/nRF24_LL_SPI.c ****     Cy_SCB_SPI_Write(SPI_HW, data);
 172:Generated_Source\PSoC4/nRF24_LL_SPI.c ****     
 173:Generated_Source\PSoC4/nRF24_LL_SPI.c ****     while (Cy_SCB_SPI_GetNumInRxFifo(SPI_HW) != 2) {
 174:Generated_Source\PSoC4/nRF24_LL_SPI.c ****     }
 175:Generated_Source\PSoC4/nRF24_LL_SPI.c ****     
 176:Generated_Source\PSoC4/nRF24_LL_SPI.c ****     Cy_GPIO_Set(SS_PORT, SS_NUM);
 177:Generated_Source\PSoC4/nRF24_LL_SPI.c **** #else // PSoC4
 178:Generated_Source\PSoC4/nRF24_LL_SPI.c ****     SPI_SpiUartClearRxBuffer();
 191              		.loc 1 178 0
 192 0006 FFF7FEFF 		bl	SPI_SpiUartClearRxBuffer
 193              	.LVL29:
 179:Generated_Source\PSoC4/nRF24_LL_SPI.c ****     SPI_SpiUartClearTxBuffer();
 194              		.loc 1 179 0
 195 000a FFF7FEFF 		bl	SPI_SpiUartClearTxBuffer
 196              	.LVL30:
 180:Generated_Source\PSoC4/nRF24_LL_SPI.c **** 
 181:Generated_Source\PSoC4/nRF24_LL_SPI.c ****     SS_Write(0);
 197              		.loc 1 181 0
 198 000e 0020     		movs	r0, #0
 199 0010 FFF7FEFF 		bl	SS_Write
 200              	.LVL31:
 182:Generated_Source\PSoC4/nRF24_LL_SPI.c ****     SPI_SpiUartWriteTxData(NRF_W_REGISTER_CMD | reg);
 201              		.loc 1 182 0
 202 0014 2020     		movs	r0, #32
 203 0016 2843     		orrs	r0, r5
 204 0018 C0B2     		uxtb	r0, r0
 205 001a FFF7FEFF 		bl	SPI_SpiUartWriteTxData
 206              	.LVL32:
 183:Generated_Source\PSoC4/nRF24_LL_SPI.c ****     SPI_SpiUartWriteTxData(data);
 207              		.loc 1 183 0
 208 001e 2000     		movs	r0, r4
 209 0020 FFF7FEFF 		bl	SPI_SpiUartWriteTxData
 210              	.LVL33:
 211              	.L9:
 184:Generated_Source\PSoC4/nRF24_LL_SPI.c **** 
 185:Generated_Source\PSoC4/nRF24_LL_SPI.c ****     while (SPI_SpiUartGetRxBufferSize() != 2) {
 212              		.loc 1 185 0 discriminator 1
ARM GAS  C:\Users\Xwx47\AppData\Local\Temp\ccQXpmeQ.s 			page 8


 213 0024 FFF7FEFF 		bl	SPI_SpiUartGetRxBufferSize
 214              	.LVL34:
 215 0028 0228     		cmp	r0, #2
 216 002a FBD1     		bne	.L9
 186:Generated_Source\PSoC4/nRF24_LL_SPI.c ****     }
 187:Generated_Source\PSoC4/nRF24_LL_SPI.c ****     SS_Write(1);
 217              		.loc 1 187 0
 218 002c 0138     		subs	r0, r0, #1
 219 002e FFF7FEFF 		bl	SS_Write
 220              	.LVL35:
 188:Generated_Source\PSoC4/nRF24_LL_SPI.c **** #endif
 189:Generated_Source\PSoC4/nRF24_LL_SPI.c **** #else // UDB Block
 190:Generated_Source\PSoC4/nRF24_LL_SPI.c ****     SPI_ClearRxBuffer();
 191:Generated_Source\PSoC4/nRF24_LL_SPI.c ****     SPI_ClearTxBuffer();
 192:Generated_Source\PSoC4/nRF24_LL_SPI.c **** 
 193:Generated_Source\PSoC4/nRF24_LL_SPI.c ****     SS_Write(0);
 194:Generated_Source\PSoC4/nRF24_LL_SPI.c ****     SPI_WriteTxData(NRF_W_REGISTER_CMD | reg);
 195:Generated_Source\PSoC4/nRF24_LL_SPI.c ****     SPI_WriteTxData(data);
 196:Generated_Source\PSoC4/nRF24_LL_SPI.c **** 
 197:Generated_Source\PSoC4/nRF24_LL_SPI.c ****     while (!(SPI_ReadTxStatus() & SPI_STS_BYTE_COMPLETE)) {
 198:Generated_Source\PSoC4/nRF24_LL_SPI.c ****     }
 199:Generated_Source\PSoC4/nRF24_LL_SPI.c ****     SS_Write(1);
 200:Generated_Source\PSoC4/nRF24_LL_SPI.c **** #endif
 201:Generated_Source\PSoC4/nRF24_LL_SPI.c **** }
 221              		.loc 1 201 0
 222              		@ sp needed
 223 0032 70BD     		pop	{r4, r5, r6, pc}
 224              		.cfi_endproc
 225              	.LFE35:
 226              		.size	nRF24_writeRegister, .-nRF24_writeRegister
 227              		.section	.text.nRF24_writeLongRegister,"ax",%progbits
 228              		.align	2
 229              		.global	nRF24_writeLongRegister
 230              		.code	16
 231              		.thumb_func
 232              		.type	nRF24_writeLongRegister, %function
 233              	nRF24_writeLongRegister:
 234              	.LFB36:
 202:Generated_Source\PSoC4/nRF24_LL_SPI.c **** 
 203:Generated_Source\PSoC4/nRF24_LL_SPI.c **** /**
 204:Generated_Source\PSoC4/nRF24_LL_SPI.c ****  * Write more than 1byte to a nRF24 Register, larger register is 5 bytes.
 205:Generated_Source\PSoC4/nRF24_LL_SPI.c ****  *
 206:Generated_Source\PSoC4/nRF24_LL_SPI.c ****  * @param const NrfRegister reg: Register to be written.
 207:Generated_Source\PSoC4/nRF24_LL_SPI.c ****  * @param const uint8_t* data: Data to write into the register.
 208:Generated_Source\PSoC4/nRF24_LL_SPI.c ****  * @param size_t size: Size (in bytes) of the data to be written.
 209:Generated_Source\PSoC4/nRF24_LL_SPI.c ****  */
 210:Generated_Source\PSoC4/nRF24_LL_SPI.c **** void nRF24_writeLongRegister(const NrfRegister reg, const uint8_t* data,
 211:Generated_Source\PSoC4/nRF24_LL_SPI.c ****                                         const size_t size)
 212:Generated_Source\PSoC4/nRF24_LL_SPI.c **** {
 235              		.loc 1 212 0
 236              		.cfi_startproc
 237              		@ args = 0, pretend = 0, frame = 0
 238              		@ frame_needed = 0, uses_anonymous_args = 0
 239              	.LVL36:
 240 0000 70B5     		push	{r4, r5, r6, lr}
 241              		.cfi_def_cfa_offset 16
 242              		.cfi_offset 4, -16
ARM GAS  C:\Users\Xwx47\AppData\Local\Temp\ccQXpmeQ.s 			page 9


 243              		.cfi_offset 5, -12
 244              		.cfi_offset 6, -8
 245              		.cfi_offset 14, -4
 246 0002 0600     		movs	r6, r0
 247 0004 0D00     		movs	r5, r1
 248 0006 1400     		movs	r4, r2
 213:Generated_Source\PSoC4/nRF24_LL_SPI.c **** #if defined(CY_SCB_SPI_H) // SCB Block
 214:Generated_Source\PSoC4/nRF24_LL_SPI.c **** #if defined(SPI_CY_SCB_SPI_PDL_H) // PSoC6
 215:Generated_Source\PSoC4/nRF24_LL_SPI.c ****     Cy_GPIO_Clr(SS_PORT, SS_NUM);
 216:Generated_Source\PSoC4/nRF24_LL_SPI.c ****     Cy_SCB_SPI_Write(SPI_HW, NRF_W_REGISTER_CMD | reg);
 217:Generated_Source\PSoC4/nRF24_LL_SPI.c ****     Cy_SCB_SPI_WriteArray(SPI_HW, data, size);
 218:Generated_Source\PSoC4/nRF24_LL_SPI.c ****     
 219:Generated_Source\PSoC4/nRF24_LL_SPI.c ****     while (Cy_SCB_SPI_GetNumInRxFifo(SPI_HW) != (1 + size)) {
 220:Generated_Source\PSoC4/nRF24_LL_SPI.c ****     }
 221:Generated_Source\PSoC4/nRF24_LL_SPI.c ****     
 222:Generated_Source\PSoC4/nRF24_LL_SPI.c ****     Cy_GPIO_Set(SS_PORT, SS_NUM);
 223:Generated_Source\PSoC4/nRF24_LL_SPI.c **** #else // PSoC4
 224:Generated_Source\PSoC4/nRF24_LL_SPI.c ****     SPI_SpiUartClearRxBuffer();
 249              		.loc 1 224 0
 250 0008 FFF7FEFF 		bl	SPI_SpiUartClearRxBuffer
 251              	.LVL37:
 225:Generated_Source\PSoC4/nRF24_LL_SPI.c ****     SPI_SpiUartClearTxBuffer();
 252              		.loc 1 225 0
 253 000c FFF7FEFF 		bl	SPI_SpiUartClearTxBuffer
 254              	.LVL38:
 226:Generated_Source\PSoC4/nRF24_LL_SPI.c **** 
 227:Generated_Source\PSoC4/nRF24_LL_SPI.c ****     SS_Write(0);
 255              		.loc 1 227 0
 256 0010 0020     		movs	r0, #0
 257 0012 FFF7FEFF 		bl	SS_Write
 258              	.LVL39:
 228:Generated_Source\PSoC4/nRF24_LL_SPI.c **** 
 229:Generated_Source\PSoC4/nRF24_LL_SPI.c ****     SPI_SpiUartWriteTxData(NRF_W_REGISTER_CMD | reg);
 259              		.loc 1 229 0
 260 0016 2020     		movs	r0, #32
 261 0018 3043     		orrs	r0, r6
 262 001a C0B2     		uxtb	r0, r0
 263 001c FFF7FEFF 		bl	SPI_SpiUartWriteTxData
 264              	.LVL40:
 230:Generated_Source\PSoC4/nRF24_LL_SPI.c ****     SPI_SpiUartPutArray(data, size);
 265              		.loc 1 230 0
 266 0020 2100     		movs	r1, r4
 267 0022 2800     		movs	r0, r5
 268 0024 FFF7FEFF 		bl	SPI_SpiUartPutArray
 269              	.LVL41:
 270              	.L11:
 231:Generated_Source\PSoC4/nRF24_LL_SPI.c **** 
 232:Generated_Source\PSoC4/nRF24_LL_SPI.c ****     // Wait for the RxBuffer to have size + 1 bytes (W_REGISTER_CMD + data)
 233:Generated_Source\PSoC4/nRF24_LL_SPI.c ****     // we're not using the SS pin embedded on the SCB component, so can't
 234:Generated_Source\PSoC4/nRF24_LL_SPI.c ****     // rely on using the SPI_Status function.
 235:Generated_Source\PSoC4/nRF24_LL_SPI.c ****     while (SPI_SpiUartGetRxBufferSize() != (1 + size)) {
 271              		.loc 1 235 0 discriminator 1
 272 0028 FFF7FEFF 		bl	SPI_SpiUartGetRxBufferSize
 273              	.LVL42:
 274 002c 631C     		adds	r3, r4, #1
 275 002e 9842     		cmp	r0, r3
 276 0030 FAD1     		bne	.L11
ARM GAS  C:\Users\Xwx47\AppData\Local\Temp\ccQXpmeQ.s 			page 10


 236:Generated_Source\PSoC4/nRF24_LL_SPI.c ****     }
 237:Generated_Source\PSoC4/nRF24_LL_SPI.c ****     SS_Write(1);
 277              		.loc 1 237 0
 278 0032 0120     		movs	r0, #1
 279 0034 FFF7FEFF 		bl	SS_Write
 280              	.LVL43:
 238:Generated_Source\PSoC4/nRF24_LL_SPI.c **** #endif
 239:Generated_Source\PSoC4/nRF24_LL_SPI.c **** #else // UDB Block
 240:Generated_Source\PSoC4/nRF24_LL_SPI.c ****     SPI_ClearRxBuffer();
 241:Generated_Source\PSoC4/nRF24_LL_SPI.c ****     SPI_ClearTxBuffer();
 242:Generated_Source\PSoC4/nRF24_LL_SPI.c **** 
 243:Generated_Source\PSoC4/nRF24_LL_SPI.c ****     SS_Write(0);
 244:Generated_Source\PSoC4/nRF24_LL_SPI.c ****     SPI_WriteTxData(NRF_W_REGISTER_CMD | reg);
 245:Generated_Source\PSoC4/nRF24_LL_SPI.c ****     SPI_PutArray(data, size);
 246:Generated_Source\PSoC4/nRF24_LL_SPI.c **** 
 247:Generated_Source\PSoC4/nRF24_LL_SPI.c ****     while (!(SPI_ReadTxStatus() & SPI_STS_BYTE_COMPLETE)) {
 248:Generated_Source\PSoC4/nRF24_LL_SPI.c ****     }
 249:Generated_Source\PSoC4/nRF24_LL_SPI.c ****     SS_Write(1);
 250:Generated_Source\PSoC4/nRF24_LL_SPI.c **** #endif
 251:Generated_Source\PSoC4/nRF24_LL_SPI.c **** }
 281              		.loc 1 251 0
 282              		@ sp needed
 283              	.LVL44:
 284              	.LVL45:
 285 0038 70BD     		pop	{r4, r5, r6, pc}
 286              		.cfi_endproc
 287              	.LFE36:
 288              		.size	nRF24_writeLongRegister, .-nRF24_writeLongRegister
 289 003a C046     		.section	.text.nRF24_readBit,"ax",%progbits
 290              		.align	2
 291              		.global	nRF24_readBit
 292              		.code	16
 293              		.thumb_func
 294              		.type	nRF24_readBit, %function
 295              	nRF24_readBit:
 296              	.LFB37:
 252:Generated_Source\PSoC4/nRF24_LL_SPI.c **** 
 253:Generated_Source\PSoC4/nRF24_LL_SPI.c **** /**
 254:Generated_Source\PSoC4/nRF24_LL_SPI.c ****  * Read the bit state of a NrfRegister.
 255:Generated_Source\PSoC4/nRF24_LL_SPI.c ****  *
 256:Generated_Source\PSoC4/nRF24_LL_SPI.c ****  * @param const NrfRegister reg: Register to be read.
 257:Generated_Source\PSoC4/nRF24_LL_SPI.c ****  * @param uint8_t bit: Bit to be read.
 258:Generated_Source\PSoC4/nRF24_LL_SPI.c ****  *
 259:Generated_Source\PSoC4/nRF24_LL_SPI.c ****  * @return bool: Return 1 if bit is set (logic 1), return 0 if the bit
 260:Generated_Source\PSoC4/nRF24_LL_SPI.c ****  * is clear (logic 0).
 261:Generated_Source\PSoC4/nRF24_LL_SPI.c ****  */
 262:Generated_Source\PSoC4/nRF24_LL_SPI.c **** bool nRF24_readBit(const NrfRegister reg, const uint8_t bit)
 263:Generated_Source\PSoC4/nRF24_LL_SPI.c **** {
 297              		.loc 1 263 0
 298              		.cfi_startproc
 299              		@ args = 0, pretend = 0, frame = 0
 300              		@ frame_needed = 0, uses_anonymous_args = 0
 301              	.LVL46:
 302 0000 10B5     		push	{r4, lr}
 303              		.cfi_def_cfa_offset 8
 304              		.cfi_offset 4, -8
 305              		.cfi_offset 14, -4
ARM GAS  C:\Users\Xwx47\AppData\Local\Temp\ccQXpmeQ.s 			page 11


 306 0002 0C00     		movs	r4, r1
 264:Generated_Source\PSoC4/nRF24_LL_SPI.c ****     return (nRF24_readRegister(reg) & (1 << bit)) != 0;
 307              		.loc 1 264 0
 308 0004 FFF7FEFF 		bl	nRF24_readRegister
 309              	.LVL47:
 310 0008 2041     		asrs	r0, r0, r4
 311 000a 0123     		movs	r3, #1
 312 000c 1840     		ands	r0, r3
 265:Generated_Source\PSoC4/nRF24_LL_SPI.c **** }
 313              		.loc 1 265 0
 314              		@ sp needed
 315 000e 10BD     		pop	{r4, pc}
 316              		.cfi_endproc
 317              	.LFE37:
 318              		.size	nRF24_readBit, .-nRF24_readBit
 319              		.section	.text.nRF24_writeBit,"ax",%progbits
 320              		.align	2
 321              		.global	nRF24_writeBit
 322              		.code	16
 323              		.thumb_func
 324              		.type	nRF24_writeBit, %function
 325              	nRF24_writeBit:
 326              	.LFB38:
 266:Generated_Source\PSoC4/nRF24_LL_SPI.c **** 
 267:Generated_Source\PSoC4/nRF24_LL_SPI.c **** /**
 268:Generated_Source\PSoC4/nRF24_LL_SPI.c ****  * Set (logic 1) or clear (logic 0) a given bit of a given nRF24 register.
 269:Generated_Source\PSoC4/nRF24_LL_SPI.c ****  *
 270:Generated_Source\PSoC4/nRF24_LL_SPI.c ****  * @param const NrfRegister reg: Register to be written.
 271:Generated_Source\PSoC4/nRF24_LL_SPI.c ****  * @param const uint8_t bit: Position of the bit to be written.
 272:Generated_Source\PSoC4/nRF24_LL_SPI.c ****  * @param const bool value: Value (Logic 1 or 0) to write into the bit.
 273:Generated_Source\PSoC4/nRF24_LL_SPI.c ****  */
 274:Generated_Source\PSoC4/nRF24_LL_SPI.c **** void nRF24_writeBit(const NrfRegister reg, const uint8_t bit,
 275:Generated_Source\PSoC4/nRF24_LL_SPI.c ****                                const bool value)
 276:Generated_Source\PSoC4/nRF24_LL_SPI.c **** {
 327              		.loc 1 276 0
 328              		.cfi_startproc
 329              		@ args = 0, pretend = 0, frame = 0
 330              		@ frame_needed = 0, uses_anonymous_args = 0
 331              	.LVL48:
 332 0000 70B5     		push	{r4, r5, r6, lr}
 333              		.cfi_def_cfa_offset 16
 334              		.cfi_offset 4, -16
 335              		.cfi_offset 5, -12
 336              		.cfi_offset 6, -8
 337              		.cfi_offset 14, -4
 338 0002 0400     		movs	r4, r0
 339 0004 0D00     		movs	r5, r1
 340 0006 1600     		movs	r6, r2
 277:Generated_Source\PSoC4/nRF24_LL_SPI.c ****     uint8_t temp = nRF24_readRegister(reg);
 341              		.loc 1 277 0
 342 0008 FFF7FEFF 		bl	nRF24_readRegister
 343              	.LVL49:
 278:Generated_Source\PSoC4/nRF24_LL_SPI.c **** 
 279:Generated_Source\PSoC4/nRF24_LL_SPI.c ****     // Check if the bit of interest is set
 280:Generated_Source\PSoC4/nRF24_LL_SPI.c ****     if ((temp & (1 << bit)) != 0) {
 344              		.loc 1 280 0
 345 000c 0300     		movs	r3, r0
ARM GAS  C:\Users\Xwx47\AppData\Local\Temp\ccQXpmeQ.s 			page 12


 346 000e 2B41     		asrs	r3, r3, r5
 347 0010 DB07     		lsls	r3, r3, #31
 348 0012 02D5     		bpl	.L14
 281:Generated_Source\PSoC4/nRF24_LL_SPI.c ****         // Return if we wanted to set it, continue if we wanted to clear it.
 282:Generated_Source\PSoC4/nRF24_LL_SPI.c ****         if (value) {
 349              		.loc 1 282 0
 350 0014 002E     		cmp	r6, #0
 351 0016 02D0     		beq	.L16
 352 0018 0FE0     		b	.L13
 353              	.L14:
 283:Generated_Source\PSoC4/nRF24_LL_SPI.c ****             return;
 284:Generated_Source\PSoC4/nRF24_LL_SPI.c ****         }
 285:Generated_Source\PSoC4/nRF24_LL_SPI.c ****     } else { // the bit is clear
 286:Generated_Source\PSoC4/nRF24_LL_SPI.c ****         if (!value) {
 354              		.loc 1 286 0
 355 001a 002E     		cmp	r6, #0
 356 001c 0DD0     		beq	.L13
 357              	.L16:
 287:Generated_Source\PSoC4/nRF24_LL_SPI.c ****             return; // return if we wantes to clear the bit
 288:Generated_Source\PSoC4/nRF24_LL_SPI.c ****         }
 289:Generated_Source\PSoC4/nRF24_LL_SPI.c ****     }
 290:Generated_Source\PSoC4/nRF24_LL_SPI.c **** 
 291:Generated_Source\PSoC4/nRF24_LL_SPI.c ****     // Calculate the new value to be written in the register
 292:Generated_Source\PSoC4/nRF24_LL_SPI.c ****     temp = value ? temp | (1 << bit) : temp & ~(1 << bit);
 358              		.loc 1 292 0
 359 001e 002E     		cmp	r6, #0
 360 0020 04D0     		beq	.L17
 361              		.loc 1 292 0 is_stmt 0 discriminator 1
 362 0022 0121     		movs	r1, #1
 363 0024 A940     		lsls	r1, r1, r5
 364 0026 0843     		orrs	r0, r1
 365              	.LVL50:
 366 0028 C1B2     		uxtb	r1, r0
 367 002a 03E0     		b	.L18
 368              	.LVL51:
 369              	.L17:
 370              		.loc 1 292 0 discriminator 2
 371 002c 0123     		movs	r3, #1
 372 002e AB40     		lsls	r3, r3, r5
 373 0030 9843     		bics	r0, r3
 374              	.LVL52:
 375 0032 C1B2     		uxtb	r1, r0
 376              	.L18:
 377              	.LVL53:
 293:Generated_Source\PSoC4/nRF24_LL_SPI.c **** 
 294:Generated_Source\PSoC4/nRF24_LL_SPI.c ****     nRF24_writeRegister(reg, temp);
 378              		.loc 1 294 0 is_stmt 1 discriminator 4
 379 0034 2000     		movs	r0, r4
 380 0036 FFF7FEFF 		bl	nRF24_writeRegister
 381              	.LVL54:
 382              	.L13:
 295:Generated_Source\PSoC4/nRF24_LL_SPI.c **** }
 383              		.loc 1 295 0
 384              		@ sp needed
 385 003a 70BD     		pop	{r4, r5, r6, pc}
 386              		.cfi_endproc
 387              	.LFE38:
ARM GAS  C:\Users\Xwx47\AppData\Local\Temp\ccQXpmeQ.s 			page 13


 388              		.size	nRF24_writeBit, .-nRF24_writeBit
 389              		.section	.text.nRF24_clearBit,"ax",%progbits
 390              		.align	2
 391              		.global	nRF24_clearBit
 392              		.code	16
 393              		.thumb_func
 394              		.type	nRF24_clearBit, %function
 395              	nRF24_clearBit:
 396              	.LFB39:
 296:Generated_Source\PSoC4/nRF24_LL_SPI.c **** 
 297:Generated_Source\PSoC4/nRF24_LL_SPI.c **** /**
 298:Generated_Source\PSoC4/nRF24_LL_SPI.c ****  * Clear (logic 0) a given bit of a given nRF24 register.
 299:Generated_Source\PSoC4/nRF24_LL_SPI.c ****  *
 300:Generated_Source\PSoC4/nRF24_LL_SPI.c ****  * @param const NrfRegister reg: Register to be written.
 301:Generated_Source\PSoC4/nRF24_LL_SPI.c ****  * @param const uint8_t bit: Bit to be written.
 302:Generated_Source\PSoC4/nRF24_LL_SPI.c ****  */
 303:Generated_Source\PSoC4/nRF24_LL_SPI.c **** void nRF24_clearBit(const NrfRegister reg, const uint8_t bit)
 304:Generated_Source\PSoC4/nRF24_LL_SPI.c **** {
 397              		.loc 1 304 0
 398              		.cfi_startproc
 399              		@ args = 0, pretend = 0, frame = 0
 400              		@ frame_needed = 0, uses_anonymous_args = 0
 401              	.LVL55:
 402 0000 10B5     		push	{r4, lr}
 403              		.cfi_def_cfa_offset 8
 404              		.cfi_offset 4, -8
 405              		.cfi_offset 14, -4
 305:Generated_Source\PSoC4/nRF24_LL_SPI.c ****     nRF24_writeBit(reg, bit, 0);
 406              		.loc 1 305 0
 407 0002 0022     		movs	r2, #0
 408 0004 FFF7FEFF 		bl	nRF24_writeBit
 409              	.LVL56:
 306:Generated_Source\PSoC4/nRF24_LL_SPI.c **** }
 410              		.loc 1 306 0
 411              		@ sp needed
 412 0008 10BD     		pop	{r4, pc}
 413              		.cfi_endproc
 414              	.LFE39:
 415              		.size	nRF24_clearBit, .-nRF24_clearBit
 416 000a C046     		.section	.text.nRF24_setBit,"ax",%progbits
 417              		.align	2
 418              		.global	nRF24_setBit
 419              		.code	16
 420              		.thumb_func
 421              		.type	nRF24_setBit, %function
 422              	nRF24_setBit:
 423              	.LFB40:
 307:Generated_Source\PSoC4/nRF24_LL_SPI.c **** 
 308:Generated_Source\PSoC4/nRF24_LL_SPI.c **** /**
 309:Generated_Source\PSoC4/nRF24_LL_SPI.c ****  * Set (logic 1) a given bit of a given nRF24 register.
 310:Generated_Source\PSoC4/nRF24_LL_SPI.c ****  *
 311:Generated_Source\PSoC4/nRF24_LL_SPI.c ****  * @param const NrfRegister reg: Register to be written.
 312:Generated_Source\PSoC4/nRF24_LL_SPI.c ****  * @param const uint8_t bit: Bit to be written.
 313:Generated_Source\PSoC4/nRF24_LL_SPI.c ****  */
 314:Generated_Source\PSoC4/nRF24_LL_SPI.c **** void nRF24_setBit(const NrfRegister reg, const uint8_t bit)
 315:Generated_Source\PSoC4/nRF24_LL_SPI.c **** {
 424              		.loc 1 315 0
ARM GAS  C:\Users\Xwx47\AppData\Local\Temp\ccQXpmeQ.s 			page 14


 425              		.cfi_startproc
 426              		@ args = 0, pretend = 0, frame = 0
 427              		@ frame_needed = 0, uses_anonymous_args = 0
 428              	.LVL57:
 429 0000 10B5     		push	{r4, lr}
 430              		.cfi_def_cfa_offset 8
 431              		.cfi_offset 4, -8
 432              		.cfi_offset 14, -4
 316:Generated_Source\PSoC4/nRF24_LL_SPI.c ****     nRF24_writeBit(reg, bit, 1);
 433              		.loc 1 316 0
 434 0002 0122     		movs	r2, #1
 435 0004 FFF7FEFF 		bl	nRF24_writeBit
 436              	.LVL58:
 317:Generated_Source\PSoC4/nRF24_LL_SPI.c **** }
 437              		.loc 1 317 0
 438              		@ sp needed
 439 0008 10BD     		pop	{r4, pc}
 440              		.cfi_endproc
 441              	.LFE40:
 442              		.size	nRF24_setBit, .-nRF24_setBit
 443 000a C046     		.text
 444              	.Letext0:
 445              		.file 2 "c:\\program files (x86)\\cypress\\psoc creator\\4.1\\psoc creator\\import\\gnu\\arm\\5.4.
 446              		.file 3 "c:\\program files (x86)\\cypress\\psoc creator\\4.1\\psoc creator\\import\\gnu\\arm\\5.4.
 447              		.file 4 "c:\\program files (x86)\\cypress\\psoc creator\\4.1\\psoc creator\\import\\gnu\\arm\\5.4.
 448              		.file 5 "Generated_Source\\PSoC4\\nRF24_NRF_REGS.h"
 449              		.file 6 "Generated_Source\\PSoC4\\SPI_SPI_UART.h"
 450              		.file 7 "Generated_Source\\PSoC4\\SS.h"