ARM GAS  C:\Users\Xwx47\AppData\Local\Temp\cc5OEXcK.s 			page 1


   1              		.syntax unified
   2              		.cpu cortex-m0plus
   3              		.fpu softvfp
   4              		.eabi_attribute 20, 1
   5              		.eabi_attribute 21, 1
   6              		.eabi_attribute 23, 3
   7              		.eabi_attribute 24, 1
   8              		.eabi_attribute 25, 1
   9              		.eabi_attribute 26, 1
  10              		.eabi_attribute 30, 1
  11              		.eabi_attribute 34, 0
  12              		.eabi_attribute 18, 4
  13              		.thumb
  14              		.syntax unified
  15              		.file	"nRF24_NRF_FUNCS.c"
  16              		.text
  17              	.Ltext0:
  18              		.cfi_sections	.debug_frame
  19              		.section	.text.nRF24_init,"ax",%progbits
  20              		.align	2
  21              		.global	nRF24_init
  22              		.code	16
  23              		.thumb_func
  24              		.type	nRF24_init, %function
  25              	nRF24_init:
  26              	.LFB34:
  27              		.file 1 "Generated_Source\\PSoC4\\nRF24_NRF_FUNCS.c"
   1:Generated_Source\PSoC4/nRF24_NRF_FUNCS.c **** /****************************************************************************
   2:Generated_Source\PSoC4/nRF24_NRF_FUNCS.c **** * This file is part of the nRF24 Custom Component for PSoC Devices.
   3:Generated_Source\PSoC4/nRF24_NRF_FUNCS.c **** *
   4:Generated_Source\PSoC4/nRF24_NRF_FUNCS.c **** * Copyright (C) 2017 Carlos Diaz <carlos.santiago.diaz@gmail.com>
   5:Generated_Source\PSoC4/nRF24_NRF_FUNCS.c **** *
   6:Generated_Source\PSoC4/nRF24_NRF_FUNCS.c **** * Permission to use, copy, modify, and/or distribute this software for any
   7:Generated_Source\PSoC4/nRF24_NRF_FUNCS.c **** * purpose with or without fee is hereby granted, provided that the above
   8:Generated_Source\PSoC4/nRF24_NRF_FUNCS.c **** * copyright notice and this permission notice appear in all copies.
   9:Generated_Source\PSoC4/nRF24_NRF_FUNCS.c **** *
  10:Generated_Source\PSoC4/nRF24_NRF_FUNCS.c **** * THE SOFTWARE IS PROVIDED "AS IS" AND THE AUTHOR DISCLAIMS ALL WARRANTIES
  11:Generated_Source\PSoC4/nRF24_NRF_FUNCS.c **** * WITH REGARD TO THIS SOFTWARE INCLUDING ALL IMPLIED WARRANTIES OF
  12:Generated_Source\PSoC4/nRF24_NRF_FUNCS.c **** * MERCHANTABILITY AND FITNESS. IN NO EVENT SHALL THE AUTHOR BE LIABLE FOR
  13:Generated_Source\PSoC4/nRF24_NRF_FUNCS.c **** * ANY SPECIAL, DIRECT, INDIRECT, OR CONSEQUENTIAL DAMAGES OR ANY DAMAGES
  14:Generated_Source\PSoC4/nRF24_NRF_FUNCS.c **** * WHATSOEVER RESULTING FROM LOSS OF USE, DATA OR PROFITS, WHETHER IN AN
  15:Generated_Source\PSoC4/nRF24_NRF_FUNCS.c **** * ACTION OF CONTRACT, NEGLIGENCE OR OTHER TORTIOUS ACTION, ARISING OUT OF
  16:Generated_Source\PSoC4/nRF24_NRF_FUNCS.c **** * OR IN CONNECTION WITH THE USE OR PERFORMANCE OF THIS SOFTWARE.
  17:Generated_Source\PSoC4/nRF24_NRF_FUNCS.c **** ****************************************************************************/
  18:Generated_Source\PSoC4/nRF24_NRF_FUNCS.c **** 
  19:Generated_Source\PSoC4/nRF24_NRF_FUNCS.c **** /**
  20:Generated_Source\PSoC4/nRF24_NRF_FUNCS.c **** * @file nRF24_NRF_FUNCS.c
  21:Generated_Source\PSoC4/nRF24_NRF_FUNCS.c **** *
  22:Generated_Source\PSoC4/nRF24_NRF_FUNCS.c **** * @brief This file define all the functions available to the user.
  23:Generated_Source\PSoC4/nRF24_NRF_FUNCS.c **** */
  24:Generated_Source\PSoC4/nRF24_NRF_FUNCS.c **** 
  25:Generated_Source\PSoC4/nRF24_NRF_FUNCS.c **** #include "nRF24_NRF_CONFIG.h"
  26:Generated_Source\PSoC4/nRF24_NRF_FUNCS.c **** #include "nRF24_LL_SPI.h"
  27:Generated_Source\PSoC4/nRF24_NRF_FUNCS.c **** #include "nRF24_NRF_COMMANDS.h"
  28:Generated_Source\PSoC4/nRF24_NRF_FUNCS.c **** #include "nRF24_NRF_FUNCS.h"
  29:Generated_Source\PSoC4/nRF24_NRF_FUNCS.c **** #include "nRF24_NRF_REGS.h"
  30:Generated_Source\PSoC4/nRF24_NRF_FUNCS.c **** 
ARM GAS  C:\Users\Xwx47\AppData\Local\Temp\cc5OEXcK.s 			page 2


  31:Generated_Source\PSoC4/nRF24_NRF_FUNCS.c **** /**
  32:Generated_Source\PSoC4/nRF24_NRF_FUNCS.c ****  * @brief Configure the radio and clear IRQs, TX and RX FIFOs.
  33:Generated_Source\PSoC4/nRF24_NRF_FUNCS.c ****  */
  34:Generated_Source\PSoC4/nRF24_NRF_FUNCS.c **** void nRF24_start(void)
  35:Generated_Source\PSoC4/nRF24_NRF_FUNCS.c **** {
  36:Generated_Source\PSoC4/nRF24_NRF_FUNCS.c ****     // Recommended delay to start using the nRF24
  37:Generated_Source\PSoC4/nRF24_NRF_FUNCS.c ****     CyDelay(NRF_POWER_UP_DELAY);
  38:Generated_Source\PSoC4/nRF24_NRF_FUNCS.c ****     
  39:Generated_Source\PSoC4/nRF24_NRF_FUNCS.c ****     // Now the radio is in Power Down mode
  40:Generated_Source\PSoC4/nRF24_NRF_FUNCS.c ****     
  41:Generated_Source\PSoC4/nRF24_NRF_FUNCS.c ****     // Set SS to logic 1, CE to logic 0 and Start the SPI
  42:Generated_Source\PSoC4/nRF24_NRF_FUNCS.c **** #if defined(CY_GPIO_H)
  43:Generated_Source\PSoC4/nRF24_NRF_FUNCS.c ****     Cy_GPIO_Clr(CE_PORT, CE_NUM);
  44:Generated_Source\PSoC4/nRF24_NRF_FUNCS.c ****     Cy_GPIO_Set(SS_PORT, SS_NUM);
  45:Generated_Source\PSoC4/nRF24_NRF_FUNCS.c **** #else
  46:Generated_Source\PSoC4/nRF24_NRF_FUNCS.c ****     CE_Write(0);
  47:Generated_Source\PSoC4/nRF24_NRF_FUNCS.c ****     SS_Write(1);
  48:Generated_Source\PSoC4/nRF24_NRF_FUNCS.c **** #endif
  49:Generated_Source\PSoC4/nRF24_NRF_FUNCS.c ****     SPI_Start();
  50:Generated_Source\PSoC4/nRF24_NRF_FUNCS.c **** 
  51:Generated_Source\PSoC4/nRF24_NRF_FUNCS.c ****     // Flush both nRF24 FIFOs
  52:Generated_Source\PSoC4/nRF24_NRF_FUNCS.c ****     nRF24_flushRxCmd();
  53:Generated_Source\PSoC4/nRF24_NRF_FUNCS.c ****     nRF24_flushTxCmd();
  54:Generated_Source\PSoC4/nRF24_NRF_FUNCS.c ****     // Clear IRQ flags
  55:Generated_Source\PSoC4/nRF24_NRF_FUNCS.c ****     nRF24_clearAllIRQs();
  56:Generated_Source\PSoC4/nRF24_NRF_FUNCS.c ****     
  57:Generated_Source\PSoC4/nRF24_NRF_FUNCS.c ****     // Configure the nRF24 with the data from the customizer
  58:Generated_Source\PSoC4/nRF24_NRF_FUNCS.c ****     nRF24_init();
  59:Generated_Source\PSoC4/nRF24_NRF_FUNCS.c ****     
  60:Generated_Source\PSoC4/nRF24_NRF_FUNCS.c ****     // After PWR_UP = 1 the radio is in Standby-I mode, 130us of delay for settling
  61:Generated_Source\PSoC4/nRF24_NRF_FUNCS.c ****     CyDelayUs(150);
  62:Generated_Source\PSoC4/nRF24_NRF_FUNCS.c **** }
  63:Generated_Source\PSoC4/nRF24_NRF_FUNCS.c **** 
  64:Generated_Source\PSoC4/nRF24_NRF_FUNCS.c **** /**
  65:Generated_Source\PSoC4/nRF24_NRF_FUNCS.c ****  * Write data from the customizer to the nRF radio.
  66:Generated_Source\PSoC4/nRF24_NRF_FUNCS.c ****  */
  67:Generated_Source\PSoC4/nRF24_NRF_FUNCS.c **** void nRF24_init(void)
  68:Generated_Source\PSoC4/nRF24_NRF_FUNCS.c **** {
  28              		.loc 1 68 0
  29              		.cfi_startproc
  30              		@ args = 0, pretend = 0, frame = 0
  31              		@ frame_needed = 0, uses_anonymous_args = 0
  32 0000 10B5     		push	{r4, lr}
  33              		.cfi_def_cfa_offset 8
  34              		.cfi_offset 4, -8
  35              		.cfi_offset 14, -4
  69:Generated_Source\PSoC4/nRF24_NRF_FUNCS.c ****     nRF24_writeRegister(NRF_EN_AA_REG, CUSTOMIZER_EN_AA);
  36              		.loc 1 69 0
  37 0002 0121     		movs	r1, #1
  38 0004 0120     		movs	r0, #1
  39 0006 FFF7FEFF 		bl	nRF24_writeRegister
  40              	.LVL0:
  70:Generated_Source\PSoC4/nRF24_NRF_FUNCS.c ****     nRF24_writeRegister(NRF_EN_RXADDR_REG, CUSTOMIZER_EN_RXADDR);
  41              		.loc 1 70 0
  42 000a 0121     		movs	r1, #1
  43 000c 0220     		movs	r0, #2
  44 000e FFF7FEFF 		bl	nRF24_writeRegister
ARM GAS  C:\Users\Xwx47\AppData\Local\Temp\cc5OEXcK.s 			page 3


  45              	.LVL1:
  71:Generated_Source\PSoC4/nRF24_NRF_FUNCS.c ****     nRF24_writeRegister(NRF_SETUP_AW_REG, CUSTOMIZER_SETUP_AW);
  46              		.loc 1 71 0
  47 0012 0321     		movs	r1, #3
  48 0014 0320     		movs	r0, #3
  49 0016 FFF7FEFF 		bl	nRF24_writeRegister
  50              	.LVL2:
  72:Generated_Source\PSoC4/nRF24_NRF_FUNCS.c ****     nRF24_writeRegister(NRF_SETUP_RETR_REG, CUSTOMIZER_SETUP_RETR);
  51              		.loc 1 72 0
  52 001a 0321     		movs	r1, #3
  53 001c 0420     		movs	r0, #4
  54 001e FFF7FEFF 		bl	nRF24_writeRegister
  55              	.LVL3:
  73:Generated_Source\PSoC4/nRF24_NRF_FUNCS.c ****     nRF24_writeRegister(NRF_RF_CH_REG, CUSTOMIZER_RF_CH);
  56              		.loc 1 73 0
  57 0022 4B21     		movs	r1, #75
  58 0024 0520     		movs	r0, #5
  59 0026 FFF7FEFF 		bl	nRF24_writeRegister
  60              	.LVL4:
  74:Generated_Source\PSoC4/nRF24_NRF_FUNCS.c ****     nRF24_writeRegister(NRF_RF_SETUP_REG, CUSTOMIZER_RF_SETUP);
  61              		.loc 1 74 0
  62 002a 2621     		movs	r1, #38
  63 002c 0620     		movs	r0, #6
  64 002e FFF7FEFF 		bl	nRF24_writeRegister
  65              	.LVL5:
  75:Generated_Source\PSoC4/nRF24_NRF_FUNCS.c ****     nRF24_writeRegister(NRF_DYNPD_REG, CUSTOMIZER_DYNPD);
  66              		.loc 1 75 0
  67 0032 0121     		movs	r1, #1
  68 0034 1C20     		movs	r0, #28
  69 0036 FFF7FEFF 		bl	nRF24_writeRegister
  70              	.LVL6:
  76:Generated_Source\PSoC4/nRF24_NRF_FUNCS.c ****     nRF24_writeRegister(NRF_FEATURE_REG, CUSTOMIZER_FEATURE);
  71              		.loc 1 76 0
  72 003a 0621     		movs	r1, #6
  73 003c 1D20     		movs	r0, #29
  74 003e FFF7FEFF 		bl	nRF24_writeRegister
  75              	.LVL7:
  77:Generated_Source\PSoC4/nRF24_NRF_FUNCS.c **** 
  78:Generated_Source\PSoC4/nRF24_NRF_FUNCS.c **** // Configuring data pipes
  79:Generated_Source\PSoC4/nRF24_NRF_FUNCS.c **** #if (ENABLE_PIPE0 == 1)
  80:Generated_Source\PSoC4/nRF24_NRF_FUNCS.c ****     nRF24_writeRegister(NRF_RX_PW_P0_REG, CUSTOMIZER_RX_PW_P0);
  76              		.loc 1 80 0
  77 0042 0121     		movs	r1, #1
  78 0044 1120     		movs	r0, #17
  79 0046 FFF7FEFF 		bl	nRF24_writeRegister
  80              	.LVL8:
  81:Generated_Source\PSoC4/nRF24_NRF_FUNCS.c **** #endif
  82:Generated_Source\PSoC4/nRF24_NRF_FUNCS.c **** #if (ENABLE_PIPE1 == 1)
  83:Generated_Source\PSoC4/nRF24_NRF_FUNCS.c ****     nRF24_writeRegister(NRF_RX_PW_P1_REG, CUSTOMIZER_RX_PW_P0);
  84:Generated_Source\PSoC4/nRF24_NRF_FUNCS.c **** #endif
  85:Generated_Source\PSoC4/nRF24_NRF_FUNCS.c **** #if (ENABLE_PIPE2 == 1)
  86:Generated_Source\PSoC4/nRF24_NRF_FUNCS.c ****     nRF24_writeRegister(NRF_RX_ADDR_P2_REG, CUSTOMIZER_RX_ADDR_P2);
  87:Generated_Source\PSoC4/nRF24_NRF_FUNCS.c ****     nRF24_writeRegister(NRF_RX_PW_P2_REG, CUSTOMIZER_RX_PW_P0);
  88:Generated_Source\PSoC4/nRF24_NRF_FUNCS.c **** #endif
  89:Generated_Source\PSoC4/nRF24_NRF_FUNCS.c **** #if (ENABLE_PIPE3 == 1)
  90:Generated_Source\PSoC4/nRF24_NRF_FUNCS.c ****     nRF24_writeRegister(NRF_RX_ADDR_P3_REG, CUSTOMIZER_RX_ADDR_P3);
  91:Generated_Source\PSoC4/nRF24_NRF_FUNCS.c ****     nRF24_writeRegister(NRF_RX_PW_P3_REG, CUSTOMIZER_RX_PW_P0);
ARM GAS  C:\Users\Xwx47\AppData\Local\Temp\cc5OEXcK.s 			page 4


  92:Generated_Source\PSoC4/nRF24_NRF_FUNCS.c **** #endif
  93:Generated_Source\PSoC4/nRF24_NRF_FUNCS.c **** #if (ENABLE_PIPE4 == 1)
  94:Generated_Source\PSoC4/nRF24_NRF_FUNCS.c ****     nRF24_writeRegister(NRF_RX_ADDR_P4_REG, CUSTOMIZER_RX_ADDR_P4);
  95:Generated_Source\PSoC4/nRF24_NRF_FUNCS.c ****     nRF24_writeRegister(NRF_RX_PW_P4_REG, CUSTOMIZER_RX_PW_P0);
  96:Generated_Source\PSoC4/nRF24_NRF_FUNCS.c **** #endif
  97:Generated_Source\PSoC4/nRF24_NRF_FUNCS.c **** #if (ENABLE_PIPE5 == 1)
  98:Generated_Source\PSoC4/nRF24_NRF_FUNCS.c ****     nRF24_writeRegister(NRF_RX_ADDR_P5_REG, CUSTOMIZER_RX_ADDR_P5);
  99:Generated_Source\PSoC4/nRF24_NRF_FUNCS.c ****     nRF24_writeRegister(NRF_RX_PW_P5_REG, CUSTOMIZER_RX_PW_P0);
 100:Generated_Source\PSoC4/nRF24_NRF_FUNCS.c **** #endif
 101:Generated_Source\PSoC4/nRF24_NRF_FUNCS.c **** 
 102:Generated_Source\PSoC4/nRF24_NRF_FUNCS.c ****     nRF24_writeRegister( NRF_CONFIG_REG, CUSTOMIZER_CONFIG);
  81              		.loc 1 102 0
  82 004a 1B21     		movs	r1, #27
  83 004c 0020     		movs	r0, #0
  84 004e FFF7FEFF 		bl	nRF24_writeRegister
  85              	.LVL9:
 103:Generated_Source\PSoC4/nRF24_NRF_FUNCS.c **** }
  86              		.loc 1 103 0
  87              		@ sp needed
  88 0052 10BD     		pop	{r4, pc}
  89              		.cfi_endproc
  90              	.LFE34:
  91              		.size	nRF24_init, .-nRF24_init
  92              		.section	.text.nRF24_enable,"ax",%progbits
  93              		.align	2
  94              		.global	nRF24_enable
  95              		.code	16
  96              		.thumb_func
  97              		.type	nRF24_enable, %function
  98              	nRF24_enable:
  99              	.LFB35:
 104:Generated_Source\PSoC4/nRF24_NRF_FUNCS.c **** 
 105:Generated_Source\PSoC4/nRF24_NRF_FUNCS.c **** /**
 106:Generated_Source\PSoC4/nRF24_NRF_FUNCS.c ****  * Enable the nRF24 radio.
 107:Generated_Source\PSoC4/nRF24_NRF_FUNCS.c ****  *
 108:Generated_Source\PSoC4/nRF24_NRF_FUNCS.c ****  * @todo Implement this function
 109:Generated_Source\PSoC4/nRF24_NRF_FUNCS.c ****  */
 110:Generated_Source\PSoC4/nRF24_NRF_FUNCS.c **** void nRF24_enable(void)
 111:Generated_Source\PSoC4/nRF24_NRF_FUNCS.c **** {
 100              		.loc 1 111 0
 101              		.cfi_startproc
 102              		@ args = 0, pretend = 0, frame = 0
 103              		@ frame_needed = 0, uses_anonymous_args = 0
 104              		@ link register save eliminated.
 112:Generated_Source\PSoC4/nRF24_NRF_FUNCS.c **** }
 105              		.loc 1 112 0
 106              		@ sp needed
 107 0000 7047     		bx	lr
 108              		.cfi_endproc
 109              	.LFE35:
 110              		.size	nRF24_enable, .-nRF24_enable
 111 0002 C046     		.section	.text.nRF24_stop,"ax",%progbits
 112              		.align	2
 113              		.global	nRF24_stop
 114              		.code	16
 115              		.thumb_func
 116              		.type	nRF24_stop, %function
ARM GAS  C:\Users\Xwx47\AppData\Local\Temp\cc5OEXcK.s 			page 5


 117              	nRF24_stop:
 118              	.LFB36:
 113:Generated_Source\PSoC4/nRF24_NRF_FUNCS.c **** 
 114:Generated_Source\PSoC4/nRF24_NRF_FUNCS.c **** /**
 115:Generated_Source\PSoC4/nRF24_NRF_FUNCS.c ****  * Stop the nRF24 radio.
 116:Generated_Source\PSoC4/nRF24_NRF_FUNCS.c ****  *
 117:Generated_Source\PSoC4/nRF24_NRF_FUNCS.c ****  * @todo Implement this function
 118:Generated_Source\PSoC4/nRF24_NRF_FUNCS.c ****  */
 119:Generated_Source\PSoC4/nRF24_NRF_FUNCS.c **** void nRF24_stop(void)
 120:Generated_Source\PSoC4/nRF24_NRF_FUNCS.c **** {
 119              		.loc 1 120 0
 120              		.cfi_startproc
 121              		@ args = 0, pretend = 0, frame = 0
 122              		@ frame_needed = 0, uses_anonymous_args = 0
 123              		@ link register save eliminated.
 121:Generated_Source\PSoC4/nRF24_NRF_FUNCS.c **** }
 124              		.loc 1 121 0
 125              		@ sp needed
 126 0000 7047     		bx	lr
 127              		.cfi_endproc
 128              	.LFE36:
 129              		.size	nRF24_stop, .-nRF24_stop
 130 0002 C046     		.section	.text.nRF24_sleep,"ax",%progbits
 131              		.align	2
 132              		.global	nRF24_sleep
 133              		.code	16
 134              		.thumb_func
 135              		.type	nRF24_sleep, %function
 136              	nRF24_sleep:
 137              	.LFB37:
 122:Generated_Source\PSoC4/nRF24_NRF_FUNCS.c **** 
 123:Generated_Source\PSoC4/nRF24_NRF_FUNCS.c **** /**
 124:Generated_Source\PSoC4/nRF24_NRF_FUNCS.c ****  * Put the nRF24 radio on Sleep mode.
 125:Generated_Source\PSoC4/nRF24_NRF_FUNCS.c ****  *
 126:Generated_Source\PSoC4/nRF24_NRF_FUNCS.c ****  * @todo Implement this function.
 127:Generated_Source\PSoC4/nRF24_NRF_FUNCS.c ****  */
 128:Generated_Source\PSoC4/nRF24_NRF_FUNCS.c **** void nRF24_sleep(void)
 129:Generated_Source\PSoC4/nRF24_NRF_FUNCS.c **** {
 138              		.loc 1 129 0
 139              		.cfi_startproc
 140              		@ args = 0, pretend = 0, frame = 0
 141              		@ frame_needed = 0, uses_anonymous_args = 0
 142              		@ link register save eliminated.
 130:Generated_Source\PSoC4/nRF24_NRF_FUNCS.c **** }
 143              		.loc 1 130 0
 144              		@ sp needed
 145 0000 7047     		bx	lr
 146              		.cfi_endproc
 147              	.LFE37:
 148              		.size	nRF24_sleep, .-nRF24_sleep
 149 0002 C046     		.section	.text.nRF24_wakeup,"ax",%progbits
 150              		.align	2
 151              		.global	nRF24_wakeup
 152              		.code	16
 153              		.thumb_func
 154              		.type	nRF24_wakeup, %function
 155              	nRF24_wakeup:
ARM GAS  C:\Users\Xwx47\AppData\Local\Temp\cc5OEXcK.s 			page 6


 156              	.LFB38:
 131:Generated_Source\PSoC4/nRF24_NRF_FUNCS.c **** 
 132:Generated_Source\PSoC4/nRF24_NRF_FUNCS.c **** /**
 133:Generated_Source\PSoC4/nRF24_NRF_FUNCS.c ****  * Wakeup the nRF24 radio, and restore the configuration.
 134:Generated_Source\PSoC4/nRF24_NRF_FUNCS.c ****  *
 135:Generated_Source\PSoC4/nRF24_NRF_FUNCS.c ****  * @todo Implement this function.
 136:Generated_Source\PSoC4/nRF24_NRF_FUNCS.c ****  */
 137:Generated_Source\PSoC4/nRF24_NRF_FUNCS.c **** void nRF24_wakeup(void)
 138:Generated_Source\PSoC4/nRF24_NRF_FUNCS.c **** {
 157              		.loc 1 138 0
 158              		.cfi_startproc
 159              		@ args = 0, pretend = 0, frame = 0
 160              		@ frame_needed = 0, uses_anonymous_args = 0
 161              		@ link register save eliminated.
 139:Generated_Source\PSoC4/nRF24_NRF_FUNCS.c **** }
 162              		.loc 1 139 0
 163              		@ sp needed
 164 0000 7047     		bx	lr
 165              		.cfi_endproc
 166              	.LFE38:
 167              		.size	nRF24_wakeup, .-nRF24_wakeup
 168 0002 C046     		.section	.text.nRF24_saveConfig,"ax",%progbits
 169              		.align	2
 170              		.global	nRF24_saveConfig
 171              		.code	16
 172              		.thumb_func
 173              		.type	nRF24_saveConfig, %function
 174              	nRF24_saveConfig:
 175              	.LFB39:
 140:Generated_Source\PSoC4/nRF24_NRF_FUNCS.c **** 
 141:Generated_Source\PSoC4/nRF24_NRF_FUNCS.c **** /**
 142:Generated_Source\PSoC4/nRF24_NRF_FUNCS.c ****  * Save the nRF24 radio configuration.
 143:Generated_Source\PSoC4/nRF24_NRF_FUNCS.c ****  *
 144:Generated_Source\PSoC4/nRF24_NRF_FUNCS.c ****  * @todo Implement this function.
 145:Generated_Source\PSoC4/nRF24_NRF_FUNCS.c ****  */
 146:Generated_Source\PSoC4/nRF24_NRF_FUNCS.c **** void nRF24_saveConfig(void)
 147:Generated_Source\PSoC4/nRF24_NRF_FUNCS.c **** {
 176              		.loc 1 147 0
 177              		.cfi_startproc
 178              		@ args = 0, pretend = 0, frame = 0
 179              		@ frame_needed = 0, uses_anonymous_args = 0
 180              		@ link register save eliminated.
 148:Generated_Source\PSoC4/nRF24_NRF_FUNCS.c **** }
 181              		.loc 1 148 0
 182              		@ sp needed
 183 0000 7047     		bx	lr
 184              		.cfi_endproc
 185              	.LFE39:
 186              		.size	nRF24_saveConfig, .-nRF24_saveConfig
 187 0002 C046     		.section	.text.nRF24_restoreConfig,"ax",%progbits
 188              		.align	2
 189              		.global	nRF24_restoreConfig
 190              		.code	16
 191              		.thumb_func
 192              		.type	nRF24_restoreConfig, %function
 193              	nRF24_restoreConfig:
 194              	.LFB40:
ARM GAS  C:\Users\Xwx47\AppData\Local\Temp\cc5OEXcK.s 			page 7


 149:Generated_Source\PSoC4/nRF24_NRF_FUNCS.c **** 
 150:Generated_Source\PSoC4/nRF24_NRF_FUNCS.c **** /**
 151:Generated_Source\PSoC4/nRF24_NRF_FUNCS.c ****  * Restore the nRF24 radio configuration.
 152:Generated_Source\PSoC4/nRF24_NRF_FUNCS.c ****  *
 153:Generated_Source\PSoC4/nRF24_NRF_FUNCS.c ****  * @todo Implement this function.
 154:Generated_Source\PSoC4/nRF24_NRF_FUNCS.c ****  */
 155:Generated_Source\PSoC4/nRF24_NRF_FUNCS.c **** void nRF24_restoreConfig(void)
 156:Generated_Source\PSoC4/nRF24_NRF_FUNCS.c **** {
 195              		.loc 1 156 0
 196              		.cfi_startproc
 197              		@ args = 0, pretend = 0, frame = 0
 198              		@ frame_needed = 0, uses_anonymous_args = 0
 199              		@ link register save eliminated.
 157:Generated_Source\PSoC4/nRF24_NRF_FUNCS.c **** }
 200              		.loc 1 157 0
 201              		@ sp needed
 202 0000 7047     		bx	lr
 203              		.cfi_endproc
 204              	.LFE40:
 205              		.size	nRF24_restoreConfig, .-nRF24_restoreConfig
 206 0002 C046     		.section	.text.nRF24_setPowerDownMode,"ax",%progbits
 207              		.align	2
 208              		.global	nRF24_setPowerDownMode
 209              		.code	16
 210              		.thumb_func
 211              		.type	nRF24_setPowerDownMode, %function
 212              	nRF24_setPowerDownMode:
 213              	.LFB42:
 158:Generated_Source\PSoC4/nRF24_NRF_FUNCS.c **** 
 159:Generated_Source\PSoC4/nRF24_NRF_FUNCS.c **** /**
 160:Generated_Source\PSoC4/nRF24_NRF_FUNCS.c ****  * Configure the radio as Receiver or Transmitter.
 161:Generated_Source\PSoC4/nRF24_NRF_FUNCS.c ****  *
 162:Generated_Source\PSoC4/nRF24_NRF_FUNCS.c ****  * @param const NrfMode mode: The radio can be configured as Receiver (PRX)
 163:Generated_Source\PSoC4/nRF24_NRF_FUNCS.c ****  * or Transmitter (PTX).
 164:Generated_Source\PSoC4/nRF24_NRF_FUNCS.c ****  */
 165:Generated_Source\PSoC4/nRF24_NRF_FUNCS.c **** void nRF24_setMode(const NrfMode mode)
 166:Generated_Source\PSoC4/nRF24_NRF_FUNCS.c **** {
 167:Generated_Source\PSoC4/nRF24_NRF_FUNCS.c ****     mode ? nRF24_setRxMode() : nRF24_setTxMode();
 168:Generated_Source\PSoC4/nRF24_NRF_FUNCS.c **** }
 169:Generated_Source\PSoC4/nRF24_NRF_FUNCS.c **** 
 170:Generated_Source\PSoC4/nRF24_NRF_FUNCS.c **** /**
 171:Generated_Source\PSoC4/nRF24_NRF_FUNCS.c ****  * @brief Set radio in Power Down Mode.
 172:Generated_Source\PSoC4/nRF24_NRF_FUNCS.c ****  *
 173:Generated_Source\PSoC4/nRF24_NRF_FUNCS.c ****  * In power down mode nRF24 is disabled using minimal current consumption.
 174:Generated_Source\PSoC4/nRF24_NRF_FUNCS.c ****  * All register values available are maintained and the SPI is kept active,
 175:Generated_Source\PSoC4/nRF24_NRF_FUNCS.c ****  * enabling change of configuration and the uploading/downloading of data
 176:Generated_Source\PSoC4/nRF24_NRF_FUNCS.c ****  * registers.
 177:Generated_Source\PSoC4/nRF24_NRF_FUNCS.c ****  * Power down mode is entered by setting the PWR_UP bit in the CONFIG register
 178:Generated_Source\PSoC4/nRF24_NRF_FUNCS.c ****  * low.
 179:Generated_Source\PSoC4/nRF24_NRF_FUNCS.c ****  */
 180:Generated_Source\PSoC4/nRF24_NRF_FUNCS.c **** void nRF24_setPowerDownMode(void)
 181:Generated_Source\PSoC4/nRF24_NRF_FUNCS.c **** {
 214              		.loc 1 181 0
 215              		.cfi_startproc
 216              		@ args = 0, pretend = 0, frame = 0
 217              		@ frame_needed = 0, uses_anonymous_args = 0
 218 0000 10B5     		push	{r4, lr}
ARM GAS  C:\Users\Xwx47\AppData\Local\Temp\cc5OEXcK.s 			page 8


 219              		.cfi_def_cfa_offset 8
 220              		.cfi_offset 4, -8
 221              		.cfi_offset 14, -4
 182:Generated_Source\PSoC4/nRF24_NRF_FUNCS.c ****     nRF24_clearBit(NRF_CONFIG_REG, NRF_CONFIG_PWR_UP);
 222              		.loc 1 182 0
 223 0002 0121     		movs	r1, #1
 224 0004 0020     		movs	r0, #0
 225 0006 FFF7FEFF 		bl	nRF24_clearBit
 226              	.LVL10:
 183:Generated_Source\PSoC4/nRF24_NRF_FUNCS.c **** }
 227              		.loc 1 183 0
 228              		@ sp needed
 229 000a 10BD     		pop	{r4, pc}
 230              		.cfi_endproc
 231              	.LFE42:
 232              		.size	nRF24_setPowerDownMode, .-nRF24_setPowerDownMode
 233              		.section	.text.nRF24_setRxMode,"ax",%progbits
 234              		.align	2
 235              		.global	nRF24_setRxMode
 236              		.code	16
 237              		.thumb_func
 238              		.type	nRF24_setRxMode, %function
 239              	nRF24_setRxMode:
 240              	.LFB45:
 184:Generated_Source\PSoC4/nRF24_NRF_FUNCS.c **** 
 185:Generated_Source\PSoC4/nRF24_NRF_FUNCS.c **** /**
 186:Generated_Source\PSoC4/nRF24_NRF_FUNCS.c ****  * @brief Set the radio in Standby I Mode.
 187:Generated_Source\PSoC4/nRF24_NRF_FUNCS.c ****  *
 188:Generated_Source\PSoC4/nRF24_NRF_FUNCS.c ****  * By setting the PWR_UP bit in the CONFIG register to 1, the device enters
 189:Generated_Source\PSoC4/nRF24_NRF_FUNCS.c ****  * standby-I mode. Standby-I mode is used to minimize average current
 190:Generated_Source\PSoC4/nRF24_NRF_FUNCS.c ****  * consumption while maintaining short start up times.
 191:Generated_Source\PSoC4/nRF24_NRF_FUNCS.c ****  * In this mode only part of the crystal oscillator is active. Change to
 192:Generated_Source\PSoC4/nRF24_NRF_FUNCS.c ****  * active modes only happens if CE is set high and when CE is set low,
 193:Generated_Source\PSoC4/nRF24_NRF_FUNCS.c ****  * the nRF24 returns to standby-I mode from both the TX and RX modes.
 194:Generated_Source\PSoC4/nRF24_NRF_FUNCS.c ****  */
 195:Generated_Source\PSoC4/nRF24_NRF_FUNCS.c **** void nRF24_setStandbyIMode(void)
 196:Generated_Source\PSoC4/nRF24_NRF_FUNCS.c **** {
 197:Generated_Source\PSoC4/nRF24_NRF_FUNCS.c ****     nRF24_listen(false);
 198:Generated_Source\PSoC4/nRF24_NRF_FUNCS.c ****     nRF24_clearBit(NRF_CONFIG_REG, NRF_CONFIG_PWR_UP);
 199:Generated_Source\PSoC4/nRF24_NRF_FUNCS.c **** }
 200:Generated_Source\PSoC4/nRF24_NRF_FUNCS.c **** 
 201:Generated_Source\PSoC4/nRF24_NRF_FUNCS.c **** /**
 202:Generated_Source\PSoC4/nRF24_NRF_FUNCS.c ****  * @brief Set the radio in Standby II Mode.
 203:Generated_Source\PSoC4/nRF24_NRF_FUNCS.c ****  *
 204:Generated_Source\PSoC4/nRF24_NRF_FUNCS.c ****  * In standby-II mode extra clock buffers are active and more current is used
 205:Generated_Source\PSoC4/nRF24_NRF_FUNCS.c ****  * compared to standby-I mode. nRF24 enters standby-II mode if CE is held high
 206:Generated_Source\PSoC4/nRF24_NRF_FUNCS.c ****  * on a TX device with an empty TX FIFO.
 207:Generated_Source\PSoC4/nRF24_NRF_FUNCS.c ****  * If a new packet is uploaded to the TX FIFO, the PLL immediately starts and
 208:Generated_Source\PSoC4/nRF24_NRF_FUNCS.c ****  * the packet is transmitted after the normal PLL settling  delay (130us).
 209:Generated_Source\PSoC4/nRF24_NRF_FUNCS.c ****  */
 210:Generated_Source\PSoC4/nRF24_NRF_FUNCS.c **** void nRF24_setStandbyIIMode(void)
 211:Generated_Source\PSoC4/nRF24_NRF_FUNCS.c **** {
 212:Generated_Source\PSoC4/nRF24_NRF_FUNCS.c ****     nRF24_listen(true);
 213:Generated_Source\PSoC4/nRF24_NRF_FUNCS.c ****     nRF24_setBit(NRF_CONFIG_REG, NRF_CONFIG_PWR_UP);
 214:Generated_Source\PSoC4/nRF24_NRF_FUNCS.c **** }
 215:Generated_Source\PSoC4/nRF24_NRF_FUNCS.c **** 
 216:Generated_Source\PSoC4/nRF24_NRF_FUNCS.c **** /**
ARM GAS  C:\Users\Xwx47\AppData\Local\Temp\cc5OEXcK.s 			page 9


 217:Generated_Source\PSoC4/nRF24_NRF_FUNCS.c ****  * @brief Set the radio in Receiver (Rx) Mode.
 218:Generated_Source\PSoC4/nRF24_NRF_FUNCS.c ****  *
 219:Generated_Source\PSoC4/nRF24_NRF_FUNCS.c ****  * RX mode is an active mode where the nRF24 radio is used as receiver. To
 220:Generated_Source\PSoC4/nRF24_NRF_FUNCS.c ****  * enter this mode, the nRF24 must have the PWR_UP bit, PRIM_RX bit and the CE
 221:Generated_Source\PSoC4/nRF24_NRF_FUNCS.c ****  * pin set high.
 222:Generated_Source\PSoC4/nRF24_NRF_FUNCS.c ****  */
 223:Generated_Source\PSoC4/nRF24_NRF_FUNCS.c **** void nRF24_setRxMode(void)
 224:Generated_Source\PSoC4/nRF24_NRF_FUNCS.c **** {
 241              		.loc 1 224 0
 242              		.cfi_startproc
 243              		@ args = 0, pretend = 0, frame = 0
 244              		@ frame_needed = 0, uses_anonymous_args = 0
 245 0000 10B5     		push	{r4, lr}
 246              		.cfi_def_cfa_offset 8
 247              		.cfi_offset 4, -8
 248              		.cfi_offset 14, -4
 225:Generated_Source\PSoC4/nRF24_NRF_FUNCS.c ****     nRF24_setBit(NRF_CONFIG_REG, NRF_CONFIG_PRIM_RX);
 249              		.loc 1 225 0
 250 0002 0021     		movs	r1, #0
 251 0004 0020     		movs	r0, #0
 252 0006 FFF7FEFF 		bl	nRF24_setBit
 253              	.LVL11:
 226:Generated_Source\PSoC4/nRF24_NRF_FUNCS.c **** }
 254              		.loc 1 226 0
 255              		@ sp needed
 256 000a 10BD     		pop	{r4, pc}
 257              		.cfi_endproc
 258              	.LFE45:
 259              		.size	nRF24_setRxMode, .-nRF24_setRxMode
 260              		.section	.text.nRF24_setTxMode,"ax",%progbits
 261              		.align	2
 262              		.global	nRF24_setTxMode
 263              		.code	16
 264              		.thumb_func
 265              		.type	nRF24_setTxMode, %function
 266              	nRF24_setTxMode:
 267              	.LFB46:
 227:Generated_Source\PSoC4/nRF24_NRF_FUNCS.c **** 
 228:Generated_Source\PSoC4/nRF24_NRF_FUNCS.c **** /**
 229:Generated_Source\PSoC4/nRF24_NRF_FUNCS.c ****  * @brief Set the radio in Transmitted (Tx) Mode.
 230:Generated_Source\PSoC4/nRF24_NRF_FUNCS.c ****  *
 231:Generated_Source\PSoC4/nRF24_NRF_FUNCS.c ****  * TX mode is an active mode for transmitting packets. To enter this mode,
 232:Generated_Source\PSoC4/nRF24_NRF_FUNCS.c ****  * the nRF24 must have the PWR_UP bit set high, PRIM_RX bit set low, a payload
 233:Generated_Source\PSoC4/nRF24_NRF_FUNCS.c ****  * in the TX FIFO and a high pulse on the CE for more than 10us.
 234:Generated_Source\PSoC4/nRF24_NRF_FUNCS.c ****  */
 235:Generated_Source\PSoC4/nRF24_NRF_FUNCS.c **** void nRF24_setTxMode(void)
 236:Generated_Source\PSoC4/nRF24_NRF_FUNCS.c **** {
 268              		.loc 1 236 0
 269              		.cfi_startproc
 270              		@ args = 0, pretend = 0, frame = 0
 271              		@ frame_needed = 0, uses_anonymous_args = 0
 272 0000 10B5     		push	{r4, lr}
 273              		.cfi_def_cfa_offset 8
 274              		.cfi_offset 4, -8
 275              		.cfi_offset 14, -4
 237:Generated_Source\PSoC4/nRF24_NRF_FUNCS.c ****     nRF24_clearBit(NRF_CONFIG_REG, NRF_CONFIG_PRIM_RX);
 276              		.loc 1 237 0
ARM GAS  C:\Users\Xwx47\AppData\Local\Temp\cc5OEXcK.s 			page 10


 277 0002 0021     		movs	r1, #0
 278 0004 0020     		movs	r0, #0
 279 0006 FFF7FEFF 		bl	nRF24_clearBit
 280              	.LVL12:
 238:Generated_Source\PSoC4/nRF24_NRF_FUNCS.c **** }
 281              		.loc 1 238 0
 282              		@ sp needed
 283 000a 10BD     		pop	{r4, pc}
 284              		.cfi_endproc
 285              	.LFE46:
 286              		.size	nRF24_setTxMode, .-nRF24_setTxMode
 287              		.section	.text.nRF24_setMode,"ax",%progbits
 288              		.align	2
 289              		.global	nRF24_setMode
 290              		.code	16
 291              		.thumb_func
 292              		.type	nRF24_setMode, %function
 293              	nRF24_setMode:
 294              	.LFB41:
 166:Generated_Source\PSoC4/nRF24_NRF_FUNCS.c ****     mode ? nRF24_setRxMode() : nRF24_setTxMode();
 295              		.loc 1 166 0
 296              		.cfi_startproc
 297              		@ args = 0, pretend = 0, frame = 0
 298              		@ frame_needed = 0, uses_anonymous_args = 0
 299              	.LVL13:
 300 0000 10B5     		push	{r4, lr}
 301              		.cfi_def_cfa_offset 8
 302              		.cfi_offset 4, -8
 303              		.cfi_offset 14, -4
 167:Generated_Source\PSoC4/nRF24_NRF_FUNCS.c **** }
 304              		.loc 1 167 0
 305 0002 0028     		cmp	r0, #0
 306 0004 02D0     		beq	.L12
 167:Generated_Source\PSoC4/nRF24_NRF_FUNCS.c **** }
 307              		.loc 1 167 0 is_stmt 0 discriminator 1
 308 0006 FFF7FEFF 		bl	nRF24_setRxMode
 309              	.LVL14:
 310 000a 01E0     		b	.L11
 311              	.LVL15:
 312              	.L12:
 167:Generated_Source\PSoC4/nRF24_NRF_FUNCS.c **** }
 313              		.loc 1 167 0 discriminator 2
 314 000c FFF7FEFF 		bl	nRF24_setTxMode
 315              	.LVL16:
 316              	.L11:
 168:Generated_Source\PSoC4/nRF24_NRF_FUNCS.c **** 
 317              		.loc 1 168 0 is_stmt 1
 318              		@ sp needed
 319 0010 10BD     		pop	{r4, pc}
 320              		.cfi_endproc
 321              	.LFE41:
 322              		.size	nRF24_setMode, .-nRF24_setMode
 323 0012 C046     		.section	.text.nRF24_enableAutoACK,"ax",%progbits
 324              		.align	2
 325              		.global	nRF24_enableAutoACK
 326              		.code	16
 327              		.thumb_func
ARM GAS  C:\Users\Xwx47\AppData\Local\Temp\cc5OEXcK.s 			page 11


 328              		.type	nRF24_enableAutoACK, %function
 329              	nRF24_enableAutoACK:
 330              	.LFB47:
 239:Generated_Source\PSoC4/nRF24_NRF_FUNCS.c **** 
 240:Generated_Source\PSoC4/nRF24_NRF_FUNCS.c **** /**
 241:Generated_Source\PSoC4/nRF24_NRF_FUNCS.c ****  * @brief Enable AutoACK in the given pipe.
 242:Generated_Source\PSoC4/nRF24_NRF_FUNCS.c ****  *
 243:Generated_Source\PSoC4/nRF24_NRF_FUNCS.c ****  * @param pipe: Enable AutoACK in the given pipe.
 244:Generated_Source\PSoC4/nRF24_NRF_FUNCS.c ****  */
 245:Generated_Source\PSoC4/nRF24_NRF_FUNCS.c **** void nRF24_enableAutoACK(const NrfPipe pipe)
 246:Generated_Source\PSoC4/nRF24_NRF_FUNCS.c **** {
 331              		.loc 1 246 0
 332              		.cfi_startproc
 333              		@ args = 0, pretend = 0, frame = 0
 334              		@ frame_needed = 0, uses_anonymous_args = 0
 335              	.LVL17:
 336 0000 10B5     		push	{r4, lr}
 337              		.cfi_def_cfa_offset 8
 338              		.cfi_offset 4, -8
 339              		.cfi_offset 14, -4
 340 0002 0100     		movs	r1, r0
 247:Generated_Source\PSoC4/nRF24_NRF_FUNCS.c ****     nRF24_setBit(NRF_EN_AA_REG, pipe);
 341              		.loc 1 247 0
 342 0004 0120     		movs	r0, #1
 343              	.LVL18:
 344 0006 FFF7FEFF 		bl	nRF24_setBit
 345              	.LVL19:
 248:Generated_Source\PSoC4/nRF24_NRF_FUNCS.c **** }
 346              		.loc 1 248 0
 347              		@ sp needed
 348 000a 10BD     		pop	{r4, pc}
 349              		.cfi_endproc
 350              	.LFE47:
 351              		.size	nRF24_enableAutoACK, .-nRF24_enableAutoACK
 352              		.section	.text.nRF24_disableAutoACK,"ax",%progbits
 353              		.align	2
 354              		.global	nRF24_disableAutoACK
 355              		.code	16
 356              		.thumb_func
 357              		.type	nRF24_disableAutoACK, %function
 358              	nRF24_disableAutoACK:
 359              	.LFB48:
 249:Generated_Source\PSoC4/nRF24_NRF_FUNCS.c **** 
 250:Generated_Source\PSoC4/nRF24_NRF_FUNCS.c **** /**
 251:Generated_Source\PSoC4/nRF24_NRF_FUNCS.c ****  * @brief Disable AutoACK in the given pipe.
 252:Generated_Source\PSoC4/nRF24_NRF_FUNCS.c ****  *
 253:Generated_Source\PSoC4/nRF24_NRF_FUNCS.c ****  * @param pipe: Disable AutoACK in the given pipe.
 254:Generated_Source\PSoC4/nRF24_NRF_FUNCS.c ****  */
 255:Generated_Source\PSoC4/nRF24_NRF_FUNCS.c **** void nRF24_disableAutoACK(const NrfPipe pipe)
 256:Generated_Source\PSoC4/nRF24_NRF_FUNCS.c **** {
 360              		.loc 1 256 0
 361              		.cfi_startproc
 362              		@ args = 0, pretend = 0, frame = 0
 363              		@ frame_needed = 0, uses_anonymous_args = 0
 364              	.LVL20:
 365 0000 10B5     		push	{r4, lr}
 366              		.cfi_def_cfa_offset 8
ARM GAS  C:\Users\Xwx47\AppData\Local\Temp\cc5OEXcK.s 			page 12


 367              		.cfi_offset 4, -8
 368              		.cfi_offset 14, -4
 369 0002 0100     		movs	r1, r0
 257:Generated_Source\PSoC4/nRF24_NRF_FUNCS.c ****     nRF24_clearBit(NRF_EN_AA_REG, pipe);
 370              		.loc 1 257 0
 371 0004 0120     		movs	r0, #1
 372              	.LVL21:
 373 0006 FFF7FEFF 		bl	nRF24_clearBit
 374              	.LVL22:
 258:Generated_Source\PSoC4/nRF24_NRF_FUNCS.c **** }
 375              		.loc 1 258 0
 376              		@ sp needed
 377 000a 10BD     		pop	{r4, pc}
 378              		.cfi_endproc
 379              	.LFE48:
 380              		.size	nRF24_disableAutoACK, .-nRF24_disableAutoACK
 381              		.section	.text.nRF24_setChannel,"ax",%progbits
 382              		.align	2
 383              		.global	nRF24_setChannel
 384              		.code	16
 385              		.thumb_func
 386              		.type	nRF24_setChannel, %function
 387              	nRF24_setChannel:
 388              	.LFB49:
 259:Generated_Source\PSoC4/nRF24_NRF_FUNCS.c **** 
 260:Generated_Source\PSoC4/nRF24_NRF_FUNCS.c **** /**
 261:Generated_Source\PSoC4/nRF24_NRF_FUNCS.c ****  * @brief Set the channel where the radio will work.
 262:Generated_Source\PSoC4/nRF24_NRF_FUNCS.c ****  *
 263:Generated_Source\PSoC4/nRF24_NRF_FUNCS.c ****  * @param uint8_t channel: Channel where the radio will work.
 264:Generated_Source\PSoC4/nRF24_NRF_FUNCS.c ****  */
 265:Generated_Source\PSoC4/nRF24_NRF_FUNCS.c **** void nRF24_setChannel(uint8_t channel)
 266:Generated_Source\PSoC4/nRF24_NRF_FUNCS.c **** {
 389              		.loc 1 266 0
 390              		.cfi_startproc
 391              		@ args = 0, pretend = 0, frame = 0
 392              		@ frame_needed = 0, uses_anonymous_args = 0
 393              	.LVL23:
 394 0000 10B5     		push	{r4, lr}
 395              		.cfi_def_cfa_offset 8
 396              		.cfi_offset 4, -8
 397              		.cfi_offset 14, -4
 398 0002 0100     		movs	r1, r0
 267:Generated_Source\PSoC4/nRF24_NRF_FUNCS.c ****     if (NRF_MAX_RF_CHANNEL < channel) {
 399              		.loc 1 267 0
 400 0004 7D28     		cmp	r0, #125
 401 0006 00D9     		bls	.L17
 268:Generated_Source\PSoC4/nRF24_NRF_FUNCS.c ****         channel = NRF_MAX_RF_CHANNEL;
 402              		.loc 1 268 0
 403 0008 7D21     		movs	r1, #125
 404              	.L17:
 405              	.LVL24:
 269:Generated_Source\PSoC4/nRF24_NRF_FUNCS.c ****     }
 270:Generated_Source\PSoC4/nRF24_NRF_FUNCS.c **** 
 271:Generated_Source\PSoC4/nRF24_NRF_FUNCS.c ****     nRF24_writeRegister(NRF_RF_CH_REG, channel);
 406              		.loc 1 271 0
 407 000a 0520     		movs	r0, #5
 408 000c FFF7FEFF 		bl	nRF24_writeRegister
ARM GAS  C:\Users\Xwx47\AppData\Local\Temp\cc5OEXcK.s 			page 13


 409              	.LVL25:
 272:Generated_Source\PSoC4/nRF24_NRF_FUNCS.c **** }
 410              		.loc 1 272 0
 411              		@ sp needed
 412 0010 10BD     		pop	{r4, pc}
 413              		.cfi_endproc
 414              	.LFE49:
 415              		.size	nRF24_setChannel, .-nRF24_setChannel
 416 0012 C046     		.section	.text.nRF24_setAddressWidth,"ax",%progbits
 417              		.align	2
 418              		.global	nRF24_setAddressWidth
 419              		.code	16
 420              		.thumb_func
 421              		.type	nRF24_setAddressWidth, %function
 422              	nRF24_setAddressWidth:
 423              	.LFB50:
 273:Generated_Source\PSoC4/nRF24_NRF_FUNCS.c **** 
 274:Generated_Source\PSoC4/nRF24_NRF_FUNCS.c **** /**
 275:Generated_Source\PSoC4/nRF24_NRF_FUNCS.c ****  * @brief Set the data pipes address width.
 276:Generated_Source\PSoC4/nRF24_NRF_FUNCS.c ****  *
 277:Generated_Source\PSoC4/nRF24_NRF_FUNCS.c ****  * @param const NrfSetupAddressWidth addr_width:
 278:Generated_Source\PSoC4/nRF24_NRF_FUNCS.c ****  */
 279:Generated_Source\PSoC4/nRF24_NRF_FUNCS.c **** void nRF24_setAddressWidth(const NrfSetupAddressWidth addr_width)
 280:Generated_Source\PSoC4/nRF24_NRF_FUNCS.c **** {
 424              		.loc 1 280 0
 425              		.cfi_startproc
 426              		@ args = 0, pretend = 0, frame = 0
 427              		@ frame_needed = 0, uses_anonymous_args = 0
 428              	.LVL26:
 429 0000 10B5     		push	{r4, lr}
 430              		.cfi_def_cfa_offset 8
 431              		.cfi_offset 4, -8
 432              		.cfi_offset 14, -4
 433 0002 0100     		movs	r1, r0
 281:Generated_Source\PSoC4/nRF24_NRF_FUNCS.c ****     nRF24_writeRegister(NRF_SETUP_AW_REG, (uint8_t)addr_width);
 434              		.loc 1 281 0
 435 0004 0320     		movs	r0, #3
 436              	.LVL27:
 437 0006 FFF7FEFF 		bl	nRF24_writeRegister
 438              	.LVL28:
 282:Generated_Source\PSoC4/nRF24_NRF_FUNCS.c **** }
 439              		.loc 1 282 0
 440              		@ sp needed
 441 000a 10BD     		pop	{r4, pc}
 442              		.cfi_endproc
 443              	.LFE50:
 444              		.size	nRF24_setAddressWidth, .-nRF24_setAddressWidth
 445              		.section	.text.nRF24_getAddressWidth,"ax",%progbits
 446              		.align	2
 447              		.global	nRF24_getAddressWidth
 448              		.code	16
 449              		.thumb_func
 450              		.type	nRF24_getAddressWidth, %function
 451              	nRF24_getAddressWidth:
 452              	.LFB51:
 283:Generated_Source\PSoC4/nRF24_NRF_FUNCS.c **** 
 284:Generated_Source\PSoC4/nRF24_NRF_FUNCS.c **** /**
ARM GAS  C:\Users\Xwx47\AppData\Local\Temp\cc5OEXcK.s 			page 14


 285:Generated_Source\PSoC4/nRF24_NRF_FUNCS.c ****  * @brief Get the data pipes address width.
 286:Generated_Source\PSoC4/nRF24_NRF_FUNCS.c ****  *
 287:Generated_Source\PSoC4/nRF24_NRF_FUNCS.c ****  * @return uint8_t: Address width in bytes.
 288:Generated_Source\PSoC4/nRF24_NRF_FUNCS.c ****  */
 289:Generated_Source\PSoC4/nRF24_NRF_FUNCS.c **** uint8_t nRF24_getAddressWidth(void)
 290:Generated_Source\PSoC4/nRF24_NRF_FUNCS.c **** {
 453              		.loc 1 290 0
 454              		.cfi_startproc
 455              		@ args = 0, pretend = 0, frame = 0
 456              		@ frame_needed = 0, uses_anonymous_args = 0
 457 0000 10B5     		push	{r4, lr}
 458              		.cfi_def_cfa_offset 8
 459              		.cfi_offset 4, -8
 460              		.cfi_offset 14, -4
 461              	.LVL29:
 291:Generated_Source\PSoC4/nRF24_NRF_FUNCS.c ****     uint8_t addr_width = 0;
 292:Generated_Source\PSoC4/nRF24_NRF_FUNCS.c ****     uint8_t reg = nRF24_readRegister(NRF_SETUP_AW_REG);
 462              		.loc 1 292 0
 463 0002 0320     		movs	r0, #3
 464 0004 FFF7FEFF 		bl	nRF24_readRegister
 465              	.LVL30:
 293:Generated_Source\PSoC4/nRF24_NRF_FUNCS.c **** 
 294:Generated_Source\PSoC4/nRF24_NRF_FUNCS.c ****     switch (reg) {
 466              		.loc 1 294 0
 467 0008 0228     		cmp	r0, #2
 468 000a 05D0     		beq	.L22
 469 000c 0328     		cmp	r0, #3
 470 000e 05D0     		beq	.L23
 471 0010 0128     		cmp	r0, #1
 472 0012 05D0     		beq	.L25
 291:Generated_Source\PSoC4/nRF24_NRF_FUNCS.c ****     uint8_t addr_width = 0;
 473              		.loc 1 291 0
 474 0014 0020     		movs	r0, #0
 475              	.LVL31:
 476 0016 04E0     		b	.L24
 477              	.LVL32:
 478              	.L22:
 295:Generated_Source\PSoC4/nRF24_NRF_FUNCS.c ****     case NRF_SETUP_AW_3BYTES:
 296:Generated_Source\PSoC4/nRF24_NRF_FUNCS.c ****         addr_width = 3;
 297:Generated_Source\PSoC4/nRF24_NRF_FUNCS.c ****         break;
 298:Generated_Source\PSoC4/nRF24_NRF_FUNCS.c ****     case NRF_SETUP_AW_4BYTES:
 299:Generated_Source\PSoC4/nRF24_NRF_FUNCS.c ****         addr_width = 4;
 479              		.loc 1 299 0
 480 0018 0420     		movs	r0, #4
 481              	.LVL33:
 300:Generated_Source\PSoC4/nRF24_NRF_FUNCS.c ****         break;
 482              		.loc 1 300 0
 483 001a 02E0     		b	.L24
 484              	.LVL34:
 485              	.L23:
 301:Generated_Source\PSoC4/nRF24_NRF_FUNCS.c ****     case NRF_SETUP_AW_5BYTES:
 302:Generated_Source\PSoC4/nRF24_NRF_FUNCS.c ****         addr_width = 5;
 486              		.loc 1 302 0
 487 001c 0520     		movs	r0, #5
 488              	.LVL35:
 303:Generated_Source\PSoC4/nRF24_NRF_FUNCS.c ****         break;
 489              		.loc 1 303 0
ARM GAS  C:\Users\Xwx47\AppData\Local\Temp\cc5OEXcK.s 			page 15


 490 001e 00E0     		b	.L24
 491              	.LVL36:
 492              	.L25:
 296:Generated_Source\PSoC4/nRF24_NRF_FUNCS.c ****         break;
 493              		.loc 1 296 0
 494 0020 0320     		movs	r0, #3
 495              	.LVL37:
 496              	.L24:
 304:Generated_Source\PSoC4/nRF24_NRF_FUNCS.c ****     default:
 305:Generated_Source\PSoC4/nRF24_NRF_FUNCS.c ****         break;
 306:Generated_Source\PSoC4/nRF24_NRF_FUNCS.c ****     }
 307:Generated_Source\PSoC4/nRF24_NRF_FUNCS.c ****     
 308:Generated_Source\PSoC4/nRF24_NRF_FUNCS.c ****     return addr_width;
 309:Generated_Source\PSoC4/nRF24_NRF_FUNCS.c **** }
 497              		.loc 1 309 0
 498              		@ sp needed
 499 0022 10BD     		pop	{r4, pc}
 500              		.cfi_endproc
 501              	.LFE51:
 502              		.size	nRF24_getAddressWidth, .-nRF24_getAddressWidth
 503              		.section	.text.nRF24_setRxPipe0Address,"ax",%progbits
 504              		.align	2
 505              		.global	nRF24_setRxPipe0Address
 506              		.code	16
 507              		.thumb_func
 508              		.type	nRF24_setRxPipe0Address, %function
 509              	nRF24_setRxPipe0Address:
 510              	.LFB52:
 310:Generated_Source\PSoC4/nRF24_NRF_FUNCS.c **** 
 311:Generated_Source\PSoC4/nRF24_NRF_FUNCS.c **** /**
 312:Generated_Source\PSoC4/nRF24_NRF_FUNCS.c ****  * @brief Set the address of the RX Pipe 0 in the radio.
 313:Generated_Source\PSoC4/nRF24_NRF_FUNCS.c ****  *
 314:Generated_Source\PSoC4/nRF24_NRF_FUNCS.c ****  * This function configure the address of the Rx Pipe 0 of the radio.
 315:Generated_Source\PSoC4/nRF24_NRF_FUNCS.c ****  *
 316:Generated_Source\PSoC4/nRF24_NRF_FUNCS.c ****  * @param const uint8_t* addr:
 317:Generated_Source\PSoC4/nRF24_NRF_FUNCS.c ****  * @param size_t size:
 318:Generated_Source\PSoC4/nRF24_NRF_FUNCS.c ****  */
 319:Generated_Source\PSoC4/nRF24_NRF_FUNCS.c **** void nRF24_setRxPipe0Address(const uint8_t* addr, size_t size)
 320:Generated_Source\PSoC4/nRF24_NRF_FUNCS.c **** {
 511              		.loc 1 320 0
 512              		.cfi_startproc
 513              		@ args = 0, pretend = 0, frame = 0
 514              		@ frame_needed = 0, uses_anonymous_args = 0
 515              	.LVL38:
 516 0000 10B5     		push	{r4, lr}
 517              		.cfi_def_cfa_offset 8
 518              		.cfi_offset 4, -8
 519              		.cfi_offset 14, -4
 321:Generated_Source\PSoC4/nRF24_NRF_FUNCS.c ****     if (NULL == addr) {
 520              		.loc 1 321 0
 521 0002 0028     		cmp	r0, #0
 522 0004 07D0     		beq	.L26
 322:Generated_Source\PSoC4/nRF24_NRF_FUNCS.c ****         return;
 323:Generated_Source\PSoC4/nRF24_NRF_FUNCS.c ****     }
 324:Generated_Source\PSoC4/nRF24_NRF_FUNCS.c **** 
 325:Generated_Source\PSoC4/nRF24_NRF_FUNCS.c ****     // TODO: Replace NRF_MAX_ADDR_SIZE with ADD_WIDTH
 326:Generated_Source\PSoC4/nRF24_NRF_FUNCS.c ****     if (NRF_MAX_ADDR_SIZE < size) {
ARM GAS  C:\Users\Xwx47\AppData\Local\Temp\cc5OEXcK.s 			page 16


 523              		.loc 1 326 0
 524 0006 0529     		cmp	r1, #5
 525 0008 00D9     		bls	.L28
 327:Generated_Source\PSoC4/nRF24_NRF_FUNCS.c ****         size = NRF_MAX_ADDR_SIZE;
 526              		.loc 1 327 0
 527 000a 0521     		movs	r1, #5
 528              	.LVL39:
 529              	.L28:
 328:Generated_Source\PSoC4/nRF24_NRF_FUNCS.c ****     }
 329:Generated_Source\PSoC4/nRF24_NRF_FUNCS.c ****     
 330:Generated_Source\PSoC4/nRF24_NRF_FUNCS.c ****     nRF24_writeLongRegister(NRF_RX_ADDR_P0_REG, addr, size);
 530              		.loc 1 330 0
 531 000c 0A00     		movs	r2, r1
 532 000e 0100     		movs	r1, r0
 533              	.LVL40:
 534 0010 0A20     		movs	r0, #10
 535              	.LVL41:
 536 0012 FFF7FEFF 		bl	nRF24_writeLongRegister
 537              	.LVL42:
 538              	.L26:
 331:Generated_Source\PSoC4/nRF24_NRF_FUNCS.c **** }
 539              		.loc 1 331 0
 540              		@ sp needed
 541 0016 10BD     		pop	{r4, pc}
 542              		.cfi_endproc
 543              	.LFE52:
 544              		.size	nRF24_setRxPipe0Address, .-nRF24_setRxPipe0Address
 545              		.section	.text.nRF24_getRxPipe0Address,"ax",%progbits
 546              		.align	2
 547              		.global	nRF24_getRxPipe0Address
 548              		.code	16
 549              		.thumb_func
 550              		.type	nRF24_getRxPipe0Address, %function
 551              	nRF24_getRxPipe0Address:
 552              	.LFB53:
 332:Generated_Source\PSoC4/nRF24_NRF_FUNCS.c **** 
 333:Generated_Source\PSoC4/nRF24_NRF_FUNCS.c **** /**
 334:Generated_Source\PSoC4/nRF24_NRF_FUNCS.c ****  * @brief Get the address of the RX Pipe 0 in the radio.
 335:Generated_Source\PSoC4/nRF24_NRF_FUNCS.c ****  *
 336:Generated_Source\PSoC4/nRF24_NRF_FUNCS.c ****  * @param uint8_t* addr:
 337:Generated_Source\PSoC4/nRF24_NRF_FUNCS.c ****  * @param size_t size:
 338:Generated_Source\PSoC4/nRF24_NRF_FUNCS.c ****  */
 339:Generated_Source\PSoC4/nRF24_NRF_FUNCS.c **** void nRF24_getRxPipe0Address(uint8_t* addr, size_t size)
 340:Generated_Source\PSoC4/nRF24_NRF_FUNCS.c **** {
 553              		.loc 1 340 0
 554              		.cfi_startproc
 555              		@ args = 0, pretend = 0, frame = 0
 556              		@ frame_needed = 0, uses_anonymous_args = 0
 557              	.LVL43:
 558 0000 10B5     		push	{r4, lr}
 559              		.cfi_def_cfa_offset 8
 560              		.cfi_offset 4, -8
 561              		.cfi_offset 14, -4
 341:Generated_Source\PSoC4/nRF24_NRF_FUNCS.c ****     if (NULL == addr) {
 562              		.loc 1 341 0
 563 0002 0028     		cmp	r0, #0
 564 0004 07D0     		beq	.L30
ARM GAS  C:\Users\Xwx47\AppData\Local\Temp\cc5OEXcK.s 			page 17


 342:Generated_Source\PSoC4/nRF24_NRF_FUNCS.c ****         return;
 343:Generated_Source\PSoC4/nRF24_NRF_FUNCS.c ****     }
 344:Generated_Source\PSoC4/nRF24_NRF_FUNCS.c **** 
 345:Generated_Source\PSoC4/nRF24_NRF_FUNCS.c ****     if (NRF_MAX_ADDR_SIZE < size) {
 565              		.loc 1 345 0
 566 0006 0529     		cmp	r1, #5
 567 0008 00D9     		bls	.L32
 346:Generated_Source\PSoC4/nRF24_NRF_FUNCS.c ****         size = NRF_MAX_ADDR_SIZE;
 568              		.loc 1 346 0
 569 000a 0521     		movs	r1, #5
 570              	.LVL44:
 571              	.L32:
 347:Generated_Source\PSoC4/nRF24_NRF_FUNCS.c ****     }
 348:Generated_Source\PSoC4/nRF24_NRF_FUNCS.c ****     
 349:Generated_Source\PSoC4/nRF24_NRF_FUNCS.c ****     nRF24_readLongRegister(NRF_RX_ADDR_P0_REG, addr, size);
 572              		.loc 1 349 0
 573 000c 0A00     		movs	r2, r1
 574 000e 0100     		movs	r1, r0
 575              	.LVL45:
 576 0010 0A20     		movs	r0, #10
 577              	.LVL46:
 578 0012 FFF7FEFF 		bl	nRF24_readLongRegister
 579              	.LVL47:
 580              	.L30:
 350:Generated_Source\PSoC4/nRF24_NRF_FUNCS.c **** }
 581              		.loc 1 350 0
 582              		@ sp needed
 583 0016 10BD     		pop	{r4, pc}
 584              		.cfi_endproc
 585              	.LFE53:
 586              		.size	nRF24_getRxPipe0Address, .-nRF24_getRxPipe0Address
 587              		.section	.text.nRF24_setRxPipe1Address,"ax",%progbits
 588              		.align	2
 589              		.global	nRF24_setRxPipe1Address
 590              		.code	16
 591              		.thumb_func
 592              		.type	nRF24_setRxPipe1Address, %function
 593              	nRF24_setRxPipe1Address:
 594              	.LFB54:
 351:Generated_Source\PSoC4/nRF24_NRF_FUNCS.c **** 
 352:Generated_Source\PSoC4/nRF24_NRF_FUNCS.c **** /**
 353:Generated_Source\PSoC4/nRF24_NRF_FUNCS.c ****  * @brief Set the address of the RX Pipe 1 in the radio.
 354:Generated_Source\PSoC4/nRF24_NRF_FUNCS.c ****  *
 355:Generated_Source\PSoC4/nRF24_NRF_FUNCS.c ****  * This function configure the address of the Rx Pipe 1 of the radio.
 356:Generated_Source\PSoC4/nRF24_NRF_FUNCS.c ****  *
 357:Generated_Source\PSoC4/nRF24_NRF_FUNCS.c ****  * @param const uint8_t* addr:
 358:Generated_Source\PSoC4/nRF24_NRF_FUNCS.c ****  * @param size_t size:
 359:Generated_Source\PSoC4/nRF24_NRF_FUNCS.c ****  */
 360:Generated_Source\PSoC4/nRF24_NRF_FUNCS.c **** void nRF24_setRxPipe1Address(const uint8_t* addr, size_t size)
 361:Generated_Source\PSoC4/nRF24_NRF_FUNCS.c **** {
 595              		.loc 1 361 0
 596              		.cfi_startproc
 597              		@ args = 0, pretend = 0, frame = 0
 598              		@ frame_needed = 0, uses_anonymous_args = 0
 599              	.LVL48:
 600 0000 10B5     		push	{r4, lr}
 601              		.cfi_def_cfa_offset 8
ARM GAS  C:\Users\Xwx47\AppData\Local\Temp\cc5OEXcK.s 			page 18


 602              		.cfi_offset 4, -8
 603              		.cfi_offset 14, -4
 362:Generated_Source\PSoC4/nRF24_NRF_FUNCS.c ****     if (NULL == addr) {
 604              		.loc 1 362 0
 605 0002 0028     		cmp	r0, #0
 606 0004 07D0     		beq	.L34
 363:Generated_Source\PSoC4/nRF24_NRF_FUNCS.c ****         return;
 364:Generated_Source\PSoC4/nRF24_NRF_FUNCS.c ****     }
 365:Generated_Source\PSoC4/nRF24_NRF_FUNCS.c **** 
 366:Generated_Source\PSoC4/nRF24_NRF_FUNCS.c ****     if (NRF_MAX_ADDR_SIZE < size) {
 607              		.loc 1 366 0
 608 0006 0529     		cmp	r1, #5
 609 0008 00D9     		bls	.L36
 367:Generated_Source\PSoC4/nRF24_NRF_FUNCS.c ****         size = NRF_MAX_ADDR_SIZE;
 610              		.loc 1 367 0
 611 000a 0521     		movs	r1, #5
 612              	.LVL49:
 613              	.L36:
 368:Generated_Source\PSoC4/nRF24_NRF_FUNCS.c ****     }
 369:Generated_Source\PSoC4/nRF24_NRF_FUNCS.c ****     
 370:Generated_Source\PSoC4/nRF24_NRF_FUNCS.c ****     nRF24_writeLongRegister(NRF_RX_ADDR_P1_REG, addr, size);
 614              		.loc 1 370 0
 615 000c 0A00     		movs	r2, r1
 616 000e 0100     		movs	r1, r0
 617              	.LVL50:
 618 0010 0B20     		movs	r0, #11
 619              	.LVL51:
 620 0012 FFF7FEFF 		bl	nRF24_writeLongRegister
 621              	.LVL52:
 622              	.L34:
 371:Generated_Source\PSoC4/nRF24_NRF_FUNCS.c **** }
 623              		.loc 1 371 0
 624              		@ sp needed
 625 0016 10BD     		pop	{r4, pc}
 626              		.cfi_endproc
 627              	.LFE54:
 628              		.size	nRF24_setRxPipe1Address, .-nRF24_setRxPipe1Address
 629              		.section	.text.nRF24_getRxPipe1Address,"ax",%progbits
 630              		.align	2
 631              		.global	nRF24_getRxPipe1Address
 632              		.code	16
 633              		.thumb_func
 634              		.type	nRF24_getRxPipe1Address, %function
 635              	nRF24_getRxPipe1Address:
 636              	.LFB55:
 372:Generated_Source\PSoC4/nRF24_NRF_FUNCS.c **** 
 373:Generated_Source\PSoC4/nRF24_NRF_FUNCS.c **** /**
 374:Generated_Source\PSoC4/nRF24_NRF_FUNCS.c ****  * @brief Get the address of the RX Pipe 1 in the radio.
 375:Generated_Source\PSoC4/nRF24_NRF_FUNCS.c ****  *
 376:Generated_Source\PSoC4/nRF24_NRF_FUNCS.c ****  * @param uint8_t* addr:
 377:Generated_Source\PSoC4/nRF24_NRF_FUNCS.c ****  * @param size_t size:
 378:Generated_Source\PSoC4/nRF24_NRF_FUNCS.c ****  */
 379:Generated_Source\PSoC4/nRF24_NRF_FUNCS.c **** void nRF24_getRxPipe1Address(uint8_t* addr, size_t size)
 380:Generated_Source\PSoC4/nRF24_NRF_FUNCS.c **** {
 637              		.loc 1 380 0
 638              		.cfi_startproc
 639              		@ args = 0, pretend = 0, frame = 0
ARM GAS  C:\Users\Xwx47\AppData\Local\Temp\cc5OEXcK.s 			page 19


 640              		@ frame_needed = 0, uses_anonymous_args = 0
 641              	.LVL53:
 642 0000 10B5     		push	{r4, lr}
 643              		.cfi_def_cfa_offset 8
 644              		.cfi_offset 4, -8
 645              		.cfi_offset 14, -4
 381:Generated_Source\PSoC4/nRF24_NRF_FUNCS.c ****     if (NULL == addr) {
 646              		.loc 1 381 0
 647 0002 0028     		cmp	r0, #0
 648 0004 07D0     		beq	.L38
 382:Generated_Source\PSoC4/nRF24_NRF_FUNCS.c ****         return;
 383:Generated_Source\PSoC4/nRF24_NRF_FUNCS.c ****     }
 384:Generated_Source\PSoC4/nRF24_NRF_FUNCS.c **** 
 385:Generated_Source\PSoC4/nRF24_NRF_FUNCS.c ****     if (NRF_MAX_ADDR_SIZE < size) {
 649              		.loc 1 385 0
 650 0006 0529     		cmp	r1, #5
 651 0008 00D9     		bls	.L40
 386:Generated_Source\PSoC4/nRF24_NRF_FUNCS.c ****         size = NRF_MAX_ADDR_SIZE;
 652              		.loc 1 386 0
 653 000a 0521     		movs	r1, #5
 654              	.LVL54:
 655              	.L40:
 387:Generated_Source\PSoC4/nRF24_NRF_FUNCS.c ****     }
 388:Generated_Source\PSoC4/nRF24_NRF_FUNCS.c ****     
 389:Generated_Source\PSoC4/nRF24_NRF_FUNCS.c ****     nRF24_readLongRegister(NRF_RX_ADDR_P1_REG, addr, size);
 656              		.loc 1 389 0
 657 000c 0A00     		movs	r2, r1
 658 000e 0100     		movs	r1, r0
 659              	.LVL55:
 660 0010 0B20     		movs	r0, #11
 661              	.LVL56:
 662 0012 FFF7FEFF 		bl	nRF24_readLongRegister
 663              	.LVL57:
 664              	.L38:
 390:Generated_Source\PSoC4/nRF24_NRF_FUNCS.c **** }
 665              		.loc 1 390 0
 666              		@ sp needed
 667 0016 10BD     		pop	{r4, pc}
 668              		.cfi_endproc
 669              	.LFE55:
 670              		.size	nRF24_getRxPipe1Address, .-nRF24_getRxPipe1Address
 671              		.section	.text.nRF24_setRxPipe2Address,"ax",%progbits
 672              		.align	2
 673              		.global	nRF24_setRxPipe2Address
 674              		.code	16
 675              		.thumb_func
 676              		.type	nRF24_setRxPipe2Address, %function
 677              	nRF24_setRxPipe2Address:
 678              	.LFB56:
 391:Generated_Source\PSoC4/nRF24_NRF_FUNCS.c **** 
 392:Generated_Source\PSoC4/nRF24_NRF_FUNCS.c **** /**
 393:Generated_Source\PSoC4/nRF24_NRF_FUNCS.c ****  * Set the address of the least significant byte of the Rx Pipe 2 in the radio.
 394:Generated_Source\PSoC4/nRF24_NRF_FUNCS.c ****  *
 395:Generated_Source\PSoC4/nRF24_NRF_FUNCS.c ****  * @param const uint8_t addr_lsb:
 396:Generated_Source\PSoC4/nRF24_NRF_FUNCS.c ****  */
 397:Generated_Source\PSoC4/nRF24_NRF_FUNCS.c **** void nRF24_setRxPipe2Address(const uint8_t addr_lsb)
 398:Generated_Source\PSoC4/nRF24_NRF_FUNCS.c **** {
ARM GAS  C:\Users\Xwx47\AppData\Local\Temp\cc5OEXcK.s 			page 20


 679              		.loc 1 398 0
 680              		.cfi_startproc
 681              		@ args = 0, pretend = 0, frame = 0
 682              		@ frame_needed = 0, uses_anonymous_args = 0
 683              	.LVL58:
 684 0000 10B5     		push	{r4, lr}
 685              		.cfi_def_cfa_offset 8
 686              		.cfi_offset 4, -8
 687              		.cfi_offset 14, -4
 688 0002 0100     		movs	r1, r0
 399:Generated_Source\PSoC4/nRF24_NRF_FUNCS.c ****     nRF24_writeRegister(NRF_RX_ADDR_P2_REG, addr_lsb);
 689              		.loc 1 399 0
 690 0004 0C20     		movs	r0, #12
 691              	.LVL59:
 692 0006 FFF7FEFF 		bl	nRF24_writeRegister
 693              	.LVL60:
 400:Generated_Source\PSoC4/nRF24_NRF_FUNCS.c **** }
 694              		.loc 1 400 0
 695              		@ sp needed
 696 000a 10BD     		pop	{r4, pc}
 697              		.cfi_endproc
 698              	.LFE56:
 699              		.size	nRF24_setRxPipe2Address, .-nRF24_setRxPipe2Address
 700              		.section	.text.nRF24_getRxPipe2Address,"ax",%progbits
 701              		.align	2
 702              		.global	nRF24_getRxPipe2Address
 703              		.code	16
 704              		.thumb_func
 705              		.type	nRF24_getRxPipe2Address, %function
 706              	nRF24_getRxPipe2Address:
 707              	.LFB57:
 401:Generated_Source\PSoC4/nRF24_NRF_FUNCS.c **** 
 402:Generated_Source\PSoC4/nRF24_NRF_FUNCS.c **** /**
 403:Generated_Source\PSoC4/nRF24_NRF_FUNCS.c ****  * Get the address of the Rx Pipe 2.
 404:Generated_Source\PSoC4/nRF24_NRF_FUNCS.c ****  *
 405:Generated_Source\PSoC4/nRF24_NRF_FUNCS.c ****  * @param uint8_t* addr:
 406:Generated_Source\PSoC4/nRF24_NRF_FUNCS.c ****  * @param size_t size:
 407:Generated_Source\PSoC4/nRF24_NRF_FUNCS.c ****  */
 408:Generated_Source\PSoC4/nRF24_NRF_FUNCS.c **** void nRF24_getRxPipe2Address(uint8_t* addr, size_t size)
 409:Generated_Source\PSoC4/nRF24_NRF_FUNCS.c **** {
 708              		.loc 1 409 0
 709              		.cfi_startproc
 710              		@ args = 0, pretend = 0, frame = 0
 711              		@ frame_needed = 0, uses_anonymous_args = 0
 712              	.LVL61:
 713 0000 70B5     		push	{r4, r5, r6, lr}
 714              		.cfi_def_cfa_offset 16
 715              		.cfi_offset 4, -16
 716              		.cfi_offset 5, -12
 717              		.cfi_offset 6, -8
 718              		.cfi_offset 14, -4
 719 0002 051E     		subs	r5, r0, #0
 410:Generated_Source\PSoC4/nRF24_NRF_FUNCS.c ****     if (NULL == addr) {
 720              		.loc 1 410 0
 721 0004 0DD0     		beq	.L43
 411:Generated_Source\PSoC4/nRF24_NRF_FUNCS.c ****         return;
 412:Generated_Source\PSoC4/nRF24_NRF_FUNCS.c ****     }
ARM GAS  C:\Users\Xwx47\AppData\Local\Temp\cc5OEXcK.s 			page 21


 413:Generated_Source\PSoC4/nRF24_NRF_FUNCS.c **** 
 414:Generated_Source\PSoC4/nRF24_NRF_FUNCS.c ****     if (NRF_MAX_ADDR_SIZE < size) {
 722              		.loc 1 414 0
 723 0006 0529     		cmp	r1, #5
 724 0008 00D9     		bls	.L45
 415:Generated_Source\PSoC4/nRF24_NRF_FUNCS.c ****         size = NRF_MAX_ADDR_SIZE;
 725              		.loc 1 415 0
 726 000a 0521     		movs	r1, #5
 727              	.LVL62:
 728              	.L45:
 416:Generated_Source\PSoC4/nRF24_NRF_FUNCS.c ****     }
 417:Generated_Source\PSoC4/nRF24_NRF_FUNCS.c ****     
 418:Generated_Source\PSoC4/nRF24_NRF_FUNCS.c ****     // The pipe2 address is the same as the pipe1 address except the LSB
 419:Generated_Source\PSoC4/nRF24_NRF_FUNCS.c ****     nRF24_readLongRegister(NRF_RX_ADDR_P1_REG, addr, size - 1);
 729              		.loc 1 419 0
 730 000c 4C1E     		subs	r4, r1, #1
 731 000e 2200     		movs	r2, r4
 732 0010 2900     		movs	r1, r5
 733              	.LVL63:
 734 0012 0B20     		movs	r0, #11
 735              	.LVL64:
 736 0014 FFF7FEFF 		bl	nRF24_readLongRegister
 737              	.LVL65:
 420:Generated_Source\PSoC4/nRF24_NRF_FUNCS.c ****     addr[size - 1] = nRF24_readRegister(NRF_RX_ADDR_P2_REG);
 738              		.loc 1 420 0
 739 0018 2C19     		adds	r4, r5, r4
 740              	.LVL66:
 741 001a 0C20     		movs	r0, #12
 742 001c FFF7FEFF 		bl	nRF24_readRegister
 743              	.LVL67:
 744 0020 2070     		strb	r0, [r4]
 745              	.L43:
 421:Generated_Source\PSoC4/nRF24_NRF_FUNCS.c **** }
 746              		.loc 1 421 0
 747              		@ sp needed
 748              	.LVL68:
 749 0022 70BD     		pop	{r4, r5, r6, pc}
 750              		.cfi_endproc
 751              	.LFE57:
 752              		.size	nRF24_getRxPipe2Address, .-nRF24_getRxPipe2Address
 753              		.section	.text.nRF24_setRxPipe3Address,"ax",%progbits
 754              		.align	2
 755              		.global	nRF24_setRxPipe3Address
 756              		.code	16
 757              		.thumb_func
 758              		.type	nRF24_setRxPipe3Address, %function
 759              	nRF24_setRxPipe3Address:
 760              	.LFB58:
 422:Generated_Source\PSoC4/nRF24_NRF_FUNCS.c **** 
 423:Generated_Source\PSoC4/nRF24_NRF_FUNCS.c **** /**
 424:Generated_Source\PSoC4/nRF24_NRF_FUNCS.c ****  * Set the address of the least significant byte of the Rx Pipe 3 in the radio.
 425:Generated_Source\PSoC4/nRF24_NRF_FUNCS.c ****  *
 426:Generated_Source\PSoC4/nRF24_NRF_FUNCS.c ****  * @param const uint8_t addr_lsb:
 427:Generated_Source\PSoC4/nRF24_NRF_FUNCS.c ****  */
 428:Generated_Source\PSoC4/nRF24_NRF_FUNCS.c **** void nRF24_setRxPipe3Address(const uint8_t addr_lsb)
 429:Generated_Source\PSoC4/nRF24_NRF_FUNCS.c **** {
 761              		.loc 1 429 0
ARM GAS  C:\Users\Xwx47\AppData\Local\Temp\cc5OEXcK.s 			page 22


 762              		.cfi_startproc
 763              		@ args = 0, pretend = 0, frame = 0
 764              		@ frame_needed = 0, uses_anonymous_args = 0
 765              	.LVL69:
 766 0000 10B5     		push	{r4, lr}
 767              		.cfi_def_cfa_offset 8
 768              		.cfi_offset 4, -8
 769              		.cfi_offset 14, -4
 770 0002 0100     		movs	r1, r0
 430:Generated_Source\PSoC4/nRF24_NRF_FUNCS.c ****     nRF24_writeRegister(NRF_RX_ADDR_P3_REG, addr_lsb);
 771              		.loc 1 430 0
 772 0004 0D20     		movs	r0, #13
 773              	.LVL70:
 774 0006 FFF7FEFF 		bl	nRF24_writeRegister
 775              	.LVL71:
 431:Generated_Source\PSoC4/nRF24_NRF_FUNCS.c **** }
 776              		.loc 1 431 0
 777              		@ sp needed
 778 000a 10BD     		pop	{r4, pc}
 779              		.cfi_endproc
 780              	.LFE58:
 781              		.size	nRF24_setRxPipe3Address, .-nRF24_setRxPipe3Address
 782              		.section	.text.nRF24_getRxPipe3Address,"ax",%progbits
 783              		.align	2
 784              		.global	nRF24_getRxPipe3Address
 785              		.code	16
 786              		.thumb_func
 787              		.type	nRF24_getRxPipe3Address, %function
 788              	nRF24_getRxPipe3Address:
 789              	.LFB59:
 432:Generated_Source\PSoC4/nRF24_NRF_FUNCS.c **** 
 433:Generated_Source\PSoC4/nRF24_NRF_FUNCS.c **** /**
 434:Generated_Source\PSoC4/nRF24_NRF_FUNCS.c ****  * Get the address of the Rx Pipe 3.
 435:Generated_Source\PSoC4/nRF24_NRF_FUNCS.c ****  *
 436:Generated_Source\PSoC4/nRF24_NRF_FUNCS.c ****  * @param uint8_t* addr:
 437:Generated_Source\PSoC4/nRF24_NRF_FUNCS.c ****  * @param size_t size:
 438:Generated_Source\PSoC4/nRF24_NRF_FUNCS.c ****  */
 439:Generated_Source\PSoC4/nRF24_NRF_FUNCS.c **** void nRF24_getRxPipe3Address(uint8_t* addr, size_t size)
 440:Generated_Source\PSoC4/nRF24_NRF_FUNCS.c **** {
 790              		.loc 1 440 0
 791              		.cfi_startproc
 792              		@ args = 0, pretend = 0, frame = 0
 793              		@ frame_needed = 0, uses_anonymous_args = 0
 794              	.LVL72:
 795 0000 70B5     		push	{r4, r5, r6, lr}
 796              		.cfi_def_cfa_offset 16
 797              		.cfi_offset 4, -16
 798              		.cfi_offset 5, -12
 799              		.cfi_offset 6, -8
 800              		.cfi_offset 14, -4
 801 0002 051E     		subs	r5, r0, #0
 441:Generated_Source\PSoC4/nRF24_NRF_FUNCS.c ****     if (NULL == addr) {
 802              		.loc 1 441 0
 803 0004 0DD0     		beq	.L48
 442:Generated_Source\PSoC4/nRF24_NRF_FUNCS.c ****         return;
 443:Generated_Source\PSoC4/nRF24_NRF_FUNCS.c ****     }
 444:Generated_Source\PSoC4/nRF24_NRF_FUNCS.c **** 
ARM GAS  C:\Users\Xwx47\AppData\Local\Temp\cc5OEXcK.s 			page 23


 445:Generated_Source\PSoC4/nRF24_NRF_FUNCS.c ****     if (NRF_MAX_ADDR_SIZE < size) {
 804              		.loc 1 445 0
 805 0006 0529     		cmp	r1, #5
 806 0008 00D9     		bls	.L50
 446:Generated_Source\PSoC4/nRF24_NRF_FUNCS.c ****         size = NRF_MAX_ADDR_SIZE;
 807              		.loc 1 446 0
 808 000a 0521     		movs	r1, #5
 809              	.LVL73:
 810              	.L50:
 447:Generated_Source\PSoC4/nRF24_NRF_FUNCS.c ****     }
 448:Generated_Source\PSoC4/nRF24_NRF_FUNCS.c ****     
 449:Generated_Source\PSoC4/nRF24_NRF_FUNCS.c ****     // The pipe3 address is the same as the pipe1 address except the LSB
 450:Generated_Source\PSoC4/nRF24_NRF_FUNCS.c ****     nRF24_readLongRegister(NRF_RX_ADDR_P1_REG, addr, size - 1);
 811              		.loc 1 450 0
 812 000c 4C1E     		subs	r4, r1, #1
 813 000e 2200     		movs	r2, r4
 814 0010 2900     		movs	r1, r5
 815              	.LVL74:
 816 0012 0B20     		movs	r0, #11
 817              	.LVL75:
 818 0014 FFF7FEFF 		bl	nRF24_readLongRegister
 819              	.LVL76:
 451:Generated_Source\PSoC4/nRF24_NRF_FUNCS.c ****     addr[size - 1] = nRF24_readRegister(NRF_RX_ADDR_P3_REG);
 820              		.loc 1 451 0
 821 0018 2C19     		adds	r4, r5, r4
 822              	.LVL77:
 823 001a 0D20     		movs	r0, #13
 824 001c FFF7FEFF 		bl	nRF24_readRegister
 825              	.LVL78:
 826 0020 2070     		strb	r0, [r4]
 827              	.L48:
 452:Generated_Source\PSoC4/nRF24_NRF_FUNCS.c **** }
 828              		.loc 1 452 0
 829              		@ sp needed
 830              	.LVL79:
 831 0022 70BD     		pop	{r4, r5, r6, pc}
 832              		.cfi_endproc
 833              	.LFE59:
 834              		.size	nRF24_getRxPipe3Address, .-nRF24_getRxPipe3Address
 835              		.section	.text.nRF24_setRxPipe4Address,"ax",%progbits
 836              		.align	2
 837              		.global	nRF24_setRxPipe4Address
 838              		.code	16
 839              		.thumb_func
 840              		.type	nRF24_setRxPipe4Address, %function
 841              	nRF24_setRxPipe4Address:
 842              	.LFB60:
 453:Generated_Source\PSoC4/nRF24_NRF_FUNCS.c **** 
 454:Generated_Source\PSoC4/nRF24_NRF_FUNCS.c **** /**
 455:Generated_Source\PSoC4/nRF24_NRF_FUNCS.c ****  * Set the address of the least significant byte of the Rx Pipe 4 in the radio.
 456:Generated_Source\PSoC4/nRF24_NRF_FUNCS.c ****  *
 457:Generated_Source\PSoC4/nRF24_NRF_FUNCS.c ****  * @param const uint8_t addr_lsb:
 458:Generated_Source\PSoC4/nRF24_NRF_FUNCS.c ****  */
 459:Generated_Source\PSoC4/nRF24_NRF_FUNCS.c **** void nRF24_setRxPipe4Address(const uint8_t addr_lsb)
 460:Generated_Source\PSoC4/nRF24_NRF_FUNCS.c **** {
 843              		.loc 1 460 0
 844              		.cfi_startproc
ARM GAS  C:\Users\Xwx47\AppData\Local\Temp\cc5OEXcK.s 			page 24


 845              		@ args = 0, pretend = 0, frame = 0
 846              		@ frame_needed = 0, uses_anonymous_args = 0
 847              	.LVL80:
 848 0000 10B5     		push	{r4, lr}
 849              		.cfi_def_cfa_offset 8
 850              		.cfi_offset 4, -8
 851              		.cfi_offset 14, -4
 852 0002 0100     		movs	r1, r0
 461:Generated_Source\PSoC4/nRF24_NRF_FUNCS.c ****     nRF24_writeRegister(NRF_RX_ADDR_P4_REG, addr_lsb);
 853              		.loc 1 461 0
 854 0004 0E20     		movs	r0, #14
 855              	.LVL81:
 856 0006 FFF7FEFF 		bl	nRF24_writeRegister
 857              	.LVL82:
 462:Generated_Source\PSoC4/nRF24_NRF_FUNCS.c **** }
 858              		.loc 1 462 0
 859              		@ sp needed
 860 000a 10BD     		pop	{r4, pc}
 861              		.cfi_endproc
 862              	.LFE60:
 863              		.size	nRF24_setRxPipe4Address, .-nRF24_setRxPipe4Address
 864              		.section	.text.nRF24_getRxPipe4Address,"ax",%progbits
 865              		.align	2
 866              		.global	nRF24_getRxPipe4Address
 867              		.code	16
 868              		.thumb_func
 869              		.type	nRF24_getRxPipe4Address, %function
 870              	nRF24_getRxPipe4Address:
 871              	.LFB61:
 463:Generated_Source\PSoC4/nRF24_NRF_FUNCS.c **** 
 464:Generated_Source\PSoC4/nRF24_NRF_FUNCS.c **** /**
 465:Generated_Source\PSoC4/nRF24_NRF_FUNCS.c ****  * Get the address of the Rx Pipe 4.
 466:Generated_Source\PSoC4/nRF24_NRF_FUNCS.c ****  *
 467:Generated_Source\PSoC4/nRF24_NRF_FUNCS.c ****  * @param uint8_t* addr:
 468:Generated_Source\PSoC4/nRF24_NRF_FUNCS.c ****  * @param size_t size:
 469:Generated_Source\PSoC4/nRF24_NRF_FUNCS.c ****  */
 470:Generated_Source\PSoC4/nRF24_NRF_FUNCS.c **** void nRF24_getRxPipe4Address(uint8_t* addr, size_t size)
 471:Generated_Source\PSoC4/nRF24_NRF_FUNCS.c **** {
 872              		.loc 1 471 0
 873              		.cfi_startproc
 874              		@ args = 0, pretend = 0, frame = 0
 875              		@ frame_needed = 0, uses_anonymous_args = 0
 876              	.LVL83:
 877 0000 70B5     		push	{r4, r5, r6, lr}
 878              		.cfi_def_cfa_offset 16
 879              		.cfi_offset 4, -16
 880              		.cfi_offset 5, -12
 881              		.cfi_offset 6, -8
 882              		.cfi_offset 14, -4
 883 0002 051E     		subs	r5, r0, #0
 472:Generated_Source\PSoC4/nRF24_NRF_FUNCS.c ****     if (NULL == addr) {
 884              		.loc 1 472 0
 885 0004 0DD0     		beq	.L53
 473:Generated_Source\PSoC4/nRF24_NRF_FUNCS.c ****         return;
 474:Generated_Source\PSoC4/nRF24_NRF_FUNCS.c ****     }
 475:Generated_Source\PSoC4/nRF24_NRF_FUNCS.c **** 
 476:Generated_Source\PSoC4/nRF24_NRF_FUNCS.c ****     if (NRF_MAX_ADDR_SIZE < size) {
ARM GAS  C:\Users\Xwx47\AppData\Local\Temp\cc5OEXcK.s 			page 25


 886              		.loc 1 476 0
 887 0006 0529     		cmp	r1, #5
 888 0008 00D9     		bls	.L55
 477:Generated_Source\PSoC4/nRF24_NRF_FUNCS.c ****         size = NRF_MAX_ADDR_SIZE;
 889              		.loc 1 477 0
 890 000a 0521     		movs	r1, #5
 891              	.LVL84:
 892              	.L55:
 478:Generated_Source\PSoC4/nRF24_NRF_FUNCS.c ****     }
 479:Generated_Source\PSoC4/nRF24_NRF_FUNCS.c ****     
 480:Generated_Source\PSoC4/nRF24_NRF_FUNCS.c ****     // The pipe4 address is the same as the pipe1 address except the LSB
 481:Generated_Source\PSoC4/nRF24_NRF_FUNCS.c ****     nRF24_readLongRegister(NRF_RX_ADDR_P1_REG, addr, size - 1);
 893              		.loc 1 481 0
 894 000c 4C1E     		subs	r4, r1, #1
 895 000e 2200     		movs	r2, r4
 896 0010 2900     		movs	r1, r5
 897              	.LVL85:
 898 0012 0B20     		movs	r0, #11
 899              	.LVL86:
 900 0014 FFF7FEFF 		bl	nRF24_readLongRegister
 901              	.LVL87:
 482:Generated_Source\PSoC4/nRF24_NRF_FUNCS.c ****     addr[size - 1] = nRF24_readRegister(NRF_RX_ADDR_P4_REG);
 902              		.loc 1 482 0
 903 0018 2C19     		adds	r4, r5, r4
 904              	.LVL88:
 905 001a 0E20     		movs	r0, #14
 906 001c FFF7FEFF 		bl	nRF24_readRegister
 907              	.LVL89:
 908 0020 2070     		strb	r0, [r4]
 909              	.L53:
 483:Generated_Source\PSoC4/nRF24_NRF_FUNCS.c **** }
 910              		.loc 1 483 0
 911              		@ sp needed
 912              	.LVL90:
 913 0022 70BD     		pop	{r4, r5, r6, pc}
 914              		.cfi_endproc
 915              	.LFE61:
 916              		.size	nRF24_getRxPipe4Address, .-nRF24_getRxPipe4Address
 917              		.section	.text.nRF24_setRxPipe5Address,"ax",%progbits
 918              		.align	2
 919              		.global	nRF24_setRxPipe5Address
 920              		.code	16
 921              		.thumb_func
 922              		.type	nRF24_setRxPipe5Address, %function
 923              	nRF24_setRxPipe5Address:
 924              	.LFB62:
 484:Generated_Source\PSoC4/nRF24_NRF_FUNCS.c **** 
 485:Generated_Source\PSoC4/nRF24_NRF_FUNCS.c **** /**
 486:Generated_Source\PSoC4/nRF24_NRF_FUNCS.c ****  * Set the address of the least significant byte of the Rx Pipe 5 in the radio.
 487:Generated_Source\PSoC4/nRF24_NRF_FUNCS.c ****  *
 488:Generated_Source\PSoC4/nRF24_NRF_FUNCS.c ****  * @param const uint8_t addr_lsb:
 489:Generated_Source\PSoC4/nRF24_NRF_FUNCS.c ****  */
 490:Generated_Source\PSoC4/nRF24_NRF_FUNCS.c **** void nRF24_setRxPipe5Address(const uint8_t addr_lsb)
 491:Generated_Source\PSoC4/nRF24_NRF_FUNCS.c **** {
 925              		.loc 1 491 0
 926              		.cfi_startproc
 927              		@ args = 0, pretend = 0, frame = 0
ARM GAS  C:\Users\Xwx47\AppData\Local\Temp\cc5OEXcK.s 			page 26


 928              		@ frame_needed = 0, uses_anonymous_args = 0
 929              	.LVL91:
 930 0000 10B5     		push	{r4, lr}
 931              		.cfi_def_cfa_offset 8
 932              		.cfi_offset 4, -8
 933              		.cfi_offset 14, -4
 934 0002 0100     		movs	r1, r0
 492:Generated_Source\PSoC4/nRF24_NRF_FUNCS.c ****     nRF24_writeRegister(NRF_RX_ADDR_P5_REG, addr_lsb);
 935              		.loc 1 492 0
 936 0004 0F20     		movs	r0, #15
 937              	.LVL92:
 938 0006 FFF7FEFF 		bl	nRF24_writeRegister
 939              	.LVL93:
 493:Generated_Source\PSoC4/nRF24_NRF_FUNCS.c **** }
 940              		.loc 1 493 0
 941              		@ sp needed
 942 000a 10BD     		pop	{r4, pc}
 943              		.cfi_endproc
 944              	.LFE62:
 945              		.size	nRF24_setRxPipe5Address, .-nRF24_setRxPipe5Address
 946              		.section	.text.nRF24_getRxPipe5Address,"ax",%progbits
 947              		.align	2
 948              		.global	nRF24_getRxPipe5Address
 949              		.code	16
 950              		.thumb_func
 951              		.type	nRF24_getRxPipe5Address, %function
 952              	nRF24_getRxPipe5Address:
 953              	.LFB63:
 494:Generated_Source\PSoC4/nRF24_NRF_FUNCS.c **** 
 495:Generated_Source\PSoC4/nRF24_NRF_FUNCS.c **** /**
 496:Generated_Source\PSoC4/nRF24_NRF_FUNCS.c ****  * Get the address of the Rx Pipe 5.
 497:Generated_Source\PSoC4/nRF24_NRF_FUNCS.c ****  *
 498:Generated_Source\PSoC4/nRF24_NRF_FUNCS.c ****  * @param uint8_t* addr:
 499:Generated_Source\PSoC4/nRF24_NRF_FUNCS.c ****  * @param size_t size:
 500:Generated_Source\PSoC4/nRF24_NRF_FUNCS.c ****  */
 501:Generated_Source\PSoC4/nRF24_NRF_FUNCS.c **** void nRF24_getRxPipe5Address(uint8_t* addr, size_t size)
 502:Generated_Source\PSoC4/nRF24_NRF_FUNCS.c **** {
 954              		.loc 1 502 0
 955              		.cfi_startproc
 956              		@ args = 0, pretend = 0, frame = 0
 957              		@ frame_needed = 0, uses_anonymous_args = 0
 958              	.LVL94:
 959 0000 70B5     		push	{r4, r5, r6, lr}
 960              		.cfi_def_cfa_offset 16
 961              		.cfi_offset 4, -16
 962              		.cfi_offset 5, -12
 963              		.cfi_offset 6, -8
 964              		.cfi_offset 14, -4
 965 0002 051E     		subs	r5, r0, #0
 503:Generated_Source\PSoC4/nRF24_NRF_FUNCS.c ****     if (NULL == addr) {
 966              		.loc 1 503 0
 967 0004 0DD0     		beq	.L58
 504:Generated_Source\PSoC4/nRF24_NRF_FUNCS.c ****         return;
 505:Generated_Source\PSoC4/nRF24_NRF_FUNCS.c ****     }
 506:Generated_Source\PSoC4/nRF24_NRF_FUNCS.c **** 
 507:Generated_Source\PSoC4/nRF24_NRF_FUNCS.c ****     if (NRF_MAX_ADDR_SIZE < size) {
 968              		.loc 1 507 0
ARM GAS  C:\Users\Xwx47\AppData\Local\Temp\cc5OEXcK.s 			page 27


 969 0006 0529     		cmp	r1, #5
 970 0008 00D9     		bls	.L60
 508:Generated_Source\PSoC4/nRF24_NRF_FUNCS.c ****         size = NRF_MAX_ADDR_SIZE;
 971              		.loc 1 508 0
 972 000a 0521     		movs	r1, #5
 973              	.LVL95:
 974              	.L60:
 509:Generated_Source\PSoC4/nRF24_NRF_FUNCS.c ****     }
 510:Generated_Source\PSoC4/nRF24_NRF_FUNCS.c ****     
 511:Generated_Source\PSoC4/nRF24_NRF_FUNCS.c ****     // The pipe5 address is the same as the pipe1 address except the LSB
 512:Generated_Source\PSoC4/nRF24_NRF_FUNCS.c ****     nRF24_readLongRegister(NRF_RX_ADDR_P1_REG, addr, size - 1);
 975              		.loc 1 512 0
 976 000c 4C1E     		subs	r4, r1, #1
 977 000e 2200     		movs	r2, r4
 978 0010 2900     		movs	r1, r5
 979              	.LVL96:
 980 0012 0B20     		movs	r0, #11
 981              	.LVL97:
 982 0014 FFF7FEFF 		bl	nRF24_readLongRegister
 983              	.LVL98:
 513:Generated_Source\PSoC4/nRF24_NRF_FUNCS.c ****     addr[size - 1] = nRF24_readRegister(NRF_RX_ADDR_P5_REG);
 984              		.loc 1 513 0
 985 0018 2C19     		adds	r4, r5, r4
 986              	.LVL99:
 987 001a 0F20     		movs	r0, #15
 988 001c FFF7FEFF 		bl	nRF24_readRegister
 989              	.LVL100:
 990 0020 2070     		strb	r0, [r4]
 991              	.L58:
 514:Generated_Source\PSoC4/nRF24_NRF_FUNCS.c **** }
 992              		.loc 1 514 0
 993              		@ sp needed
 994              	.LVL101:
 995 0022 70BD     		pop	{r4, r5, r6, pc}
 996              		.cfi_endproc
 997              	.LFE63:
 998              		.size	nRF24_getRxPipe5Address, .-nRF24_getRxPipe5Address
 999              		.section	.text.nRF24_setTxAddress,"ax",%progbits
 1000              		.align	2
 1001              		.global	nRF24_setTxAddress
 1002              		.code	16
 1003              		.thumb_func
 1004              		.type	nRF24_setTxAddress, %function
 1005              	nRF24_setTxAddress:
 1006              	.LFB64:
 515:Generated_Source\PSoC4/nRF24_NRF_FUNCS.c **** 
 516:Generated_Source\PSoC4/nRF24_NRF_FUNCS.c **** /**
 517:Generated_Source\PSoC4/nRF24_NRF_FUNCS.c ****  * @brief Set the TX Address of the radio.
 518:Generated_Source\PSoC4/nRF24_NRF_FUNCS.c ****  *
 519:Generated_Source\PSoC4/nRF24_NRF_FUNCS.c ****  * @param const uint8_t* addr:
 520:Generated_Source\PSoC4/nRF24_NRF_FUNCS.c ****  * @param size_t size:
 521:Generated_Source\PSoC4/nRF24_NRF_FUNCS.c ****  */
 522:Generated_Source\PSoC4/nRF24_NRF_FUNCS.c **** void nRF24_setTxAddress(const uint8_t* addr, size_t size)
 523:Generated_Source\PSoC4/nRF24_NRF_FUNCS.c **** {
 1007              		.loc 1 523 0
 1008              		.cfi_startproc
 1009              		@ args = 0, pretend = 0, frame = 0
ARM GAS  C:\Users\Xwx47\AppData\Local\Temp\cc5OEXcK.s 			page 28


 1010              		@ frame_needed = 0, uses_anonymous_args = 0
 1011              	.LVL102:
 1012 0000 10B5     		push	{r4, lr}
 1013              		.cfi_def_cfa_offset 8
 1014              		.cfi_offset 4, -8
 1015              		.cfi_offset 14, -4
 524:Generated_Source\PSoC4/nRF24_NRF_FUNCS.c ****     if (NULL == addr) {
 1016              		.loc 1 524 0
 1017 0002 0028     		cmp	r0, #0
 1018 0004 07D0     		beq	.L62
 525:Generated_Source\PSoC4/nRF24_NRF_FUNCS.c ****         return;
 526:Generated_Source\PSoC4/nRF24_NRF_FUNCS.c ****     }
 527:Generated_Source\PSoC4/nRF24_NRF_FUNCS.c **** 
 528:Generated_Source\PSoC4/nRF24_NRF_FUNCS.c ****     if (NRF_MAX_ADDR_SIZE < size) {
 1019              		.loc 1 528 0
 1020 0006 0529     		cmp	r1, #5
 1021 0008 00D9     		bls	.L64
 529:Generated_Source\PSoC4/nRF24_NRF_FUNCS.c ****         size = NRF_MAX_ADDR_SIZE;
 1022              		.loc 1 529 0
 1023 000a 0521     		movs	r1, #5
 1024              	.LVL103:
 1025              	.L64:
 530:Generated_Source\PSoC4/nRF24_NRF_FUNCS.c ****     }
 531:Generated_Source\PSoC4/nRF24_NRF_FUNCS.c ****     
 532:Generated_Source\PSoC4/nRF24_NRF_FUNCS.c ****     nRF24_writeLongRegister(NRF_TX_ADDR_REG, addr, size);
 1026              		.loc 1 532 0
 1027 000c 0A00     		movs	r2, r1
 1028 000e 0100     		movs	r1, r0
 1029              	.LVL104:
 1030 0010 1020     		movs	r0, #16
 1031              	.LVL105:
 1032 0012 FFF7FEFF 		bl	nRF24_writeLongRegister
 1033              	.LVL106:
 1034              	.L62:
 533:Generated_Source\PSoC4/nRF24_NRF_FUNCS.c **** }
 1035              		.loc 1 533 0
 1036              		@ sp needed
 1037 0016 10BD     		pop	{r4, pc}
 1038              		.cfi_endproc
 1039              	.LFE64:
 1040              		.size	nRF24_setTxAddress, .-nRF24_setTxAddress
 1041              		.section	.text.nRF24_getTxAddress,"ax",%progbits
 1042              		.align	2
 1043              		.global	nRF24_getTxAddress
 1044              		.code	16
 1045              		.thumb_func
 1046              		.type	nRF24_getTxAddress, %function
 1047              	nRF24_getTxAddress:
 1048              	.LFB65:
 534:Generated_Source\PSoC4/nRF24_NRF_FUNCS.c **** 
 535:Generated_Source\PSoC4/nRF24_NRF_FUNCS.c **** /**
 536:Generated_Source\PSoC4/nRF24_NRF_FUNCS.c ****  * @brief Get the TX Address of the radio.
 537:Generated_Source\PSoC4/nRF24_NRF_FUNCS.c ****  *
 538:Generated_Source\PSoC4/nRF24_NRF_FUNCS.c ****  * @param const uint8_t* addr:
 539:Generated_Source\PSoC4/nRF24_NRF_FUNCS.c ****  * @param const size_t size:
 540:Generated_Source\PSoC4/nRF24_NRF_FUNCS.c ****  */
 541:Generated_Source\PSoC4/nRF24_NRF_FUNCS.c **** void nRF24_getTxAddress(uint8_t* addr, size_t size)
ARM GAS  C:\Users\Xwx47\AppData\Local\Temp\cc5OEXcK.s 			page 29


 542:Generated_Source\PSoC4/nRF24_NRF_FUNCS.c **** {
 1049              		.loc 1 542 0
 1050              		.cfi_startproc
 1051              		@ args = 0, pretend = 0, frame = 0
 1052              		@ frame_needed = 0, uses_anonymous_args = 0
 1053              	.LVL107:
 1054 0000 10B5     		push	{r4, lr}
 1055              		.cfi_def_cfa_offset 8
 1056              		.cfi_offset 4, -8
 1057              		.cfi_offset 14, -4
 543:Generated_Source\PSoC4/nRF24_NRF_FUNCS.c ****     if (NULL == addr) {
 1058              		.loc 1 543 0
 1059 0002 0028     		cmp	r0, #0
 1060 0004 07D0     		beq	.L66
 544:Generated_Source\PSoC4/nRF24_NRF_FUNCS.c ****         return;
 545:Generated_Source\PSoC4/nRF24_NRF_FUNCS.c ****     }
 546:Generated_Source\PSoC4/nRF24_NRF_FUNCS.c **** 
 547:Generated_Source\PSoC4/nRF24_NRF_FUNCS.c ****     if (NRF_MAX_ADDR_SIZE < size) {
 1061              		.loc 1 547 0
 1062 0006 0529     		cmp	r1, #5
 1063 0008 00D9     		bls	.L68
 548:Generated_Source\PSoC4/nRF24_NRF_FUNCS.c ****         size = NRF_MAX_ADDR_SIZE;
 1064              		.loc 1 548 0
 1065 000a 0521     		movs	r1, #5
 1066              	.LVL108:
 1067              	.L68:
 549:Generated_Source\PSoC4/nRF24_NRF_FUNCS.c ****     }
 550:Generated_Source\PSoC4/nRF24_NRF_FUNCS.c ****     
 551:Generated_Source\PSoC4/nRF24_NRF_FUNCS.c ****     nRF24_readLongRegister(NRF_TX_ADDR_REG, addr, size);
 1068              		.loc 1 551 0
 1069 000c 0A00     		movs	r2, r1
 1070 000e 0100     		movs	r1, r0
 1071              	.LVL109:
 1072 0010 1020     		movs	r0, #16
 1073              	.LVL110:
 1074 0012 FFF7FEFF 		bl	nRF24_readLongRegister
 1075              	.LVL111:
 1076              	.L66:
 552:Generated_Source\PSoC4/nRF24_NRF_FUNCS.c **** }
 1077              		.loc 1 552 0
 1078              		@ sp needed
 1079 0016 10BD     		pop	{r4, pc}
 1080              		.cfi_endproc
 1081              	.LFE65:
 1082              		.size	nRF24_getTxAddress, .-nRF24_getTxAddress
 1083              		.section	.text.nRF24_setPayloadSize,"ax",%progbits
 1084              		.align	2
 1085              		.global	nRF24_setPayloadSize
 1086              		.code	16
 1087              		.thumb_func
 1088              		.type	nRF24_setPayloadSize, %function
 1089              	nRF24_setPayloadSize:
 1090              	.LFB66:
 553:Generated_Source\PSoC4/nRF24_NRF_FUNCS.c **** 
 554:Generated_Source\PSoC4/nRF24_NRF_FUNCS.c **** /**
 555:Generated_Source\PSoC4/nRF24_NRF_FUNCS.c ****  * @brief Set the payload size of the given pipe.
 556:Generated_Source\PSoC4/nRF24_NRF_FUNCS.c ****  *
ARM GAS  C:\Users\Xwx47\AppData\Local\Temp\cc5OEXcK.s 			page 30


 557:Generated_Source\PSoC4/nRF24_NRF_FUNCS.c ****  * Configure the payload size of the given pipe.
 558:Generated_Source\PSoC4/nRF24_NRF_FUNCS.c ****  *
 559:Generated_Source\PSoC4/nRF24_NRF_FUNCS.c ****  * @param const NrfPipe pipe:
 560:Generated_Source\PSoC4/nRF24_NRF_FUNCS.c ****  * @param uint8_t size:
 561:Generated_Source\PSoC4/nRF24_NRF_FUNCS.c ****  */
 562:Generated_Source\PSoC4/nRF24_NRF_FUNCS.c **** void nRF24_setPayloadSize(const NrfPipePayloadSize pipe, uint8_t size)
 563:Generated_Source\PSoC4/nRF24_NRF_FUNCS.c **** {
 1091              		.loc 1 563 0
 1092              		.cfi_startproc
 1093              		@ args = 0, pretend = 0, frame = 0
 1094              		@ frame_needed = 0, uses_anonymous_args = 0
 1095              	.LVL112:
 1096 0000 10B5     		push	{r4, lr}
 1097              		.cfi_def_cfa_offset 8
 1098              		.cfi_offset 4, -8
 1099              		.cfi_offset 14, -4
 564:Generated_Source\PSoC4/nRF24_NRF_FUNCS.c ****     if (NRF_MAX_PAYLOAD_SIZE < size) {
 1100              		.loc 1 564 0
 1101 0002 2029     		cmp	r1, #32
 1102 0004 00D9     		bls	.L71
 565:Generated_Source\PSoC4/nRF24_NRF_FUNCS.c ****         size = NRF_MAX_PAYLOAD_SIZE;
 1103              		.loc 1 565 0
 1104 0006 2021     		movs	r1, #32
 1105              	.LVL113:
 1106              	.L71:
 566:Generated_Source\PSoC4/nRF24_NRF_FUNCS.c ****     }
 567:Generated_Source\PSoC4/nRF24_NRF_FUNCS.c ****     
 568:Generated_Source\PSoC4/nRF24_NRF_FUNCS.c ****     nRF24_writeRegister(pipe, size);
 1107              		.loc 1 568 0
 1108 0008 FFF7FEFF 		bl	nRF24_writeRegister
 1109              	.LVL114:
 569:Generated_Source\PSoC4/nRF24_NRF_FUNCS.c **** }
 1110              		.loc 1 569 0
 1111              		@ sp needed
 1112 000c 10BD     		pop	{r4, pc}
 1113              		.cfi_endproc
 1114              	.LFE66:
 1115              		.size	nRF24_setPayloadSize, .-nRF24_setPayloadSize
 1116 000e C046     		.section	.text.nRF24_getPayloadSize,"ax",%progbits
 1117              		.align	2
 1118              		.global	nRF24_getPayloadSize
 1119              		.code	16
 1120              		.thumb_func
 1121              		.type	nRF24_getPayloadSize, %function
 1122              	nRF24_getPayloadSize:
 1123              	.LFB67:
 570:Generated_Source\PSoC4/nRF24_NRF_FUNCS.c **** 
 571:Generated_Source\PSoC4/nRF24_NRF_FUNCS.c **** /**
 572:Generated_Source\PSoC4/nRF24_NRF_FUNCS.c ****  * Get the payload size of the given pipe.
 573:Generated_Source\PSoC4/nRF24_NRF_FUNCS.c ****  *
 574:Generated_Source\PSoC4/nRF24_NRF_FUNCS.c ****  * @param const NrfPipe pipe: Pipe to be read.
 575:Generated_Source\PSoC4/nRF24_NRF_FUNCS.c ****  *
 576:Generated_Source\PSoC4/nRF24_NRF_FUNCS.c ****  * @return uint8_t: Configured payload size of the given pipe.
 577:Generated_Source\PSoC4/nRF24_NRF_FUNCS.c ****  */
 578:Generated_Source\PSoC4/nRF24_NRF_FUNCS.c **** uint8_t nRF24_getPayloadSize(const NrfPipePayloadSize pipe)
 579:Generated_Source\PSoC4/nRF24_NRF_FUNCS.c **** {
 1124              		.loc 1 579 0
ARM GAS  C:\Users\Xwx47\AppData\Local\Temp\cc5OEXcK.s 			page 31


 1125              		.cfi_startproc
 1126              		@ args = 0, pretend = 0, frame = 0
 1127              		@ frame_needed = 0, uses_anonymous_args = 0
 1128              	.LVL115:
 1129 0000 10B5     		push	{r4, lr}
 1130              		.cfi_def_cfa_offset 8
 1131              		.cfi_offset 4, -8
 1132              		.cfi_offset 14, -4
 580:Generated_Source\PSoC4/nRF24_NRF_FUNCS.c ****     return nRF24_readRegister(pipe);
 1133              		.loc 1 580 0
 1134 0002 FFF7FEFF 		bl	nRF24_readRegister
 1135              	.LVL116:
 581:Generated_Source\PSoC4/nRF24_NRF_FUNCS.c **** }
 1136              		.loc 1 581 0
 1137              		@ sp needed
 1138 0006 10BD     		pop	{r4, pc}
 1139              		.cfi_endproc
 1140              	.LFE67:
 1141              		.size	nRF24_getPayloadSize, .-nRF24_getPayloadSize
 1142              		.section	.text.nRF24_enableDynamicPayload,"ax",%progbits
 1143              		.align	2
 1144              		.global	nRF24_enableDynamicPayload
 1145              		.code	16
 1146              		.thumb_func
 1147              		.type	nRF24_enableDynamicPayload, %function
 1148              	nRF24_enableDynamicPayload:
 1149              	.LFB69:
 582:Generated_Source\PSoC4/nRF24_NRF_FUNCS.c **** 
 583:Generated_Source\PSoC4/nRF24_NRF_FUNCS.c **** /**
 584:Generated_Source\PSoC4/nRF24_NRF_FUNCS.c ****  * @brief Reuse last transmitted payload.
 585:Generated_Source\PSoC4/nRF24_NRF_FUNCS.c ****  *
 586:Generated_Source\PSoC4/nRF24_NRF_FUNCS.c ****  * This function issue the command ReuseTxPayload and then toggle the CE pin
 587:Generated_Source\PSoC4/nRF24_NRF_FUNCS.c ****  * to transmit the last transmitted payload.
 588:Generated_Source\PSoC4/nRF24_NRF_FUNCS.c ****  */
 589:Generated_Source\PSoC4/nRF24_NRF_FUNCS.c **** void nRF24_PTX_reuseLastTransmittedPayload(void)
 590:Generated_Source\PSoC4/nRF24_NRF_FUNCS.c **** {
 591:Generated_Source\PSoC4/nRF24_NRF_FUNCS.c ****     nRF24_reuseTxPayloadCmd();
 592:Generated_Source\PSoC4/nRF24_NRF_FUNCS.c ****     nRF24_transmitPulse();
 593:Generated_Source\PSoC4/nRF24_NRF_FUNCS.c **** }
 594:Generated_Source\PSoC4/nRF24_NRF_FUNCS.c **** 
 595:Generated_Source\PSoC4/nRF24_NRF_FUNCS.c **** /**
 596:Generated_Source\PSoC4/nRF24_NRF_FUNCS.c ****  * @brief Enable dynamic payload on the given pipe.
 597:Generated_Source\PSoC4/nRF24_NRF_FUNCS.c ****  *
 598:Generated_Source\PSoC4/nRF24_NRF_FUNCS.c ****  * @param const NrfPipe pipe:
 599:Generated_Source\PSoC4/nRF24_NRF_FUNCS.c ****  */
 600:Generated_Source\PSoC4/nRF24_NRF_FUNCS.c **** void nRF24_enableDynamicPayload(const NrfPipe pipe)
 601:Generated_Source\PSoC4/nRF24_NRF_FUNCS.c **** {
 1150              		.loc 1 601 0
 1151              		.cfi_startproc
 1152              		@ args = 0, pretend = 0, frame = 0
 1153              		@ frame_needed = 0, uses_anonymous_args = 0
 1154              	.LVL117:
 1155 0000 10B5     		push	{r4, lr}
 1156              		.cfi_def_cfa_offset 8
 1157              		.cfi_offset 4, -8
 1158              		.cfi_offset 14, -4
 1159 0002 0400     		movs	r4, r0
ARM GAS  C:\Users\Xwx47\AppData\Local\Temp\cc5OEXcK.s 			page 32


 602:Generated_Source\PSoC4/nRF24_NRF_FUNCS.c ****     nRF24_setBit(NRF_EN_AA_REG, pipe);
 1160              		.loc 1 602 0
 1161 0004 0100     		movs	r1, r0
 1162 0006 0120     		movs	r0, #1
 1163              	.LVL118:
 1164 0008 FFF7FEFF 		bl	nRF24_setBit
 1165              	.LVL119:
 603:Generated_Source\PSoC4/nRF24_NRF_FUNCS.c ****     nRF24_setBit(NRF_FEATURE_REG, NRF_FEATURE_EN_ACK_PAY);
 1166              		.loc 1 603 0
 1167 000c 0121     		movs	r1, #1
 1168 000e 1D20     		movs	r0, #29
 1169 0010 FFF7FEFF 		bl	nRF24_setBit
 1170              	.LVL120:
 604:Generated_Source\PSoC4/nRF24_NRF_FUNCS.c ****     nRF24_setBit(NRF_FEATURE_REG, NRF_FEATURE_EN_DPL);
 1171              		.loc 1 604 0
 1172 0014 0221     		movs	r1, #2
 1173 0016 1D20     		movs	r0, #29
 1174 0018 FFF7FEFF 		bl	nRF24_setBit
 1175              	.LVL121:
 605:Generated_Source\PSoC4/nRF24_NRF_FUNCS.c ****     nRF24_setBit(NRF_DYNPD_REG, pipe);
 1176              		.loc 1 605 0
 1177 001c 2100     		movs	r1, r4
 1178 001e 1C20     		movs	r0, #28
 1179 0020 FFF7FEFF 		bl	nRF24_setBit
 1180              	.LVL122:
 606:Generated_Source\PSoC4/nRF24_NRF_FUNCS.c **** }
 1181              		.loc 1 606 0
 1182              		@ sp needed
 1183 0024 10BD     		pop	{r4, pc}
 1184              		.cfi_endproc
 1185              	.LFE69:
 1186              		.size	nRF24_enableDynamicPayload, .-nRF24_enableDynamicPayload
 1187 0026 C046     		.section	.text.nRF24_disableDynamicPayload,"ax",%progbits
 1188              		.align	2
 1189              		.global	nRF24_disableDynamicPayload
 1190              		.code	16
 1191              		.thumb_func
 1192              		.type	nRF24_disableDynamicPayload, %function
 1193              	nRF24_disableDynamicPayload:
 1194              	.LFB70:
 607:Generated_Source\PSoC4/nRF24_NRF_FUNCS.c **** 
 608:Generated_Source\PSoC4/nRF24_NRF_FUNCS.c **** /**
 609:Generated_Source\PSoC4/nRF24_NRF_FUNCS.c ****  * @brief Disable dynamic payload on the given pipe.
 610:Generated_Source\PSoC4/nRF24_NRF_FUNCS.c ****  *
 611:Generated_Source\PSoC4/nRF24_NRF_FUNCS.c ****  * @param const NrfPipe pipe:
 612:Generated_Source\PSoC4/nRF24_NRF_FUNCS.c ****  */
 613:Generated_Source\PSoC4/nRF24_NRF_FUNCS.c **** void nRF24_disableDynamicPayload(const NrfPipe pipe)
 614:Generated_Source\PSoC4/nRF24_NRF_FUNCS.c **** {
 1195              		.loc 1 614 0
 1196              		.cfi_startproc
 1197              		@ args = 0, pretend = 0, frame = 0
 1198              		@ frame_needed = 0, uses_anonymous_args = 0
 1199              	.LVL123:
 1200 0000 10B5     		push	{r4, lr}
 1201              		.cfi_def_cfa_offset 8
 1202              		.cfi_offset 4, -8
 1203              		.cfi_offset 14, -4
ARM GAS  C:\Users\Xwx47\AppData\Local\Temp\cc5OEXcK.s 			page 33


 1204 0002 0400     		movs	r4, r0
 615:Generated_Source\PSoC4/nRF24_NRF_FUNCS.c ****     nRF24_clearBit(NRF_EN_AA_REG, pipe);
 1205              		.loc 1 615 0
 1206 0004 0100     		movs	r1, r0
 1207 0006 0120     		movs	r0, #1
 1208              	.LVL124:
 1209 0008 FFF7FEFF 		bl	nRF24_clearBit
 1210              	.LVL125:
 616:Generated_Source\PSoC4/nRF24_NRF_FUNCS.c ****     nRF24_clearBit(NRF_FEATURE_REG, NRF_FEATURE_EN_ACK_PAY);
 1211              		.loc 1 616 0
 1212 000c 0121     		movs	r1, #1
 1213 000e 1D20     		movs	r0, #29
 1214 0010 FFF7FEFF 		bl	nRF24_clearBit
 1215              	.LVL126:
 617:Generated_Source\PSoC4/nRF24_NRF_FUNCS.c ****     nRF24_clearBit(NRF_FEATURE_REG, NRF_FEATURE_EN_DPL);
 1216              		.loc 1 617 0
 1217 0014 0221     		movs	r1, #2
 1218 0016 1D20     		movs	r0, #29
 1219 0018 FFF7FEFF 		bl	nRF24_clearBit
 1220              	.LVL127:
 618:Generated_Source\PSoC4/nRF24_NRF_FUNCS.c ****     nRF24_clearBit(NRF_DYNPD_REG, pipe);
 1221              		.loc 1 618 0
 1222 001c 2100     		movs	r1, r4
 1223 001e 1C20     		movs	r0, #28
 1224 0020 FFF7FEFF 		bl	nRF24_clearBit
 1225              	.LVL128:
 619:Generated_Source\PSoC4/nRF24_NRF_FUNCS.c **** }
 1226              		.loc 1 619 0
 1227              		@ sp needed
 1228 0024 10BD     		pop	{r4, pc}
 1229              		.cfi_endproc
 1230              	.LFE70:
 1231              		.size	nRF24_disableDynamicPayload, .-nRF24_disableDynamicPayload
 1232 0026 C046     		.section	.text.nRF24_enableDynamicPayloadLength,"ax",%progbits
 1233              		.align	2
 1234              		.global	nRF24_enableDynamicPayloadLength
 1235              		.code	16
 1236              		.thumb_func
 1237              		.type	nRF24_enableDynamicPayloadLength, %function
 1238              	nRF24_enableDynamicPayloadLength:
 1239              	.LFB71:
 620:Generated_Source\PSoC4/nRF24_NRF_FUNCS.c **** 
 621:Generated_Source\PSoC4/nRF24_NRF_FUNCS.c **** /**
 622:Generated_Source\PSoC4/nRF24_NRF_FUNCS.c ****  * @brief Enable dinamic payload length.
 623:Generated_Source\PSoC4/nRF24_NRF_FUNCS.c ****  */
 624:Generated_Source\PSoC4/nRF24_NRF_FUNCS.c **** void nRF24_enableDynamicPayloadLength(void)
 625:Generated_Source\PSoC4/nRF24_NRF_FUNCS.c **** {
 1240              		.loc 1 625 0
 1241              		.cfi_startproc
 1242              		@ args = 0, pretend = 0, frame = 0
 1243              		@ frame_needed = 0, uses_anonymous_args = 0
 1244 0000 10B5     		push	{r4, lr}
 1245              		.cfi_def_cfa_offset 8
 1246              		.cfi_offset 4, -8
 1247              		.cfi_offset 14, -4
 626:Generated_Source\PSoC4/nRF24_NRF_FUNCS.c ****     nRF24_setBit(NRF_FEATURE_REG, NRF_FEATURE_EN_DPL);
 1248              		.loc 1 626 0
ARM GAS  C:\Users\Xwx47\AppData\Local\Temp\cc5OEXcK.s 			page 34


 1249 0002 0221     		movs	r1, #2
 1250 0004 1D20     		movs	r0, #29
 1251 0006 FFF7FEFF 		bl	nRF24_setBit
 1252              	.LVL129:
 627:Generated_Source\PSoC4/nRF24_NRF_FUNCS.c **** }
 1253              		.loc 1 627 0
 1254              		@ sp needed
 1255 000a 10BD     		pop	{r4, pc}
 1256              		.cfi_endproc
 1257              	.LFE71:
 1258              		.size	nRF24_enableDynamicPayloadLength, .-nRF24_enableDynamicPayloadLength
 1259              		.section	.text.nRF24_disableDynamicPayloadLength,"ax",%progbits
 1260              		.align	2
 1261              		.global	nRF24_disableDynamicPayloadLength
 1262              		.code	16
 1263              		.thumb_func
 1264              		.type	nRF24_disableDynamicPayloadLength, %function
 1265              	nRF24_disableDynamicPayloadLength:
 1266              	.LFB72:
 628:Generated_Source\PSoC4/nRF24_NRF_FUNCS.c **** 
 629:Generated_Source\PSoC4/nRF24_NRF_FUNCS.c **** /**
 630:Generated_Source\PSoC4/nRF24_NRF_FUNCS.c ****  * @brief Disable dynamic payload length.
 631:Generated_Source\PSoC4/nRF24_NRF_FUNCS.c ****  */
 632:Generated_Source\PSoC4/nRF24_NRF_FUNCS.c **** void nRF24_disableDynamicPayloadLength(void)
 633:Generated_Source\PSoC4/nRF24_NRF_FUNCS.c **** {
 1267              		.loc 1 633 0
 1268              		.cfi_startproc
 1269              		@ args = 0, pretend = 0, frame = 0
 1270              		@ frame_needed = 0, uses_anonymous_args = 0
 1271 0000 10B5     		push	{r4, lr}
 1272              		.cfi_def_cfa_offset 8
 1273              		.cfi_offset 4, -8
 1274              		.cfi_offset 14, -4
 634:Generated_Source\PSoC4/nRF24_NRF_FUNCS.c ****     nRF24_clearBit(NRF_FEATURE_REG, NRF_FEATURE_EN_DPL);
 1275              		.loc 1 634 0
 1276 0002 0221     		movs	r1, #2
 1277 0004 1D20     		movs	r0, #29
 1278 0006 FFF7FEFF 		bl	nRF24_clearBit
 1279              	.LVL130:
 635:Generated_Source\PSoC4/nRF24_NRF_FUNCS.c **** }
 1280              		.loc 1 635 0
 1281              		@ sp needed
 1282 000a 10BD     		pop	{r4, pc}
 1283              		.cfi_endproc
 1284              	.LFE72:
 1285              		.size	nRF24_disableDynamicPayloadLength, .-nRF24_disableDynamicPayloadLength
 1286              		.section	.text.nRF24_enablePayloadWithACK,"ax",%progbits
 1287              		.align	2
 1288              		.global	nRF24_enablePayloadWithACK
 1289              		.code	16
 1290              		.thumb_func
 1291              		.type	nRF24_enablePayloadWithACK, %function
 1292              	nRF24_enablePayloadWithACK:
 1293              	.LFB73:
 636:Generated_Source\PSoC4/nRF24_NRF_FUNCS.c **** 
 637:Generated_Source\PSoC4/nRF24_NRF_FUNCS.c **** /**
 638:Generated_Source\PSoC4/nRF24_NRF_FUNCS.c ****  * @brief Enable payload with ACK.
ARM GAS  C:\Users\Xwx47\AppData\Local\Temp\cc5OEXcK.s 			page 35


 639:Generated_Source\PSoC4/nRF24_NRF_FUNCS.c ****  */
 640:Generated_Source\PSoC4/nRF24_NRF_FUNCS.c **** void nRF24_enablePayloadWithACK(void)
 641:Generated_Source\PSoC4/nRF24_NRF_FUNCS.c **** {
 1294              		.loc 1 641 0
 1295              		.cfi_startproc
 1296              		@ args = 0, pretend = 0, frame = 0
 1297              		@ frame_needed = 0, uses_anonymous_args = 0
 1298 0000 10B5     		push	{r4, lr}
 1299              		.cfi_def_cfa_offset 8
 1300              		.cfi_offset 4, -8
 1301              		.cfi_offset 14, -4
 642:Generated_Source\PSoC4/nRF24_NRF_FUNCS.c ****     nRF24_setBit(NRF_FEATURE_REG, NRF_FEATURE_EN_ACK_PAY);
 1302              		.loc 1 642 0
 1303 0002 0121     		movs	r1, #1
 1304 0004 1D20     		movs	r0, #29
 1305 0006 FFF7FEFF 		bl	nRF24_setBit
 1306              	.LVL131:
 643:Generated_Source\PSoC4/nRF24_NRF_FUNCS.c **** }
 1307              		.loc 1 643 0
 1308              		@ sp needed
 1309 000a 10BD     		pop	{r4, pc}
 1310              		.cfi_endproc
 1311              	.LFE73:
 1312              		.size	nRF24_enablePayloadWithACK, .-nRF24_enablePayloadWithACK
 1313              		.section	.text.nRF24_disablePayloadWithACK,"ax",%progbits
 1314              		.align	2
 1315              		.global	nRF24_disablePayloadWithACK
 1316              		.code	16
 1317              		.thumb_func
 1318              		.type	nRF24_disablePayloadWithACK, %function
 1319              	nRF24_disablePayloadWithACK:
 1320              	.LFB74:
 644:Generated_Source\PSoC4/nRF24_NRF_FUNCS.c **** 
 645:Generated_Source\PSoC4/nRF24_NRF_FUNCS.c **** /**
 646:Generated_Source\PSoC4/nRF24_NRF_FUNCS.c ****  * @brief Disable Payload with ACK.
 647:Generated_Source\PSoC4/nRF24_NRF_FUNCS.c ****  */
 648:Generated_Source\PSoC4/nRF24_NRF_FUNCS.c **** void nRF24_disablePayloadWithACK(void)
 649:Generated_Source\PSoC4/nRF24_NRF_FUNCS.c **** {
 1321              		.loc 1 649 0
 1322              		.cfi_startproc
 1323              		@ args = 0, pretend = 0, frame = 0
 1324              		@ frame_needed = 0, uses_anonymous_args = 0
 1325 0000 10B5     		push	{r4, lr}
 1326              		.cfi_def_cfa_offset 8
 1327              		.cfi_offset 4, -8
 1328              		.cfi_offset 14, -4
 650:Generated_Source\PSoC4/nRF24_NRF_FUNCS.c ****     nRF24_clearBit(NRF_FEATURE_REG, NRF_FEATURE_EN_ACK_PAY);
 1329              		.loc 1 650 0
 1330 0002 0121     		movs	r1, #1
 1331 0004 1D20     		movs	r0, #29
 1332 0006 FFF7FEFF 		bl	nRF24_clearBit
 1333              	.LVL132:
 651:Generated_Source\PSoC4/nRF24_NRF_FUNCS.c **** }
 1334              		.loc 1 651 0
 1335              		@ sp needed
 1336 000a 10BD     		pop	{r4, pc}
 1337              		.cfi_endproc
ARM GAS  C:\Users\Xwx47\AppData\Local\Temp\cc5OEXcK.s 			page 36


 1338              	.LFE74:
 1339              		.size	nRF24_disablePayloadWithACK, .-nRF24_disablePayloadWithACK
 1340              		.section	.text.nRF24_enablePayloadWithNoACKCmd,"ax",%progbits
 1341              		.align	2
 1342              		.global	nRF24_enablePayloadWithNoACKCmd
 1343              		.code	16
 1344              		.thumb_func
 1345              		.type	nRF24_enablePayloadWithNoACKCmd, %function
 1346              	nRF24_enablePayloadWithNoACKCmd:
 1347              	.LFB75:
 652:Generated_Source\PSoC4/nRF24_NRF_FUNCS.c **** 
 653:Generated_Source\PSoC4/nRF24_NRF_FUNCS.c **** /**
 654:Generated_Source\PSoC4/nRF24_NRF_FUNCS.c ****  * @brief Enable dynamic payload length.
 655:Generated_Source\PSoC4/nRF24_NRF_FUNCS.c ****  */
 656:Generated_Source\PSoC4/nRF24_NRF_FUNCS.c **** void nRF24_enablePayloadWithNoACKCmd(void)
 657:Generated_Source\PSoC4/nRF24_NRF_FUNCS.c **** {
 1348              		.loc 1 657 0
 1349              		.cfi_startproc
 1350              		@ args = 0, pretend = 0, frame = 0
 1351              		@ frame_needed = 0, uses_anonymous_args = 0
 1352 0000 10B5     		push	{r4, lr}
 1353              		.cfi_def_cfa_offset 8
 1354              		.cfi_offset 4, -8
 1355              		.cfi_offset 14, -4
 658:Generated_Source\PSoC4/nRF24_NRF_FUNCS.c ****     nRF24_setBit(NRF_FEATURE_REG, NRF_FEATURE_EN_DYN_ACK);
 1356              		.loc 1 658 0
 1357 0002 0021     		movs	r1, #0
 1358 0004 1D20     		movs	r0, #29
 1359 0006 FFF7FEFF 		bl	nRF24_setBit
 1360              	.LVL133:
 659:Generated_Source\PSoC4/nRF24_NRF_FUNCS.c **** }
 1361              		.loc 1 659 0
 1362              		@ sp needed
 1363 000a 10BD     		pop	{r4, pc}
 1364              		.cfi_endproc
 1365              	.LFE75:
 1366              		.size	nRF24_enablePayloadWithNoACKCmd, .-nRF24_enablePayloadWithNoACKCmd
 1367              		.section	.text.nRF24_disablePayloadWithNoACKCmd,"ax",%progbits
 1368              		.align	2
 1369              		.global	nRF24_disablePayloadWithNoACKCmd
 1370              		.code	16
 1371              		.thumb_func
 1372              		.type	nRF24_disablePayloadWithNoACKCmd, %function
 1373              	nRF24_disablePayloadWithNoACKCmd:
 1374              	.LFB76:
 660:Generated_Source\PSoC4/nRF24_NRF_FUNCS.c **** 
 661:Generated_Source\PSoC4/nRF24_NRF_FUNCS.c **** /**
 662:Generated_Source\PSoC4/nRF24_NRF_FUNCS.c ****  * @brief Disable Payload with no ACK.
 663:Generated_Source\PSoC4/nRF24_NRF_FUNCS.c ****  */
 664:Generated_Source\PSoC4/nRF24_NRF_FUNCS.c **** void nRF24_disablePayloadWithNoACKCmd(void)
 665:Generated_Source\PSoC4/nRF24_NRF_FUNCS.c **** {
 1375              		.loc 1 665 0
 1376              		.cfi_startproc
 1377              		@ args = 0, pretend = 0, frame = 0
 1378              		@ frame_needed = 0, uses_anonymous_args = 0
 1379 0000 10B5     		push	{r4, lr}
 1380              		.cfi_def_cfa_offset 8
ARM GAS  C:\Users\Xwx47\AppData\Local\Temp\cc5OEXcK.s 			page 37


 1381              		.cfi_offset 4, -8
 1382              		.cfi_offset 14, -4
 666:Generated_Source\PSoC4/nRF24_NRF_FUNCS.c ****     nRF24_clearBit(NRF_FEATURE_REG, NRF_FEATURE_EN_DYN_ACK);
 1383              		.loc 1 666 0
 1384 0002 0021     		movs	r1, #0
 1385 0004 1D20     		movs	r0, #29
 1386 0006 FFF7FEFF 		bl	nRF24_clearBit
 1387              	.LVL134:
 667:Generated_Source\PSoC4/nRF24_NRF_FUNCS.c **** }
 1388              		.loc 1 667 0
 1389              		@ sp needed
 1390 000a 10BD     		pop	{r4, pc}
 1391              		.cfi_endproc
 1392              	.LFE76:
 1393              		.size	nRF24_disablePayloadWithNoACKCmd, .-nRF24_disablePayloadWithNoACKCmd
 1394              		.section	.text.nRF24_listen,"ax",%progbits
 1395              		.align	2
 1396              		.global	nRF24_listen
 1397              		.code	16
 1398              		.thumb_func
 1399              		.type	nRF24_listen, %function
 1400              	nRF24_listen:
 1401              	.LFB77:
 668:Generated_Source\PSoC4/nRF24_NRF_FUNCS.c **** 
 669:Generated_Source\PSoC4/nRF24_NRF_FUNCS.c **** /**
 670:Generated_Source\PSoC4/nRF24_NRF_FUNCS.c ****  * @brief Set the value of the CE pin to listen or not.
 671:Generated_Source\PSoC4/nRF24_NRF_FUNCS.c ****  *
 672:Generated_Source\PSoC4/nRF24_NRF_FUNCS.c ****  * @param const bool listen: If @listen is set to true, then the radio will
 673:Generated_Source\PSoC4/nRF24_NRF_FUNCS.c ****  * listen, if set to false the radio will stop listening.
 674:Generated_Source\PSoC4/nRF24_NRF_FUNCS.c ****  */
 675:Generated_Source\PSoC4/nRF24_NRF_FUNCS.c **** void nRF24_listen(const bool listen)
 676:Generated_Source\PSoC4/nRF24_NRF_FUNCS.c **** {
 1402              		.loc 1 676 0
 1403              		.cfi_startproc
 1404              		@ args = 0, pretend = 0, frame = 0
 1405              		@ frame_needed = 0, uses_anonymous_args = 0
 1406              	.LVL135:
 1407 0000 10B5     		push	{r4, lr}
 1408              		.cfi_def_cfa_offset 8
 1409              		.cfi_offset 4, -8
 1410              		.cfi_offset 14, -4
 677:Generated_Source\PSoC4/nRF24_NRF_FUNCS.c **** #if defined(CY_GPIO_H)
 678:Generated_Source\PSoC4/nRF24_NRF_FUNCS.c ****     listen ? Cy_GPIO_Set(CE_PORT, CE_NUM) : 
 679:Generated_Source\PSoC4/nRF24_NRF_FUNCS.c ****             Cy_GPIO_Clr(CE_PORT, CE_NUM);
 680:Generated_Source\PSoC4/nRF24_NRF_FUNCS.c **** #else
 681:Generated_Source\PSoC4/nRF24_NRF_FUNCS.c ****     listen ? CE_Write(1) : CE_Write(0);
 1411              		.loc 1 681 0
 1412 0002 0028     		cmp	r0, #0
 1413 0004 03D0     		beq	.L83
 1414              		.loc 1 681 0 is_stmt 0 discriminator 1
 1415 0006 0120     		movs	r0, #1
 1416              	.LVL136:
 1417 0008 FFF7FEFF 		bl	CE_Write
 1418              	.LVL137:
 1419 000c 02E0     		b	.L82
 1420              	.LVL138:
 1421              	.L83:
ARM GAS  C:\Users\Xwx47\AppData\Local\Temp\cc5OEXcK.s 			page 38


 1422              		.loc 1 681 0 discriminator 2
 1423 000e 0020     		movs	r0, #0
 1424              	.LVL139:
 1425 0010 FFF7FEFF 		bl	CE_Write
 1426              	.LVL140:
 1427              	.L82:
 682:Generated_Source\PSoC4/nRF24_NRF_FUNCS.c **** #endif
 683:Generated_Source\PSoC4/nRF24_NRF_FUNCS.c **** }
 1428              		.loc 1 683 0 is_stmt 1
 1429              		@ sp needed
 1430 0014 10BD     		pop	{r4, pc}
 1431              		.cfi_endproc
 1432              	.LFE77:
 1433              		.size	nRF24_listen, .-nRF24_listen
 1434 0016 C046     		.section	.text.nRF24_setStandbyIMode,"ax",%progbits
 1435              		.align	2
 1436              		.global	nRF24_setStandbyIMode
 1437              		.code	16
 1438              		.thumb_func
 1439              		.type	nRF24_setStandbyIMode, %function
 1440              	nRF24_setStandbyIMode:
 1441              	.LFB43:
 196:Generated_Source\PSoC4/nRF24_NRF_FUNCS.c ****     nRF24_listen(false);
 1442              		.loc 1 196 0
 1443              		.cfi_startproc
 1444              		@ args = 0, pretend = 0, frame = 0
 1445              		@ frame_needed = 0, uses_anonymous_args = 0
 1446 0000 10B5     		push	{r4, lr}
 1447              		.cfi_def_cfa_offset 8
 1448              		.cfi_offset 4, -8
 1449              		.cfi_offset 14, -4
 197:Generated_Source\PSoC4/nRF24_NRF_FUNCS.c ****     nRF24_clearBit(NRF_CONFIG_REG, NRF_CONFIG_PWR_UP);
 1450              		.loc 1 197 0
 1451 0002 0020     		movs	r0, #0
 1452 0004 FFF7FEFF 		bl	nRF24_listen
 1453              	.LVL141:
 198:Generated_Source\PSoC4/nRF24_NRF_FUNCS.c **** }
 1454              		.loc 1 198 0
 1455 0008 0121     		movs	r1, #1
 1456 000a 0020     		movs	r0, #0
 1457 000c FFF7FEFF 		bl	nRF24_clearBit
 1458              	.LVL142:
 199:Generated_Source\PSoC4/nRF24_NRF_FUNCS.c **** 
 1459              		.loc 1 199 0
 1460              		@ sp needed
 1461 0010 10BD     		pop	{r4, pc}
 1462              		.cfi_endproc
 1463              	.LFE43:
 1464              		.size	nRF24_setStandbyIMode, .-nRF24_setStandbyIMode
 1465 0012 C046     		.section	.text.nRF24_setStandbyIIMode,"ax",%progbits
 1466              		.align	2
 1467              		.global	nRF24_setStandbyIIMode
 1468              		.code	16
 1469              		.thumb_func
 1470              		.type	nRF24_setStandbyIIMode, %function
 1471              	nRF24_setStandbyIIMode:
 1472              	.LFB44:
ARM GAS  C:\Users\Xwx47\AppData\Local\Temp\cc5OEXcK.s 			page 39


 211:Generated_Source\PSoC4/nRF24_NRF_FUNCS.c ****     nRF24_listen(true);
 1473              		.loc 1 211 0
 1474              		.cfi_startproc
 1475              		@ args = 0, pretend = 0, frame = 0
 1476              		@ frame_needed = 0, uses_anonymous_args = 0
 1477 0000 10B5     		push	{r4, lr}
 1478              		.cfi_def_cfa_offset 8
 1479              		.cfi_offset 4, -8
 1480              		.cfi_offset 14, -4
 212:Generated_Source\PSoC4/nRF24_NRF_FUNCS.c ****     nRF24_setBit(NRF_CONFIG_REG, NRF_CONFIG_PWR_UP);
 1481              		.loc 1 212 0
 1482 0002 0120     		movs	r0, #1
 1483 0004 FFF7FEFF 		bl	nRF24_listen
 1484              	.LVL143:
 213:Generated_Source\PSoC4/nRF24_NRF_FUNCS.c **** }
 1485              		.loc 1 213 0
 1486 0008 0121     		movs	r1, #1
 1487 000a 0020     		movs	r0, #0
 1488 000c FFF7FEFF 		bl	nRF24_setBit
 1489              	.LVL144:
 214:Generated_Source\PSoC4/nRF24_NRF_FUNCS.c **** 
 1490              		.loc 1 214 0
 1491              		@ sp needed
 1492 0010 10BD     		pop	{r4, pc}
 1493              		.cfi_endproc
 1494              	.LFE44:
 1495              		.size	nRF24_setStandbyIIMode, .-nRF24_setStandbyIIMode
 1496 0012 C046     		.section	.text.nRF24_startListening,"ax",%progbits
 1497              		.align	2
 1498              		.global	nRF24_startListening
 1499              		.code	16
 1500              		.thumb_func
 1501              		.type	nRF24_startListening, %function
 1502              	nRF24_startListening:
 1503              	.LFB78:
 684:Generated_Source\PSoC4/nRF24_NRF_FUNCS.c **** 
 685:Generated_Source\PSoC4/nRF24_NRF_FUNCS.c **** /**
 686:Generated_Source\PSoC4/nRF24_NRF_FUNCS.c ****  * @brief The nRF24 radio will start listening.
 687:Generated_Source\PSoC4/nRF24_NRF_FUNCS.c ****  *
 688:Generated_Source\PSoC4/nRF24_NRF_FUNCS.c ****  * This function set the pin CE to logic high, this enable the radio for
 689:Generated_Source\PSoC4/nRF24_NRF_FUNCS.c ****  * listening.
 690:Generated_Source\PSoC4/nRF24_NRF_FUNCS.c ****  */
 691:Generated_Source\PSoC4/nRF24_NRF_FUNCS.c **** void nRF24_startListening(void) {
 1504              		.loc 1 691 0
 1505              		.cfi_startproc
 1506              		@ args = 0, pretend = 0, frame = 0
 1507              		@ frame_needed = 0, uses_anonymous_args = 0
 1508 0000 10B5     		push	{r4, lr}
 1509              		.cfi_def_cfa_offset 8
 1510              		.cfi_offset 4, -8
 1511              		.cfi_offset 14, -4
 692:Generated_Source\PSoC4/nRF24_NRF_FUNCS.c ****     nRF24_listen(true);
 1512              		.loc 1 692 0
 1513 0002 0120     		movs	r0, #1
 1514 0004 FFF7FEFF 		bl	nRF24_listen
 1515              	.LVL145:
 693:Generated_Source\PSoC4/nRF24_NRF_FUNCS.c **** }
ARM GAS  C:\Users\Xwx47\AppData\Local\Temp\cc5OEXcK.s 			page 40


 1516              		.loc 1 693 0
 1517              		@ sp needed
 1518 0008 10BD     		pop	{r4, pc}
 1519              		.cfi_endproc
 1520              	.LFE78:
 1521              		.size	nRF24_startListening, .-nRF24_startListening
 1522 000a C046     		.section	.text.nRF24_stopListening,"ax",%progbits
 1523              		.align	2
 1524              		.global	nRF24_stopListening
 1525              		.code	16
 1526              		.thumb_func
 1527              		.type	nRF24_stopListening, %function
 1528              	nRF24_stopListening:
 1529              	.LFB79:
 694:Generated_Source\PSoC4/nRF24_NRF_FUNCS.c **** 
 695:Generated_Source\PSoC4/nRF24_NRF_FUNCS.c **** /**
 696:Generated_Source\PSoC4/nRF24_NRF_FUNCS.c ****  * @brief The nRF24 radio will stop listening.
 697:Generated_Source\PSoC4/nRF24_NRF_FUNCS.c ****  *
 698:Generated_Source\PSoC4/nRF24_NRF_FUNCS.c ****  * This function the pin CE of the nRF24 radio will be set to logic low,
 699:Generated_Source\PSoC4/nRF24_NRF_FUNCS.c ****  * this disable the radio for listening.
 700:Generated_Source\PSoC4/nRF24_NRF_FUNCS.c ****  */
 701:Generated_Source\PSoC4/nRF24_NRF_FUNCS.c **** void nRF24_stopListening(void) {
 1530              		.loc 1 701 0
 1531              		.cfi_startproc
 1532              		@ args = 0, pretend = 0, frame = 0
 1533              		@ frame_needed = 0, uses_anonymous_args = 0
 1534 0000 10B5     		push	{r4, lr}
 1535              		.cfi_def_cfa_offset 8
 1536              		.cfi_offset 4, -8
 1537              		.cfi_offset 14, -4
 702:Generated_Source\PSoC4/nRF24_NRF_FUNCS.c ****     nRF24_listen(false);
 1538              		.loc 1 702 0
 1539 0002 0020     		movs	r0, #0
 1540 0004 FFF7FEFF 		bl	nRF24_listen
 1541              	.LVL146:
 703:Generated_Source\PSoC4/nRF24_NRF_FUNCS.c **** }
 1542              		.loc 1 703 0
 1543              		@ sp needed
 1544 0008 10BD     		pop	{r4, pc}
 1545              		.cfi_endproc
 1546              	.LFE79:
 1547              		.size	nRF24_stopListening, .-nRF24_stopListening
 1548 000a C046     		.section	.text.nRF24_transmitPulse,"ax",%progbits
 1549              		.align	2
 1550              		.global	nRF24_transmitPulse
 1551              		.code	16
 1552              		.thumb_func
 1553              		.type	nRF24_transmitPulse, %function
 1554              	nRF24_transmitPulse:
 1555              	.LFB80:
 704:Generated_Source\PSoC4/nRF24_NRF_FUNCS.c **** 
 705:Generated_Source\PSoC4/nRF24_NRF_FUNCS.c **** /**
 706:Generated_Source\PSoC4/nRF24_NRF_FUNCS.c ****  * @brief Transmit pulse on the CE pin.
 707:Generated_Source\PSoC4/nRF24_NRF_FUNCS.c ****  *
 708:Generated_Source\PSoC4/nRF24_NRF_FUNCS.c ****  * With this function the CE pin of the nRF24 radio will have a pulse of 15us,
 709:Generated_Source\PSoC4/nRF24_NRF_FUNCS.c ****  * this pulse trigger a transmission of the content of the TX FIFO.
 710:Generated_Source\PSoC4/nRF24_NRF_FUNCS.c ****  */
ARM GAS  C:\Users\Xwx47\AppData\Local\Temp\cc5OEXcK.s 			page 41


 711:Generated_Source\PSoC4/nRF24_NRF_FUNCS.c **** void nRF24_transmitPulse(void)
 712:Generated_Source\PSoC4/nRF24_NRF_FUNCS.c **** {
 1556              		.loc 1 712 0
 1557              		.cfi_startproc
 1558              		@ args = 0, pretend = 0, frame = 0
 1559              		@ frame_needed = 0, uses_anonymous_args = 0
 1560 0000 10B5     		push	{r4, lr}
 1561              		.cfi_def_cfa_offset 8
 1562              		.cfi_offset 4, -8
 1563              		.cfi_offset 14, -4
 713:Generated_Source\PSoC4/nRF24_NRF_FUNCS.c **** #if defined(CY_GPIO_H)
 714:Generated_Source\PSoC4/nRF24_NRF_FUNCS.c ****     Cy_GPIO_Set(CE_PORT, CE_NUM);
 715:Generated_Source\PSoC4/nRF24_NRF_FUNCS.c ****     CyDelayUs(NRF_CE_PULSE_WIDTH);
 716:Generated_Source\PSoC4/nRF24_NRF_FUNCS.c ****     Cy_GPIO_Clr(CE_PORT, CE_NUM);
 717:Generated_Source\PSoC4/nRF24_NRF_FUNCS.c **** #else
 718:Generated_Source\PSoC4/nRF24_NRF_FUNCS.c ****     CE_Write(1);
 1564              		.loc 1 718 0
 1565 0002 0120     		movs	r0, #1
 1566 0004 FFF7FEFF 		bl	CE_Write
 1567              	.LVL147:
 719:Generated_Source\PSoC4/nRF24_NRF_FUNCS.c ****     CyDelayUs(NRF_CE_PULSE_WIDTH);
 1568              		.loc 1 719 0
 1569 0008 0F20     		movs	r0, #15
 1570 000a FFF7FEFF 		bl	CyDelayUs
 1571              	.LVL148:
 720:Generated_Source\PSoC4/nRF24_NRF_FUNCS.c ****     CE_Write(0);
 1572              		.loc 1 720 0
 1573 000e 0020     		movs	r0, #0
 1574 0010 FFF7FEFF 		bl	CE_Write
 1575              	.LVL149:
 721:Generated_Source\PSoC4/nRF24_NRF_FUNCS.c **** #endif
 722:Generated_Source\PSoC4/nRF24_NRF_FUNCS.c **** }
 1576              		.loc 1 722 0
 1577              		@ sp needed
 1578 0014 10BD     		pop	{r4, pc}
 1579              		.cfi_endproc
 1580              	.LFE80:
 1581              		.size	nRF24_transmitPulse, .-nRF24_transmitPulse
 1582 0016 C046     		.section	.text.nRF24_PTX_reuseLastTransmittedPayload,"ax",%progbits
 1583              		.align	2
 1584              		.global	nRF24_PTX_reuseLastTransmittedPayload
 1585              		.code	16
 1586              		.thumb_func
 1587              		.type	nRF24_PTX_reuseLastTransmittedPayload, %function
 1588              	nRF24_PTX_reuseLastTransmittedPayload:
 1589              	.LFB68:
 590:Generated_Source\PSoC4/nRF24_NRF_FUNCS.c ****     nRF24_reuseTxPayloadCmd();
 1590              		.loc 1 590 0
 1591              		.cfi_startproc
 1592              		@ args = 0, pretend = 0, frame = 0
 1593              		@ frame_needed = 0, uses_anonymous_args = 0
 1594 0000 10B5     		push	{r4, lr}
 1595              		.cfi_def_cfa_offset 8
 1596              		.cfi_offset 4, -8
 1597              		.cfi_offset 14, -4
 591:Generated_Source\PSoC4/nRF24_NRF_FUNCS.c ****     nRF24_transmitPulse();
 1598              		.loc 1 591 0
ARM GAS  C:\Users\Xwx47\AppData\Local\Temp\cc5OEXcK.s 			page 42


 1599 0002 FFF7FEFF 		bl	nRF24_reuseTxPayloadCmd
 1600              	.LVL150:
 592:Generated_Source\PSoC4/nRF24_NRF_FUNCS.c **** }
 1601              		.loc 1 592 0
 1602 0006 FFF7FEFF 		bl	nRF24_transmitPulse
 1603              	.LVL151:
 593:Generated_Source\PSoC4/nRF24_NRF_FUNCS.c **** 
 1604              		.loc 1 593 0
 1605              		@ sp needed
 1606 000a 10BD     		pop	{r4, pc}
 1607              		.cfi_endproc
 1608              	.LFE68:
 1609              		.size	nRF24_PTX_reuseLastTransmittedPayload, .-nRF24_PTX_reuseLastTransmittedPayload
 1610              		.section	.text.nRF24_getStatus,"ax",%progbits
 1611              		.align	2
 1612              		.global	nRF24_getStatus
 1613              		.code	16
 1614              		.thumb_func
 1615              		.type	nRF24_getStatus, %function
 1616              	nRF24_getStatus:
 1617              	.LFB81:
 723:Generated_Source\PSoC4/nRF24_NRF_FUNCS.c **** 
 724:Generated_Source\PSoC4/nRF24_NRF_FUNCS.c **** /**
 725:Generated_Source\PSoC4/nRF24_NRF_FUNCS.c ****  * @brief Get the STATUS register of the nRF24.
 726:Generated_Source\PSoC4/nRF24_NRF_FUNCS.c ****  *
 727:Generated_Source\PSoC4/nRF24_NRF_FUNCS.c ****  * @return uint8_t: STATUS register of the nRF24.
 728:Generated_Source\PSoC4/nRF24_NRF_FUNCS.c ****  */
 729:Generated_Source\PSoC4/nRF24_NRF_FUNCS.c **** uint8_t nRF24_getStatus(void)
 730:Generated_Source\PSoC4/nRF24_NRF_FUNCS.c **** {
 1618              		.loc 1 730 0
 1619              		.cfi_startproc
 1620              		@ args = 0, pretend = 0, frame = 0
 1621              		@ frame_needed = 0, uses_anonymous_args = 0
 1622 0000 10B5     		push	{r4, lr}
 1623              		.cfi_def_cfa_offset 8
 1624              		.cfi_offset 4, -8
 1625              		.cfi_offset 14, -4
 731:Generated_Source\PSoC4/nRF24_NRF_FUNCS.c ****     return nRF24_NOPCmd();
 1626              		.loc 1 731 0
 1627 0002 FFF7FEFF 		bl	nRF24_NOPCmd
 1628              	.LVL152:
 732:Generated_Source\PSoC4/nRF24_NRF_FUNCS.c **** }
 1629              		.loc 1 732 0
 1630              		@ sp needed
 1631 0006 10BD     		pop	{r4, pc}
 1632              		.cfi_endproc
 1633              	.LFE81:
 1634              		.size	nRF24_getStatus, .-nRF24_getStatus
 1635              		.section	.text.nRF24_getRetransmissionsCount,"ax",%progbits
 1636              		.align	2
 1637              		.global	nRF24_getRetransmissionsCount
 1638              		.code	16
 1639              		.thumb_func
 1640              		.type	nRF24_getRetransmissionsCount, %function
 1641              	nRF24_getRetransmissionsCount:
 1642              	.LFB82:
 733:Generated_Source\PSoC4/nRF24_NRF_FUNCS.c **** 
ARM GAS  C:\Users\Xwx47\AppData\Local\Temp\cc5OEXcK.s 			page 43


 734:Generated_Source\PSoC4/nRF24_NRF_FUNCS.c **** /**
 735:Generated_Source\PSoC4/nRF24_NRF_FUNCS.c ****  * @brief Get the number of retransmissions.
 736:Generated_Source\PSoC4/nRF24_NRF_FUNCS.c ****  *
 737:Generated_Source\PSoC4/nRF24_NRF_FUNCS.c ****  * @return uint8_t: Retransmissions count.
 738:Generated_Source\PSoC4/nRF24_NRF_FUNCS.c ****  */
 739:Generated_Source\PSoC4/nRF24_NRF_FUNCS.c **** uint8_t nRF24_getRetransmissionsCount(void)
 740:Generated_Source\PSoC4/nRF24_NRF_FUNCS.c **** {
 1643              		.loc 1 740 0
 1644              		.cfi_startproc
 1645              		@ args = 0, pretend = 0, frame = 0
 1646              		@ frame_needed = 0, uses_anonymous_args = 0
 1647 0000 10B5     		push	{r4, lr}
 1648              		.cfi_def_cfa_offset 8
 1649              		.cfi_offset 4, -8
 1650              		.cfi_offset 14, -4
 741:Generated_Source\PSoC4/nRF24_NRF_FUNCS.c ****     uint8_t count = nRF24_readRegister(NRF_OBSERVE_TX_REG);
 1651              		.loc 1 741 0
 1652 0002 0820     		movs	r0, #8
 1653 0004 FFF7FEFF 		bl	nRF24_readRegister
 1654              	.LVL153:
 742:Generated_Source\PSoC4/nRF24_NRF_FUNCS.c ****     return count & NRF_OBSERVE_TX_ARC_CNT_MASK;
 1655              		.loc 1 742 0
 1656 0008 0F23     		movs	r3, #15
 1657 000a 1840     		ands	r0, r3
 1658              	.LVL154:
 743:Generated_Source\PSoC4/nRF24_NRF_FUNCS.c **** }
 1659              		.loc 1 743 0
 1660              		@ sp needed
 1661 000c 10BD     		pop	{r4, pc}
 1662              		.cfi_endproc
 1663              	.LFE82:
 1664              		.size	nRF24_getRetransmissionsCount, .-nRF24_getRetransmissionsCount
 1665 000e C046     		.section	.text.nRF24_getLostPacketsCount,"ax",%progbits
 1666              		.align	2
 1667              		.global	nRF24_getLostPacketsCount
 1668              		.code	16
 1669              		.thumb_func
 1670              		.type	nRF24_getLostPacketsCount, %function
 1671              	nRF24_getLostPacketsCount:
 1672              	.LFB83:
 744:Generated_Source\PSoC4/nRF24_NRF_FUNCS.c **** 
 745:Generated_Source\PSoC4/nRF24_NRF_FUNCS.c **** /**
 746:Generated_Source\PSoC4/nRF24_NRF_FUNCS.c ****  * @brief Get the number of lost packets.
 747:Generated_Source\PSoC4/nRF24_NRF_FUNCS.c ****  *
 748:Generated_Source\PSoC4/nRF24_NRF_FUNCS.c ****  * @return uint8_t: Lost packets.
 749:Generated_Source\PSoC4/nRF24_NRF_FUNCS.c ****  */
 750:Generated_Source\PSoC4/nRF24_NRF_FUNCS.c **** uint8_t nRF24_getLostPacketsCount(void)
 751:Generated_Source\PSoC4/nRF24_NRF_FUNCS.c **** {
 1673              		.loc 1 751 0
 1674              		.cfi_startproc
 1675              		@ args = 0, pretend = 0, frame = 0
 1676              		@ frame_needed = 0, uses_anonymous_args = 0
 1677 0000 10B5     		push	{r4, lr}
 1678              		.cfi_def_cfa_offset 8
 1679              		.cfi_offset 4, -8
 1680              		.cfi_offset 14, -4
 752:Generated_Source\PSoC4/nRF24_NRF_FUNCS.c ****     uint8_t lostPackets = nRF24_readRegister(NRF_OBSERVE_TX_REG);
ARM GAS  C:\Users\Xwx47\AppData\Local\Temp\cc5OEXcK.s 			page 44


 1681              		.loc 1 752 0
 1682 0002 0820     		movs	r0, #8
 1683 0004 FFF7FEFF 		bl	nRF24_readRegister
 1684              	.LVL155:
 753:Generated_Source\PSoC4/nRF24_NRF_FUNCS.c ****     lostPackets = lostPackets & NRF_OBSERVE_TX_PLOS_CNT_MASK;
 754:Generated_Source\PSoC4/nRF24_NRF_FUNCS.c ****     return lostPackets >> NRF_OBSERVE_TX_PLOS_CNT;
 1685              		.loc 1 754 0
 1686 0008 0009     		lsrs	r0, r0, #4
 1687              	.LVL156:
 1688 000a C0B2     		uxtb	r0, r0
 755:Generated_Source\PSoC4/nRF24_NRF_FUNCS.c **** }
 1689              		.loc 1 755 0
 1690              		@ sp needed
 1691 000c 10BD     		pop	{r4, pc}
 1692              		.cfi_endproc
 1693              	.LFE83:
 1694              		.size	nRF24_getLostPacketsCount, .-nRF24_getLostPacketsCount
 1695 000e C046     		.section	.text.nRF24_putInTXFIFO,"ax",%progbits
 1696              		.align	2
 1697              		.global	nRF24_putInTXFIFO
 1698              		.code	16
 1699              		.thumb_func
 1700              		.type	nRF24_putInTXFIFO, %function
 1701              	nRF24_putInTXFIFO:
 1702              	.LFB84:
 756:Generated_Source\PSoC4/nRF24_NRF_FUNCS.c **** 
 757:Generated_Source\PSoC4/nRF24_NRF_FUNCS.c **** /**
 758:Generated_Source\PSoC4/nRF24_NRF_FUNCS.c ****  * Put data into the TX FIFO wihout sending it.
 759:Generated_Source\PSoC4/nRF24_NRF_FUNCS.c ****  *
 760:Generated_Source\PSoC4/nRF24_NRF_FUNCS.c ****  * @param const uint8_t* data:
 761:Generated_Source\PSoC4/nRF24_NRF_FUNCS.c ****  * @param const size_t size:
 762:Generated_Source\PSoC4/nRF24_NRF_FUNCS.c ****  */
 763:Generated_Source\PSoC4/nRF24_NRF_FUNCS.c **** void nRF24_putInTXFIFO(const uint8_t* data, size_t size)
 764:Generated_Source\PSoC4/nRF24_NRF_FUNCS.c **** {
 1703              		.loc 1 764 0
 1704              		.cfi_startproc
 1705              		@ args = 0, pretend = 0, frame = 0
 1706              		@ frame_needed = 0, uses_anonymous_args = 0
 1707              	.LVL157:
 1708 0000 10B5     		push	{r4, lr}
 1709              		.cfi_def_cfa_offset 8
 1710              		.cfi_offset 4, -8
 1711              		.cfi_offset 14, -4
 765:Generated_Source\PSoC4/nRF24_NRF_FUNCS.c ****     if (NULL == data) {
 1712              		.loc 1 765 0
 1713 0002 0028     		cmp	r0, #0
 1714 0004 04D0     		beq	.L94
 766:Generated_Source\PSoC4/nRF24_NRF_FUNCS.c ****         return;
 767:Generated_Source\PSoC4/nRF24_NRF_FUNCS.c ****     }
 768:Generated_Source\PSoC4/nRF24_NRF_FUNCS.c **** 
 769:Generated_Source\PSoC4/nRF24_NRF_FUNCS.c ****     if (NRF_MAX_PAYLOAD_SIZE < size) {
 1715              		.loc 1 769 0
 1716 0006 2029     		cmp	r1, #32
 1717 0008 00D9     		bls	.L96
 770:Generated_Source\PSoC4/nRF24_NRF_FUNCS.c ****         size = NRF_MAX_PAYLOAD_SIZE;
 1718              		.loc 1 770 0
 1719 000a 2021     		movs	r1, #32
ARM GAS  C:\Users\Xwx47\AppData\Local\Temp\cc5OEXcK.s 			page 45


 1720              	.LVL158:
 1721              	.L96:
 771:Generated_Source\PSoC4/nRF24_NRF_FUNCS.c ****     }
 772:Generated_Source\PSoC4/nRF24_NRF_FUNCS.c ****     
 773:Generated_Source\PSoC4/nRF24_NRF_FUNCS.c ****     nRF24_writeTXPayloadCmd(data, size);
 1722              		.loc 1 773 0
 1723 000c FFF7FEFF 		bl	nRF24_writeTXPayloadCmd
 1724              	.LVL159:
 1725              	.L94:
 774:Generated_Source\PSoC4/nRF24_NRF_FUNCS.c **** }
 1726              		.loc 1 774 0
 1727              		@ sp needed
 1728 0010 10BD     		pop	{r4, pc}
 1729              		.cfi_endproc
 1730              	.LFE84:
 1731              		.size	nRF24_putInTXFIFO, .-nRF24_putInTXFIFO
 1732 0012 C046     		.section	.text.nRF24_PTX_Transmit,"ax",%progbits
 1733              		.align	2
 1734              		.global	nRF24_PTX_Transmit
 1735              		.code	16
 1736              		.thumb_func
 1737              		.type	nRF24_PTX_Transmit, %function
 1738              	nRF24_PTX_Transmit:
 1739              	.LFB85:
 775:Generated_Source\PSoC4/nRF24_NRF_FUNCS.c **** 
 776:Generated_Source\PSoC4/nRF24_NRF_FUNCS.c **** /**
 777:Generated_Source\PSoC4/nRF24_NRF_FUNCS.c ****  * Put data in TX FIFO and transmit it.
 778:Generated_Source\PSoC4/nRF24_NRF_FUNCS.c ****  *
 779:Generated_Source\PSoC4/nRF24_NRF_FUNCS.c ****  * @param const uint8_t* data:
 780:Generated_Source\PSoC4/nRF24_NRF_FUNCS.c ****  * @param const size_t size:
 781:Generated_Source\PSoC4/nRF24_NRF_FUNCS.c ****  */
 782:Generated_Source\PSoC4/nRF24_NRF_FUNCS.c **** void nRF24_PTX_Transmit(const uint8_t* data, size_t size)
 783:Generated_Source\PSoC4/nRF24_NRF_FUNCS.c **** {
 1740              		.loc 1 783 0
 1741              		.cfi_startproc
 1742              		@ args = 0, pretend = 0, frame = 0
 1743              		@ frame_needed = 0, uses_anonymous_args = 0
 1744              	.LVL160:
 1745 0000 10B5     		push	{r4, lr}
 1746              		.cfi_def_cfa_offset 8
 1747              		.cfi_offset 4, -8
 1748              		.cfi_offset 14, -4
 784:Generated_Source\PSoC4/nRF24_NRF_FUNCS.c ****     if (NULL == data) {
 1749              		.loc 1 784 0
 1750 0002 0028     		cmp	r0, #0
 1751 0004 06D0     		beq	.L98
 785:Generated_Source\PSoC4/nRF24_NRF_FUNCS.c ****         return;
 786:Generated_Source\PSoC4/nRF24_NRF_FUNCS.c ****     }
 787:Generated_Source\PSoC4/nRF24_NRF_FUNCS.c ****     
 788:Generated_Source\PSoC4/nRF24_NRF_FUNCS.c ****     if (NRF_MAX_PAYLOAD_SIZE < size) {
 1752              		.loc 1 788 0
 1753 0006 2029     		cmp	r1, #32
 1754 0008 00D9     		bls	.L100
 789:Generated_Source\PSoC4/nRF24_NRF_FUNCS.c ****         size = NRF_MAX_PAYLOAD_SIZE;
 1755              		.loc 1 789 0
 1756 000a 2021     		movs	r1, #32
 1757              	.LVL161:
ARM GAS  C:\Users\Xwx47\AppData\Local\Temp\cc5OEXcK.s 			page 46


 1758              	.L100:
 790:Generated_Source\PSoC4/nRF24_NRF_FUNCS.c ****     }
 791:Generated_Source\PSoC4/nRF24_NRF_FUNCS.c **** 
 792:Generated_Source\PSoC4/nRF24_NRF_FUNCS.c ****     nRF24_putInTXFIFO(data, size);
 1759              		.loc 1 792 0
 1760 000c FFF7FEFF 		bl	nRF24_putInTXFIFO
 1761              	.LVL162:
 793:Generated_Source\PSoC4/nRF24_NRF_FUNCS.c ****     nRF24_transmitPulse();
 1762              		.loc 1 793 0
 1763 0010 FFF7FEFF 		bl	nRF24_transmitPulse
 1764              	.LVL163:
 1765              	.L98:
 794:Generated_Source\PSoC4/nRF24_NRF_FUNCS.c **** }
 1766              		.loc 1 794 0
 1767              		@ sp needed
 1768 0014 10BD     		pop	{r4, pc}
 1769              		.cfi_endproc
 1770              	.LFE85:
 1771              		.size	nRF24_PTX_Transmit, .-nRF24_PTX_Transmit
 1772 0016 C046     		.section	.text.nRF24_isDataReady,"ax",%progbits
 1773              		.align	2
 1774              		.global	nRF24_isDataReady
 1775              		.code	16
 1776              		.thumb_func
 1777              		.type	nRF24_isDataReady, %function
 1778              	nRF24_isDataReady:
 1779              	.LFB86:
 795:Generated_Source\PSoC4/nRF24_NRF_FUNCS.c **** 
 796:Generated_Source\PSoC4/nRF24_NRF_FUNCS.c **** /**
 797:Generated_Source\PSoC4/nRF24_NRF_FUNCS.c ****  * @brief
 798:Generated_Source\PSoC4/nRF24_NRF_FUNCS.c ****  *
 799:Generated_Source\PSoC4/nRF24_NRF_FUNCS.c ****  * @return bool: True if there's data ready.
 800:Generated_Source\PSoC4/nRF24_NRF_FUNCS.c ****  */
 801:Generated_Source\PSoC4/nRF24_NRF_FUNCS.c **** bool nRF24_isDataReady(void)
 802:Generated_Source\PSoC4/nRF24_NRF_FUNCS.c **** {
 1780              		.loc 1 802 0
 1781              		.cfi_startproc
 1782              		@ args = 0, pretend = 0, frame = 0
 1783              		@ frame_needed = 0, uses_anonymous_args = 0
 1784 0000 10B5     		push	{r4, lr}
 1785              		.cfi_def_cfa_offset 8
 1786              		.cfi_offset 4, -8
 1787              		.cfi_offset 14, -4
 803:Generated_Source\PSoC4/nRF24_NRF_FUNCS.c ****     return NRF_STATUS_RX_DR_MASK & nRF24_getStatus();
 1788              		.loc 1 803 0
 1789 0002 FFF7FEFF 		bl	nRF24_getStatus
 1790              	.LVL164:
 1791 0006 8009     		lsrs	r0, r0, #6
 1792 0008 0123     		movs	r3, #1
 1793 000a 1840     		ands	r0, r3
 804:Generated_Source\PSoC4/nRF24_NRF_FUNCS.c **** }
 1794              		.loc 1 804 0
 1795              		@ sp needed
 1796 000c 10BD     		pop	{r4, pc}
 1797              		.cfi_endproc
 1798              	.LFE86:
 1799              		.size	nRF24_isDataReady, .-nRF24_isDataReady
ARM GAS  C:\Users\Xwx47\AppData\Local\Temp\cc5OEXcK.s 			page 47


 1800 000e C046     		.section	.text.nRF24_getRxPayload,"ax",%progbits
 1801              		.align	2
 1802              		.global	nRF24_getRxPayload
 1803              		.code	16
 1804              		.thumb_func
 1805              		.type	nRF24_getRxPayload, %function
 1806              	nRF24_getRxPayload:
 1807              	.LFB87:
 805:Generated_Source\PSoC4/nRF24_NRF_FUNCS.c **** 
 806:Generated_Source\PSoC4/nRF24_NRF_FUNCS.c **** /**
 807:Generated_Source\PSoC4/nRF24_NRF_FUNCS.c ****  * @brief
 808:Generated_Source\PSoC4/nRF24_NRF_FUNCS.c ****  *
 809:Generated_Source\PSoC4/nRF24_NRF_FUNCS.c ****  * @param uint8_t* data:
 810:Generated_Source\PSoC4/nRF24_NRF_FUNCS.c ****  * @param const size_t size:
 811:Generated_Source\PSoC4/nRF24_NRF_FUNCS.c ****  */
 812:Generated_Source\PSoC4/nRF24_NRF_FUNCS.c **** void nRF24_getRxPayload(uint8_t* data, const size_t size)
 813:Generated_Source\PSoC4/nRF24_NRF_FUNCS.c **** {
 1808              		.loc 1 813 0
 1809              		.cfi_startproc
 1810              		@ args = 0, pretend = 0, frame = 0
 1811              		@ frame_needed = 0, uses_anonymous_args = 0
 1812              	.LVL165:
 1813 0000 70B5     		push	{r4, r5, r6, lr}
 1814              		.cfi_def_cfa_offset 16
 1815              		.cfi_offset 4, -16
 1816              		.cfi_offset 5, -12
 1817              		.cfi_offset 6, -8
 1818              		.cfi_offset 14, -4
 1819 0002 0400     		movs	r4, r0
 1820 0004 0D00     		movs	r5, r1
 814:Generated_Source\PSoC4/nRF24_NRF_FUNCS.c ****     if (NULL == data) {
 1821              		.loc 1 814 0
 1822 0006 0028     		cmp	r0, #0
 1823 0008 09D0     		beq	.L103
 815:Generated_Source\PSoC4/nRF24_NRF_FUNCS.c ****         return;
 816:Generated_Source\PSoC4/nRF24_NRF_FUNCS.c ****     }
 817:Generated_Source\PSoC4/nRF24_NRF_FUNCS.c **** #if defined(CY_GPIO_H)
 818:Generated_Source\PSoC4/nRF24_NRF_FUNCS.c ****     Cy_GPIO_Clr(CE_PORT, CE_NUM);
 819:Generated_Source\PSoC4/nRF24_NRF_FUNCS.c ****     nRF24_readRXPayloadCmd(data, size);
 820:Generated_Source\PSoC4/nRF24_NRF_FUNCS.c ****     Cy_GPIO_Set(CE_PORT, CE_NUM);
 821:Generated_Source\PSoC4/nRF24_NRF_FUNCS.c **** #else
 822:Generated_Source\PSoC4/nRF24_NRF_FUNCS.c ****     CE_Write(0);
 1824              		.loc 1 822 0
 1825 000a 0020     		movs	r0, #0
 1826              	.LVL166:
 1827 000c FFF7FEFF 		bl	CE_Write
 1828              	.LVL167:
 823:Generated_Source\PSoC4/nRF24_NRF_FUNCS.c ****     nRF24_readRXPayloadCmd(data, size);
 1829              		.loc 1 823 0
 1830 0010 2900     		movs	r1, r5
 1831 0012 2000     		movs	r0, r4
 1832 0014 FFF7FEFF 		bl	nRF24_readRXPayloadCmd
 1833              	.LVL168:
 824:Generated_Source\PSoC4/nRF24_NRF_FUNCS.c ****     CE_Write(1);
 1834              		.loc 1 824 0
 1835 0018 0120     		movs	r0, #1
 1836 001a FFF7FEFF 		bl	CE_Write
ARM GAS  C:\Users\Xwx47\AppData\Local\Temp\cc5OEXcK.s 			page 48


 1837              	.LVL169:
 1838              	.L103:
 825:Generated_Source\PSoC4/nRF24_NRF_FUNCS.c **** #endif
 826:Generated_Source\PSoC4/nRF24_NRF_FUNCS.c **** }
 1839              		.loc 1 826 0
 1840              		@ sp needed
 1841              	.LVL170:
 1842              	.LVL171:
 1843 001e 70BD     		pop	{r4, r5, r6, pc}
 1844              		.cfi_endproc
 1845              	.LFE87:
 1846              		.size	nRF24_getRxPayload, .-nRF24_getRxPayload
 1847              		.section	.text.nRF24_txTransmitWaitNoACK,"ax",%progbits
 1848              		.align	2
 1849              		.global	nRF24_txTransmitWaitNoACK
 1850              		.code	16
 1851              		.thumb_func
 1852              		.type	nRF24_txTransmitWaitNoACK, %function
 1853              	nRF24_txTransmitWaitNoACK:
 1854              	.LFB88:
 827:Generated_Source\PSoC4/nRF24_NRF_FUNCS.c **** 
 828:Generated_Source\PSoC4/nRF24_NRF_FUNCS.c **** /**
 829:Generated_Source\PSoC4/nRF24_NRF_FUNCS.c ****  * @brief
 830:Generated_Source\PSoC4/nRF24_NRF_FUNCS.c ****  *
 831:Generated_Source\PSoC4/nRF24_NRF_FUNCS.c ****  * @param const uint8_t* data:
 832:Generated_Source\PSoC4/nRF24_NRF_FUNCS.c ****  * @param size_t size:
 833:Generated_Source\PSoC4/nRF24_NRF_FUNCS.c ****  */
 834:Generated_Source\PSoC4/nRF24_NRF_FUNCS.c **** void nRF24_txTransmitWaitNoACK(const uint8_t* data, size_t size)
 835:Generated_Source\PSoC4/nRF24_NRF_FUNCS.c **** {
 1855              		.loc 1 835 0
 1856              		.cfi_startproc
 1857              		@ args = 0, pretend = 0, frame = 0
 1858              		@ frame_needed = 0, uses_anonymous_args = 0
 1859              	.LVL172:
 1860 0000 10B5     		push	{r4, lr}
 1861              		.cfi_def_cfa_offset 8
 1862              		.cfi_offset 4, -8
 1863              		.cfi_offset 14, -4
 836:Generated_Source\PSoC4/nRF24_NRF_FUNCS.c ****     if (NULL == data) {
 1864              		.loc 1 836 0
 1865 0002 0028     		cmp	r0, #0
 1866 0004 05D0     		beq	.L105
 837:Generated_Source\PSoC4/nRF24_NRF_FUNCS.c ****         return;
 838:Generated_Source\PSoC4/nRF24_NRF_FUNCS.c ****     }
 839:Generated_Source\PSoC4/nRF24_NRF_FUNCS.c **** 
 840:Generated_Source\PSoC4/nRF24_NRF_FUNCS.c ****     if (NRF_MAX_PAYLOAD_SIZE < size) {
 1867              		.loc 1 840 0
 1868 0006 2029     		cmp	r1, #32
 1869 0008 03D8     		bhi	.L105
 841:Generated_Source\PSoC4/nRF24_NRF_FUNCS.c ****         return;
 842:Generated_Source\PSoC4/nRF24_NRF_FUNCS.c ****     }
 843:Generated_Source\PSoC4/nRF24_NRF_FUNCS.c ****     
 844:Generated_Source\PSoC4/nRF24_NRF_FUNCS.c ****     nRF24_noACKPayloadCmd(data, size);
 1870              		.loc 1 844 0
 1871 000a FFF7FEFF 		bl	nRF24_noACKPayloadCmd
 1872              	.LVL173:
 845:Generated_Source\PSoC4/nRF24_NRF_FUNCS.c ****     nRF24_transmitPulse();
ARM GAS  C:\Users\Xwx47\AppData\Local\Temp\cc5OEXcK.s 			page 49


 1873              		.loc 1 845 0
 1874 000e FFF7FEFF 		bl	nRF24_transmitPulse
 1875              	.LVL174:
 1876              	.L105:
 846:Generated_Source\PSoC4/nRF24_NRF_FUNCS.c **** }
 1877              		.loc 1 846 0
 1878              		@ sp needed
 1879 0012 10BD     		pop	{r4, pc}
 1880              		.cfi_endproc
 1881              	.LFE88:
 1882              		.size	nRF24_txTransmitWaitNoACK, .-nRF24_txTransmitWaitNoACK
 1883              		.section	.text.nRF24_rxWritePayload,"ax",%progbits
 1884              		.align	2
 1885              		.global	nRF24_rxWritePayload
 1886              		.code	16
 1887              		.thumb_func
 1888              		.type	nRF24_rxWritePayload, %function
 1889              	nRF24_rxWritePayload:
 1890              	.LFB89:
 847:Generated_Source\PSoC4/nRF24_NRF_FUNCS.c **** 
 848:Generated_Source\PSoC4/nRF24_NRF_FUNCS.c **** /**
 849:Generated_Source\PSoC4/nRF24_NRF_FUNCS.c ****  * @brief
 850:Generated_Source\PSoC4/nRF24_NRF_FUNCS.c ****  *
 851:Generated_Source\PSoC4/nRF24_NRF_FUNCS.c ****  * @param const NrfPipe pipe:
 852:Generated_Source\PSoC4/nRF24_NRF_FUNCS.c ****  * @param const uint8_t* data:
 853:Generated_Source\PSoC4/nRF24_NRF_FUNCS.c ****  * @param size_t size:
 854:Generated_Source\PSoC4/nRF24_NRF_FUNCS.c ****  */
 855:Generated_Source\PSoC4/nRF24_NRF_FUNCS.c **** void nRF24_rxWritePayload(const NrfPipe pipe, const uint8_t* data,
 856:Generated_Source\PSoC4/nRF24_NRF_FUNCS.c ****                                      size_t size)
 857:Generated_Source\PSoC4/nRF24_NRF_FUNCS.c **** {
 1891              		.loc 1 857 0
 1892              		.cfi_startproc
 1893              		@ args = 0, pretend = 0, frame = 0
 1894              		@ frame_needed = 0, uses_anonymous_args = 0
 1895              	.LVL175:
 1896 0000 10B5     		push	{r4, lr}
 1897              		.cfi_def_cfa_offset 8
 1898              		.cfi_offset 4, -8
 1899              		.cfi_offset 14, -4
 858:Generated_Source\PSoC4/nRF24_NRF_FUNCS.c ****     if (NULL == data) {
 1900              		.loc 1 858 0
 1901 0002 0029     		cmp	r1, #0
 1902 0004 04D0     		beq	.L107
 859:Generated_Source\PSoC4/nRF24_NRF_FUNCS.c ****         return;
 860:Generated_Source\PSoC4/nRF24_NRF_FUNCS.c ****     }
 861:Generated_Source\PSoC4/nRF24_NRF_FUNCS.c **** 
 862:Generated_Source\PSoC4/nRF24_NRF_FUNCS.c ****     if (NRF_MAX_PAYLOAD_SIZE < size) {
 1903              		.loc 1 862 0
 1904 0006 202A     		cmp	r2, #32
 1905 0008 00D9     		bls	.L109
 863:Generated_Source\PSoC4/nRF24_NRF_FUNCS.c ****         size = NRF_MAX_PAYLOAD_SIZE;
 1906              		.loc 1 863 0
 1907 000a 2022     		movs	r2, #32
 1908              	.LVL176:
 1909              	.L109:
 864:Generated_Source\PSoC4/nRF24_NRF_FUNCS.c ****     }
 865:Generated_Source\PSoC4/nRF24_NRF_FUNCS.c ****     
ARM GAS  C:\Users\Xwx47\AppData\Local\Temp\cc5OEXcK.s 			page 50


 866:Generated_Source\PSoC4/nRF24_NRF_FUNCS.c ****     nRF24_writeACKPayloadCmd(pipe, data, size);
 1910              		.loc 1 866 0
 1911 000c FFF7FEFF 		bl	nRF24_writeACKPayloadCmd
 1912              	.LVL177:
 1913              	.L107:
 867:Generated_Source\PSoC4/nRF24_NRF_FUNCS.c **** }
 1914              		.loc 1 867 0
 1915              		@ sp needed
 1916 0010 10BD     		pop	{r4, pc}
 1917              		.cfi_endproc
 1918              	.LFE89:
 1919              		.size	nRF24_rxWritePayload, .-nRF24_rxWritePayload
 1920 0012 C046     		.section	.text.nRF24_getDataPipeWithPayload,"ax",%progbits
 1921              		.align	2
 1922              		.global	nRF24_getDataPipeWithPayload
 1923              		.code	16
 1924              		.thumb_func
 1925              		.type	nRF24_getDataPipeWithPayload, %function
 1926              	nRF24_getDataPipeWithPayload:
 1927              	.LFB90:
 868:Generated_Source\PSoC4/nRF24_NRF_FUNCS.c **** 
 869:Generated_Source\PSoC4/nRF24_NRF_FUNCS.c **** /**
 870:Generated_Source\PSoC4/nRF24_NRF_FUNCS.c ****  * Return the pipe number with data.
 871:Generated_Source\PSoC4/nRF24_NRF_FUNCS.c ****  *
 872:Generated_Source\PSoC4/nRF24_NRF_FUNCS.c ****  * @return uint8_t:
 873:Generated_Source\PSoC4/nRF24_NRF_FUNCS.c ****  */
 874:Generated_Source\PSoC4/nRF24_NRF_FUNCS.c **** uint8_t nRF24_getDataPipeWithPayload(void)
 875:Generated_Source\PSoC4/nRF24_NRF_FUNCS.c **** {
 1928              		.loc 1 875 0
 1929              		.cfi_startproc
 1930              		@ args = 0, pretend = 0, frame = 0
 1931              		@ frame_needed = 0, uses_anonymous_args = 0
 1932 0000 10B5     		push	{r4, lr}
 1933              		.cfi_def_cfa_offset 8
 1934              		.cfi_offset 4, -8
 1935              		.cfi_offset 14, -4
 876:Generated_Source\PSoC4/nRF24_NRF_FUNCS.c ****     uint8_t pipe = nRF24_readRegister(NRF_STATUS_REG);
 1936              		.loc 1 876 0
 1937 0002 0720     		movs	r0, #7
 1938 0004 FFF7FEFF 		bl	nRF24_readRegister
 1939              	.LVL178:
 877:Generated_Source\PSoC4/nRF24_NRF_FUNCS.c ****     return (pipe & NRF_STATUS_PIPES_MASK) >> NRF_STATUS_PIPES_SHIFT;
 1940              		.loc 1 877 0
 1941 0008 4010     		asrs	r0, r0, #1
 1942              	.LVL179:
 1943 000a 0723     		movs	r3, #7
 1944 000c 1840     		ands	r0, r3
 878:Generated_Source\PSoC4/nRF24_NRF_FUNCS.c **** }
 1945              		.loc 1 878 0
 1946              		@ sp needed
 1947 000e 10BD     		pop	{r4, pc}
 1948              		.cfi_endproc
 1949              	.LFE90:
 1950              		.size	nRF24_getDataPipeWithPayload, .-nRF24_getDataPipeWithPayload
 1951              		.section	.text.nRF24_PRX_receivedPowerDetector,"ax",%progbits
 1952              		.align	2
 1953              		.global	nRF24_PRX_receivedPowerDetector
ARM GAS  C:\Users\Xwx47\AppData\Local\Temp\cc5OEXcK.s 			page 51


 1954              		.code	16
 1955              		.thumb_func
 1956              		.type	nRF24_PRX_receivedPowerDetector, %function
 1957              	nRF24_PRX_receivedPowerDetector:
 1958              	.LFB91:
 879:Generated_Source\PSoC4/nRF24_NRF_FUNCS.c **** 
 880:Generated_Source\PSoC4/nRF24_NRF_FUNCS.c **** /**
 881:Generated_Source\PSoC4/nRF24_NRF_FUNCS.c ****  * @brief
 882:Generated_Source\PSoC4/nRF24_NRF_FUNCS.c ****  *
 883:Generated_Source\PSoC4/nRF24_NRF_FUNCS.c ****  * @return uint8_t:
 884:Generated_Source\PSoC4/nRF24_NRF_FUNCS.c ****  */
 885:Generated_Source\PSoC4/nRF24_NRF_FUNCS.c **** uint8_t nRF24_PRX_receivedPowerDetector(void)
 886:Generated_Source\PSoC4/nRF24_NRF_FUNCS.c **** {
 1959              		.loc 1 886 0
 1960              		.cfi_startproc
 1961              		@ args = 0, pretend = 0, frame = 0
 1962              		@ frame_needed = 0, uses_anonymous_args = 0
 1963 0000 10B5     		push	{r4, lr}
 1964              		.cfi_def_cfa_offset 8
 1965              		.cfi_offset 4, -8
 1966              		.cfi_offset 14, -4
 887:Generated_Source\PSoC4/nRF24_NRF_FUNCS.c ****     return nRF24_readBit(NRF_RPD_REG, NRF_RPD_RPD);
 1967              		.loc 1 887 0
 1968 0002 0021     		movs	r1, #0
 1969 0004 0920     		movs	r0, #9
 1970 0006 FFF7FEFF 		bl	nRF24_readBit
 1971              	.LVL180:
 888:Generated_Source\PSoC4/nRF24_NRF_FUNCS.c **** }
 1972              		.loc 1 888 0
 1973              		@ sp needed
 1974 000a 10BD     		pop	{r4, pc}
 1975              		.cfi_endproc
 1976              	.LFE91:
 1977              		.size	nRF24_PRX_receivedPowerDetector, .-nRF24_PRX_receivedPowerDetector
 1978              		.section	.text.nRF24_isTXFIFOFull,"ax",%progbits
 1979              		.align	2
 1980              		.global	nRF24_isTXFIFOFull
 1981              		.code	16
 1982              		.thumb_func
 1983              		.type	nRF24_isTXFIFOFull, %function
 1984              	nRF24_isTXFIFOFull:
 1985              	.LFB92:
 889:Generated_Source\PSoC4/nRF24_NRF_FUNCS.c **** 
 890:Generated_Source\PSoC4/nRF24_NRF_FUNCS.c **** /**
 891:Generated_Source\PSoC4/nRF24_NRF_FUNCS.c ****  * @return bool: true if the TX FIFO is full, false if it have available
 892:Generated_Source\PSoC4/nRF24_NRF_FUNCS.c ****  * locations.
 893:Generated_Source\PSoC4/nRF24_NRF_FUNCS.c ****  */
 894:Generated_Source\PSoC4/nRF24_NRF_FUNCS.c **** bool nRF24_isTXFIFOFull(void)
 895:Generated_Source\PSoC4/nRF24_NRF_FUNCS.c **** {
 1986              		.loc 1 895 0
 1987              		.cfi_startproc
 1988              		@ args = 0, pretend = 0, frame = 0
 1989              		@ frame_needed = 0, uses_anonymous_args = 0
 1990 0000 10B5     		push	{r4, lr}
 1991              		.cfi_def_cfa_offset 8
 1992              		.cfi_offset 4, -8
 1993              		.cfi_offset 14, -4
ARM GAS  C:\Users\Xwx47\AppData\Local\Temp\cc5OEXcK.s 			page 52


 896:Generated_Source\PSoC4/nRF24_NRF_FUNCS.c ****     return nRF24_readBit(NRF_FIFO_STATUS_REG, NRF_FIFO_STATUS_TX_FULL);
 1994              		.loc 1 896 0
 1995 0002 0521     		movs	r1, #5
 1996 0004 1720     		movs	r0, #23
 1997 0006 FFF7FEFF 		bl	nRF24_readBit
 1998              	.LVL181:
 897:Generated_Source\PSoC4/nRF24_NRF_FUNCS.c **** }
 1999              		.loc 1 897 0
 2000              		@ sp needed
 2001 000a 10BD     		pop	{r4, pc}
 2002              		.cfi_endproc
 2003              	.LFE92:
 2004              		.size	nRF24_isTXFIFOFull, .-nRF24_isTXFIFOFull
 2005              		.section	.text.nRF24_isRXFIFOEmpty,"ax",%progbits
 2006              		.align	2
 2007              		.global	nRF24_isRXFIFOEmpty
 2008              		.code	16
 2009              		.thumb_func
 2010              		.type	nRF24_isRXFIFOEmpty, %function
 2011              	nRF24_isRXFIFOEmpty:
 2012              	.LFB93:
 898:Generated_Source\PSoC4/nRF24_NRF_FUNCS.c **** 
 899:Generated_Source\PSoC4/nRF24_NRF_FUNCS.c **** /**
 900:Generated_Source\PSoC4/nRF24_NRF_FUNCS.c ****  * @return bool: true if the RX FIFO es empty, false if any pipe have data.
 901:Generated_Source\PSoC4/nRF24_NRF_FUNCS.c ****  */
 902:Generated_Source\PSoC4/nRF24_NRF_FUNCS.c **** bool nRF24_isRXFIFOEmpty(void)
 903:Generated_Source\PSoC4/nRF24_NRF_FUNCS.c **** {
 2013              		.loc 1 903 0
 2014              		.cfi_startproc
 2015              		@ args = 0, pretend = 0, frame = 0
 2016              		@ frame_needed = 0, uses_anonymous_args = 0
 2017 0000 10B5     		push	{r4, lr}
 2018              		.cfi_def_cfa_offset 8
 2019              		.cfi_offset 4, -8
 2020              		.cfi_offset 14, -4
 904:Generated_Source\PSoC4/nRF24_NRF_FUNCS.c ****     return nRF24_readBit(NRF_FIFO_STATUS_REG, NRF_FIFO_STATUS_RX_EMPTY);
 2021              		.loc 1 904 0
 2022 0002 0021     		movs	r1, #0
 2023 0004 1720     		movs	r0, #23
 2024 0006 FFF7FEFF 		bl	nRF24_readBit
 2025              	.LVL182:
 905:Generated_Source\PSoC4/nRF24_NRF_FUNCS.c **** }
 2026              		.loc 1 905 0
 2027              		@ sp needed
 2028 000a 10BD     		pop	{r4, pc}
 2029              		.cfi_endproc
 2030              	.LFE93:
 2031              		.size	nRF24_isRXFIFOEmpty, .-nRF24_isRXFIFOEmpty
 2032              		.section	.text.nRF24_clearAllIRQs,"ax",%progbits
 2033              		.align	2
 2034              		.global	nRF24_clearAllIRQs
 2035              		.code	16
 2036              		.thumb_func
 2037              		.type	nRF24_clearAllIRQs, %function
 2038              	nRF24_clearAllIRQs:
 2039              	.LFB94:
 906:Generated_Source\PSoC4/nRF24_NRF_FUNCS.c **** 
ARM GAS  C:\Users\Xwx47\AppData\Local\Temp\cc5OEXcK.s 			page 53


 907:Generated_Source\PSoC4/nRF24_NRF_FUNCS.c **** /**
 908:Generated_Source\PSoC4/nRF24_NRF_FUNCS.c ****  * This function will write 1 to all the three IRQ "flag" bits on the
 909:Generated_Source\PSoC4/nRF24_NRF_FUNCS.c ****  * STATUS register.
 910:Generated_Source\PSoC4/nRF24_NRF_FUNCS.c ****  */
 911:Generated_Source\PSoC4/nRF24_NRF_FUNCS.c **** void nRF24_clearAllIRQs(void)
 912:Generated_Source\PSoC4/nRF24_NRF_FUNCS.c **** {
 2040              		.loc 1 912 0
 2041              		.cfi_startproc
 2042              		@ args = 0, pretend = 0, frame = 0
 2043              		@ frame_needed = 0, uses_anonymous_args = 0
 2044 0000 10B5     		push	{r4, lr}
 2045              		.cfi_def_cfa_offset 8
 2046              		.cfi_offset 4, -8
 2047              		.cfi_offset 14, -4
 913:Generated_Source\PSoC4/nRF24_NRF_FUNCS.c ****     nRF24_writeRegister(NRF_STATUS_REG, NRF_ALL_IRQ_MASK);
 2048              		.loc 1 913 0
 2049 0002 7021     		movs	r1, #112
 2050 0004 0720     		movs	r0, #7
 2051 0006 FFF7FEFF 		bl	nRF24_writeRegister
 2052              	.LVL183:
 914:Generated_Source\PSoC4/nRF24_NRF_FUNCS.c **** }
 2053              		.loc 1 914 0
 2054              		@ sp needed
 2055 000a 10BD     		pop	{r4, pc}
 2056              		.cfi_endproc
 2057              	.LFE94:
 2058              		.size	nRF24_clearAllIRQs, .-nRF24_clearAllIRQs
 2059              		.section	.text.nRF24_start,"ax",%progbits
 2060              		.align	2
 2061              		.global	nRF24_start
 2062              		.code	16
 2063              		.thumb_func
 2064              		.type	nRF24_start, %function
 2065              	nRF24_start:
 2066              	.LFB33:
  35:Generated_Source\PSoC4/nRF24_NRF_FUNCS.c ****     // Recommended delay to start using the nRF24
 2067              		.loc 1 35 0
 2068              		.cfi_startproc
 2069              		@ args = 0, pretend = 0, frame = 0
 2070              		@ frame_needed = 0, uses_anonymous_args = 0
 2071 0000 10B5     		push	{r4, lr}
 2072              		.cfi_def_cfa_offset 8
 2073              		.cfi_offset 4, -8
 2074              		.cfi_offset 14, -4
  37:Generated_Source\PSoC4/nRF24_NRF_FUNCS.c ****     
 2075              		.loc 1 37 0
 2076 0002 6420     		movs	r0, #100
 2077 0004 FFF7FEFF 		bl	CyDelay
 2078              	.LVL184:
  46:Generated_Source\PSoC4/nRF24_NRF_FUNCS.c ****     SS_Write(1);
 2079              		.loc 1 46 0
 2080 0008 0020     		movs	r0, #0
 2081 000a FFF7FEFF 		bl	CE_Write
 2082              	.LVL185:
  47:Generated_Source\PSoC4/nRF24_NRF_FUNCS.c **** #endif
 2083              		.loc 1 47 0
 2084 000e 0120     		movs	r0, #1
ARM GAS  C:\Users\Xwx47\AppData\Local\Temp\cc5OEXcK.s 			page 54


 2085 0010 FFF7FEFF 		bl	SS_Write
 2086              	.LVL186:
  49:Generated_Source\PSoC4/nRF24_NRF_FUNCS.c **** 
 2087              		.loc 1 49 0
 2088 0014 FFF7FEFF 		bl	SPI_Start
 2089              	.LVL187:
  52:Generated_Source\PSoC4/nRF24_NRF_FUNCS.c ****     nRF24_flushTxCmd();
 2090              		.loc 1 52 0
 2091 0018 FFF7FEFF 		bl	nRF24_flushRxCmd
 2092              	.LVL188:
  53:Generated_Source\PSoC4/nRF24_NRF_FUNCS.c ****     // Clear IRQ flags
 2093              		.loc 1 53 0
 2094 001c FFF7FEFF 		bl	nRF24_flushTxCmd
 2095              	.LVL189:
  55:Generated_Source\PSoC4/nRF24_NRF_FUNCS.c ****     
 2096              		.loc 1 55 0
 2097 0020 FFF7FEFF 		bl	nRF24_clearAllIRQs
 2098              	.LVL190:
  58:Generated_Source\PSoC4/nRF24_NRF_FUNCS.c ****     
 2099              		.loc 1 58 0
 2100 0024 FFF7FEFF 		bl	nRF24_init
 2101              	.LVL191:
  61:Generated_Source\PSoC4/nRF24_NRF_FUNCS.c **** }
 2102              		.loc 1 61 0
 2103 0028 9620     		movs	r0, #150
 2104 002a FFF7FEFF 		bl	CyDelayUs
 2105              	.LVL192:
  62:Generated_Source\PSoC4/nRF24_NRF_FUNCS.c **** 
 2106              		.loc 1 62 0
 2107              		@ sp needed
 2108 002e 10BD     		pop	{r4, pc}
 2109              		.cfi_endproc
 2110              	.LFE33:
 2111              		.size	nRF24_start, .-nRF24_start
 2112              		.section	.text.nRF24_clearIRQFlag,"ax",%progbits
 2113              		.align	2
 2114              		.global	nRF24_clearIRQFlag
 2115              		.code	16
 2116              		.thumb_func
 2117              		.type	nRF24_clearIRQFlag, %function
 2118              	nRF24_clearIRQFlag:
 2119              	.LFB95:
 915:Generated_Source\PSoC4/nRF24_NRF_FUNCS.c **** 
 916:Generated_Source\PSoC4/nRF24_NRF_FUNCS.c **** /**
 917:Generated_Source\PSoC4/nRF24_NRF_FUNCS.c ****  * @brief Clears the specific IRQ flag.
 918:Generated_Source\PSoC4/nRF24_NRF_FUNCS.c ****  *
 919:Generated_Source\PSoC4/nRF24_NRF_FUNCS.c ****  * Clear the flag by writing 1 to the interrupt flag bit.
 920:Generated_Source\PSoC4/nRF24_NRF_FUNCS.c ****  *
 921:Generated_Source\PSoC4/nRF24_NRF_FUNCS.c ****  * @param NrfIRQ irq_flag: Interrupt flag to clear.
 922:Generated_Source\PSoC4/nRF24_NRF_FUNCS.c ****  */
 923:Generated_Source\PSoC4/nRF24_NRF_FUNCS.c **** void nRF24_clearIRQFlag(const NrfIRQ irq_flag)
 924:Generated_Source\PSoC4/nRF24_NRF_FUNCS.c **** {
 2120              		.loc 1 924 0
 2121              		.cfi_startproc
 2122              		@ args = 0, pretend = 0, frame = 0
 2123              		@ frame_needed = 0, uses_anonymous_args = 0
 2124              	.LVL193:
ARM GAS  C:\Users\Xwx47\AppData\Local\Temp\cc5OEXcK.s 			page 55


 2125 0000 10B5     		push	{r4, lr}
 2126              		.cfi_def_cfa_offset 8
 2127              		.cfi_offset 4, -8
 2128              		.cfi_offset 14, -4
 925:Generated_Source\PSoC4/nRF24_NRF_FUNCS.c ****     nRF24_writeRegister(NRF_STATUS_REG, (1 << irq_flag));
 2129              		.loc 1 925 0
 2130 0002 0121     		movs	r1, #1
 2131 0004 8140     		lsls	r1, r1, r0
 2132 0006 C9B2     		uxtb	r1, r1
 2133 0008 0720     		movs	r0, #7
 2134              	.LVL194:
 2135 000a FFF7FEFF 		bl	nRF24_writeRegister
 2136              	.LVL195:
 926:Generated_Source\PSoC4/nRF24_NRF_FUNCS.c **** }
 2137              		.loc 1 926 0
 2138              		@ sp needed
 2139 000e 10BD     		pop	{r4, pc}
 2140              		.cfi_endproc
 2141              	.LFE95:
 2142              		.size	nRF24_clearIRQFlag, .-nRF24_clearIRQFlag
 2143              		.section	.text.nRF24_getIRQFlag,"ax",%progbits
 2144              		.align	2
 2145              		.global	nRF24_getIRQFlag
 2146              		.code	16
 2147              		.thumb_func
 2148              		.type	nRF24_getIRQFlag, %function
 2149              	nRF24_getIRQFlag:
 2150              	.LFB96:
 927:Generated_Source\PSoC4/nRF24_NRF_FUNCS.c **** 
 928:Generated_Source\PSoC4/nRF24_NRF_FUNCS.c **** /**
 929:Generated_Source\PSoC4/nRF24_NRF_FUNCS.c ****  * This method is used to get if any of the IRQ "flag" bits on the STATUS
 930:Generated_Source\PSoC4/nRF24_NRF_FUNCS.c ****  * register is set to 1. This function returns 0 is none of the flag bits
 931:Generated_Source\PSoC4/nRF24_NRF_FUNCS.c ****  * is not set to 1.
 932:Generated_Source\PSoC4/nRF24_NRF_FUNCS.c ****  *
 933:Generated_Source\PSoC4/nRF24_NRF_FUNCS.c ****  * @return NrfIRQ: Asserted bit of the interrupt flags.
 934:Generated_Source\PSoC4/nRF24_NRF_FUNCS.c ****  */
 935:Generated_Source\PSoC4/nRF24_NRF_FUNCS.c **** NrfIRQ nRF24_getIRQFlag(void)
 936:Generated_Source\PSoC4/nRF24_NRF_FUNCS.c **** {
 2151              		.loc 1 936 0
 2152              		.cfi_startproc
 2153              		@ args = 0, pretend = 0, frame = 0
 2154              		@ frame_needed = 0, uses_anonymous_args = 0
 2155 0000 10B5     		push	{r4, lr}
 2156              		.cfi_def_cfa_offset 8
 2157              		.cfi_offset 4, -8
 2158              		.cfi_offset 14, -4
 2159              	.LVL196:
 937:Generated_Source\PSoC4/nRF24_NRF_FUNCS.c ****     NrfIRQ irq = NRF_NONE_IRQ;
 938:Generated_Source\PSoC4/nRF24_NRF_FUNCS.c ****     
 939:Generated_Source\PSoC4/nRF24_NRF_FUNCS.c ****     // Get the STATUS register
 940:Generated_Source\PSoC4/nRF24_NRF_FUNCS.c ****     uint8_t sts = nRF24_NOPCmd();
 2160              		.loc 1 940 0
 2161 0002 FFF7FEFF 		bl	nRF24_NOPCmd
 2162              	.LVL197:
 941:Generated_Source\PSoC4/nRF24_NRF_FUNCS.c ****     
 942:Generated_Source\PSoC4/nRF24_NRF_FUNCS.c ****     // We only care if bits 4, 5 or 6 are set, so we mask the STATUS with 0x0111_0000
 943:Generated_Source\PSoC4/nRF24_NRF_FUNCS.c ****     switch (sts & NRF_ALL_IRQ_MASK) {
ARM GAS  C:\Users\Xwx47\AppData\Local\Temp\cc5OEXcK.s 			page 56


 2163              		.loc 1 943 0
 2164 0006 7023     		movs	r3, #112
 2165 0008 1840     		ands	r0, r3
 2166              	.LVL198:
 2167 000a 2028     		cmp	r0, #32
 2168 000c 0AD0     		beq	.L123
 2169 000e 4028     		cmp	r0, #64
 2170 0010 02D0     		beq	.L121
 2171 0012 1028     		cmp	r0, #16
 2172 0014 04D1     		bne	.L124
 2173 0016 01E0     		b	.L122
 2174              	.L121:
 944:Generated_Source\PSoC4/nRF24_NRF_FUNCS.c ****     case NRF_STATUS_RX_DR_MASK:
 945:Generated_Source\PSoC4/nRF24_NRF_FUNCS.c ****         irq = NRF_RX_DR_IRQ;
 2175              		.loc 1 945 0
 2176 0018 0620     		movs	r0, #6
 2177 001a 04E0     		b	.L120
 2178              	.L122:
 2179              	.LVL199:
 946:Generated_Source\PSoC4/nRF24_NRF_FUNCS.c ****         break;
 947:Generated_Source\PSoC4/nRF24_NRF_FUNCS.c ****     case NRF_STATUS_TX_DS_MASK:
 948:Generated_Source\PSoC4/nRF24_NRF_FUNCS.c ****         irq = NRF_TX_DS_IRQ;
 949:Generated_Source\PSoC4/nRF24_NRF_FUNCS.c ****         break;
 950:Generated_Source\PSoC4/nRF24_NRF_FUNCS.c ****     case NRF_STATUS_MAX_RT_MASK:
 951:Generated_Source\PSoC4/nRF24_NRF_FUNCS.c ****         irq = NRF_MAX_RT_IRQ;
 2180              		.loc 1 951 0
 2181 001c 0420     		movs	r0, #4
 952:Generated_Source\PSoC4/nRF24_NRF_FUNCS.c ****         break;
 2182              		.loc 1 952 0
 2183 001e 02E0     		b	.L120
 2184              	.LVL200:
 2185              	.L124:
 953:Generated_Source\PSoC4/nRF24_NRF_FUNCS.c ****     default:
 954:Generated_Source\PSoC4/nRF24_NRF_FUNCS.c ****         irq = NRF_ALL_IRQ_MASK;
 2186              		.loc 1 954 0
 2187 0020 7020     		movs	r0, #112
 955:Generated_Source\PSoC4/nRF24_NRF_FUNCS.c ****         break;
 2188              		.loc 1 955 0
 2189 0022 00E0     		b	.L120
 2190              	.LVL201:
 2191              	.L123:
 948:Generated_Source\PSoC4/nRF24_NRF_FUNCS.c ****         break;
 2192              		.loc 1 948 0
 2193 0024 0520     		movs	r0, #5
 2194              	.LVL202:
 2195              	.L120:
 956:Generated_Source\PSoC4/nRF24_NRF_FUNCS.c ****     }
 957:Generated_Source\PSoC4/nRF24_NRF_FUNCS.c ****     
 958:Generated_Source\PSoC4/nRF24_NRF_FUNCS.c ****     return irq;
 959:Generated_Source\PSoC4/nRF24_NRF_FUNCS.c **** }
 2196              		.loc 1 959 0
 2197              		@ sp needed
 2198 0026 10BD     		pop	{r4, pc}
 2199              		.cfi_endproc
 2200              	.LFE96:
 2201              		.size	nRF24_getIRQFlag, .-nRF24_getIRQFlag
 2202              		.text
ARM GAS  C:\Users\Xwx47\AppData\Local\Temp\cc5OEXcK.s 			page 57


 2203              	.Letext0:
 2204              		.file 2 "c:\\program files (x86)\\cypress\\psoc creator\\4.1\\psoc creator\\import\\gnu\\arm\\5.4.
 2205              		.file 3 "c:\\program files (x86)\\cypress\\psoc creator\\4.1\\psoc creator\\import\\gnu\\arm\\5.4.
 2206              		.file 4 "c:\\program files (x86)\\cypress\\psoc creator\\4.1\\psoc creator\\import\\gnu\\arm\\5.4.
 2207              		.file 5 "Generated_Source\\PSoC4\\nRF24_NRF_REGS.h"
 2208              		.file 6 "Generated_Source\\PSoC4\\nRF24_LL_SPI.h"
 2209              		.file 7 "Generated_Source\\PSoC4\\CE.h"
 2210              		.file 8 "Generated_Source\\PSoC4/CyLib.h"
 2211              		.file 9 "Generated_Source\\PSoC4\\nRF24_NRF_COMMANDS.h"
 2212              		.file 10 "Generated_Source\\PSoC4\\SS.h"
 2213              		.file 11 "Generated_Source\\PSoC4\\SPI.h"