ARM GAS  C:\Users\d3bug\AppData\Local\Temp\ccegkgA8.s 			page 1


   1              		.syntax unified
   2              		.cpu cortex-m0plus
   3              		.fpu softvfp
   4              		.eabi_attribute 20, 1
   5              		.eabi_attribute 21, 1
   6              		.eabi_attribute 23, 3
   7              		.eabi_attribute 24, 1
   8              		.eabi_attribute 25, 1
   9              		.eabi_attribute 26, 1
  10              		.eabi_attribute 30, 1
  11              		.eabi_attribute 34, 0
  12              		.eabi_attribute 18, 4
  13              		.thumb
  14              		.syntax unified
  15              		.file	"main.c"
  16              		.text
  17              	.Ltext0:
  18              		.cfi_sections	.debug_frame
  19              		.section	.text.IRQ_Handler,"ax",%progbits
  20              		.align	2
  21              		.global	IRQ_Handler
  22              		.code	16
  23              		.thumb_func
  24              		.type	IRQ_Handler, %function
  25              	IRQ_Handler:
  26              	.LFB33:
  27              		.file 1 "main.c"
   1:main.c        **** /*
   2:main.c        ****  * 02_EnhancedShockBurst_Tx
   3:main.c        ****  *
   4:main.c        ****  * Configuration based on Appendix A of the nRF24 datasheet.
   5:main.c        ****  *
   6:main.c        ****  * 1. Set PRIM_RX high, all data pipes that receive data must be enabled (EN_RXADDR),
   7:main.c        ****  *    enable auto ack for all pipes running EN_AA, and set the correct payload widths
   8:main.c        ****  *    (RX_PW_Px). Set up addresses.
   9:main.c        ****  * 2. Start Active Rx mode by setting CE high.
  10:main.c        ****  * 3. After 130us nRF24 monitors the air for incomming communication.
  11:main.c        ****  * 4. When a valid packet is received, the payload is stored in the RX FIFO, and
  12:main.c        ****  *    the RX_DR bit in STATUS register is set high. RX_P_NO in STATUS register
  13:main.c        ****  *    indicates what data pipe the payload has been received in.
  14:main.c        ****  * 5. If auto-ack is enabled, an ACK packet is transmitted back, unless the NO_ACK
  15:main.c        ****  *    bit is set in the received packet. If there is a payload in the TX_PLD FIFO,
  16:main.c        ****  *    this payload is added to the ACK packet.
  17:main.c        ****  * 6. MCU sets the CE pin low to enter standby-I mode
  18:main.c        ****  * 7. MCU can clock out the payload data at a suitable rate through the SPI.
  19:main.c        ****  * 8. nRF24 is now ready for entering TX or RX mode or power down mode.
  20:main.c        ****  */
  21:main.c        **** 
  22:main.c        **** #include "project.h"
  23:main.c        **** #include <stdbool.h>
  24:main.c        **** 
  25:main.c        **** volatile bool irq_flag = false;
  26:main.c        **** 
  27:main.c        **** // here we will store the received data
  28:main.c        **** unsigned char data;
  29:main.c        **** 
  30:main.c        **** // Executed when the IRQ pin triggers an interrupt
ARM GAS  C:\Users\d3bug\AppData\Local\Temp\ccegkgA8.s 			page 2


  31:main.c        **** CY_ISR(IRQ_Handler)
  32:main.c        **** {
  28              		.loc 1 32 0
  29              		.cfi_startproc
  30              		@ args = 0, pretend = 0, frame = 0
  31              		@ frame_needed = 0, uses_anonymous_args = 0
  32 0000 10B5     		push	{r4, lr}
  33              		.cfi_def_cfa_offset 8
  34              		.cfi_offset 4, -8
  35              		.cfi_offset 14, -4
  33:main.c        ****     irq_flag = true;
  36              		.loc 1 33 0
  37 0002 0122     		movs	r2, #1
  38 0004 024B     		ldr	r3, .L2
  39 0006 1A70     		strb	r2, [r3]
  34:main.c        ****     IRQ_ClearInterrupt();
  40              		.loc 1 34 0
  41 0008 FFF7FEFF 		bl	IRQ_ClearInterrupt
  42              	.LVL0:
  35:main.c        **** }
  43              		.loc 1 35 0
  44              		@ sp needed
  45 000c 10BD     		pop	{r4, pc}
  46              	.L3:
  47 000e C046     		.align	2
  48              	.L2:
  49 0010 00000000 		.word	.LANCHOR0
  50              		.cfi_endproc
  51              	.LFE33:
  52              		.size	IRQ_Handler, .-IRQ_Handler
  53              		.section	.text.main,"ax",%progbits
  54              		.align	2
  55              		.global	main
  56              		.code	16
  57              		.thumb_func
  58              		.type	main, %function
  59              	main:
  60              	.LFB34:
  36:main.c        **** 
  37:main.c        **** int main(void)
  38:main.c        **** {
  61              		.loc 1 38 0
  62              		.cfi_startproc
  63              		@ args = 0, pretend = 0, frame = 8
  64              		@ frame_needed = 0, uses_anonymous_args = 0
  65 0000 10B5     		push	{r4, lr}
  66              		.cfi_def_cfa_offset 8
  67              		.cfi_offset 4, -8
  68              		.cfi_offset 14, -4
  69 0002 82B0     		sub	sp, sp, #8
  70              		.cfi_def_cfa_offset 16
  39:main.c        ****     CyGlobalIntEnable;
  71              		.loc 1 39 0
  72              		.syntax divided
  73              	@ 39 "main.c" 1
  74 0004 62B6     		CPSIE   i
  75              	@ 0 "" 2
ARM GAS  C:\Users\d3bug\AppData\Local\Temp\ccegkgA8.s 			page 3


  40:main.c        ****     
  41:main.c        ****     const uint8_t RX_ADDR[5]= {0xBA, 0xAD, 0xC0, 0xFF, 0xEE};
  76              		.loc 1 41 0
  77              		.thumb
  78              		.syntax unified
  79 0006 0522     		movs	r2, #5
  80 0008 1C49     		ldr	r1, .L7
  81 000a 6846     		mov	r0, sp
  82 000c FFF7FEFF 		bl	memcpy
  83              	.LVL1:
  42:main.c        ****     
  43:main.c        ****     // Set the Handler for the IRQ interrupt
  44:main.c        ****     isr_IRQ_StartEx(IRQ_Handler);
  84              		.loc 1 44 0
  85 0010 1B48     		ldr	r0, .L7+4
  86 0012 FFF7FEFF 		bl	isr_IRQ_StartEx
  87              	.LVL2:
  45:main.c        ****     
  46:main.c        ****     UART_Start();
  88              		.loc 1 46 0
  89 0016 FFF7FEFF 		bl	UART_Start
  90              	.LVL3:
  47:main.c        ****     UART_PutChar(0x0c);
  91              		.loc 1 47 0
  92 001a 0C20     		movs	r0, #12
  93 001c FFF7FEFF 		bl	UART_PutChar
  94              	.LVL4:
  48:main.c        ****     UART_PutString("Basic project, Rx\r\n");
  95              		.loc 1 48 0
  96 0020 1848     		ldr	r0, .L7+8
  97 0022 FFF7FEFF 		bl	UART_PutString
  98              	.LVL5:
  49:main.c        ****     
  50:main.c        ****     nRF24_start();
  99              		.loc 1 50 0
 100 0026 FFF7FEFF 		bl	nRF24_start
 101              	.LVL6:
  51:main.c        ****     nRF24_set_rx_pipe_address(NRF_ADDR_PIPE0, RX_ADDR, 5);
 102              		.loc 1 51 0
 103 002a 0522     		movs	r2, #5
 104 002c 6946     		mov	r1, sp
 105 002e 0A20     		movs	r0, #10
 106 0030 FFF7FEFF 		bl	nRF24_set_rx_pipe_address
 107              	.LVL7:
  52:main.c        ****     nRF24_set_tx_address(RX_ADDR, 5);
 108              		.loc 1 52 0
 109 0034 0521     		movs	r1, #5
 110 0036 6846     		mov	r0, sp
 111 0038 FFF7FEFF 		bl	nRF24_set_tx_address
 112              	.LVL8:
  53:main.c        ****     nRF24_start_listening();
 113              		.loc 1 53 0
 114 003c FFF7FEFF 		bl	nRF24_start_listening
 115              	.LVL9:
 116              	.L5:
  54:main.c        ****     
  55:main.c        ****     while (1) {
ARM GAS  C:\Users\d3bug\AppData\Local\Temp\ccegkgA8.s 			page 4


  56:main.c        ****         
  57:main.c        ****         if (true == irq_flag) {
 117              		.loc 1 57 0
 118 0040 114B     		ldr	r3, .L7+12
 119 0042 1B78     		ldrb	r3, [r3]
 120 0044 002B     		cmp	r3, #0
 121 0046 FBD0     		beq	.L5
 122              	.LBB2:
  58:main.c        ****             
  59:main.c        ****             // Get and clear the flag that caused the IRQ interrupt,
  60:main.c        ****             // in this project the only IRQ cause is the caused by
  61:main.c        ****             // receiving data (NRF_STATUS_RX_DR_MASK)
  62:main.c        ****             nrf_irq flag = nRF24_get_irq_flag();
 123              		.loc 1 62 0
 124 0048 FFF7FEFF 		bl	nRF24_get_irq_flag
 125              	.LVL10:
  63:main.c        ****             nRF24_clear_irq_flag(flag);
 126              		.loc 1 63 0
 127 004c FFF7FEFF 		bl	nRF24_clear_irq_flag
 128              	.LVL11:
  64:main.c        ****             
  65:main.c        ****             LED_Write(~LED_Read());
 129              		.loc 1 65 0
 130 0050 FFF7FEFF 		bl	LED_Read
 131              	.LVL12:
 132 0054 C043     		mvns	r0, r0
 133 0056 C0B2     		uxtb	r0, r0
 134 0058 FFF7FEFF 		bl	LED_Write
 135              	.LVL13:
  66:main.c        ****             
  67:main.c        ****             // How many bytes are in the pipe0 (data received)?
  68:main.c        ****             uint8_t payload_size = nRF24_get_payload_size(NRF_PLD_SIZE_PIPE0);
 136              		.loc 1 68 0
 137 005c 1120     		movs	r0, #17
 138 005e FFF7FEFF 		bl	nRF24_get_payload_size
 139              	.LVL14:
 140 0062 0100     		movs	r1, r0
 141              	.LVL15:
  69:main.c        ****             
  70:main.c        ****             // get the data from the transmitter
  71:main.c        ****             nRF24_get_rx_payload(&data, payload_size);
 142              		.loc 1 71 0
 143 0064 094C     		ldr	r4, .L7+16
 144 0066 2000     		movs	r0, r4
 145 0068 FFF7FEFF 		bl	nRF24_get_rx_payload
 146              	.LVL16:
  72:main.c        ****             
  73:main.c        ****             // send data via UART
  74:main.c        ****             UART_PutChar(data);
 147              		.loc 1 74 0
 148 006c 2078     		ldrb	r0, [r4]
 149 006e FFF7FEFF 		bl	UART_PutChar
 150              	.LVL17:
  75:main.c        ****             
  76:main.c        ****             irq_flag = false;
 151              		.loc 1 76 0
 152 0072 0022     		movs	r2, #0
ARM GAS  C:\Users\d3bug\AppData\Local\Temp\ccegkgA8.s 			page 5


 153 0074 044B     		ldr	r3, .L7+12
 154 0076 1A70     		strb	r2, [r3]
 155 0078 E2E7     		b	.L5
 156              	.L8:
 157 007a C046     		.align	2
 158              	.L7:
 159 007c 00000000 		.word	.LANCHOR1
 160 0080 00000000 		.word	IRQ_Handler
 161 0084 00000000 		.word	.LC4
 162 0088 00000000 		.word	.LANCHOR0
 163 008c 00000000 		.word	data
 164              	.LBE2:
 165              		.cfi_endproc
 166              	.LFE34:
 167              		.size	main, .-main
 168              		.comm	data,1,1
 169              		.global	irq_flag
 170              		.section	.rodata
 171              		.align	2
 172              		.set	.LANCHOR1,. + 0
 173              	.LC0:
 174 0000 BA       		.byte	-70
 175 0001 AD       		.byte	-83
 176 0002 C0       		.byte	-64
 177 0003 FF       		.byte	-1
 178 0004 EE       		.byte	-18
 179              		.section	.rodata.str1.4,"aMS",%progbits,1
 180              		.align	2
 181              	.LC4:
 182 0000 42617369 		.ascii	"Basic project, Rx\015\012\000"
 182      63207072 
 182      6F6A6563 
 182      742C2052 
 182      780D0A00 
 183              		.bss
 184              		.set	.LANCHOR0,. + 0
 185              		.type	irq_flag, %object
 186              		.size	irq_flag, 1
 187              	irq_flag:
 188 0000 00       		.space	1
 189              		.text
 190              	.Letext0:
 191              		.file 2 "c:\\program files (x86)\\cypress\\psoc creator\\4.2\\psoc creator\\import\\gnu\\arm\\5.4.
 192              		.file 3 "c:\\program files (x86)\\cypress\\psoc creator\\4.2\\psoc creator\\import\\gnu\\arm\\5.4.
 193              		.file 4 "Generated_Source\\PSoC4/nRF24_DEFS.h"
 194              		.file 5 "Generated_Source\\PSoC4/IRQ.h"
 195              		.file 6 "Generated_Source\\PSoC4/nRF24_FUNCS.h"
 196              		.file 7 "Generated_Source\\PSoC4/LED.h"
 197              		.file 8 "Generated_Source\\PSoC4/UART.h"
 198              		.file 9 "Generated_Source\\PSoC4/isr_IRQ.h"