ARM GAS  C:\Users\Xwx47\AppData\Local\Temp\ccJ5AxKs.s 			page 1


   1              		.syntax unified
   2              		.cpu cortex-m0plus
   3              		.fpu softvfp
   4              		.eabi_attribute 20, 1
   5              		.eabi_attribute 21, 1
   6              		.eabi_attribute 23, 3
   7              		.eabi_attribute 24, 1
   8              		.eabi_attribute 25, 1
   9              		.eabi_attribute 26, 1
  10              		.eabi_attribute 30, 1
  11              		.eabi_attribute 34, 0
  12              		.eabi_attribute 18, 4
  13              		.thumb
  14              		.syntax unified
  15              		.file	"nRF24_FUNCS.c"
  16              		.text
  17              	.Ltext0:
  18              		.cfi_sections	.debug_frame
  19              		.section	.text.nRF24_init,"ax",%progbits
  20              		.align	2
  21              		.global	nRF24_init
  22              		.code	16
  23              		.thumb_func
  24              		.type	nRF24_init, %function
  25              	nRF24_init:
  26              	.LFB34:
  27              		.file 1 "Generated_Source\\PSoC4\\nRF24_FUNCS.c"
   1:Generated_Source\PSoC4/nRF24_FUNCS.c **** /****************************************************************************
   2:Generated_Source\PSoC4/nRF24_FUNCS.c **** * This file is part of the nRF24 Custom Component for PSoC Devices.
   3:Generated_Source\PSoC4/nRF24_FUNCS.c **** *
   4:Generated_Source\PSoC4/nRF24_FUNCS.c **** * Copyright (C) 2017 Carlos Diaz <carlos.santiago.diaz@gmail.com>
   5:Generated_Source\PSoC4/nRF24_FUNCS.c **** *
   6:Generated_Source\PSoC4/nRF24_FUNCS.c **** * Permission to use, copy, modify, and/or distribute this software for any
   7:Generated_Source\PSoC4/nRF24_FUNCS.c **** * purpose with or without fee is hereby granted, provided that the above
   8:Generated_Source\PSoC4/nRF24_FUNCS.c **** * copyright notice and this permission notice appear in all copies.
   9:Generated_Source\PSoC4/nRF24_FUNCS.c **** *
  10:Generated_Source\PSoC4/nRF24_FUNCS.c **** * THE SOFTWARE IS PROVIDED "AS IS" AND THE AUTHOR DISCLAIMS ALL WARRANTIES
  11:Generated_Source\PSoC4/nRF24_FUNCS.c **** * WITH REGARD TO THIS SOFTWARE INCLUDING ALL IMPLIED WARRANTIES OF
  12:Generated_Source\PSoC4/nRF24_FUNCS.c **** * MERCHANTABILITY AND FITNESS. IN NO EVENT SHALL THE AUTHOR BE LIABLE FOR
  13:Generated_Source\PSoC4/nRF24_FUNCS.c **** * ANY SPECIAL, DIRECT, INDIRECT, OR CONSEQUENTIAL DAMAGES OR ANY DAMAGES
  14:Generated_Source\PSoC4/nRF24_FUNCS.c **** * WHATSOEVER RESULTING FROM LOSS OF USE, DATA OR PROFITS, WHETHER IN AN
  15:Generated_Source\PSoC4/nRF24_FUNCS.c **** * ACTION OF CONTRACT, NEGLIGENCE OR OTHER TORTIOUS ACTION, ARISING OUT OF
  16:Generated_Source\PSoC4/nRF24_FUNCS.c **** * OR IN CONNECTION WITH THE USE OR PERFORMANCE OF THIS SOFTWARE.
  17:Generated_Source\PSoC4/nRF24_FUNCS.c **** ****************************************************************************/
  18:Generated_Source\PSoC4/nRF24_FUNCS.c **** 
  19:Generated_Source\PSoC4/nRF24_FUNCS.c **** /**
  20:Generated_Source\PSoC4/nRF24_FUNCS.c **** * @file nRF24_NRF_FUNCS.c
  21:Generated_Source\PSoC4/nRF24_FUNCS.c **** *
  22:Generated_Source\PSoC4/nRF24_FUNCS.c **** * @brief This file define all the functions available to the user.
  23:Generated_Source\PSoC4/nRF24_FUNCS.c **** */
  24:Generated_Source\PSoC4/nRF24_FUNCS.c **** 
  25:Generated_Source\PSoC4/nRF24_FUNCS.c **** #include "nRF24_CONFIG.h"
  26:Generated_Source\PSoC4/nRF24_FUNCS.c **** #include "nRF24_LL_SPI.h"
  27:Generated_Source\PSoC4/nRF24_FUNCS.c **** #include "nRF24_COMMANDS.h"
  28:Generated_Source\PSoC4/nRF24_FUNCS.c **** #include "nRF24_FUNCS.h"
  29:Generated_Source\PSoC4/nRF24_FUNCS.c **** #include "nRF24_REGS.h"
  30:Generated_Source\PSoC4/nRF24_FUNCS.c **** 
ARM GAS  C:\Users\Xwx47\AppData\Local\Temp\ccJ5AxKs.s 			page 2


  31:Generated_Source\PSoC4/nRF24_FUNCS.c **** /**
  32:Generated_Source\PSoC4/nRF24_FUNCS.c ****  * @brief Configure the radio and clear IRQs, TX and RX FIFOs.
  33:Generated_Source\PSoC4/nRF24_FUNCS.c ****  */
  34:Generated_Source\PSoC4/nRF24_FUNCS.c **** void nRF24_start(void)
  35:Generated_Source\PSoC4/nRF24_FUNCS.c **** {
  36:Generated_Source\PSoC4/nRF24_FUNCS.c ****     // Recommended delay to start using the nRF24
  37:Generated_Source\PSoC4/nRF24_FUNCS.c ****     CyDelay(NRF_POWER_UP_DELAY);
  38:Generated_Source\PSoC4/nRF24_FUNCS.c ****     
  39:Generated_Source\PSoC4/nRF24_FUNCS.c ****     // Now the radio is in Power Down mode
  40:Generated_Source\PSoC4/nRF24_FUNCS.c ****     
  41:Generated_Source\PSoC4/nRF24_FUNCS.c ****     // Set SS to logic 1, CE to logic 0 and Start the SPI
  42:Generated_Source\PSoC4/nRF24_FUNCS.c **** #if defined(CY_GPIO_H) // PSoC6
  43:Generated_Source\PSoC4/nRF24_FUNCS.c ****     Cy_GPIO_Clr(CE_PORT, CE_NUM);
  44:Generated_Source\PSoC4/nRF24_FUNCS.c ****     Cy_GPIO_Set(SS_PORT, SS_NUM);
  45:Generated_Source\PSoC4/nRF24_FUNCS.c **** #else // PSoC 4 and 5LP
  46:Generated_Source\PSoC4/nRF24_FUNCS.c ****     CE_Write(0);
  47:Generated_Source\PSoC4/nRF24_FUNCS.c ****     SS_Write(1);
  48:Generated_Source\PSoC4/nRF24_FUNCS.c **** #endif
  49:Generated_Source\PSoC4/nRF24_FUNCS.c ****     SPI_Start();
  50:Generated_Source\PSoC4/nRF24_FUNCS.c **** 
  51:Generated_Source\PSoC4/nRF24_FUNCS.c ****     // Flush both nRF24 FIFOs
  52:Generated_Source\PSoC4/nRF24_FUNCS.c ****     nRF24_flush_rx_cmd();
  53:Generated_Source\PSoC4/nRF24_FUNCS.c ****     nRF24_flush_tx_cmd();
  54:Generated_Source\PSoC4/nRF24_FUNCS.c ****     // Clear IRQ flags
  55:Generated_Source\PSoC4/nRF24_FUNCS.c ****     nRF24_clear_all_irqs();
  56:Generated_Source\PSoC4/nRF24_FUNCS.c ****     
  57:Generated_Source\PSoC4/nRF24_FUNCS.c ****     // Configure the nRF24 with the data from the customizer
  58:Generated_Source\PSoC4/nRF24_FUNCS.c ****     nRF24_init();
  59:Generated_Source\PSoC4/nRF24_FUNCS.c ****     
  60:Generated_Source\PSoC4/nRF24_FUNCS.c ****     // After PWR_UP = 1 the radio is in Standby-I mode, 130us of delay for settling
  61:Generated_Source\PSoC4/nRF24_FUNCS.c ****     CyDelayUs(150);
  62:Generated_Source\PSoC4/nRF24_FUNCS.c **** }
  63:Generated_Source\PSoC4/nRF24_FUNCS.c **** 
  64:Generated_Source\PSoC4/nRF24_FUNCS.c **** /**
  65:Generated_Source\PSoC4/nRF24_FUNCS.c ****  * Configure the nRF radio with the data from the customizer.
  66:Generated_Source\PSoC4/nRF24_FUNCS.c ****  */
  67:Generated_Source\PSoC4/nRF24_FUNCS.c **** void nRF24_init(void)
  68:Generated_Source\PSoC4/nRF24_FUNCS.c **** {
  28              		.loc 1 68 0
  29              		.cfi_startproc
  30              		@ args = 0, pretend = 0, frame = 0
  31              		@ frame_needed = 0, uses_anonymous_args = 0
  32 0000 10B5     		push	{r4, lr}
  33              		.cfi_def_cfa_offset 8
  34              		.cfi_offset 4, -8
  35              		.cfi_offset 14, -4
  69:Generated_Source\PSoC4/nRF24_FUNCS.c ****     nRF24_write_register(NRF_EN_AA_REG, CUSTOMIZER_EN_AA);
  36              		.loc 1 69 0
  37 0002 3F21     		movs	r1, #63
  38 0004 0120     		movs	r0, #1
  39 0006 FFF7FEFF 		bl	nRF24_write_register
  40              	.LVL0:
  70:Generated_Source\PSoC4/nRF24_FUNCS.c ****     nRF24_write_register(NRF_EN_RXADDR_REG, CUSTOMIZER_EN_RXADDR);
  41              		.loc 1 70 0
  42 000a 0321     		movs	r1, #3
  43 000c 0220     		movs	r0, #2
  44 000e FFF7FEFF 		bl	nRF24_write_register
ARM GAS  C:\Users\Xwx47\AppData\Local\Temp\ccJ5AxKs.s 			page 3


  45              	.LVL1:
  71:Generated_Source\PSoC4/nRF24_FUNCS.c ****     nRF24_write_register(NRF_SETUP_AW_REG, CUSTOMIZER_SETUP_AW);
  46              		.loc 1 71 0
  47 0012 0321     		movs	r1, #3
  48 0014 0320     		movs	r0, #3
  49 0016 FFF7FEFF 		bl	nRF24_write_register
  50              	.LVL2:
  72:Generated_Source\PSoC4/nRF24_FUNCS.c ****     nRF24_write_register(NRF_SETUP_RETR_REG, CUSTOMIZER_SETUP_RETR);
  51              		.loc 1 72 0
  52 001a 0321     		movs	r1, #3
  53 001c 0420     		movs	r0, #4
  54 001e FFF7FEFF 		bl	nRF24_write_register
  55              	.LVL3:
  73:Generated_Source\PSoC4/nRF24_FUNCS.c ****     nRF24_write_register(NRF_RF_CH_REG, CUSTOMIZER_RF_CH);
  56              		.loc 1 73 0
  57 0022 0221     		movs	r1, #2
  58 0024 0520     		movs	r0, #5
  59 0026 FFF7FEFF 		bl	nRF24_write_register
  60              	.LVL4:
  74:Generated_Source\PSoC4/nRF24_FUNCS.c ****     nRF24_write_register(NRF_RF_SETUP_REG, CUSTOMIZER_RF_SETUP);
  61              		.loc 1 74 0
  62 002a 2621     		movs	r1, #38
  63 002c 0620     		movs	r0, #6
  64 002e FFF7FEFF 		bl	nRF24_write_register
  65              	.LVL5:
  75:Generated_Source\PSoC4/nRF24_FUNCS.c ****     nRF24_write_register(NRF_DYNPD_REG, CUSTOMIZER_DYNPD);
  66              		.loc 1 75 0
  67 0032 0021     		movs	r1, #0
  68 0034 1C20     		movs	r0, #28
  69 0036 FFF7FEFF 		bl	nRF24_write_register
  70              	.LVL6:
  76:Generated_Source\PSoC4/nRF24_FUNCS.c ****     nRF24_write_register(NRF_FEATURE_REG, CUSTOMIZER_FEATURE);
  71              		.loc 1 76 0
  72 003a 0021     		movs	r1, #0
  73 003c 1D20     		movs	r0, #29
  74 003e FFF7FEFF 		bl	nRF24_write_register
  75              	.LVL7:
  77:Generated_Source\PSoC4/nRF24_FUNCS.c **** 
  78:Generated_Source\PSoC4/nRF24_FUNCS.c **** // Configuring data pipes
  79:Generated_Source\PSoC4/nRF24_FUNCS.c **** #if (ENABLE_PIPE0 == 1)
  80:Generated_Source\PSoC4/nRF24_FUNCS.c ****     nRF24_write_register(NRF_RX_PW_P0_REG, CUSTOMIZER_RX_PW_P0);
  76              		.loc 1 80 0
  77 0042 0021     		movs	r1, #0
  78 0044 1120     		movs	r0, #17
  79 0046 FFF7FEFF 		bl	nRF24_write_register
  80              	.LVL8:
  81:Generated_Source\PSoC4/nRF24_FUNCS.c **** #endif
  82:Generated_Source\PSoC4/nRF24_FUNCS.c **** #if (ENABLE_PIPE1 == 1)
  83:Generated_Source\PSoC4/nRF24_FUNCS.c ****     nRF24_write_register(NRF_RX_PW_P1_REG, CUSTOMIZER_RX_PW_P0);
  81              		.loc 1 83 0
  82 004a 0021     		movs	r1, #0
  83 004c 1220     		movs	r0, #18
  84 004e FFF7FEFF 		bl	nRF24_write_register
  85              	.LVL9:
  84:Generated_Source\PSoC4/nRF24_FUNCS.c **** #endif
  85:Generated_Source\PSoC4/nRF24_FUNCS.c **** #if (ENABLE_PIPE2 == 1)
  86:Generated_Source\PSoC4/nRF24_FUNCS.c ****     nRF24_write_register(NRF_RX_ADDR_P2_REG, CUSTOMIZER_RX_ADDR_P2);
ARM GAS  C:\Users\Xwx47\AppData\Local\Temp\ccJ5AxKs.s 			page 4


  87:Generated_Source\PSoC4/nRF24_FUNCS.c ****     nRF24_write_register(NRF_RX_PW_P2_REG, CUSTOMIZER_RX_PW_P0);
  88:Generated_Source\PSoC4/nRF24_FUNCS.c **** #endif
  89:Generated_Source\PSoC4/nRF24_FUNCS.c **** #if (ENABLE_PIPE3 == 1)
  90:Generated_Source\PSoC4/nRF24_FUNCS.c ****     nRF24_write_register(NRF_RX_ADDR_P3_REG, CUSTOMIZER_RX_ADDR_P3);
  91:Generated_Source\PSoC4/nRF24_FUNCS.c ****     nRF24_write_register(NRF_RX_PW_P3_REG, CUSTOMIZER_RX_PW_P0);
  92:Generated_Source\PSoC4/nRF24_FUNCS.c **** #endif
  93:Generated_Source\PSoC4/nRF24_FUNCS.c **** #if (ENABLE_PIPE4 == 1)
  94:Generated_Source\PSoC4/nRF24_FUNCS.c ****     nRF24_write_register(NRF_RX_ADDR_P4_REG, CUSTOMIZER_RX_ADDR_P4);
  95:Generated_Source\PSoC4/nRF24_FUNCS.c ****     nRF24_write_register(NRF_RX_PW_P4_REG, CUSTOMIZER_RX_PW_P0);
  96:Generated_Source\PSoC4/nRF24_FUNCS.c **** #endif
  97:Generated_Source\PSoC4/nRF24_FUNCS.c **** #if (ENABLE_PIPE5 == 1)
  98:Generated_Source\PSoC4/nRF24_FUNCS.c ****     nRF24_write_register(NRF_RX_ADDR_P5_REG, CUSTOMIZER_RX_ADDR_P5);
  99:Generated_Source\PSoC4/nRF24_FUNCS.c ****     nRF24_write_register(NRF_RX_PW_P5_REG, CUSTOMIZER_RX_PW_P0);
 100:Generated_Source\PSoC4/nRF24_FUNCS.c **** #endif
 101:Generated_Source\PSoC4/nRF24_FUNCS.c **** 
 102:Generated_Source\PSoC4/nRF24_FUNCS.c ****     nRF24_write_register( NRF_CONFIG_REG, CUSTOMIZER_CONFIG);
  86              		.loc 1 102 0
  87 0052 0B21     		movs	r1, #11
  88 0054 0020     		movs	r0, #0
  89 0056 FFF7FEFF 		bl	nRF24_write_register
  90              	.LVL10:
 103:Generated_Source\PSoC4/nRF24_FUNCS.c **** }
  91              		.loc 1 103 0
  92              		@ sp needed
  93 005a 10BD     		pop	{r4, pc}
  94              		.cfi_endproc
  95              	.LFE34:
  96              		.size	nRF24_init, .-nRF24_init
  97              		.section	.text.nRF24_enable,"ax",%progbits
  98              		.align	2
  99              		.global	nRF24_enable
 100              		.code	16
 101              		.thumb_func
 102              		.type	nRF24_enable, %function
 103              	nRF24_enable:
 104              	.LFB35:
 104:Generated_Source\PSoC4/nRF24_FUNCS.c **** 
 105:Generated_Source\PSoC4/nRF24_FUNCS.c **** /**
 106:Generated_Source\PSoC4/nRF24_FUNCS.c ****  * Enable the nRF24 radio.
 107:Generated_Source\PSoC4/nRF24_FUNCS.c ****  *
 108:Generated_Source\PSoC4/nRF24_FUNCS.c ****  * @todo Implement this function
 109:Generated_Source\PSoC4/nRF24_FUNCS.c ****  */
 110:Generated_Source\PSoC4/nRF24_FUNCS.c **** void nRF24_enable(void)
 111:Generated_Source\PSoC4/nRF24_FUNCS.c **** {
 105              		.loc 1 111 0
 106              		.cfi_startproc
 107              		@ args = 0, pretend = 0, frame = 0
 108              		@ frame_needed = 0, uses_anonymous_args = 0
 109              		@ link register save eliminated.
 112:Generated_Source\PSoC4/nRF24_FUNCS.c **** }
 110              		.loc 1 112 0
 111              		@ sp needed
 112 0000 7047     		bx	lr
 113              		.cfi_endproc
 114              	.LFE35:
 115              		.size	nRF24_enable, .-nRF24_enable
 116 0002 C046     		.section	.text.nRF24_stop,"ax",%progbits
ARM GAS  C:\Users\Xwx47\AppData\Local\Temp\ccJ5AxKs.s 			page 5


 117              		.align	2
 118              		.global	nRF24_stop
 119              		.code	16
 120              		.thumb_func
 121              		.type	nRF24_stop, %function
 122              	nRF24_stop:
 123              	.LFB36:
 113:Generated_Source\PSoC4/nRF24_FUNCS.c **** 
 114:Generated_Source\PSoC4/nRF24_FUNCS.c **** /**
 115:Generated_Source\PSoC4/nRF24_FUNCS.c ****  * Stop the nRF24 radio.
 116:Generated_Source\PSoC4/nRF24_FUNCS.c ****  *
 117:Generated_Source\PSoC4/nRF24_FUNCS.c ****  * @todo Implement this function
 118:Generated_Source\PSoC4/nRF24_FUNCS.c ****  */
 119:Generated_Source\PSoC4/nRF24_FUNCS.c **** void nRF24_stop(void)
 120:Generated_Source\PSoC4/nRF24_FUNCS.c **** {
 124              		.loc 1 120 0
 125              		.cfi_startproc
 126              		@ args = 0, pretend = 0, frame = 0
 127              		@ frame_needed = 0, uses_anonymous_args = 0
 128              		@ link register save eliminated.
 121:Generated_Source\PSoC4/nRF24_FUNCS.c **** }
 129              		.loc 1 121 0
 130              		@ sp needed
 131 0000 7047     		bx	lr
 132              		.cfi_endproc
 133              	.LFE36:
 134              		.size	nRF24_stop, .-nRF24_stop
 135 0002 C046     		.section	.text.nRF24_wakeup,"ax",%progbits
 136              		.align	2
 137              		.global	nRF24_wakeup
 138              		.code	16
 139              		.thumb_func
 140              		.type	nRF24_wakeup, %function
 141              	nRF24_wakeup:
 142              	.LFB38:
 122:Generated_Source\PSoC4/nRF24_FUNCS.c **** 
 123:Generated_Source\PSoC4/nRF24_FUNCS.c **** /**
 124:Generated_Source\PSoC4/nRF24_FUNCS.c ****  * Put the nRF24 radio on Standby-I mode.
 125:Generated_Source\PSoC4/nRF24_FUNCS.c ****  * This function doesn't put the SPI, MCU nor pins to sleep
 126:Generated_Source\PSoC4/nRF24_FUNCS.c ****  */
 127:Generated_Source\PSoC4/nRF24_FUNCS.c **** void nRF24_sleep(void)
 128:Generated_Source\PSoC4/nRF24_FUNCS.c **** {
 129:Generated_Source\PSoC4/nRF24_FUNCS.c ****     // is standby.I the lowest power mode?
 130:Generated_Source\PSoC4/nRF24_FUNCS.c ****     nRF24_set_standby_i_mode();
 131:Generated_Source\PSoC4/nRF24_FUNCS.c **** }
 132:Generated_Source\PSoC4/nRF24_FUNCS.c **** 
 133:Generated_Source\PSoC4/nRF24_FUNCS.c **** /**
 134:Generated_Source\PSoC4/nRF24_FUNCS.c ****  * Wakeup the nRF24 radio, and restore the configuration.
 135:Generated_Source\PSoC4/nRF24_FUNCS.c ****  *
 136:Generated_Source\PSoC4/nRF24_FUNCS.c ****  * @todo Implement this function.
 137:Generated_Source\PSoC4/nRF24_FUNCS.c ****  */
 138:Generated_Source\PSoC4/nRF24_FUNCS.c **** void nRF24_wakeup(void)
 139:Generated_Source\PSoC4/nRF24_FUNCS.c **** {
 143              		.loc 1 139 0
 144              		.cfi_startproc
 145              		@ args = 0, pretend = 0, frame = 0
 146              		@ frame_needed = 0, uses_anonymous_args = 0
ARM GAS  C:\Users\Xwx47\AppData\Local\Temp\ccJ5AxKs.s 			page 6


 147 0000 10B5     		push	{r4, lr}
 148              		.cfi_def_cfa_offset 8
 149              		.cfi_offset 4, -8
 150              		.cfi_offset 14, -4
 140:Generated_Source\PSoC4/nRF24_FUNCS.c ****     // after leaving standby-I mode the radio need a time to
 141:Generated_Source\PSoC4/nRF24_FUNCS.c ****     // return to TX or RX Mode
 142:Generated_Source\PSoC4/nRF24_FUNCS.c ****     nRF24_set_bit(NRF_CONFIG_REG, NRF_CONFIG_PWR_UP);
 151              		.loc 1 142 0
 152 0002 0121     		movs	r1, #1
 153 0004 0020     		movs	r0, #0
 154 0006 FFF7FEFF 		bl	nRF24_set_bit
 155              	.LVL11:
 143:Generated_Source\PSoC4/nRF24_FUNCS.c ****     CyDelay(5);
 156              		.loc 1 143 0
 157 000a 0520     		movs	r0, #5
 158 000c FFF7FEFF 		bl	CyDelay
 159              	.LVL12:
 144:Generated_Source\PSoC4/nRF24_FUNCS.c **** }
 160              		.loc 1 144 0
 161              		@ sp needed
 162 0010 10BD     		pop	{r4, pc}
 163              		.cfi_endproc
 164              	.LFE38:
 165              		.size	nRF24_wakeup, .-nRF24_wakeup
 166 0012 C046     		.section	.text.nRF24_save_config,"ax",%progbits
 167              		.align	2
 168              		.global	nRF24_save_config
 169              		.code	16
 170              		.thumb_func
 171              		.type	nRF24_save_config, %function
 172              	nRF24_save_config:
 173              	.LFB39:
 145:Generated_Source\PSoC4/nRF24_FUNCS.c **** 
 146:Generated_Source\PSoC4/nRF24_FUNCS.c **** /**
 147:Generated_Source\PSoC4/nRF24_FUNCS.c ****  * Save the nRF24 radio configuration.
 148:Generated_Source\PSoC4/nRF24_FUNCS.c ****  *
 149:Generated_Source\PSoC4/nRF24_FUNCS.c ****  * @todo Implement this function.
 150:Generated_Source\PSoC4/nRF24_FUNCS.c ****  */
 151:Generated_Source\PSoC4/nRF24_FUNCS.c **** void nRF24_save_config(void)
 152:Generated_Source\PSoC4/nRF24_FUNCS.c **** {
 174              		.loc 1 152 0
 175              		.cfi_startproc
 176              		@ args = 0, pretend = 0, frame = 0
 177              		@ frame_needed = 0, uses_anonymous_args = 0
 178              		@ link register save eliminated.
 153:Generated_Source\PSoC4/nRF24_FUNCS.c **** }
 179              		.loc 1 153 0
 180              		@ sp needed
 181 0000 7047     		bx	lr
 182              		.cfi_endproc
 183              	.LFE39:
 184              		.size	nRF24_save_config, .-nRF24_save_config
 185 0002 C046     		.section	.text.nRF24_restore_config,"ax",%progbits
 186              		.align	2
 187              		.global	nRF24_restore_config
 188              		.code	16
 189              		.thumb_func
ARM GAS  C:\Users\Xwx47\AppData\Local\Temp\ccJ5AxKs.s 			page 7


 190              		.type	nRF24_restore_config, %function
 191              	nRF24_restore_config:
 192              	.LFB40:
 154:Generated_Source\PSoC4/nRF24_FUNCS.c **** 
 155:Generated_Source\PSoC4/nRF24_FUNCS.c **** /**
 156:Generated_Source\PSoC4/nRF24_FUNCS.c ****  * Restore the nRF24 radio configuration.
 157:Generated_Source\PSoC4/nRF24_FUNCS.c ****  *
 158:Generated_Source\PSoC4/nRF24_FUNCS.c ****  * @todo Implement this function.
 159:Generated_Source\PSoC4/nRF24_FUNCS.c ****  */
 160:Generated_Source\PSoC4/nRF24_FUNCS.c **** void nRF24_restore_config(void)
 161:Generated_Source\PSoC4/nRF24_FUNCS.c **** {
 193              		.loc 1 161 0
 194              		.cfi_startproc
 195              		@ args = 0, pretend = 0, frame = 0
 196              		@ frame_needed = 0, uses_anonymous_args = 0
 197              		@ link register save eliminated.
 162:Generated_Source\PSoC4/nRF24_FUNCS.c **** }
 198              		.loc 1 162 0
 199              		@ sp needed
 200 0000 7047     		bx	lr
 201              		.cfi_endproc
 202              	.LFE40:
 203              		.size	nRF24_restore_config, .-nRF24_restore_config
 204 0002 C046     		.section	.text.nRF24_set_power_down_mode,"ax",%progbits
 205              		.align	2
 206              		.global	nRF24_set_power_down_mode
 207              		.code	16
 208              		.thumb_func
 209              		.type	nRF24_set_power_down_mode, %function
 210              	nRF24_set_power_down_mode:
 211              	.LFB42:
 163:Generated_Source\PSoC4/nRF24_FUNCS.c **** 
 164:Generated_Source\PSoC4/nRF24_FUNCS.c **** /**
 165:Generated_Source\PSoC4/nRF24_FUNCS.c ****  * Configure the radio as Receiver or Transmitter.
 166:Generated_Source\PSoC4/nRF24_FUNCS.c ****  *
 167:Generated_Source\PSoC4/nRF24_FUNCS.c ****  * @param const nrf_mode mode: The radio can be configured as Receiver (PRX)
 168:Generated_Source\PSoC4/nRF24_FUNCS.c ****  * or Transmitter (PTX).
 169:Generated_Source\PSoC4/nRF24_FUNCS.c ****  */
 170:Generated_Source\PSoC4/nRF24_FUNCS.c **** void nRF24_set_mode(const nrf_mode mode)
 171:Generated_Source\PSoC4/nRF24_FUNCS.c **** {
 172:Generated_Source\PSoC4/nRF24_FUNCS.c ****     mode ? nRF24_set_rx_mode() : nRF24_set_tx_mode();
 173:Generated_Source\PSoC4/nRF24_FUNCS.c **** }
 174:Generated_Source\PSoC4/nRF24_FUNCS.c **** 
 175:Generated_Source\PSoC4/nRF24_FUNCS.c **** /**
 176:Generated_Source\PSoC4/nRF24_FUNCS.c ****  * @brief Set radio in Power Down Mode.
 177:Generated_Source\PSoC4/nRF24_FUNCS.c ****  *
 178:Generated_Source\PSoC4/nRF24_FUNCS.c ****  * In power down mode nRF24 is disabled using minimal current consumption.
 179:Generated_Source\PSoC4/nRF24_FUNCS.c ****  * All register values available are maintained and the SPI is kept active,
 180:Generated_Source\PSoC4/nRF24_FUNCS.c ****  * enabling change of configuration and the uploading/downloading of data
 181:Generated_Source\PSoC4/nRF24_FUNCS.c ****  * registers.
 182:Generated_Source\PSoC4/nRF24_FUNCS.c ****  * Power down mode is entered by setting the PWR_UP bit (CONFIG register) to 0.
 183:Generated_Source\PSoC4/nRF24_FUNCS.c ****  */
 184:Generated_Source\PSoC4/nRF24_FUNCS.c **** void nRF24_set_power_down_mode(void)
 185:Generated_Source\PSoC4/nRF24_FUNCS.c **** {
 212              		.loc 1 185 0
 213              		.cfi_startproc
 214              		@ args = 0, pretend = 0, frame = 0
ARM GAS  C:\Users\Xwx47\AppData\Local\Temp\ccJ5AxKs.s 			page 8


 215              		@ frame_needed = 0, uses_anonymous_args = 0
 216 0000 10B5     		push	{r4, lr}
 217              		.cfi_def_cfa_offset 8
 218              		.cfi_offset 4, -8
 219              		.cfi_offset 14, -4
 186:Generated_Source\PSoC4/nRF24_FUNCS.c ****     nRF24_clear_bit(NRF_CONFIG_REG, NRF_CONFIG_PWR_UP);
 220              		.loc 1 186 0
 221 0002 0121     		movs	r1, #1
 222 0004 0020     		movs	r0, #0
 223 0006 FFF7FEFF 		bl	nRF24_clear_bit
 224              	.LVL13:
 187:Generated_Source\PSoC4/nRF24_FUNCS.c **** }
 225              		.loc 1 187 0
 226              		@ sp needed
 227 000a 10BD     		pop	{r4, pc}
 228              		.cfi_endproc
 229              	.LFE42:
 230              		.size	nRF24_set_power_down_mode, .-nRF24_set_power_down_mode
 231              		.section	.text.nRF24_set_rx_mode,"ax",%progbits
 232              		.align	2
 233              		.global	nRF24_set_rx_mode
 234              		.code	16
 235              		.thumb_func
 236              		.type	nRF24_set_rx_mode, %function
 237              	nRF24_set_rx_mode:
 238              	.LFB45:
 188:Generated_Source\PSoC4/nRF24_FUNCS.c **** 
 189:Generated_Source\PSoC4/nRF24_FUNCS.c **** /**
 190:Generated_Source\PSoC4/nRF24_FUNCS.c ****  * @brief Set the radio in Standby I Mode.
 191:Generated_Source\PSoC4/nRF24_FUNCS.c ****  *
 192:Generated_Source\PSoC4/nRF24_FUNCS.c ****  * By setting the PWR_UP bit in the CONFIG register to 1, the device enters
 193:Generated_Source\PSoC4/nRF24_FUNCS.c ****  * standby-I mode. Standby-I mode is used to minimize average current
 194:Generated_Source\PSoC4/nRF24_FUNCS.c ****  * consumption while maintaining short start up times.
 195:Generated_Source\PSoC4/nRF24_FUNCS.c ****  * In this mode only part of the crystal oscillator is active. Change to
 196:Generated_Source\PSoC4/nRF24_FUNCS.c ****  * active modes only happens if CE is set high and when CE is set low,
 197:Generated_Source\PSoC4/nRF24_FUNCS.c ****  * the nRF24 returns to standby-I mode from both the TX and RX modes.
 198:Generated_Source\PSoC4/nRF24_FUNCS.c ****  */
 199:Generated_Source\PSoC4/nRF24_FUNCS.c **** void nRF24_set_standby_i_mode(void)
 200:Generated_Source\PSoC4/nRF24_FUNCS.c **** {
 201:Generated_Source\PSoC4/nRF24_FUNCS.c **** #if 0
 202:Generated_Source\PSoC4/nRF24_FUNCS.c ****     nRF24_listen(false);
 203:Generated_Source\PSoC4/nRF24_FUNCS.c **** #else
 204:Generated_Source\PSoC4/nRF24_FUNCS.c ****     nRF24_stop_listening();
 205:Generated_Source\PSoC4/nRF24_FUNCS.c **** #endif
 206:Generated_Source\PSoC4/nRF24_FUNCS.c ****     nRF24_set_bit(NRF_CONFIG_REG, NRF_CONFIG_PWR_UP);
 207:Generated_Source\PSoC4/nRF24_FUNCS.c **** }
 208:Generated_Source\PSoC4/nRF24_FUNCS.c **** 
 209:Generated_Source\PSoC4/nRF24_FUNCS.c **** /**
 210:Generated_Source\PSoC4/nRF24_FUNCS.c ****  * @brief Set the radio in Standby II Mode.
 211:Generated_Source\PSoC4/nRF24_FUNCS.c ****  *
 212:Generated_Source\PSoC4/nRF24_FUNCS.c ****  * In standby-II mode extra clock buffers are active and more current is used
 213:Generated_Source\PSoC4/nRF24_FUNCS.c ****  * compared to standby-I mode. nRF24 enters standby-II mode if CE is held high
 214:Generated_Source\PSoC4/nRF24_FUNCS.c ****  * on a TX device with an empty TX FIFO.
 215:Generated_Source\PSoC4/nRF24_FUNCS.c ****  * If a new packet is uploaded to the TX FIFO, the PLL immediately starts and
 216:Generated_Source\PSoC4/nRF24_FUNCS.c ****  * the packet is transmitted after the normal PLL settling  delay (130us).
 217:Generated_Source\PSoC4/nRF24_FUNCS.c ****  */
 218:Generated_Source\PSoC4/nRF24_FUNCS.c **** void nRF24_set_standby_ii_mode(void)
ARM GAS  C:\Users\Xwx47\AppData\Local\Temp\ccJ5AxKs.s 			page 9


 219:Generated_Source\PSoC4/nRF24_FUNCS.c **** {
 220:Generated_Source\PSoC4/nRF24_FUNCS.c **** #if 0
 221:Generated_Source\PSoC4/nRF24_FUNCS.c ****     nRF24_listen(true);
 222:Generated_Source\PSoC4/nRF24_FUNCS.c **** #else
 223:Generated_Source\PSoC4/nRF24_FUNCS.c ****     nRF24_start_listening();
 224:Generated_Source\PSoC4/nRF24_FUNCS.c **** #endif
 225:Generated_Source\PSoC4/nRF24_FUNCS.c ****     nRF24_set_bit(NRF_CONFIG_REG, NRF_CONFIG_PWR_UP);
 226:Generated_Source\PSoC4/nRF24_FUNCS.c **** }
 227:Generated_Source\PSoC4/nRF24_FUNCS.c **** 
 228:Generated_Source\PSoC4/nRF24_FUNCS.c **** /**
 229:Generated_Source\PSoC4/nRF24_FUNCS.c ****  * @brief Set the radio in Receiver (Rx) Mode.
 230:Generated_Source\PSoC4/nRF24_FUNCS.c ****  *
 231:Generated_Source\PSoC4/nRF24_FUNCS.c ****  * RX mode is an active mode where the nRF24 radio is used as receiver. To
 232:Generated_Source\PSoC4/nRF24_FUNCS.c ****  * enter this mode, the nRF24 must have the PWR_UP bit, PRIM_RX bit and the CE
 233:Generated_Source\PSoC4/nRF24_FUNCS.c ****  * pin set high.
 234:Generated_Source\PSoC4/nRF24_FUNCS.c ****  */
 235:Generated_Source\PSoC4/nRF24_FUNCS.c **** void nRF24_set_rx_mode(void)
 236:Generated_Source\PSoC4/nRF24_FUNCS.c **** {
 239              		.loc 1 236 0
 240              		.cfi_startproc
 241              		@ args = 0, pretend = 0, frame = 0
 242              		@ frame_needed = 0, uses_anonymous_args = 0
 243 0000 10B5     		push	{r4, lr}
 244              		.cfi_def_cfa_offset 8
 245              		.cfi_offset 4, -8
 246              		.cfi_offset 14, -4
 237:Generated_Source\PSoC4/nRF24_FUNCS.c ****     nRF24_set_bit(NRF_CONFIG_REG, NRF_CONFIG_PRIM_RX);
 247              		.loc 1 237 0
 248 0002 0021     		movs	r1, #0
 249 0004 0020     		movs	r0, #0
 250 0006 FFF7FEFF 		bl	nRF24_set_bit
 251              	.LVL14:
 238:Generated_Source\PSoC4/nRF24_FUNCS.c **** }
 252              		.loc 1 238 0
 253              		@ sp needed
 254 000a 10BD     		pop	{r4, pc}
 255              		.cfi_endproc
 256              	.LFE45:
 257              		.size	nRF24_set_rx_mode, .-nRF24_set_rx_mode
 258              		.section	.text.nRF24_set_tx_mode,"ax",%progbits
 259              		.align	2
 260              		.global	nRF24_set_tx_mode
 261              		.code	16
 262              		.thumb_func
 263              		.type	nRF24_set_tx_mode, %function
 264              	nRF24_set_tx_mode:
 265              	.LFB46:
 239:Generated_Source\PSoC4/nRF24_FUNCS.c **** 
 240:Generated_Source\PSoC4/nRF24_FUNCS.c **** /**
 241:Generated_Source\PSoC4/nRF24_FUNCS.c ****  * @brief Set the radio in Transmitted (Tx) Mode.
 242:Generated_Source\PSoC4/nRF24_FUNCS.c ****  *
 243:Generated_Source\PSoC4/nRF24_FUNCS.c ****  * TX mode is an active mode for transmitting packets. To enter this mode,
 244:Generated_Source\PSoC4/nRF24_FUNCS.c ****  * the nRF24 must have the PWR_UP bit set high, PRIM_RX bit set low, a payload
 245:Generated_Source\PSoC4/nRF24_FUNCS.c ****  * in the TX FIFO and a high pulse on the CE for more than 10us.
 246:Generated_Source\PSoC4/nRF24_FUNCS.c ****  */
 247:Generated_Source\PSoC4/nRF24_FUNCS.c **** void nRF24_set_tx_mode(void)
 248:Generated_Source\PSoC4/nRF24_FUNCS.c **** {
ARM GAS  C:\Users\Xwx47\AppData\Local\Temp\ccJ5AxKs.s 			page 10


 266              		.loc 1 248 0
 267              		.cfi_startproc
 268              		@ args = 0, pretend = 0, frame = 0
 269              		@ frame_needed = 0, uses_anonymous_args = 0
 270 0000 10B5     		push	{r4, lr}
 271              		.cfi_def_cfa_offset 8
 272              		.cfi_offset 4, -8
 273              		.cfi_offset 14, -4
 249:Generated_Source\PSoC4/nRF24_FUNCS.c ****     nRF24_clear_bit(NRF_CONFIG_REG, NRF_CONFIG_PRIM_RX);
 274              		.loc 1 249 0
 275 0002 0021     		movs	r1, #0
 276 0004 0020     		movs	r0, #0
 277 0006 FFF7FEFF 		bl	nRF24_clear_bit
 278              	.LVL15:
 250:Generated_Source\PSoC4/nRF24_FUNCS.c **** }
 279              		.loc 1 250 0
 280              		@ sp needed
 281 000a 10BD     		pop	{r4, pc}
 282              		.cfi_endproc
 283              	.LFE46:
 284              		.size	nRF24_set_tx_mode, .-nRF24_set_tx_mode
 285              		.section	.text.nRF24_set_mode,"ax",%progbits
 286              		.align	2
 287              		.global	nRF24_set_mode
 288              		.code	16
 289              		.thumb_func
 290              		.type	nRF24_set_mode, %function
 291              	nRF24_set_mode:
 292              	.LFB41:
 171:Generated_Source\PSoC4/nRF24_FUNCS.c ****     mode ? nRF24_set_rx_mode() : nRF24_set_tx_mode();
 293              		.loc 1 171 0
 294              		.cfi_startproc
 295              		@ args = 0, pretend = 0, frame = 0
 296              		@ frame_needed = 0, uses_anonymous_args = 0
 297              	.LVL16:
 298 0000 10B5     		push	{r4, lr}
 299              		.cfi_def_cfa_offset 8
 300              		.cfi_offset 4, -8
 301              		.cfi_offset 14, -4
 172:Generated_Source\PSoC4/nRF24_FUNCS.c **** }
 302              		.loc 1 172 0
 303 0002 0028     		cmp	r0, #0
 304 0004 02D0     		beq	.L11
 172:Generated_Source\PSoC4/nRF24_FUNCS.c **** }
 305              		.loc 1 172 0 is_stmt 0 discriminator 1
 306 0006 FFF7FEFF 		bl	nRF24_set_rx_mode
 307              	.LVL17:
 308 000a 01E0     		b	.L10
 309              	.LVL18:
 310              	.L11:
 172:Generated_Source\PSoC4/nRF24_FUNCS.c **** }
 311              		.loc 1 172 0 discriminator 2
 312 000c FFF7FEFF 		bl	nRF24_set_tx_mode
 313              	.LVL19:
 314              	.L10:
 173:Generated_Source\PSoC4/nRF24_FUNCS.c **** 
 315              		.loc 1 173 0 is_stmt 1
ARM GAS  C:\Users\Xwx47\AppData\Local\Temp\ccJ5AxKs.s 			page 11


 316              		@ sp needed
 317 0010 10BD     		pop	{r4, pc}
 318              		.cfi_endproc
 319              	.LFE41:
 320              		.size	nRF24_set_mode, .-nRF24_set_mode
 321 0012 C046     		.section	.text.nRF24_enable_auto_ack,"ax",%progbits
 322              		.align	2
 323              		.global	nRF24_enable_auto_ack
 324              		.code	16
 325              		.thumb_func
 326              		.type	nRF24_enable_auto_ack, %function
 327              	nRF24_enable_auto_ack:
 328              	.LFB47:
 251:Generated_Source\PSoC4/nRF24_FUNCS.c **** 
 252:Generated_Source\PSoC4/nRF24_FUNCS.c **** /**
 253:Generated_Source\PSoC4/nRF24_FUNCS.c ****  * @brief Enable AutoACK in the given pipe.
 254:Generated_Source\PSoC4/nRF24_FUNCS.c ****  *
 255:Generated_Source\PSoC4/nRF24_FUNCS.c ****  * @param pipe: Enable AutoACK in the given pipe.
 256:Generated_Source\PSoC4/nRF24_FUNCS.c ****  */
 257:Generated_Source\PSoC4/nRF24_FUNCS.c **** void nRF24_enable_auto_ack(const nrf_pipe pipe)
 258:Generated_Source\PSoC4/nRF24_FUNCS.c **** {
 329              		.loc 1 258 0
 330              		.cfi_startproc
 331              		@ args = 0, pretend = 0, frame = 0
 332              		@ frame_needed = 0, uses_anonymous_args = 0
 333              	.LVL20:
 334 0000 10B5     		push	{r4, lr}
 335              		.cfi_def_cfa_offset 8
 336              		.cfi_offset 4, -8
 337              		.cfi_offset 14, -4
 338 0002 0100     		movs	r1, r0
 259:Generated_Source\PSoC4/nRF24_FUNCS.c ****     nRF24_set_bit(NRF_EN_AA_REG, pipe);
 339              		.loc 1 259 0
 340 0004 0120     		movs	r0, #1
 341              	.LVL21:
 342 0006 FFF7FEFF 		bl	nRF24_set_bit
 343              	.LVL22:
 260:Generated_Source\PSoC4/nRF24_FUNCS.c **** }
 344              		.loc 1 260 0
 345              		@ sp needed
 346 000a 10BD     		pop	{r4, pc}
 347              		.cfi_endproc
 348              	.LFE47:
 349              		.size	nRF24_enable_auto_ack, .-nRF24_enable_auto_ack
 350              		.section	.text.nRF24_disable_auto_ack,"ax",%progbits
 351              		.align	2
 352              		.global	nRF24_disable_auto_ack
 353              		.code	16
 354              		.thumb_func
 355              		.type	nRF24_disable_auto_ack, %function
 356              	nRF24_disable_auto_ack:
 357              	.LFB48:
 261:Generated_Source\PSoC4/nRF24_FUNCS.c **** 
 262:Generated_Source\PSoC4/nRF24_FUNCS.c **** /**
 263:Generated_Source\PSoC4/nRF24_FUNCS.c ****  * @brief Disable AutoACK in the given pipe.
 264:Generated_Source\PSoC4/nRF24_FUNCS.c ****  *
 265:Generated_Source\PSoC4/nRF24_FUNCS.c ****  * @param pipe: Disable AutoACK in the given pipe.
ARM GAS  C:\Users\Xwx47\AppData\Local\Temp\ccJ5AxKs.s 			page 12


 266:Generated_Source\PSoC4/nRF24_FUNCS.c ****  */
 267:Generated_Source\PSoC4/nRF24_FUNCS.c **** void nRF24_disable_auto_ack(const nrf_pipe pipe)
 268:Generated_Source\PSoC4/nRF24_FUNCS.c **** {
 358              		.loc 1 268 0
 359              		.cfi_startproc
 360              		@ args = 0, pretend = 0, frame = 0
 361              		@ frame_needed = 0, uses_anonymous_args = 0
 362              	.LVL23:
 363 0000 10B5     		push	{r4, lr}
 364              		.cfi_def_cfa_offset 8
 365              		.cfi_offset 4, -8
 366              		.cfi_offset 14, -4
 367 0002 0100     		movs	r1, r0
 269:Generated_Source\PSoC4/nRF24_FUNCS.c ****     nRF24_clear_bit(NRF_EN_AA_REG, pipe);
 368              		.loc 1 269 0
 369 0004 0120     		movs	r0, #1
 370              	.LVL24:
 371 0006 FFF7FEFF 		bl	nRF24_clear_bit
 372              	.LVL25:
 270:Generated_Source\PSoC4/nRF24_FUNCS.c **** }
 373              		.loc 1 270 0
 374              		@ sp needed
 375 000a 10BD     		pop	{r4, pc}
 376              		.cfi_endproc
 377              	.LFE48:
 378              		.size	nRF24_disable_auto_ack, .-nRF24_disable_auto_ack
 379              		.section	.text.nRF24_set_channel,"ax",%progbits
 380              		.align	2
 381              		.global	nRF24_set_channel
 382              		.code	16
 383              		.thumb_func
 384              		.type	nRF24_set_channel, %function
 385              	nRF24_set_channel:
 386              	.LFB49:
 271:Generated_Source\PSoC4/nRF24_FUNCS.c **** 
 272:Generated_Source\PSoC4/nRF24_FUNCS.c **** /**
 273:Generated_Source\PSoC4/nRF24_FUNCS.c ****  * @brief Set the channel where the radio will work.
 274:Generated_Source\PSoC4/nRF24_FUNCS.c ****  *
 275:Generated_Source\PSoC4/nRF24_FUNCS.c ****  * @param uint8_t channel: Channel where the radio will work.
 276:Generated_Source\PSoC4/nRF24_FUNCS.c ****  */
 277:Generated_Source\PSoC4/nRF24_FUNCS.c **** void nRF24_set_channel(uint8_t channel)
 278:Generated_Source\PSoC4/nRF24_FUNCS.c **** {
 387              		.loc 1 278 0
 388              		.cfi_startproc
 389              		@ args = 0, pretend = 0, frame = 0
 390              		@ frame_needed = 0, uses_anonymous_args = 0
 391              	.LVL26:
 392 0000 10B5     		push	{r4, lr}
 393              		.cfi_def_cfa_offset 8
 394              		.cfi_offset 4, -8
 395              		.cfi_offset 14, -4
 396 0002 0100     		movs	r1, r0
 279:Generated_Source\PSoC4/nRF24_FUNCS.c ****     if (NRF_MAX_RF_CHANNEL < channel) {
 397              		.loc 1 279 0
 398 0004 7D28     		cmp	r0, #125
 399 0006 00D9     		bls	.L16
 280:Generated_Source\PSoC4/nRF24_FUNCS.c ****         channel = NRF_MAX_RF_CHANNEL;
ARM GAS  C:\Users\Xwx47\AppData\Local\Temp\ccJ5AxKs.s 			page 13


 400              		.loc 1 280 0
 401 0008 7D21     		movs	r1, #125
 402              	.L16:
 403              	.LVL27:
 281:Generated_Source\PSoC4/nRF24_FUNCS.c ****     }
 282:Generated_Source\PSoC4/nRF24_FUNCS.c **** 
 283:Generated_Source\PSoC4/nRF24_FUNCS.c ****     nRF24_write_register(NRF_RF_CH_REG, channel);
 404              		.loc 1 283 0
 405 000a 0520     		movs	r0, #5
 406 000c FFF7FEFF 		bl	nRF24_write_register
 407              	.LVL28:
 284:Generated_Source\PSoC4/nRF24_FUNCS.c **** }
 408              		.loc 1 284 0
 409              		@ sp needed
 410 0010 10BD     		pop	{r4, pc}
 411              		.cfi_endproc
 412              	.LFE49:
 413              		.size	nRF24_set_channel, .-nRF24_set_channel
 414 0012 C046     		.section	.text.nRF24_set_address_width,"ax",%progbits
 415              		.align	2
 416              		.global	nRF24_set_address_width
 417              		.code	16
 418              		.thumb_func
 419              		.type	nRF24_set_address_width, %function
 420              	nRF24_set_address_width:
 421              	.LFB50:
 285:Generated_Source\PSoC4/nRF24_FUNCS.c **** 
 286:Generated_Source\PSoC4/nRF24_FUNCS.c **** /**
 287:Generated_Source\PSoC4/nRF24_FUNCS.c ****  * @brief Set the data pipes address width.
 288:Generated_Source\PSoC4/nRF24_FUNCS.c ****  *
 289:Generated_Source\PSoC4/nRF24_FUNCS.c ****  * @param const nrf_setup_address_width addr_width:
 290:Generated_Source\PSoC4/nRF24_FUNCS.c ****  */
 291:Generated_Source\PSoC4/nRF24_FUNCS.c **** void nRF24_set_address_width(const nrf_setup_address_width addr_width)
 292:Generated_Source\PSoC4/nRF24_FUNCS.c **** {
 422              		.loc 1 292 0
 423              		.cfi_startproc
 424              		@ args = 0, pretend = 0, frame = 0
 425              		@ frame_needed = 0, uses_anonymous_args = 0
 426              	.LVL29:
 427 0000 10B5     		push	{r4, lr}
 428              		.cfi_def_cfa_offset 8
 429              		.cfi_offset 4, -8
 430              		.cfi_offset 14, -4
 431 0002 0100     		movs	r1, r0
 293:Generated_Source\PSoC4/nRF24_FUNCS.c ****     nRF24_write_register(NRF_SETUP_AW_REG, (uint8_t)addr_width);
 432              		.loc 1 293 0
 433 0004 0320     		movs	r0, #3
 434              	.LVL30:
 435 0006 FFF7FEFF 		bl	nRF24_write_register
 436              	.LVL31:
 294:Generated_Source\PSoC4/nRF24_FUNCS.c **** }
 437              		.loc 1 294 0
 438              		@ sp needed
 439 000a 10BD     		pop	{r4, pc}
 440              		.cfi_endproc
 441              	.LFE50:
 442              		.size	nRF24_set_address_width, .-nRF24_set_address_width
ARM GAS  C:\Users\Xwx47\AppData\Local\Temp\ccJ5AxKs.s 			page 14


 443              		.section	.text.nRF24_get_address_width,"ax",%progbits
 444              		.align	2
 445              		.global	nRF24_get_address_width
 446              		.code	16
 447              		.thumb_func
 448              		.type	nRF24_get_address_width, %function
 449              	nRF24_get_address_width:
 450              	.LFB51:
 295:Generated_Source\PSoC4/nRF24_FUNCS.c **** 
 296:Generated_Source\PSoC4/nRF24_FUNCS.c **** /**
 297:Generated_Source\PSoC4/nRF24_FUNCS.c ****  * @brief Get the address width of the data pipes.
 298:Generated_Source\PSoC4/nRF24_FUNCS.c ****  *
 299:Generated_Source\PSoC4/nRF24_FUNCS.c ****  * @return uint8_t: Address width in bytes.
 300:Generated_Source\PSoC4/nRF24_FUNCS.c ****  */
 301:Generated_Source\PSoC4/nRF24_FUNCS.c **** uint8_t nRF24_get_address_width(void)
 302:Generated_Source\PSoC4/nRF24_FUNCS.c **** {
 451              		.loc 1 302 0
 452              		.cfi_startproc
 453              		@ args = 0, pretend = 0, frame = 0
 454              		@ frame_needed = 0, uses_anonymous_args = 0
 455 0000 10B5     		push	{r4, lr}
 456              		.cfi_def_cfa_offset 8
 457              		.cfi_offset 4, -8
 458              		.cfi_offset 14, -4
 459              	.LVL32:
 303:Generated_Source\PSoC4/nRF24_FUNCS.c ****     uint8_t addr_width = 0;
 304:Generated_Source\PSoC4/nRF24_FUNCS.c ****     uint8_t reg = nRF24_read_register(NRF_SETUP_AW_REG);
 460              		.loc 1 304 0
 461 0002 0320     		movs	r0, #3
 462 0004 FFF7FEFF 		bl	nRF24_read_register
 463              	.LVL33:
 305:Generated_Source\PSoC4/nRF24_FUNCS.c **** 
 306:Generated_Source\PSoC4/nRF24_FUNCS.c ****     switch (reg) {
 464              		.loc 1 306 0
 465 0008 0228     		cmp	r0, #2
 466 000a 05D0     		beq	.L21
 467 000c 0328     		cmp	r0, #3
 468 000e 05D0     		beq	.L22
 469 0010 0128     		cmp	r0, #1
 470 0012 05D0     		beq	.L24
 303:Generated_Source\PSoC4/nRF24_FUNCS.c ****     uint8_t addr_width = 0;
 471              		.loc 1 303 0
 472 0014 0020     		movs	r0, #0
 473              	.LVL34:
 474 0016 04E0     		b	.L23
 475              	.LVL35:
 476              	.L21:
 307:Generated_Source\PSoC4/nRF24_FUNCS.c ****     case NRF_SETUP_AW_3BYTES:
 308:Generated_Source\PSoC4/nRF24_FUNCS.c ****         addr_width = 3;
 309:Generated_Source\PSoC4/nRF24_FUNCS.c ****         break;
 310:Generated_Source\PSoC4/nRF24_FUNCS.c ****     case NRF_SETUP_AW_4BYTES:
 311:Generated_Source\PSoC4/nRF24_FUNCS.c ****         addr_width = 4;
 477              		.loc 1 311 0
 478 0018 0420     		movs	r0, #4
 479              	.LVL36:
 312:Generated_Source\PSoC4/nRF24_FUNCS.c ****         break;
 480              		.loc 1 312 0
ARM GAS  C:\Users\Xwx47\AppData\Local\Temp\ccJ5AxKs.s 			page 15


 481 001a 02E0     		b	.L23
 482              	.LVL37:
 483              	.L22:
 313:Generated_Source\PSoC4/nRF24_FUNCS.c ****     case NRF_SETUP_AW_5BYTES:
 314:Generated_Source\PSoC4/nRF24_FUNCS.c ****         addr_width = 5;
 484              		.loc 1 314 0
 485 001c 0520     		movs	r0, #5
 486              	.LVL38:
 315:Generated_Source\PSoC4/nRF24_FUNCS.c ****         break;
 487              		.loc 1 315 0
 488 001e 00E0     		b	.L23
 489              	.LVL39:
 490              	.L24:
 308:Generated_Source\PSoC4/nRF24_FUNCS.c ****         break;
 491              		.loc 1 308 0
 492 0020 0320     		movs	r0, #3
 493              	.LVL40:
 494              	.L23:
 316:Generated_Source\PSoC4/nRF24_FUNCS.c ****     default:
 317:Generated_Source\PSoC4/nRF24_FUNCS.c ****         break;
 318:Generated_Source\PSoC4/nRF24_FUNCS.c ****     }
 319:Generated_Source\PSoC4/nRF24_FUNCS.c ****     
 320:Generated_Source\PSoC4/nRF24_FUNCS.c ****     return addr_width;
 321:Generated_Source\PSoC4/nRF24_FUNCS.c **** }
 495              		.loc 1 321 0
 496              		@ sp needed
 497 0022 10BD     		pop	{r4, pc}
 498              		.cfi_endproc
 499              	.LFE51:
 500              		.size	nRF24_get_address_width, .-nRF24_get_address_width
 501              		.section	.text.nRF24_set_rx_pipe_0_address,"ax",%progbits
 502              		.align	2
 503              		.global	nRF24_set_rx_pipe_0_address
 504              		.code	16
 505              		.thumb_func
 506              		.type	nRF24_set_rx_pipe_0_address, %function
 507              	nRF24_set_rx_pipe_0_address:
 508              	.LFB52:
 322:Generated_Source\PSoC4/nRF24_FUNCS.c **** 
 323:Generated_Source\PSoC4/nRF24_FUNCS.c **** /**
 324:Generated_Source\PSoC4/nRF24_FUNCS.c ****  * @brief Set the address of the RX Pipe 0 in the radio.
 325:Generated_Source\PSoC4/nRF24_FUNCS.c ****  *
 326:Generated_Source\PSoC4/nRF24_FUNCS.c ****  * This function configure the address of the Rx Pipe 0 of the radio.
 327:Generated_Source\PSoC4/nRF24_FUNCS.c ****  *
 328:Generated_Source\PSoC4/nRF24_FUNCS.c ****  * @param const uint8_t* addr:
 329:Generated_Source\PSoC4/nRF24_FUNCS.c ****  * @param size_t size:
 330:Generated_Source\PSoC4/nRF24_FUNCS.c ****  */
 331:Generated_Source\PSoC4/nRF24_FUNCS.c **** void nRF24_set_rx_pipe_0_address(const uint8_t* addr, size_t size)
 332:Generated_Source\PSoC4/nRF24_FUNCS.c **** {
 509              		.loc 1 332 0
 510              		.cfi_startproc
 511              		@ args = 0, pretend = 0, frame = 0
 512              		@ frame_needed = 0, uses_anonymous_args = 0
 513              	.LVL41:
 514 0000 10B5     		push	{r4, lr}
 515              		.cfi_def_cfa_offset 8
 516              		.cfi_offset 4, -8
ARM GAS  C:\Users\Xwx47\AppData\Local\Temp\ccJ5AxKs.s 			page 16


 517              		.cfi_offset 14, -4
 333:Generated_Source\PSoC4/nRF24_FUNCS.c ****     if (NULL == addr) {
 518              		.loc 1 333 0
 519 0002 0028     		cmp	r0, #0
 520 0004 07D0     		beq	.L25
 334:Generated_Source\PSoC4/nRF24_FUNCS.c ****         return;
 335:Generated_Source\PSoC4/nRF24_FUNCS.c ****     }
 336:Generated_Source\PSoC4/nRF24_FUNCS.c **** 
 337:Generated_Source\PSoC4/nRF24_FUNCS.c ****     // TODO: Replace NRF_MAX_ADDR_SIZE with ADD_WIDTH
 338:Generated_Source\PSoC4/nRF24_FUNCS.c ****     if (NRF_MAX_ADDR_SIZE < size) {
 521              		.loc 1 338 0
 522 0006 0529     		cmp	r1, #5
 523 0008 00D9     		bls	.L27
 339:Generated_Source\PSoC4/nRF24_FUNCS.c ****         size = NRF_MAX_ADDR_SIZE;
 524              		.loc 1 339 0
 525 000a 0521     		movs	r1, #5
 526              	.LVL42:
 527              	.L27:
 340:Generated_Source\PSoC4/nRF24_FUNCS.c ****     }
 341:Generated_Source\PSoC4/nRF24_FUNCS.c ****     
 342:Generated_Source\PSoC4/nRF24_FUNCS.c ****     nRF24_write_long_register(NRF_RX_ADDR_P0_REG, addr, size);
 528              		.loc 1 342 0
 529 000c 0A00     		movs	r2, r1
 530 000e 0100     		movs	r1, r0
 531              	.LVL43:
 532 0010 0A20     		movs	r0, #10
 533              	.LVL44:
 534 0012 FFF7FEFF 		bl	nRF24_write_long_register
 535              	.LVL45:
 536              	.L25:
 343:Generated_Source\PSoC4/nRF24_FUNCS.c **** }
 537              		.loc 1 343 0
 538              		@ sp needed
 539 0016 10BD     		pop	{r4, pc}
 540              		.cfi_endproc
 541              	.LFE52:
 542              		.size	nRF24_set_rx_pipe_0_address, .-nRF24_set_rx_pipe_0_address
 543              		.section	.text.nRF24_get_rx_pipe_0_address,"ax",%progbits
 544              		.align	2
 545              		.global	nRF24_get_rx_pipe_0_address
 546              		.code	16
 547              		.thumb_func
 548              		.type	nRF24_get_rx_pipe_0_address, %function
 549              	nRF24_get_rx_pipe_0_address:
 550              	.LFB53:
 344:Generated_Source\PSoC4/nRF24_FUNCS.c **** 
 345:Generated_Source\PSoC4/nRF24_FUNCS.c **** /**
 346:Generated_Source\PSoC4/nRF24_FUNCS.c ****  * @brief Get the address of the RX Pipe 0 in the radio.
 347:Generated_Source\PSoC4/nRF24_FUNCS.c ****  *
 348:Generated_Source\PSoC4/nRF24_FUNCS.c ****  * @param uint8_t* addr:
 349:Generated_Source\PSoC4/nRF24_FUNCS.c ****  * @param size_t size:
 350:Generated_Source\PSoC4/nRF24_FUNCS.c ****  */
 351:Generated_Source\PSoC4/nRF24_FUNCS.c **** void nRF24_get_rx_pipe_0_address(uint8_t* addr, size_t size)
 352:Generated_Source\PSoC4/nRF24_FUNCS.c **** {
 551              		.loc 1 352 0
 552              		.cfi_startproc
 553              		@ args = 0, pretend = 0, frame = 0
ARM GAS  C:\Users\Xwx47\AppData\Local\Temp\ccJ5AxKs.s 			page 17


 554              		@ frame_needed = 0, uses_anonymous_args = 0
 555              	.LVL46:
 556 0000 10B5     		push	{r4, lr}
 557              		.cfi_def_cfa_offset 8
 558              		.cfi_offset 4, -8
 559              		.cfi_offset 14, -4
 353:Generated_Source\PSoC4/nRF24_FUNCS.c ****     if (NULL == addr) {
 560              		.loc 1 353 0
 561 0002 0028     		cmp	r0, #0
 562 0004 07D0     		beq	.L29
 354:Generated_Source\PSoC4/nRF24_FUNCS.c ****         return;
 355:Generated_Source\PSoC4/nRF24_FUNCS.c ****     }
 356:Generated_Source\PSoC4/nRF24_FUNCS.c **** 
 357:Generated_Source\PSoC4/nRF24_FUNCS.c ****     if (NRF_MAX_ADDR_SIZE < size) {
 563              		.loc 1 357 0
 564 0006 0529     		cmp	r1, #5
 565 0008 00D9     		bls	.L31
 358:Generated_Source\PSoC4/nRF24_FUNCS.c ****         size = NRF_MAX_ADDR_SIZE;
 566              		.loc 1 358 0
 567 000a 0521     		movs	r1, #5
 568              	.LVL47:
 569              	.L31:
 359:Generated_Source\PSoC4/nRF24_FUNCS.c ****     }
 360:Generated_Source\PSoC4/nRF24_FUNCS.c ****     
 361:Generated_Source\PSoC4/nRF24_FUNCS.c ****     nRF24_read_long_register(NRF_RX_ADDR_P0_REG, addr, size);
 570              		.loc 1 361 0
 571 000c 0A00     		movs	r2, r1
 572 000e 0100     		movs	r1, r0
 573              	.LVL48:
 574 0010 0A20     		movs	r0, #10
 575              	.LVL49:
 576 0012 FFF7FEFF 		bl	nRF24_read_long_register
 577              	.LVL50:
 578              	.L29:
 362:Generated_Source\PSoC4/nRF24_FUNCS.c **** }
 579              		.loc 1 362 0
 580              		@ sp needed
 581 0016 10BD     		pop	{r4, pc}
 582              		.cfi_endproc
 583              	.LFE53:
 584              		.size	nRF24_get_rx_pipe_0_address, .-nRF24_get_rx_pipe_0_address
 585              		.section	.text.nRF24_set_rx_pipe_1_address,"ax",%progbits
 586              		.align	2
 587              		.global	nRF24_set_rx_pipe_1_address
 588              		.code	16
 589              		.thumb_func
 590              		.type	nRF24_set_rx_pipe_1_address, %function
 591              	nRF24_set_rx_pipe_1_address:
 592              	.LFB54:
 363:Generated_Source\PSoC4/nRF24_FUNCS.c **** 
 364:Generated_Source\PSoC4/nRF24_FUNCS.c **** /**
 365:Generated_Source\PSoC4/nRF24_FUNCS.c ****  * @brief Set the address of the RX Pipe 1 in the radio.
 366:Generated_Source\PSoC4/nRF24_FUNCS.c ****  *
 367:Generated_Source\PSoC4/nRF24_FUNCS.c ****  * This function configure the address of the Rx Pipe 1 of the radio.
 368:Generated_Source\PSoC4/nRF24_FUNCS.c ****  *
 369:Generated_Source\PSoC4/nRF24_FUNCS.c ****  * @param const uint8_t* addr:
 370:Generated_Source\PSoC4/nRF24_FUNCS.c ****  * @param size_t size:
ARM GAS  C:\Users\Xwx47\AppData\Local\Temp\ccJ5AxKs.s 			page 18


 371:Generated_Source\PSoC4/nRF24_FUNCS.c ****  */
 372:Generated_Source\PSoC4/nRF24_FUNCS.c **** void nRF24_set_rx_pipe_1_address(const uint8_t* addr, size_t size)
 373:Generated_Source\PSoC4/nRF24_FUNCS.c **** {
 593              		.loc 1 373 0
 594              		.cfi_startproc
 595              		@ args = 0, pretend = 0, frame = 0
 596              		@ frame_needed = 0, uses_anonymous_args = 0
 597              	.LVL51:
 598 0000 10B5     		push	{r4, lr}
 599              		.cfi_def_cfa_offset 8
 600              		.cfi_offset 4, -8
 601              		.cfi_offset 14, -4
 374:Generated_Source\PSoC4/nRF24_FUNCS.c ****     if (NULL == addr) {
 602              		.loc 1 374 0
 603 0002 0028     		cmp	r0, #0
 604 0004 07D0     		beq	.L33
 375:Generated_Source\PSoC4/nRF24_FUNCS.c ****         return;
 376:Generated_Source\PSoC4/nRF24_FUNCS.c ****     }
 377:Generated_Source\PSoC4/nRF24_FUNCS.c **** 
 378:Generated_Source\PSoC4/nRF24_FUNCS.c ****     if (NRF_MAX_ADDR_SIZE < size) {
 605              		.loc 1 378 0
 606 0006 0529     		cmp	r1, #5
 607 0008 00D9     		bls	.L35
 379:Generated_Source\PSoC4/nRF24_FUNCS.c ****         size = NRF_MAX_ADDR_SIZE;
 608              		.loc 1 379 0
 609 000a 0521     		movs	r1, #5
 610              	.LVL52:
 611              	.L35:
 380:Generated_Source\PSoC4/nRF24_FUNCS.c ****     }
 381:Generated_Source\PSoC4/nRF24_FUNCS.c ****     
 382:Generated_Source\PSoC4/nRF24_FUNCS.c ****     nRF24_write_long_register(NRF_RX_ADDR_P1_REG, addr, size);
 612              		.loc 1 382 0
 613 000c 0A00     		movs	r2, r1
 614 000e 0100     		movs	r1, r0
 615              	.LVL53:
 616 0010 0B20     		movs	r0, #11
 617              	.LVL54:
 618 0012 FFF7FEFF 		bl	nRF24_write_long_register
 619              	.LVL55:
 620              	.L33:
 383:Generated_Source\PSoC4/nRF24_FUNCS.c **** }
 621              		.loc 1 383 0
 622              		@ sp needed
 623 0016 10BD     		pop	{r4, pc}
 624              		.cfi_endproc
 625              	.LFE54:
 626              		.size	nRF24_set_rx_pipe_1_address, .-nRF24_set_rx_pipe_1_address
 627              		.section	.text.nRF24_get_rx_pipe_1_address,"ax",%progbits
 628              		.align	2
 629              		.global	nRF24_get_rx_pipe_1_address
 630              		.code	16
 631              		.thumb_func
 632              		.type	nRF24_get_rx_pipe_1_address, %function
 633              	nRF24_get_rx_pipe_1_address:
 634              	.LFB55:
 384:Generated_Source\PSoC4/nRF24_FUNCS.c **** 
 385:Generated_Source\PSoC4/nRF24_FUNCS.c **** /**
ARM GAS  C:\Users\Xwx47\AppData\Local\Temp\ccJ5AxKs.s 			page 19


 386:Generated_Source\PSoC4/nRF24_FUNCS.c ****  * @brief Get the address of the RX Pipe 1 in the radio.
 387:Generated_Source\PSoC4/nRF24_FUNCS.c ****  *
 388:Generated_Source\PSoC4/nRF24_FUNCS.c ****  * @param uint8_t* addr:
 389:Generated_Source\PSoC4/nRF24_FUNCS.c ****  * @param size_t size:
 390:Generated_Source\PSoC4/nRF24_FUNCS.c ****  */
 391:Generated_Source\PSoC4/nRF24_FUNCS.c **** void nRF24_get_rx_pipe_1_address(uint8_t* addr, size_t size)
 392:Generated_Source\PSoC4/nRF24_FUNCS.c **** {
 635              		.loc 1 392 0
 636              		.cfi_startproc
 637              		@ args = 0, pretend = 0, frame = 0
 638              		@ frame_needed = 0, uses_anonymous_args = 0
 639              	.LVL56:
 640 0000 10B5     		push	{r4, lr}
 641              		.cfi_def_cfa_offset 8
 642              		.cfi_offset 4, -8
 643              		.cfi_offset 14, -4
 393:Generated_Source\PSoC4/nRF24_FUNCS.c ****     if (NULL == addr) {
 644              		.loc 1 393 0
 645 0002 0028     		cmp	r0, #0
 646 0004 07D0     		beq	.L37
 394:Generated_Source\PSoC4/nRF24_FUNCS.c ****         return;
 395:Generated_Source\PSoC4/nRF24_FUNCS.c ****     }
 396:Generated_Source\PSoC4/nRF24_FUNCS.c **** 
 397:Generated_Source\PSoC4/nRF24_FUNCS.c ****     if (NRF_MAX_ADDR_SIZE < size) {
 647              		.loc 1 397 0
 648 0006 0529     		cmp	r1, #5
 649 0008 00D9     		bls	.L39
 398:Generated_Source\PSoC4/nRF24_FUNCS.c ****         size = NRF_MAX_ADDR_SIZE;
 650              		.loc 1 398 0
 651 000a 0521     		movs	r1, #5
 652              	.LVL57:
 653              	.L39:
 399:Generated_Source\PSoC4/nRF24_FUNCS.c ****     }
 400:Generated_Source\PSoC4/nRF24_FUNCS.c ****     
 401:Generated_Source\PSoC4/nRF24_FUNCS.c ****     nRF24_read_long_register(NRF_RX_ADDR_P1_REG, addr, size);
 654              		.loc 1 401 0
 655 000c 0A00     		movs	r2, r1
 656 000e 0100     		movs	r1, r0
 657              	.LVL58:
 658 0010 0B20     		movs	r0, #11
 659              	.LVL59:
 660 0012 FFF7FEFF 		bl	nRF24_read_long_register
 661              	.LVL60:
 662              	.L37:
 402:Generated_Source\PSoC4/nRF24_FUNCS.c **** }
 663              		.loc 1 402 0
 664              		@ sp needed
 665 0016 10BD     		pop	{r4, pc}
 666              		.cfi_endproc
 667              	.LFE55:
 668              		.size	nRF24_get_rx_pipe_1_address, .-nRF24_get_rx_pipe_1_address
 669              		.section	.text.nRF24_set_rx_pipe_2_address,"ax",%progbits
 670              		.align	2
 671              		.global	nRF24_set_rx_pipe_2_address
 672              		.code	16
 673              		.thumb_func
 674              		.type	nRF24_set_rx_pipe_2_address, %function
ARM GAS  C:\Users\Xwx47\AppData\Local\Temp\ccJ5AxKs.s 			page 20


 675              	nRF24_set_rx_pipe_2_address:
 676              	.LFB56:
 403:Generated_Source\PSoC4/nRF24_FUNCS.c **** 
 404:Generated_Source\PSoC4/nRF24_FUNCS.c **** /**
 405:Generated_Source\PSoC4/nRF24_FUNCS.c ****  * Set the address of the least significant byte of the Rx Pipe 2 in the radio.
 406:Generated_Source\PSoC4/nRF24_FUNCS.c ****  *
 407:Generated_Source\PSoC4/nRF24_FUNCS.c ****  * @param const uint8_t addr_lsb:
 408:Generated_Source\PSoC4/nRF24_FUNCS.c ****  */
 409:Generated_Source\PSoC4/nRF24_FUNCS.c **** void nRF24_set_rx_pipe_2_address(const uint8_t addr_lsb)
 410:Generated_Source\PSoC4/nRF24_FUNCS.c **** {
 677              		.loc 1 410 0
 678              		.cfi_startproc
 679              		@ args = 0, pretend = 0, frame = 0
 680              		@ frame_needed = 0, uses_anonymous_args = 0
 681              	.LVL61:
 682 0000 10B5     		push	{r4, lr}
 683              		.cfi_def_cfa_offset 8
 684              		.cfi_offset 4, -8
 685              		.cfi_offset 14, -4
 686 0002 0100     		movs	r1, r0
 411:Generated_Source\PSoC4/nRF24_FUNCS.c ****     nRF24_write_register(NRF_RX_ADDR_P2_REG, addr_lsb);
 687              		.loc 1 411 0
 688 0004 0C20     		movs	r0, #12
 689              	.LVL62:
 690 0006 FFF7FEFF 		bl	nRF24_write_register
 691              	.LVL63:
 412:Generated_Source\PSoC4/nRF24_FUNCS.c **** }
 692              		.loc 1 412 0
 693              		@ sp needed
 694 000a 10BD     		pop	{r4, pc}
 695              		.cfi_endproc
 696              	.LFE56:
 697              		.size	nRF24_set_rx_pipe_2_address, .-nRF24_set_rx_pipe_2_address
 698              		.section	.text.nRF24_get_rx_pipe_2_address,"ax",%progbits
 699              		.align	2
 700              		.global	nRF24_get_rx_pipe_2_address
 701              		.code	16
 702              		.thumb_func
 703              		.type	nRF24_get_rx_pipe_2_address, %function
 704              	nRF24_get_rx_pipe_2_address:
 705              	.LFB57:
 413:Generated_Source\PSoC4/nRF24_FUNCS.c **** 
 414:Generated_Source\PSoC4/nRF24_FUNCS.c **** /**
 415:Generated_Source\PSoC4/nRF24_FUNCS.c ****  * Get the address of the Rx Pipe 2.
 416:Generated_Source\PSoC4/nRF24_FUNCS.c ****  *
 417:Generated_Source\PSoC4/nRF24_FUNCS.c ****  * @param uint8_t* addr:
 418:Generated_Source\PSoC4/nRF24_FUNCS.c ****  * @param size_t size:
 419:Generated_Source\PSoC4/nRF24_FUNCS.c ****  */
 420:Generated_Source\PSoC4/nRF24_FUNCS.c **** void nRF24_get_rx_pipe_2_address(uint8_t* addr, size_t size)
 421:Generated_Source\PSoC4/nRF24_FUNCS.c **** {
 706              		.loc 1 421 0
 707              		.cfi_startproc
 708              		@ args = 0, pretend = 0, frame = 0
 709              		@ frame_needed = 0, uses_anonymous_args = 0
 710              	.LVL64:
 711 0000 70B5     		push	{r4, r5, r6, lr}
 712              		.cfi_def_cfa_offset 16
ARM GAS  C:\Users\Xwx47\AppData\Local\Temp\ccJ5AxKs.s 			page 21


 713              		.cfi_offset 4, -16
 714              		.cfi_offset 5, -12
 715              		.cfi_offset 6, -8
 716              		.cfi_offset 14, -4
 717 0002 051E     		subs	r5, r0, #0
 422:Generated_Source\PSoC4/nRF24_FUNCS.c ****     if (NULL == addr) {
 718              		.loc 1 422 0
 719 0004 0DD0     		beq	.L42
 423:Generated_Source\PSoC4/nRF24_FUNCS.c ****         return;
 424:Generated_Source\PSoC4/nRF24_FUNCS.c ****     }
 425:Generated_Source\PSoC4/nRF24_FUNCS.c **** 
 426:Generated_Source\PSoC4/nRF24_FUNCS.c ****     if (NRF_MAX_ADDR_SIZE < size) {
 720              		.loc 1 426 0
 721 0006 0529     		cmp	r1, #5
 722 0008 00D9     		bls	.L44
 427:Generated_Source\PSoC4/nRF24_FUNCS.c ****         size = NRF_MAX_ADDR_SIZE;
 723              		.loc 1 427 0
 724 000a 0521     		movs	r1, #5
 725              	.LVL65:
 726              	.L44:
 428:Generated_Source\PSoC4/nRF24_FUNCS.c ****     }
 429:Generated_Source\PSoC4/nRF24_FUNCS.c ****     
 430:Generated_Source\PSoC4/nRF24_FUNCS.c ****     // The pipe2 address is the same as the pipe1 address except the LSB
 431:Generated_Source\PSoC4/nRF24_FUNCS.c ****     nRF24_read_long_register(NRF_RX_ADDR_P1_REG, addr, size - 1);
 727              		.loc 1 431 0
 728 000c 4C1E     		subs	r4, r1, #1
 729 000e 2200     		movs	r2, r4
 730 0010 2900     		movs	r1, r5
 731              	.LVL66:
 732 0012 0B20     		movs	r0, #11
 733              	.LVL67:
 734 0014 FFF7FEFF 		bl	nRF24_read_long_register
 735              	.LVL68:
 432:Generated_Source\PSoC4/nRF24_FUNCS.c ****     addr[size - 1] = nRF24_read_register(NRF_RX_ADDR_P2_REG);
 736              		.loc 1 432 0
 737 0018 2C19     		adds	r4, r5, r4
 738              	.LVL69:
 739 001a 0C20     		movs	r0, #12
 740 001c FFF7FEFF 		bl	nRF24_read_register
 741              	.LVL70:
 742 0020 2070     		strb	r0, [r4]
 743              	.L42:
 433:Generated_Source\PSoC4/nRF24_FUNCS.c **** }
 744              		.loc 1 433 0
 745              		@ sp needed
 746              	.LVL71:
 747 0022 70BD     		pop	{r4, r5, r6, pc}
 748              		.cfi_endproc
 749              	.LFE57:
 750              		.size	nRF24_get_rx_pipe_2_address, .-nRF24_get_rx_pipe_2_address
 751              		.section	.text.nRF24_set_rx_pipe_3_address,"ax",%progbits
 752              		.align	2
 753              		.global	nRF24_set_rx_pipe_3_address
 754              		.code	16
 755              		.thumb_func
 756              		.type	nRF24_set_rx_pipe_3_address, %function
 757              	nRF24_set_rx_pipe_3_address:
ARM GAS  C:\Users\Xwx47\AppData\Local\Temp\ccJ5AxKs.s 			page 22


 758              	.LFB58:
 434:Generated_Source\PSoC4/nRF24_FUNCS.c **** 
 435:Generated_Source\PSoC4/nRF24_FUNCS.c **** /**
 436:Generated_Source\PSoC4/nRF24_FUNCS.c ****  * Set the address of the least significant byte of the Rx Pipe 3 in the radio.
 437:Generated_Source\PSoC4/nRF24_FUNCS.c ****  *
 438:Generated_Source\PSoC4/nRF24_FUNCS.c ****  * @param const uint8_t addr_lsb:
 439:Generated_Source\PSoC4/nRF24_FUNCS.c ****  */
 440:Generated_Source\PSoC4/nRF24_FUNCS.c **** void nRF24_set_rx_pipe_3_address(const uint8_t addr_lsb)
 441:Generated_Source\PSoC4/nRF24_FUNCS.c **** {
 759              		.loc 1 441 0
 760              		.cfi_startproc
 761              		@ args = 0, pretend = 0, frame = 0
 762              		@ frame_needed = 0, uses_anonymous_args = 0
 763              	.LVL72:
 764 0000 10B5     		push	{r4, lr}
 765              		.cfi_def_cfa_offset 8
 766              		.cfi_offset 4, -8
 767              		.cfi_offset 14, -4
 768 0002 0100     		movs	r1, r0
 442:Generated_Source\PSoC4/nRF24_FUNCS.c ****     nRF24_write_register(NRF_RX_ADDR_P3_REG, addr_lsb);
 769              		.loc 1 442 0
 770 0004 0D20     		movs	r0, #13
 771              	.LVL73:
 772 0006 FFF7FEFF 		bl	nRF24_write_register
 773              	.LVL74:
 443:Generated_Source\PSoC4/nRF24_FUNCS.c **** }
 774              		.loc 1 443 0
 775              		@ sp needed
 776 000a 10BD     		pop	{r4, pc}
 777              		.cfi_endproc
 778              	.LFE58:
 779              		.size	nRF24_set_rx_pipe_3_address, .-nRF24_set_rx_pipe_3_address
 780              		.section	.text.nRF24_get_rx_pipe_3_address,"ax",%progbits
 781              		.align	2
 782              		.global	nRF24_get_rx_pipe_3_address
 783              		.code	16
 784              		.thumb_func
 785              		.type	nRF24_get_rx_pipe_3_address, %function
 786              	nRF24_get_rx_pipe_3_address:
 787              	.LFB59:
 444:Generated_Source\PSoC4/nRF24_FUNCS.c **** 
 445:Generated_Source\PSoC4/nRF24_FUNCS.c **** /**
 446:Generated_Source\PSoC4/nRF24_FUNCS.c ****  * Get the address of the Rx Pipe 3.
 447:Generated_Source\PSoC4/nRF24_FUNCS.c ****  *
 448:Generated_Source\PSoC4/nRF24_FUNCS.c ****  * @param uint8_t* addr:
 449:Generated_Source\PSoC4/nRF24_FUNCS.c ****  * @param size_t size:
 450:Generated_Source\PSoC4/nRF24_FUNCS.c ****  */
 451:Generated_Source\PSoC4/nRF24_FUNCS.c **** void nRF24_get_rx_pipe_3_address(uint8_t* addr, size_t size)
 452:Generated_Source\PSoC4/nRF24_FUNCS.c **** {
 788              		.loc 1 452 0
 789              		.cfi_startproc
 790              		@ args = 0, pretend = 0, frame = 0
 791              		@ frame_needed = 0, uses_anonymous_args = 0
 792              	.LVL75:
 793 0000 70B5     		push	{r4, r5, r6, lr}
 794              		.cfi_def_cfa_offset 16
 795              		.cfi_offset 4, -16
ARM GAS  C:\Users\Xwx47\AppData\Local\Temp\ccJ5AxKs.s 			page 23


 796              		.cfi_offset 5, -12
 797              		.cfi_offset 6, -8
 798              		.cfi_offset 14, -4
 799 0002 051E     		subs	r5, r0, #0
 453:Generated_Source\PSoC4/nRF24_FUNCS.c ****     if (NULL == addr) {
 800              		.loc 1 453 0
 801 0004 0DD0     		beq	.L47
 454:Generated_Source\PSoC4/nRF24_FUNCS.c ****         return;
 455:Generated_Source\PSoC4/nRF24_FUNCS.c ****     }
 456:Generated_Source\PSoC4/nRF24_FUNCS.c **** 
 457:Generated_Source\PSoC4/nRF24_FUNCS.c ****     if (NRF_MAX_ADDR_SIZE < size) {
 802              		.loc 1 457 0
 803 0006 0529     		cmp	r1, #5
 804 0008 00D9     		bls	.L49
 458:Generated_Source\PSoC4/nRF24_FUNCS.c ****         size = NRF_MAX_ADDR_SIZE;
 805              		.loc 1 458 0
 806 000a 0521     		movs	r1, #5
 807              	.LVL76:
 808              	.L49:
 459:Generated_Source\PSoC4/nRF24_FUNCS.c ****     }
 460:Generated_Source\PSoC4/nRF24_FUNCS.c ****     
 461:Generated_Source\PSoC4/nRF24_FUNCS.c ****     // The pipe3 address is the same as the pipe1 address except the LSB
 462:Generated_Source\PSoC4/nRF24_FUNCS.c ****     nRF24_read_long_register(NRF_RX_ADDR_P1_REG, addr, size - 1);
 809              		.loc 1 462 0
 810 000c 4C1E     		subs	r4, r1, #1
 811 000e 2200     		movs	r2, r4
 812 0010 2900     		movs	r1, r5
 813              	.LVL77:
 814 0012 0B20     		movs	r0, #11
 815              	.LVL78:
 816 0014 FFF7FEFF 		bl	nRF24_read_long_register
 817              	.LVL79:
 463:Generated_Source\PSoC4/nRF24_FUNCS.c ****     addr[size - 1] = nRF24_read_register(NRF_RX_ADDR_P3_REG);
 818              		.loc 1 463 0
 819 0018 2C19     		adds	r4, r5, r4
 820              	.LVL80:
 821 001a 0D20     		movs	r0, #13
 822 001c FFF7FEFF 		bl	nRF24_read_register
 823              	.LVL81:
 824 0020 2070     		strb	r0, [r4]
 825              	.L47:
 464:Generated_Source\PSoC4/nRF24_FUNCS.c **** }
 826              		.loc 1 464 0
 827              		@ sp needed
 828              	.LVL82:
 829 0022 70BD     		pop	{r4, r5, r6, pc}
 830              		.cfi_endproc
 831              	.LFE59:
 832              		.size	nRF24_get_rx_pipe_3_address, .-nRF24_get_rx_pipe_3_address
 833              		.section	.text.nRF24_set_rx_pipe_4_address,"ax",%progbits
 834              		.align	2
 835              		.global	nRF24_set_rx_pipe_4_address
 836              		.code	16
 837              		.thumb_func
 838              		.type	nRF24_set_rx_pipe_4_address, %function
 839              	nRF24_set_rx_pipe_4_address:
 840              	.LFB60:
ARM GAS  C:\Users\Xwx47\AppData\Local\Temp\ccJ5AxKs.s 			page 24


 465:Generated_Source\PSoC4/nRF24_FUNCS.c **** 
 466:Generated_Source\PSoC4/nRF24_FUNCS.c **** /**
 467:Generated_Source\PSoC4/nRF24_FUNCS.c ****  * Set the address of the least significant byte of the Rx Pipe 4 in the radio.
 468:Generated_Source\PSoC4/nRF24_FUNCS.c ****  *
 469:Generated_Source\PSoC4/nRF24_FUNCS.c ****  * @param const uint8_t addr_lsb:
 470:Generated_Source\PSoC4/nRF24_FUNCS.c ****  */
 471:Generated_Source\PSoC4/nRF24_FUNCS.c **** void nRF24_set_rx_pipe_4_address(const uint8_t addr_lsb)
 472:Generated_Source\PSoC4/nRF24_FUNCS.c **** {
 841              		.loc 1 472 0
 842              		.cfi_startproc
 843              		@ args = 0, pretend = 0, frame = 0
 844              		@ frame_needed = 0, uses_anonymous_args = 0
 845              	.LVL83:
 846 0000 10B5     		push	{r4, lr}
 847              		.cfi_def_cfa_offset 8
 848              		.cfi_offset 4, -8
 849              		.cfi_offset 14, -4
 850 0002 0100     		movs	r1, r0
 473:Generated_Source\PSoC4/nRF24_FUNCS.c ****     nRF24_write_register(NRF_RX_ADDR_P4_REG, addr_lsb);
 851              		.loc 1 473 0
 852 0004 0E20     		movs	r0, #14
 853              	.LVL84:
 854 0006 FFF7FEFF 		bl	nRF24_write_register
 855              	.LVL85:
 474:Generated_Source\PSoC4/nRF24_FUNCS.c **** }
 856              		.loc 1 474 0
 857              		@ sp needed
 858 000a 10BD     		pop	{r4, pc}
 859              		.cfi_endproc
 860              	.LFE60:
 861              		.size	nRF24_set_rx_pipe_4_address, .-nRF24_set_rx_pipe_4_address
 862              		.section	.text.nRF24_get_rx_pipe_4_address,"ax",%progbits
 863              		.align	2
 864              		.global	nRF24_get_rx_pipe_4_address
 865              		.code	16
 866              		.thumb_func
 867              		.type	nRF24_get_rx_pipe_4_address, %function
 868              	nRF24_get_rx_pipe_4_address:
 869              	.LFB61:
 475:Generated_Source\PSoC4/nRF24_FUNCS.c **** 
 476:Generated_Source\PSoC4/nRF24_FUNCS.c **** /**
 477:Generated_Source\PSoC4/nRF24_FUNCS.c ****  * Get the address of the Rx Pipe 4.
 478:Generated_Source\PSoC4/nRF24_FUNCS.c ****  *
 479:Generated_Source\PSoC4/nRF24_FUNCS.c ****  * @param uint8_t* addr:
 480:Generated_Source\PSoC4/nRF24_FUNCS.c ****  * @param size_t size:
 481:Generated_Source\PSoC4/nRF24_FUNCS.c ****  */
 482:Generated_Source\PSoC4/nRF24_FUNCS.c **** void nRF24_get_rx_pipe_4_address(uint8_t* addr, size_t size)
 483:Generated_Source\PSoC4/nRF24_FUNCS.c **** {
 870              		.loc 1 483 0
 871              		.cfi_startproc
 872              		@ args = 0, pretend = 0, frame = 0
 873              		@ frame_needed = 0, uses_anonymous_args = 0
 874              	.LVL86:
 875 0000 70B5     		push	{r4, r5, r6, lr}
 876              		.cfi_def_cfa_offset 16
 877              		.cfi_offset 4, -16
 878              		.cfi_offset 5, -12
ARM GAS  C:\Users\Xwx47\AppData\Local\Temp\ccJ5AxKs.s 			page 25


 879              		.cfi_offset 6, -8
 880              		.cfi_offset 14, -4
 881 0002 051E     		subs	r5, r0, #0
 484:Generated_Source\PSoC4/nRF24_FUNCS.c ****     if (NULL == addr) {
 882              		.loc 1 484 0
 883 0004 0DD0     		beq	.L52
 485:Generated_Source\PSoC4/nRF24_FUNCS.c ****         return;
 486:Generated_Source\PSoC4/nRF24_FUNCS.c ****     }
 487:Generated_Source\PSoC4/nRF24_FUNCS.c **** 
 488:Generated_Source\PSoC4/nRF24_FUNCS.c ****     if (NRF_MAX_ADDR_SIZE < size) {
 884              		.loc 1 488 0
 885 0006 0529     		cmp	r1, #5
 886 0008 00D9     		bls	.L54
 489:Generated_Source\PSoC4/nRF24_FUNCS.c ****         size = NRF_MAX_ADDR_SIZE;
 887              		.loc 1 489 0
 888 000a 0521     		movs	r1, #5
 889              	.LVL87:
 890              	.L54:
 490:Generated_Source\PSoC4/nRF24_FUNCS.c ****     }
 491:Generated_Source\PSoC4/nRF24_FUNCS.c ****     
 492:Generated_Source\PSoC4/nRF24_FUNCS.c ****     // The pipe4 address is the same as the pipe1 address except the LSB
 493:Generated_Source\PSoC4/nRF24_FUNCS.c ****     nRF24_read_long_register(NRF_RX_ADDR_P1_REG, addr, size - 1);
 891              		.loc 1 493 0
 892 000c 4C1E     		subs	r4, r1, #1
 893 000e 2200     		movs	r2, r4
 894 0010 2900     		movs	r1, r5
 895              	.LVL88:
 896 0012 0B20     		movs	r0, #11
 897              	.LVL89:
 898 0014 FFF7FEFF 		bl	nRF24_read_long_register
 899              	.LVL90:
 494:Generated_Source\PSoC4/nRF24_FUNCS.c ****     addr[size - 1] = nRF24_read_register(NRF_RX_ADDR_P4_REG);
 900              		.loc 1 494 0
 901 0018 2C19     		adds	r4, r5, r4
 902              	.LVL91:
 903 001a 0E20     		movs	r0, #14
 904 001c FFF7FEFF 		bl	nRF24_read_register
 905              	.LVL92:
 906 0020 2070     		strb	r0, [r4]
 907              	.L52:
 495:Generated_Source\PSoC4/nRF24_FUNCS.c **** }
 908              		.loc 1 495 0
 909              		@ sp needed
 910              	.LVL93:
 911 0022 70BD     		pop	{r4, r5, r6, pc}
 912              		.cfi_endproc
 913              	.LFE61:
 914              		.size	nRF24_get_rx_pipe_4_address, .-nRF24_get_rx_pipe_4_address
 915              		.section	.text.nRF24_set_rx_pipe_5_address,"ax",%progbits
 916              		.align	2
 917              		.global	nRF24_set_rx_pipe_5_address
 918              		.code	16
 919              		.thumb_func
 920              		.type	nRF24_set_rx_pipe_5_address, %function
 921              	nRF24_set_rx_pipe_5_address:
 922              	.LFB62:
 496:Generated_Source\PSoC4/nRF24_FUNCS.c **** 
ARM GAS  C:\Users\Xwx47\AppData\Local\Temp\ccJ5AxKs.s 			page 26


 497:Generated_Source\PSoC4/nRF24_FUNCS.c **** /**
 498:Generated_Source\PSoC4/nRF24_FUNCS.c ****  * Set the address of the least significant byte of the Rx Pipe 5 in the radio.
 499:Generated_Source\PSoC4/nRF24_FUNCS.c ****  *
 500:Generated_Source\PSoC4/nRF24_FUNCS.c ****  * @param const uint8_t addr_lsb:
 501:Generated_Source\PSoC4/nRF24_FUNCS.c ****  */
 502:Generated_Source\PSoC4/nRF24_FUNCS.c **** void nRF24_set_rx_pipe_5_address(const uint8_t addr_lsb)
 503:Generated_Source\PSoC4/nRF24_FUNCS.c **** {
 923              		.loc 1 503 0
 924              		.cfi_startproc
 925              		@ args = 0, pretend = 0, frame = 0
 926              		@ frame_needed = 0, uses_anonymous_args = 0
 927              	.LVL94:
 928 0000 10B5     		push	{r4, lr}
 929              		.cfi_def_cfa_offset 8
 930              		.cfi_offset 4, -8
 931              		.cfi_offset 14, -4
 932 0002 0100     		movs	r1, r0
 504:Generated_Source\PSoC4/nRF24_FUNCS.c ****     nRF24_write_register(NRF_RX_ADDR_P5_REG, addr_lsb);
 933              		.loc 1 504 0
 934 0004 0F20     		movs	r0, #15
 935              	.LVL95:
 936 0006 FFF7FEFF 		bl	nRF24_write_register
 937              	.LVL96:
 505:Generated_Source\PSoC4/nRF24_FUNCS.c **** }
 938              		.loc 1 505 0
 939              		@ sp needed
 940 000a 10BD     		pop	{r4, pc}
 941              		.cfi_endproc
 942              	.LFE62:
 943              		.size	nRF24_set_rx_pipe_5_address, .-nRF24_set_rx_pipe_5_address
 944              		.section	.text.nRF24_get_rx_pipe_5_address,"ax",%progbits
 945              		.align	2
 946              		.global	nRF24_get_rx_pipe_5_address
 947              		.code	16
 948              		.thumb_func
 949              		.type	nRF24_get_rx_pipe_5_address, %function
 950              	nRF24_get_rx_pipe_5_address:
 951              	.LFB63:
 506:Generated_Source\PSoC4/nRF24_FUNCS.c **** 
 507:Generated_Source\PSoC4/nRF24_FUNCS.c **** /**
 508:Generated_Source\PSoC4/nRF24_FUNCS.c ****  * Get the address of the Rx Pipe 5.
 509:Generated_Source\PSoC4/nRF24_FUNCS.c ****  *
 510:Generated_Source\PSoC4/nRF24_FUNCS.c ****  * @param uint8_t* addr:
 511:Generated_Source\PSoC4/nRF24_FUNCS.c ****  * @param size_t size:
 512:Generated_Source\PSoC4/nRF24_FUNCS.c ****  */
 513:Generated_Source\PSoC4/nRF24_FUNCS.c **** void nRF24_get_rx_pipe_5_address(uint8_t* addr, size_t size)
 514:Generated_Source\PSoC4/nRF24_FUNCS.c **** {
 952              		.loc 1 514 0
 953              		.cfi_startproc
 954              		@ args = 0, pretend = 0, frame = 0
 955              		@ frame_needed = 0, uses_anonymous_args = 0
 956              	.LVL97:
 957 0000 70B5     		push	{r4, r5, r6, lr}
 958              		.cfi_def_cfa_offset 16
 959              		.cfi_offset 4, -16
 960              		.cfi_offset 5, -12
 961              		.cfi_offset 6, -8
ARM GAS  C:\Users\Xwx47\AppData\Local\Temp\ccJ5AxKs.s 			page 27


 962              		.cfi_offset 14, -4
 963 0002 051E     		subs	r5, r0, #0
 515:Generated_Source\PSoC4/nRF24_FUNCS.c ****     if (NULL == addr) {
 964              		.loc 1 515 0
 965 0004 0DD0     		beq	.L57
 516:Generated_Source\PSoC4/nRF24_FUNCS.c ****         return;
 517:Generated_Source\PSoC4/nRF24_FUNCS.c ****     }
 518:Generated_Source\PSoC4/nRF24_FUNCS.c **** 
 519:Generated_Source\PSoC4/nRF24_FUNCS.c ****     if (NRF_MAX_ADDR_SIZE < size) {
 966              		.loc 1 519 0
 967 0006 0529     		cmp	r1, #5
 968 0008 00D9     		bls	.L59
 520:Generated_Source\PSoC4/nRF24_FUNCS.c ****         size = NRF_MAX_ADDR_SIZE;
 969              		.loc 1 520 0
 970 000a 0521     		movs	r1, #5
 971              	.LVL98:
 972              	.L59:
 521:Generated_Source\PSoC4/nRF24_FUNCS.c ****     }
 522:Generated_Source\PSoC4/nRF24_FUNCS.c ****     
 523:Generated_Source\PSoC4/nRF24_FUNCS.c ****     // The pipe5 address is the same as the pipe1 address except the LSB
 524:Generated_Source\PSoC4/nRF24_FUNCS.c ****     nRF24_read_long_register(NRF_RX_ADDR_P1_REG, addr, size - 1);
 973              		.loc 1 524 0
 974 000c 4C1E     		subs	r4, r1, #1
 975 000e 2200     		movs	r2, r4
 976 0010 2900     		movs	r1, r5
 977              	.LVL99:
 978 0012 0B20     		movs	r0, #11
 979              	.LVL100:
 980 0014 FFF7FEFF 		bl	nRF24_read_long_register
 981              	.LVL101:
 525:Generated_Source\PSoC4/nRF24_FUNCS.c ****     addr[size - 1] = nRF24_read_register(NRF_RX_ADDR_P5_REG);
 982              		.loc 1 525 0
 983 0018 2C19     		adds	r4, r5, r4
 984              	.LVL102:
 985 001a 0F20     		movs	r0, #15
 986 001c FFF7FEFF 		bl	nRF24_read_register
 987              	.LVL103:
 988 0020 2070     		strb	r0, [r4]
 989              	.L57:
 526:Generated_Source\PSoC4/nRF24_FUNCS.c **** }
 990              		.loc 1 526 0
 991              		@ sp needed
 992              	.LVL104:
 993 0022 70BD     		pop	{r4, r5, r6, pc}
 994              		.cfi_endproc
 995              	.LFE63:
 996              		.size	nRF24_get_rx_pipe_5_address, .-nRF24_get_rx_pipe_5_address
 997              		.section	.text.nRF24_set_tx_address,"ax",%progbits
 998              		.align	2
 999              		.global	nRF24_set_tx_address
 1000              		.code	16
 1001              		.thumb_func
 1002              		.type	nRF24_set_tx_address, %function
 1003              	nRF24_set_tx_address:
 1004              	.LFB64:
 527:Generated_Source\PSoC4/nRF24_FUNCS.c **** 
 528:Generated_Source\PSoC4/nRF24_FUNCS.c **** /**
ARM GAS  C:\Users\Xwx47\AppData\Local\Temp\ccJ5AxKs.s 			page 28


 529:Generated_Source\PSoC4/nRF24_FUNCS.c ****  * @brief Set the TX Address of the radio.
 530:Generated_Source\PSoC4/nRF24_FUNCS.c ****  *
 531:Generated_Source\PSoC4/nRF24_FUNCS.c ****  * @param const uint8_t* addr:
 532:Generated_Source\PSoC4/nRF24_FUNCS.c ****  * @param size_t size:
 533:Generated_Source\PSoC4/nRF24_FUNCS.c ****  */
 534:Generated_Source\PSoC4/nRF24_FUNCS.c **** void nRF24_set_tx_address(const uint8_t *const addr, size_t size)
 535:Generated_Source\PSoC4/nRF24_FUNCS.c **** {
 1005              		.loc 1 535 0
 1006              		.cfi_startproc
 1007              		@ args = 0, pretend = 0, frame = 0
 1008              		@ frame_needed = 0, uses_anonymous_args = 0
 1009              	.LVL105:
 1010 0000 10B5     		push	{r4, lr}
 1011              		.cfi_def_cfa_offset 8
 1012              		.cfi_offset 4, -8
 1013              		.cfi_offset 14, -4
 536:Generated_Source\PSoC4/nRF24_FUNCS.c ****     if (NULL == addr) {
 1014              		.loc 1 536 0
 1015 0002 0028     		cmp	r0, #0
 1016 0004 07D0     		beq	.L61
 537:Generated_Source\PSoC4/nRF24_FUNCS.c ****         return;
 538:Generated_Source\PSoC4/nRF24_FUNCS.c ****     }
 539:Generated_Source\PSoC4/nRF24_FUNCS.c **** 
 540:Generated_Source\PSoC4/nRF24_FUNCS.c ****     if (NRF_MAX_ADDR_SIZE < size) {
 1017              		.loc 1 540 0
 1018 0006 0529     		cmp	r1, #5
 1019 0008 00D9     		bls	.L63
 541:Generated_Source\PSoC4/nRF24_FUNCS.c ****         size = NRF_MAX_ADDR_SIZE;
 1020              		.loc 1 541 0
 1021 000a 0521     		movs	r1, #5
 1022              	.LVL106:
 1023              	.L63:
 542:Generated_Source\PSoC4/nRF24_FUNCS.c ****     }
 543:Generated_Source\PSoC4/nRF24_FUNCS.c ****     
 544:Generated_Source\PSoC4/nRF24_FUNCS.c ****     nRF24_write_long_register(NRF_TX_ADDR_REG, addr, size);
 1024              		.loc 1 544 0
 1025 000c 0A00     		movs	r2, r1
 1026 000e 0100     		movs	r1, r0
 1027              	.LVL107:
 1028 0010 1020     		movs	r0, #16
 1029              	.LVL108:
 1030 0012 FFF7FEFF 		bl	nRF24_write_long_register
 1031              	.LVL109:
 1032              	.L61:
 545:Generated_Source\PSoC4/nRF24_FUNCS.c **** }
 1033              		.loc 1 545 0
 1034              		@ sp needed
 1035 0016 10BD     		pop	{r4, pc}
 1036              		.cfi_endproc
 1037              	.LFE64:
 1038              		.size	nRF24_set_tx_address, .-nRF24_set_tx_address
 1039              		.section	.text.nRF24_get_tx_address,"ax",%progbits
 1040              		.align	2
 1041              		.global	nRF24_get_tx_address
 1042              		.code	16
 1043              		.thumb_func
 1044              		.type	nRF24_get_tx_address, %function
ARM GAS  C:\Users\Xwx47\AppData\Local\Temp\ccJ5AxKs.s 			page 29


 1045              	nRF24_get_tx_address:
 1046              	.LFB65:
 546:Generated_Source\PSoC4/nRF24_FUNCS.c **** 
 547:Generated_Source\PSoC4/nRF24_FUNCS.c **** /**
 548:Generated_Source\PSoC4/nRF24_FUNCS.c ****  * @brief Get the TX Address of the radio.
 549:Generated_Source\PSoC4/nRF24_FUNCS.c ****  *
 550:Generated_Source\PSoC4/nRF24_FUNCS.c ****  * @param const uint8_t* addr:
 551:Generated_Source\PSoC4/nRF24_FUNCS.c ****  * @param const size_t size:
 552:Generated_Source\PSoC4/nRF24_FUNCS.c ****  */
 553:Generated_Source\PSoC4/nRF24_FUNCS.c **** void nRF24_get_tx_address(uint8_t* addr, size_t size)
 554:Generated_Source\PSoC4/nRF24_FUNCS.c **** {
 1047              		.loc 1 554 0
 1048              		.cfi_startproc
 1049              		@ args = 0, pretend = 0, frame = 0
 1050              		@ frame_needed = 0, uses_anonymous_args = 0
 1051              	.LVL110:
 1052 0000 10B5     		push	{r4, lr}
 1053              		.cfi_def_cfa_offset 8
 1054              		.cfi_offset 4, -8
 1055              		.cfi_offset 14, -4
 555:Generated_Source\PSoC4/nRF24_FUNCS.c ****     if (NULL == addr) {
 1056              		.loc 1 555 0
 1057 0002 0028     		cmp	r0, #0
 1058 0004 07D0     		beq	.L65
 556:Generated_Source\PSoC4/nRF24_FUNCS.c ****         return;
 557:Generated_Source\PSoC4/nRF24_FUNCS.c ****     }
 558:Generated_Source\PSoC4/nRF24_FUNCS.c **** 
 559:Generated_Source\PSoC4/nRF24_FUNCS.c ****     if (NRF_MAX_ADDR_SIZE < size) {
 1059              		.loc 1 559 0
 1060 0006 0529     		cmp	r1, #5
 1061 0008 00D9     		bls	.L67
 560:Generated_Source\PSoC4/nRF24_FUNCS.c ****         size = NRF_MAX_ADDR_SIZE;
 1062              		.loc 1 560 0
 1063 000a 0521     		movs	r1, #5
 1064              	.LVL111:
 1065              	.L67:
 561:Generated_Source\PSoC4/nRF24_FUNCS.c ****     }
 562:Generated_Source\PSoC4/nRF24_FUNCS.c ****     
 563:Generated_Source\PSoC4/nRF24_FUNCS.c ****     nRF24_read_long_register(NRF_TX_ADDR_REG, addr, size);
 1066              		.loc 1 563 0
 1067 000c 0A00     		movs	r2, r1
 1068 000e 0100     		movs	r1, r0
 1069              	.LVL112:
 1070 0010 1020     		movs	r0, #16
 1071              	.LVL113:
 1072 0012 FFF7FEFF 		bl	nRF24_read_long_register
 1073              	.LVL114:
 1074              	.L65:
 564:Generated_Source\PSoC4/nRF24_FUNCS.c **** }
 1075              		.loc 1 564 0
 1076              		@ sp needed
 1077 0016 10BD     		pop	{r4, pc}
 1078              		.cfi_endproc
 1079              	.LFE65:
 1080              		.size	nRF24_get_tx_address, .-nRF24_get_tx_address
 1081              		.section	.text.nRF24_set_payload_size,"ax",%progbits
 1082              		.align	2
ARM GAS  C:\Users\Xwx47\AppData\Local\Temp\ccJ5AxKs.s 			page 30


 1083              		.global	nRF24_set_payload_size
 1084              		.code	16
 1085              		.thumb_func
 1086              		.type	nRF24_set_payload_size, %function
 1087              	nRF24_set_payload_size:
 1088              	.LFB66:
 565:Generated_Source\PSoC4/nRF24_FUNCS.c **** 
 566:Generated_Source\PSoC4/nRF24_FUNCS.c **** /**
 567:Generated_Source\PSoC4/nRF24_FUNCS.c ****  * @brief Set the payload size of the given pipe.
 568:Generated_Source\PSoC4/nRF24_FUNCS.c ****  *
 569:Generated_Source\PSoC4/nRF24_FUNCS.c ****  * Configure the payload size of the given pipe.
 570:Generated_Source\PSoC4/nRF24_FUNCS.c ****  *
 571:Generated_Source\PSoC4/nRF24_FUNCS.c ****  * @param const nrf_pipe pipe:
 572:Generated_Source\PSoC4/nRF24_FUNCS.c ****  * @param uint8_t size:
 573:Generated_Source\PSoC4/nRF24_FUNCS.c ****  */
 574:Generated_Source\PSoC4/nRF24_FUNCS.c **** void nRF24_set_payload_size(const nrf_pipe_payload_size pipe, uint8_t size)
 575:Generated_Source\PSoC4/nRF24_FUNCS.c **** {
 1089              		.loc 1 575 0
 1090              		.cfi_startproc
 1091              		@ args = 0, pretend = 0, frame = 0
 1092              		@ frame_needed = 0, uses_anonymous_args = 0
 1093              	.LVL115:
 1094 0000 10B5     		push	{r4, lr}
 1095              		.cfi_def_cfa_offset 8
 1096              		.cfi_offset 4, -8
 1097              		.cfi_offset 14, -4
 576:Generated_Source\PSoC4/nRF24_FUNCS.c ****     if (NRF_MAX_PAYLOAD_SIZE < size) {
 1098              		.loc 1 576 0
 1099 0002 2029     		cmp	r1, #32
 1100 0004 00D9     		bls	.L70
 577:Generated_Source\PSoC4/nRF24_FUNCS.c ****         size = NRF_MAX_PAYLOAD_SIZE;
 1101              		.loc 1 577 0
 1102 0006 2021     		movs	r1, #32
 1103              	.LVL116:
 1104              	.L70:
 578:Generated_Source\PSoC4/nRF24_FUNCS.c ****     }
 579:Generated_Source\PSoC4/nRF24_FUNCS.c ****     
 580:Generated_Source\PSoC4/nRF24_FUNCS.c ****     nRF24_write_register(pipe, size);
 1105              		.loc 1 580 0
 1106 0008 FFF7FEFF 		bl	nRF24_write_register
 1107              	.LVL117:
 581:Generated_Source\PSoC4/nRF24_FUNCS.c **** }
 1108              		.loc 1 581 0
 1109              		@ sp needed
 1110 000c 10BD     		pop	{r4, pc}
 1111              		.cfi_endproc
 1112              	.LFE66:
 1113              		.size	nRF24_set_payload_size, .-nRF24_set_payload_size
 1114 000e C046     		.section	.text.nRF24_get_payload_size,"ax",%progbits
 1115              		.align	2
 1116              		.global	nRF24_get_payload_size
 1117              		.code	16
 1118              		.thumb_func
 1119              		.type	nRF24_get_payload_size, %function
 1120              	nRF24_get_payload_size:
 1121              	.LFB67:
 582:Generated_Source\PSoC4/nRF24_FUNCS.c **** 
ARM GAS  C:\Users\Xwx47\AppData\Local\Temp\ccJ5AxKs.s 			page 31


 583:Generated_Source\PSoC4/nRF24_FUNCS.c **** /**
 584:Generated_Source\PSoC4/nRF24_FUNCS.c ****  * Get the payload size of the given pipe.
 585:Generated_Source\PSoC4/nRF24_FUNCS.c ****  *
 586:Generated_Source\PSoC4/nRF24_FUNCS.c ****  * @param const nrf_pipe pipe: Pipe to be read.
 587:Generated_Source\PSoC4/nRF24_FUNCS.c ****  *
 588:Generated_Source\PSoC4/nRF24_FUNCS.c ****  * @return uint8_t: Configured payload size of the given pipe.
 589:Generated_Source\PSoC4/nRF24_FUNCS.c ****  */
 590:Generated_Source\PSoC4/nRF24_FUNCS.c **** uint8_t nRF24_get_payload_size(const nrf_pipe_payload_size pipe)
 591:Generated_Source\PSoC4/nRF24_FUNCS.c **** {
 1122              		.loc 1 591 0
 1123              		.cfi_startproc
 1124              		@ args = 0, pretend = 0, frame = 0
 1125              		@ frame_needed = 0, uses_anonymous_args = 0
 1126              	.LVL118:
 1127 0000 10B5     		push	{r4, lr}
 1128              		.cfi_def_cfa_offset 8
 1129              		.cfi_offset 4, -8
 1130              		.cfi_offset 14, -4
 592:Generated_Source\PSoC4/nRF24_FUNCS.c ****     return nRF24_read_register(pipe);
 1131              		.loc 1 592 0
 1132 0002 FFF7FEFF 		bl	nRF24_read_register
 1133              	.LVL119:
 593:Generated_Source\PSoC4/nRF24_FUNCS.c **** }
 1134              		.loc 1 593 0
 1135              		@ sp needed
 1136 0006 10BD     		pop	{r4, pc}
 1137              		.cfi_endproc
 1138              	.LFE67:
 1139              		.size	nRF24_get_payload_size, .-nRF24_get_payload_size
 1140              		.section	.text.nRF24_enable_dynamic_payload,"ax",%progbits
 1141              		.align	2
 1142              		.global	nRF24_enable_dynamic_payload
 1143              		.code	16
 1144              		.thumb_func
 1145              		.type	nRF24_enable_dynamic_payload, %function
 1146              	nRF24_enable_dynamic_payload:
 1147              	.LFB69:
 594:Generated_Source\PSoC4/nRF24_FUNCS.c **** 
 595:Generated_Source\PSoC4/nRF24_FUNCS.c **** /**
 596:Generated_Source\PSoC4/nRF24_FUNCS.c ****  * @brief Reuse last transmitted payload.
 597:Generated_Source\PSoC4/nRF24_FUNCS.c ****  *
 598:Generated_Source\PSoC4/nRF24_FUNCS.c ****  * This function issue the command ReuseTxPayload and then toggle the CE pin
 599:Generated_Source\PSoC4/nRF24_FUNCS.c ****  * to transmit the last transmitted payload.
 600:Generated_Source\PSoC4/nRF24_FUNCS.c ****  */
 601:Generated_Source\PSoC4/nRF24_FUNCS.c **** void nRF24_reuse_last_transmitted_payload(void)
 602:Generated_Source\PSoC4/nRF24_FUNCS.c **** {
 603:Generated_Source\PSoC4/nRF24_FUNCS.c ****     nRF24_reuse_tx_payload_cmd();
 604:Generated_Source\PSoC4/nRF24_FUNCS.c ****     nRF24_transmit_pulse();
 605:Generated_Source\PSoC4/nRF24_FUNCS.c **** }
 606:Generated_Source\PSoC4/nRF24_FUNCS.c **** 
 607:Generated_Source\PSoC4/nRF24_FUNCS.c **** /**
 608:Generated_Source\PSoC4/nRF24_FUNCS.c ****  * @brief Enable dynamic payload on the given pipe.
 609:Generated_Source\PSoC4/nRF24_FUNCS.c ****  *
 610:Generated_Source\PSoC4/nRF24_FUNCS.c ****  * @param const nrf_pipe pipe:
 611:Generated_Source\PSoC4/nRF24_FUNCS.c ****  */
 612:Generated_Source\PSoC4/nRF24_FUNCS.c **** void nRF24_enable_dynamic_payload(const nrf_pipe pipe)
 613:Generated_Source\PSoC4/nRF24_FUNCS.c **** {
ARM GAS  C:\Users\Xwx47\AppData\Local\Temp\ccJ5AxKs.s 			page 32


 1148              		.loc 1 613 0
 1149              		.cfi_startproc
 1150              		@ args = 0, pretend = 0, frame = 0
 1151              		@ frame_needed = 0, uses_anonymous_args = 0
 1152              	.LVL120:
 1153 0000 10B5     		push	{r4, lr}
 1154              		.cfi_def_cfa_offset 8
 1155              		.cfi_offset 4, -8
 1156              		.cfi_offset 14, -4
 1157 0002 0400     		movs	r4, r0
 614:Generated_Source\PSoC4/nRF24_FUNCS.c ****     nRF24_set_bit(NRF_EN_AA_REG, pipe);
 1158              		.loc 1 614 0
 1159 0004 0100     		movs	r1, r0
 1160 0006 0120     		movs	r0, #1
 1161              	.LVL121:
 1162 0008 FFF7FEFF 		bl	nRF24_set_bit
 1163              	.LVL122:
 615:Generated_Source\PSoC4/nRF24_FUNCS.c ****     nRF24_set_bit(NRF_FEATURE_REG, NRF_FEATURE_EN_ACK_PAY);
 1164              		.loc 1 615 0
 1165 000c 0121     		movs	r1, #1
 1166 000e 1D20     		movs	r0, #29
 1167 0010 FFF7FEFF 		bl	nRF24_set_bit
 1168              	.LVL123:
 616:Generated_Source\PSoC4/nRF24_FUNCS.c ****     nRF24_set_bit(NRF_FEATURE_REG, NRF_FEATURE_EN_DPL);
 1169              		.loc 1 616 0
 1170 0014 0221     		movs	r1, #2
 1171 0016 1D20     		movs	r0, #29
 1172 0018 FFF7FEFF 		bl	nRF24_set_bit
 1173              	.LVL124:
 617:Generated_Source\PSoC4/nRF24_FUNCS.c ****     nRF24_set_bit(NRF_DYNPD_REG, pipe);
 1174              		.loc 1 617 0
 1175 001c 2100     		movs	r1, r4
 1176 001e 1C20     		movs	r0, #28
 1177 0020 FFF7FEFF 		bl	nRF24_set_bit
 1178              	.LVL125:
 618:Generated_Source\PSoC4/nRF24_FUNCS.c **** }
 1179              		.loc 1 618 0
 1180              		@ sp needed
 1181 0024 10BD     		pop	{r4, pc}
 1182              		.cfi_endproc
 1183              	.LFE69:
 1184              		.size	nRF24_enable_dynamic_payload, .-nRF24_enable_dynamic_payload
 1185 0026 C046     		.section	.text.nRF24_disable_dynamic_payload,"ax",%progbits
 1186              		.align	2
 1187              		.global	nRF24_disable_dynamic_payload
 1188              		.code	16
 1189              		.thumb_func
 1190              		.type	nRF24_disable_dynamic_payload, %function
 1191              	nRF24_disable_dynamic_payload:
 1192              	.LFB70:
 619:Generated_Source\PSoC4/nRF24_FUNCS.c **** 
 620:Generated_Source\PSoC4/nRF24_FUNCS.c **** /**
 621:Generated_Source\PSoC4/nRF24_FUNCS.c ****  * @brief Disable dynamic payload on the given pipe.
 622:Generated_Source\PSoC4/nRF24_FUNCS.c ****  *
 623:Generated_Source\PSoC4/nRF24_FUNCS.c ****  * @param const nrf_pipe pipe:
 624:Generated_Source\PSoC4/nRF24_FUNCS.c ****  */
 625:Generated_Source\PSoC4/nRF24_FUNCS.c **** void nRF24_disable_dynamic_payload(const nrf_pipe pipe)
ARM GAS  C:\Users\Xwx47\AppData\Local\Temp\ccJ5AxKs.s 			page 33


 626:Generated_Source\PSoC4/nRF24_FUNCS.c **** {
 1193              		.loc 1 626 0
 1194              		.cfi_startproc
 1195              		@ args = 0, pretend = 0, frame = 0
 1196              		@ frame_needed = 0, uses_anonymous_args = 0
 1197              	.LVL126:
 1198 0000 10B5     		push	{r4, lr}
 1199              		.cfi_def_cfa_offset 8
 1200              		.cfi_offset 4, -8
 1201              		.cfi_offset 14, -4
 1202 0002 0400     		movs	r4, r0
 627:Generated_Source\PSoC4/nRF24_FUNCS.c ****     nRF24_clear_bit(NRF_EN_AA_REG, pipe);
 1203              		.loc 1 627 0
 1204 0004 0100     		movs	r1, r0
 1205 0006 0120     		movs	r0, #1
 1206              	.LVL127:
 1207 0008 FFF7FEFF 		bl	nRF24_clear_bit
 1208              	.LVL128:
 628:Generated_Source\PSoC4/nRF24_FUNCS.c ****     nRF24_clear_bit(NRF_FEATURE_REG, NRF_FEATURE_EN_ACK_PAY);
 1209              		.loc 1 628 0
 1210 000c 0121     		movs	r1, #1
 1211 000e 1D20     		movs	r0, #29
 1212 0010 FFF7FEFF 		bl	nRF24_clear_bit
 1213              	.LVL129:
 629:Generated_Source\PSoC4/nRF24_FUNCS.c ****     nRF24_clear_bit(NRF_FEATURE_REG, NRF_FEATURE_EN_DPL);
 1214              		.loc 1 629 0
 1215 0014 0221     		movs	r1, #2
 1216 0016 1D20     		movs	r0, #29
 1217 0018 FFF7FEFF 		bl	nRF24_clear_bit
 1218              	.LVL130:
 630:Generated_Source\PSoC4/nRF24_FUNCS.c ****     nRF24_clear_bit(NRF_DYNPD_REG, pipe);
 1219              		.loc 1 630 0
 1220 001c 2100     		movs	r1, r4
 1221 001e 1C20     		movs	r0, #28
 1222 0020 FFF7FEFF 		bl	nRF24_clear_bit
 1223              	.LVL131:
 631:Generated_Source\PSoC4/nRF24_FUNCS.c **** }
 1224              		.loc 1 631 0
 1225              		@ sp needed
 1226 0024 10BD     		pop	{r4, pc}
 1227              		.cfi_endproc
 1228              	.LFE70:
 1229              		.size	nRF24_disable_dynamic_payload, .-nRF24_disable_dynamic_payload
 1230 0026 C046     		.section	.text.nRF24_enable_dynamic_payload_length,"ax",%progbits
 1231              		.align	2
 1232              		.global	nRF24_enable_dynamic_payload_length
 1233              		.code	16
 1234              		.thumb_func
 1235              		.type	nRF24_enable_dynamic_payload_length, %function
 1236              	nRF24_enable_dynamic_payload_length:
 1237              	.LFB71:
 632:Generated_Source\PSoC4/nRF24_FUNCS.c **** 
 633:Generated_Source\PSoC4/nRF24_FUNCS.c **** /**
 634:Generated_Source\PSoC4/nRF24_FUNCS.c ****  * @brief Enable dinamic payload length.
 635:Generated_Source\PSoC4/nRF24_FUNCS.c ****  */
 636:Generated_Source\PSoC4/nRF24_FUNCS.c **** void nRF24_enable_dynamic_payload_length(void)
 637:Generated_Source\PSoC4/nRF24_FUNCS.c **** {
ARM GAS  C:\Users\Xwx47\AppData\Local\Temp\ccJ5AxKs.s 			page 34


 1238              		.loc 1 637 0
 1239              		.cfi_startproc
 1240              		@ args = 0, pretend = 0, frame = 0
 1241              		@ frame_needed = 0, uses_anonymous_args = 0
 1242 0000 10B5     		push	{r4, lr}
 1243              		.cfi_def_cfa_offset 8
 1244              		.cfi_offset 4, -8
 1245              		.cfi_offset 14, -4
 638:Generated_Source\PSoC4/nRF24_FUNCS.c ****     nRF24_set_bit(NRF_FEATURE_REG, NRF_FEATURE_EN_DPL);
 1246              		.loc 1 638 0
 1247 0002 0221     		movs	r1, #2
 1248 0004 1D20     		movs	r0, #29
 1249 0006 FFF7FEFF 		bl	nRF24_set_bit
 1250              	.LVL132:
 639:Generated_Source\PSoC4/nRF24_FUNCS.c **** }
 1251              		.loc 1 639 0
 1252              		@ sp needed
 1253 000a 10BD     		pop	{r4, pc}
 1254              		.cfi_endproc
 1255              	.LFE71:
 1256              		.size	nRF24_enable_dynamic_payload_length, .-nRF24_enable_dynamic_payload_length
 1257              		.section	.text.nRF24_disable_dynamic_payload_length,"ax",%progbits
 1258              		.align	2
 1259              		.global	nRF24_disable_dynamic_payload_length
 1260              		.code	16
 1261              		.thumb_func
 1262              		.type	nRF24_disable_dynamic_payload_length, %function
 1263              	nRF24_disable_dynamic_payload_length:
 1264              	.LFB72:
 640:Generated_Source\PSoC4/nRF24_FUNCS.c **** 
 641:Generated_Source\PSoC4/nRF24_FUNCS.c **** /**
 642:Generated_Source\PSoC4/nRF24_FUNCS.c ****  * @brief Disable dynamic payload length.
 643:Generated_Source\PSoC4/nRF24_FUNCS.c ****  */
 644:Generated_Source\PSoC4/nRF24_FUNCS.c **** void nRF24_disable_dynamic_payload_length(void)
 645:Generated_Source\PSoC4/nRF24_FUNCS.c **** {
 1265              		.loc 1 645 0
 1266              		.cfi_startproc
 1267              		@ args = 0, pretend = 0, frame = 0
 1268              		@ frame_needed = 0, uses_anonymous_args = 0
 1269 0000 10B5     		push	{r4, lr}
 1270              		.cfi_def_cfa_offset 8
 1271              		.cfi_offset 4, -8
 1272              		.cfi_offset 14, -4
 646:Generated_Source\PSoC4/nRF24_FUNCS.c ****     nRF24_clear_bit(NRF_FEATURE_REG, NRF_FEATURE_EN_DPL);
 1273              		.loc 1 646 0
 1274 0002 0221     		movs	r1, #2
 1275 0004 1D20     		movs	r0, #29
 1276 0006 FFF7FEFF 		bl	nRF24_clear_bit
 1277              	.LVL133:
 647:Generated_Source\PSoC4/nRF24_FUNCS.c **** }
 1278              		.loc 1 647 0
 1279              		@ sp needed
 1280 000a 10BD     		pop	{r4, pc}
 1281              		.cfi_endproc
 1282              	.LFE72:
 1283              		.size	nRF24_disable_dynamic_payload_length, .-nRF24_disable_dynamic_payload_length
 1284              		.section	.text.nRF24_enable_payload_with_ack,"ax",%progbits
ARM GAS  C:\Users\Xwx47\AppData\Local\Temp\ccJ5AxKs.s 			page 35


 1285              		.align	2
 1286              		.global	nRF24_enable_payload_with_ack
 1287              		.code	16
 1288              		.thumb_func
 1289              		.type	nRF24_enable_payload_with_ack, %function
 1290              	nRF24_enable_payload_with_ack:
 1291              	.LFB73:
 648:Generated_Source\PSoC4/nRF24_FUNCS.c **** 
 649:Generated_Source\PSoC4/nRF24_FUNCS.c **** /**
 650:Generated_Source\PSoC4/nRF24_FUNCS.c ****  * @brief Enable payload with ACK.
 651:Generated_Source\PSoC4/nRF24_FUNCS.c ****  */
 652:Generated_Source\PSoC4/nRF24_FUNCS.c **** void nRF24_enable_payload_with_ack(void)
 653:Generated_Source\PSoC4/nRF24_FUNCS.c **** {
 1292              		.loc 1 653 0
 1293              		.cfi_startproc
 1294              		@ args = 0, pretend = 0, frame = 0
 1295              		@ frame_needed = 0, uses_anonymous_args = 0
 1296 0000 10B5     		push	{r4, lr}
 1297              		.cfi_def_cfa_offset 8
 1298              		.cfi_offset 4, -8
 1299              		.cfi_offset 14, -4
 654:Generated_Source\PSoC4/nRF24_FUNCS.c ****     nRF24_set_bit(NRF_FEATURE_REG, NRF_FEATURE_EN_ACK_PAY);
 1300              		.loc 1 654 0
 1301 0002 0121     		movs	r1, #1
 1302 0004 1D20     		movs	r0, #29
 1303 0006 FFF7FEFF 		bl	nRF24_set_bit
 1304              	.LVL134:
 655:Generated_Source\PSoC4/nRF24_FUNCS.c **** }
 1305              		.loc 1 655 0
 1306              		@ sp needed
 1307 000a 10BD     		pop	{r4, pc}
 1308              		.cfi_endproc
 1309              	.LFE73:
 1310              		.size	nRF24_enable_payload_with_ack, .-nRF24_enable_payload_with_ack
 1311              		.section	.text.nRF24_disable_payload_with_ack,"ax",%progbits
 1312              		.align	2
 1313              		.global	nRF24_disable_payload_with_ack
 1314              		.code	16
 1315              		.thumb_func
 1316              		.type	nRF24_disable_payload_with_ack, %function
 1317              	nRF24_disable_payload_with_ack:
 1318              	.LFB74:
 656:Generated_Source\PSoC4/nRF24_FUNCS.c **** 
 657:Generated_Source\PSoC4/nRF24_FUNCS.c **** /**
 658:Generated_Source\PSoC4/nRF24_FUNCS.c ****  * @brief Disable Payload with ACK.
 659:Generated_Source\PSoC4/nRF24_FUNCS.c ****  */
 660:Generated_Source\PSoC4/nRF24_FUNCS.c **** void nRF24_disable_payload_with_ack(void)
 661:Generated_Source\PSoC4/nRF24_FUNCS.c **** {
 1319              		.loc 1 661 0
 1320              		.cfi_startproc
 1321              		@ args = 0, pretend = 0, frame = 0
 1322              		@ frame_needed = 0, uses_anonymous_args = 0
 1323 0000 10B5     		push	{r4, lr}
 1324              		.cfi_def_cfa_offset 8
 1325              		.cfi_offset 4, -8
 1326              		.cfi_offset 14, -4
 662:Generated_Source\PSoC4/nRF24_FUNCS.c ****     nRF24_clear_bit(NRF_FEATURE_REG, NRF_FEATURE_EN_ACK_PAY);
ARM GAS  C:\Users\Xwx47\AppData\Local\Temp\ccJ5AxKs.s 			page 36


 1327              		.loc 1 662 0
 1328 0002 0121     		movs	r1, #1
 1329 0004 1D20     		movs	r0, #29
 1330 0006 FFF7FEFF 		bl	nRF24_clear_bit
 1331              	.LVL135:
 663:Generated_Source\PSoC4/nRF24_FUNCS.c **** }
 1332              		.loc 1 663 0
 1333              		@ sp needed
 1334 000a 10BD     		pop	{r4, pc}
 1335              		.cfi_endproc
 1336              	.LFE74:
 1337              		.size	nRF24_disable_payload_with_ack, .-nRF24_disable_payload_with_ack
 1338              		.section	.text.nRF24_enable_payload_with_no_ack_cmd,"ax",%progbits
 1339              		.align	2
 1340              		.global	nRF24_enable_payload_with_no_ack_cmd
 1341              		.code	16
 1342              		.thumb_func
 1343              		.type	nRF24_enable_payload_with_no_ack_cmd, %function
 1344              	nRF24_enable_payload_with_no_ack_cmd:
 1345              	.LFB75:
 664:Generated_Source\PSoC4/nRF24_FUNCS.c **** 
 665:Generated_Source\PSoC4/nRF24_FUNCS.c **** /**
 666:Generated_Source\PSoC4/nRF24_FUNCS.c ****  * @brief Enable dynamic payload length.
 667:Generated_Source\PSoC4/nRF24_FUNCS.c ****  */
 668:Generated_Source\PSoC4/nRF24_FUNCS.c **** void nRF24_enable_payload_with_no_ack_cmd(void)
 669:Generated_Source\PSoC4/nRF24_FUNCS.c **** {
 1346              		.loc 1 669 0
 1347              		.cfi_startproc
 1348              		@ args = 0, pretend = 0, frame = 0
 1349              		@ frame_needed = 0, uses_anonymous_args = 0
 1350 0000 10B5     		push	{r4, lr}
 1351              		.cfi_def_cfa_offset 8
 1352              		.cfi_offset 4, -8
 1353              		.cfi_offset 14, -4
 670:Generated_Source\PSoC4/nRF24_FUNCS.c ****     nRF24_set_bit(NRF_FEATURE_REG, NRF_FEATURE_EN_DYN_ACK);
 1354              		.loc 1 670 0
 1355 0002 0021     		movs	r1, #0
 1356 0004 1D20     		movs	r0, #29
 1357 0006 FFF7FEFF 		bl	nRF24_set_bit
 1358              	.LVL136:
 671:Generated_Source\PSoC4/nRF24_FUNCS.c **** }
 1359              		.loc 1 671 0
 1360              		@ sp needed
 1361 000a 10BD     		pop	{r4, pc}
 1362              		.cfi_endproc
 1363              	.LFE75:
 1364              		.size	nRF24_enable_payload_with_no_ack_cmd, .-nRF24_enable_payload_with_no_ack_cmd
 1365              		.section	.text.nRF24_disable_payload_with_no_ack_cmd,"ax",%progbits
 1366              		.align	2
 1367              		.global	nRF24_disable_payload_with_no_ack_cmd
 1368              		.code	16
 1369              		.thumb_func
 1370              		.type	nRF24_disable_payload_with_no_ack_cmd, %function
 1371              	nRF24_disable_payload_with_no_ack_cmd:
 1372              	.LFB76:
 672:Generated_Source\PSoC4/nRF24_FUNCS.c **** 
 673:Generated_Source\PSoC4/nRF24_FUNCS.c **** /**
ARM GAS  C:\Users\Xwx47\AppData\Local\Temp\ccJ5AxKs.s 			page 37


 674:Generated_Source\PSoC4/nRF24_FUNCS.c ****  * @brief Disable Payload with no ACK.
 675:Generated_Source\PSoC4/nRF24_FUNCS.c ****  */
 676:Generated_Source\PSoC4/nRF24_FUNCS.c **** void nRF24_disable_payload_with_no_ack_cmd(void)
 677:Generated_Source\PSoC4/nRF24_FUNCS.c **** {
 1373              		.loc 1 677 0
 1374              		.cfi_startproc
 1375              		@ args = 0, pretend = 0, frame = 0
 1376              		@ frame_needed = 0, uses_anonymous_args = 0
 1377 0000 10B5     		push	{r4, lr}
 1378              		.cfi_def_cfa_offset 8
 1379              		.cfi_offset 4, -8
 1380              		.cfi_offset 14, -4
 678:Generated_Source\PSoC4/nRF24_FUNCS.c ****     nRF24_clear_bit(NRF_FEATURE_REG, NRF_FEATURE_EN_DYN_ACK);
 1381              		.loc 1 678 0
 1382 0002 0021     		movs	r1, #0
 1383 0004 1D20     		movs	r0, #29
 1384 0006 FFF7FEFF 		bl	nRF24_clear_bit
 1385              	.LVL137:
 679:Generated_Source\PSoC4/nRF24_FUNCS.c **** }
 1386              		.loc 1 679 0
 1387              		@ sp needed
 1388 000a 10BD     		pop	{r4, pc}
 1389              		.cfi_endproc
 1390              	.LFE76:
 1391              		.size	nRF24_disable_payload_with_no_ack_cmd, .-nRF24_disable_payload_with_no_ack_cmd
 1392              		.section	.text.nRF24_start_listening,"ax",%progbits
 1393              		.align	2
 1394              		.global	nRF24_start_listening
 1395              		.code	16
 1396              		.thumb_func
 1397              		.type	nRF24_start_listening, %function
 1398              	nRF24_start_listening:
 1399              	.LFB77:
 680:Generated_Source\PSoC4/nRF24_FUNCS.c **** 
 681:Generated_Source\PSoC4/nRF24_FUNCS.c **** /**
 682:Generated_Source\PSoC4/nRF24_FUNCS.c ****  * @brief Set the value of the CE pin to listen or not.
 683:Generated_Source\PSoC4/nRF24_FUNCS.c ****  *
 684:Generated_Source\PSoC4/nRF24_FUNCS.c ****  * @param const bool listen: If @listen is set to true, then the radio will
 685:Generated_Source\PSoC4/nRF24_FUNCS.c ****  * listen, if set to false the radio will stop listening.
 686:Generated_Source\PSoC4/nRF24_FUNCS.c ****  
 687:Generated_Source\PSoC4/nRF24_FUNCS.c **** void nRF24_listen(const bool listen)
 688:Generated_Source\PSoC4/nRF24_FUNCS.c **** {
 689:Generated_Source\PSoC4/nRF24_FUNCS.c **** #if defined(CY_GPIO_H)
 690:Generated_Source\PSoC4/nRF24_FUNCS.c ****     listen ? Cy_GPIO_Set(CE_PORT, CE_NUM) : 
 691:Generated_Source\PSoC4/nRF24_FUNCS.c ****             Cy_GPIO_Clr(CE_PORT, CE_NUM);
 692:Generated_Source\PSoC4/nRF24_FUNCS.c **** #else
 693:Generated_Source\PSoC4/nRF24_FUNCS.c ****     listen ? CE_Write(1) : CE_Write(0);
 694:Generated_Source\PSoC4/nRF24_FUNCS.c **** #endif
 695:Generated_Source\PSoC4/nRF24_FUNCS.c **** }
 696:Generated_Source\PSoC4/nRF24_FUNCS.c **** */
 697:Generated_Source\PSoC4/nRF24_FUNCS.c **** 
 698:Generated_Source\PSoC4/nRF24_FUNCS.c **** /**
 699:Generated_Source\PSoC4/nRF24_FUNCS.c ****  * @brief The nRF24 radio will start listening.
 700:Generated_Source\PSoC4/nRF24_FUNCS.c ****  *
 701:Generated_Source\PSoC4/nRF24_FUNCS.c ****  * This function set the pin CE to logic high, this enable the radio for
 702:Generated_Source\PSoC4/nRF24_FUNCS.c ****  * listening.
 703:Generated_Source\PSoC4/nRF24_FUNCS.c ****  */
ARM GAS  C:\Users\Xwx47\AppData\Local\Temp\ccJ5AxKs.s 			page 38


 704:Generated_Source\PSoC4/nRF24_FUNCS.c **** void nRF24_start_listening(void)
 705:Generated_Source\PSoC4/nRF24_FUNCS.c **** {
 1400              		.loc 1 705 0
 1401              		.cfi_startproc
 1402              		@ args = 0, pretend = 0, frame = 0
 1403              		@ frame_needed = 0, uses_anonymous_args = 0
 1404 0000 10B5     		push	{r4, lr}
 1405              		.cfi_def_cfa_offset 8
 1406              		.cfi_offset 4, -8
 1407              		.cfi_offset 14, -4
 706:Generated_Source\PSoC4/nRF24_FUNCS.c **** #if 0
 707:Generated_Source\PSoC4/nRF24_FUNCS.c ****     nRF24_listen(true);
 708:Generated_Source\PSoC4/nRF24_FUNCS.c **** #else
 709:Generated_Source\PSoC4/nRF24_FUNCS.c ****     #if defined(CY_GPIO_H)
 710:Generated_Source\PSoC4/nRF24_FUNCS.c ****     Cy_GPIO_Set(CE_PORT, CE_NUM);
 711:Generated_Source\PSoC4/nRF24_FUNCS.c ****     #else
 712:Generated_Source\PSoC4/nRF24_FUNCS.c ****     CE_Write(1);
 1408              		.loc 1 712 0
 1409 0002 0120     		movs	r0, #1
 1410 0004 FFF7FEFF 		bl	CE_Write
 1411              	.LVL138:
 713:Generated_Source\PSoC4/nRF24_FUNCS.c ****     #endif
 714:Generated_Source\PSoC4/nRF24_FUNCS.c **** #endif
 715:Generated_Source\PSoC4/nRF24_FUNCS.c **** }
 1412              		.loc 1 715 0
 1413              		@ sp needed
 1414 0008 10BD     		pop	{r4, pc}
 1415              		.cfi_endproc
 1416              	.LFE77:
 1417              		.size	nRF24_start_listening, .-nRF24_start_listening
 1418 000a C046     		.section	.text.nRF24_set_standby_ii_mode,"ax",%progbits
 1419              		.align	2
 1420              		.global	nRF24_set_standby_ii_mode
 1421              		.code	16
 1422              		.thumb_func
 1423              		.type	nRF24_set_standby_ii_mode, %function
 1424              	nRF24_set_standby_ii_mode:
 1425              	.LFB44:
 219:Generated_Source\PSoC4/nRF24_FUNCS.c **** #if 0
 1426              		.loc 1 219 0
 1427              		.cfi_startproc
 1428              		@ args = 0, pretend = 0, frame = 0
 1429              		@ frame_needed = 0, uses_anonymous_args = 0
 1430 0000 10B5     		push	{r4, lr}
 1431              		.cfi_def_cfa_offset 8
 1432              		.cfi_offset 4, -8
 1433              		.cfi_offset 14, -4
 223:Generated_Source\PSoC4/nRF24_FUNCS.c **** #endif
 1434              		.loc 1 223 0
 1435 0002 FFF7FEFF 		bl	nRF24_start_listening
 1436              	.LVL139:
 225:Generated_Source\PSoC4/nRF24_FUNCS.c **** }
 1437              		.loc 1 225 0
 1438 0006 0121     		movs	r1, #1
 1439 0008 0020     		movs	r0, #0
 1440 000a FFF7FEFF 		bl	nRF24_set_bit
 1441              	.LVL140:
ARM GAS  C:\Users\Xwx47\AppData\Local\Temp\ccJ5AxKs.s 			page 39


 226:Generated_Source\PSoC4/nRF24_FUNCS.c **** 
 1442              		.loc 1 226 0
 1443              		@ sp needed
 1444 000e 10BD     		pop	{r4, pc}
 1445              		.cfi_endproc
 1446              	.LFE44:
 1447              		.size	nRF24_set_standby_ii_mode, .-nRF24_set_standby_ii_mode
 1448              		.section	.text.nRF24_stop_listening,"ax",%progbits
 1449              		.align	2
 1450              		.global	nRF24_stop_listening
 1451              		.code	16
 1452              		.thumb_func
 1453              		.type	nRF24_stop_listening, %function
 1454              	nRF24_stop_listening:
 1455              	.LFB78:
 716:Generated_Source\PSoC4/nRF24_FUNCS.c **** 
 717:Generated_Source\PSoC4/nRF24_FUNCS.c **** /**
 718:Generated_Source\PSoC4/nRF24_FUNCS.c ****  * @brief The nRF24 radio will stop listening.
 719:Generated_Source\PSoC4/nRF24_FUNCS.c ****  *
 720:Generated_Source\PSoC4/nRF24_FUNCS.c ****  * This function the pin CE of the nRF24 radio will be set to logic low,
 721:Generated_Source\PSoC4/nRF24_FUNCS.c ****  * this disable the radio for listening.
 722:Generated_Source\PSoC4/nRF24_FUNCS.c ****  */
 723:Generated_Source\PSoC4/nRF24_FUNCS.c **** void nRF24_stop_listening(void)
 724:Generated_Source\PSoC4/nRF24_FUNCS.c **** {
 1456              		.loc 1 724 0
 1457              		.cfi_startproc
 1458              		@ args = 0, pretend = 0, frame = 0
 1459              		@ frame_needed = 0, uses_anonymous_args = 0
 1460 0000 10B5     		push	{r4, lr}
 1461              		.cfi_def_cfa_offset 8
 1462              		.cfi_offset 4, -8
 1463              		.cfi_offset 14, -4
 725:Generated_Source\PSoC4/nRF24_FUNCS.c **** #if 0
 726:Generated_Source\PSoC4/nRF24_FUNCS.c ****     nRF24_listen(false);
 727:Generated_Source\PSoC4/nRF24_FUNCS.c **** #else
 728:Generated_Source\PSoC4/nRF24_FUNCS.c ****     #if defined(CY_GPIO_H)
 729:Generated_Source\PSoC4/nRF24_FUNCS.c ****     Cy_GPIO_Clr(CE_PORT, CE_NUM);
 730:Generated_Source\PSoC4/nRF24_FUNCS.c ****     #else
 731:Generated_Source\PSoC4/nRF24_FUNCS.c ****     CE_Write(0);
 1464              		.loc 1 731 0
 1465 0002 0020     		movs	r0, #0
 1466 0004 FFF7FEFF 		bl	CE_Write
 1467              	.LVL141:
 732:Generated_Source\PSoC4/nRF24_FUNCS.c ****     #endif
 733:Generated_Source\PSoC4/nRF24_FUNCS.c **** #endif
 734:Generated_Source\PSoC4/nRF24_FUNCS.c **** }
 1468              		.loc 1 734 0
 1469              		@ sp needed
 1470 0008 10BD     		pop	{r4, pc}
 1471              		.cfi_endproc
 1472              	.LFE78:
 1473              		.size	nRF24_stop_listening, .-nRF24_stop_listening
 1474 000a C046     		.section	.text.nRF24_set_standby_i_mode,"ax",%progbits
 1475              		.align	2
 1476              		.global	nRF24_set_standby_i_mode
 1477              		.code	16
 1478              		.thumb_func
ARM GAS  C:\Users\Xwx47\AppData\Local\Temp\ccJ5AxKs.s 			page 40


 1479              		.type	nRF24_set_standby_i_mode, %function
 1480              	nRF24_set_standby_i_mode:
 1481              	.LFB43:
 200:Generated_Source\PSoC4/nRF24_FUNCS.c **** #if 0
 1482              		.loc 1 200 0
 1483              		.cfi_startproc
 1484              		@ args = 0, pretend = 0, frame = 0
 1485              		@ frame_needed = 0, uses_anonymous_args = 0
 1486 0000 10B5     		push	{r4, lr}
 1487              		.cfi_def_cfa_offset 8
 1488              		.cfi_offset 4, -8
 1489              		.cfi_offset 14, -4
 204:Generated_Source\PSoC4/nRF24_FUNCS.c **** #endif
 1490              		.loc 1 204 0
 1491 0002 FFF7FEFF 		bl	nRF24_stop_listening
 1492              	.LVL142:
 206:Generated_Source\PSoC4/nRF24_FUNCS.c **** }
 1493              		.loc 1 206 0
 1494 0006 0121     		movs	r1, #1
 1495 0008 0020     		movs	r0, #0
 1496 000a FFF7FEFF 		bl	nRF24_set_bit
 1497              	.LVL143:
 207:Generated_Source\PSoC4/nRF24_FUNCS.c **** 
 1498              		.loc 1 207 0
 1499              		@ sp needed
 1500 000e 10BD     		pop	{r4, pc}
 1501              		.cfi_endproc
 1502              	.LFE43:
 1503              		.size	nRF24_set_standby_i_mode, .-nRF24_set_standby_i_mode
 1504              		.section	.text.nRF24_sleep,"ax",%progbits
 1505              		.align	2
 1506              		.global	nRF24_sleep
 1507              		.code	16
 1508              		.thumb_func
 1509              		.type	nRF24_sleep, %function
 1510              	nRF24_sleep:
 1511              	.LFB37:
 128:Generated_Source\PSoC4/nRF24_FUNCS.c ****     // is standby.I the lowest power mode?
 1512              		.loc 1 128 0
 1513              		.cfi_startproc
 1514              		@ args = 0, pretend = 0, frame = 0
 1515              		@ frame_needed = 0, uses_anonymous_args = 0
 1516 0000 10B5     		push	{r4, lr}
 1517              		.cfi_def_cfa_offset 8
 1518              		.cfi_offset 4, -8
 1519              		.cfi_offset 14, -4
 130:Generated_Source\PSoC4/nRF24_FUNCS.c **** }
 1520              		.loc 1 130 0
 1521 0002 FFF7FEFF 		bl	nRF24_set_standby_i_mode
 1522              	.LVL144:
 131:Generated_Source\PSoC4/nRF24_FUNCS.c **** 
 1523              		.loc 1 131 0
 1524              		@ sp needed
 1525 0006 10BD     		pop	{r4, pc}
 1526              		.cfi_endproc
 1527              	.LFE37:
 1528              		.size	nRF24_sleep, .-nRF24_sleep
ARM GAS  C:\Users\Xwx47\AppData\Local\Temp\ccJ5AxKs.s 			page 41


 1529              		.section	.text.nRF24_transmit_pulse,"ax",%progbits
 1530              		.align	2
 1531              		.global	nRF24_transmit_pulse
 1532              		.code	16
 1533              		.thumb_func
 1534              		.type	nRF24_transmit_pulse, %function
 1535              	nRF24_transmit_pulse:
 1536              	.LFB79:
 735:Generated_Source\PSoC4/nRF24_FUNCS.c **** 
 736:Generated_Source\PSoC4/nRF24_FUNCS.c **** /**
 737:Generated_Source\PSoC4/nRF24_FUNCS.c ****  * @brief Transmit pulse on the CE pin.
 738:Generated_Source\PSoC4/nRF24_FUNCS.c ****  *
 739:Generated_Source\PSoC4/nRF24_FUNCS.c ****  * With this function the CE pin of the nRF24 radio will have a pulse of 15us,
 740:Generated_Source\PSoC4/nRF24_FUNCS.c ****  * this pulse trigger a transmission of the content of the TX FIFO.
 741:Generated_Source\PSoC4/nRF24_FUNCS.c ****  */
 742:Generated_Source\PSoC4/nRF24_FUNCS.c **** void nRF24_transmit_pulse(void)
 743:Generated_Source\PSoC4/nRF24_FUNCS.c **** {
 1537              		.loc 1 743 0
 1538              		.cfi_startproc
 1539              		@ args = 0, pretend = 0, frame = 0
 1540              		@ frame_needed = 0, uses_anonymous_args = 0
 1541 0000 10B5     		push	{r4, lr}
 1542              		.cfi_def_cfa_offset 8
 1543              		.cfi_offset 4, -8
 1544              		.cfi_offset 14, -4
 744:Generated_Source\PSoC4/nRF24_FUNCS.c **** #if defined(CY_GPIO_H)
 745:Generated_Source\PSoC4/nRF24_FUNCS.c ****     Cy_GPIO_Set(CE_PORT, CE_NUM);
 746:Generated_Source\PSoC4/nRF24_FUNCS.c ****     CyDelayUs(NRF_CE_PULSE_WIDTH);
 747:Generated_Source\PSoC4/nRF24_FUNCS.c ****     Cy_GPIO_Clr(CE_PORT, CE_NUM);
 748:Generated_Source\PSoC4/nRF24_FUNCS.c **** #else
 749:Generated_Source\PSoC4/nRF24_FUNCS.c ****     CE_Write(1);
 1545              		.loc 1 749 0
 1546 0002 0120     		movs	r0, #1
 1547 0004 FFF7FEFF 		bl	CE_Write
 1548              	.LVL145:
 750:Generated_Source\PSoC4/nRF24_FUNCS.c ****     CyDelayUs(NRF_CE_PULSE_WIDTH);
 1549              		.loc 1 750 0
 1550 0008 0F20     		movs	r0, #15
 1551 000a FFF7FEFF 		bl	CyDelayUs
 1552              	.LVL146:
 751:Generated_Source\PSoC4/nRF24_FUNCS.c ****     CE_Write(0);
 1553              		.loc 1 751 0
 1554 000e 0020     		movs	r0, #0
 1555 0010 FFF7FEFF 		bl	CE_Write
 1556              	.LVL147:
 752:Generated_Source\PSoC4/nRF24_FUNCS.c **** #endif
 753:Generated_Source\PSoC4/nRF24_FUNCS.c **** }
 1557              		.loc 1 753 0
 1558              		@ sp needed
 1559 0014 10BD     		pop	{r4, pc}
 1560              		.cfi_endproc
 1561              	.LFE79:
 1562              		.size	nRF24_transmit_pulse, .-nRF24_transmit_pulse
 1563 0016 C046     		.section	.text.nRF24_reuse_last_transmitted_payload,"ax",%progbits
 1564              		.align	2
 1565              		.global	nRF24_reuse_last_transmitted_payload
 1566              		.code	16
ARM GAS  C:\Users\Xwx47\AppData\Local\Temp\ccJ5AxKs.s 			page 42


 1567              		.thumb_func
 1568              		.type	nRF24_reuse_last_transmitted_payload, %function
 1569              	nRF24_reuse_last_transmitted_payload:
 1570              	.LFB68:
 602:Generated_Source\PSoC4/nRF24_FUNCS.c ****     nRF24_reuse_tx_payload_cmd();
 1571              		.loc 1 602 0
 1572              		.cfi_startproc
 1573              		@ args = 0, pretend = 0, frame = 0
 1574              		@ frame_needed = 0, uses_anonymous_args = 0
 1575 0000 10B5     		push	{r4, lr}
 1576              		.cfi_def_cfa_offset 8
 1577              		.cfi_offset 4, -8
 1578              		.cfi_offset 14, -4
 603:Generated_Source\PSoC4/nRF24_FUNCS.c ****     nRF24_transmit_pulse();
 1579              		.loc 1 603 0
 1580 0002 FFF7FEFF 		bl	nRF24_reuse_tx_payload_cmd
 1581              	.LVL148:
 604:Generated_Source\PSoC4/nRF24_FUNCS.c **** }
 1582              		.loc 1 604 0
 1583 0006 FFF7FEFF 		bl	nRF24_transmit_pulse
 1584              	.LVL149:
 605:Generated_Source\PSoC4/nRF24_FUNCS.c **** 
 1585              		.loc 1 605 0
 1586              		@ sp needed
 1587 000a 10BD     		pop	{r4, pc}
 1588              		.cfi_endproc
 1589              	.LFE68:
 1590              		.size	nRF24_reuse_last_transmitted_payload, .-nRF24_reuse_last_transmitted_payload
 1591              		.section	.text.nRF24_get_status,"ax",%progbits
 1592              		.align	2
 1593              		.global	nRF24_get_status
 1594              		.code	16
 1595              		.thumb_func
 1596              		.type	nRF24_get_status, %function
 1597              	nRF24_get_status:
 1598              	.LFB80:
 754:Generated_Source\PSoC4/nRF24_FUNCS.c **** 
 755:Generated_Source\PSoC4/nRF24_FUNCS.c **** /**
 756:Generated_Source\PSoC4/nRF24_FUNCS.c ****  * @brief Get the STATUS register of the nRF24.
 757:Generated_Source\PSoC4/nRF24_FUNCS.c ****  *
 758:Generated_Source\PSoC4/nRF24_FUNCS.c ****  * @return uint8_t: STATUS register of the nRF24.
 759:Generated_Source\PSoC4/nRF24_FUNCS.c ****  */
 760:Generated_Source\PSoC4/nRF24_FUNCS.c **** uint8_t nRF24_get_status(void)
 761:Generated_Source\PSoC4/nRF24_FUNCS.c **** {
 1599              		.loc 1 761 0
 1600              		.cfi_startproc
 1601              		@ args = 0, pretend = 0, frame = 0
 1602              		@ frame_needed = 0, uses_anonymous_args = 0
 1603 0000 10B5     		push	{r4, lr}
 1604              		.cfi_def_cfa_offset 8
 1605              		.cfi_offset 4, -8
 1606              		.cfi_offset 14, -4
 762:Generated_Source\PSoC4/nRF24_FUNCS.c ****     return nRF24_nop_cmd();
 1607              		.loc 1 762 0
 1608 0002 FFF7FEFF 		bl	nRF24_nop_cmd
 1609              	.LVL150:
 763:Generated_Source\PSoC4/nRF24_FUNCS.c **** }
ARM GAS  C:\Users\Xwx47\AppData\Local\Temp\ccJ5AxKs.s 			page 43


 1610              		.loc 1 763 0
 1611              		@ sp needed
 1612 0006 10BD     		pop	{r4, pc}
 1613              		.cfi_endproc
 1614              	.LFE80:
 1615              		.size	nRF24_get_status, .-nRF24_get_status
 1616              		.section	.text.nRF24_get_retransmissions_count,"ax",%progbits
 1617              		.align	2
 1618              		.global	nRF24_get_retransmissions_count
 1619              		.code	16
 1620              		.thumb_func
 1621              		.type	nRF24_get_retransmissions_count, %function
 1622              	nRF24_get_retransmissions_count:
 1623              	.LFB81:
 764:Generated_Source\PSoC4/nRF24_FUNCS.c **** 
 765:Generated_Source\PSoC4/nRF24_FUNCS.c **** /**
 766:Generated_Source\PSoC4/nRF24_FUNCS.c ****  * @brief Get the number of retransmissions.
 767:Generated_Source\PSoC4/nRF24_FUNCS.c ****  *
 768:Generated_Source\PSoC4/nRF24_FUNCS.c ****  * @return uint8_t: Retransmissions count.
 769:Generated_Source\PSoC4/nRF24_FUNCS.c ****  */
 770:Generated_Source\PSoC4/nRF24_FUNCS.c **** uint8_t nRF24_get_retransmissions_count(void)
 771:Generated_Source\PSoC4/nRF24_FUNCS.c **** {
 1624              		.loc 1 771 0
 1625              		.cfi_startproc
 1626              		@ args = 0, pretend = 0, frame = 0
 1627              		@ frame_needed = 0, uses_anonymous_args = 0
 1628 0000 10B5     		push	{r4, lr}
 1629              		.cfi_def_cfa_offset 8
 1630              		.cfi_offset 4, -8
 1631              		.cfi_offset 14, -4
 772:Generated_Source\PSoC4/nRF24_FUNCS.c ****     uint8_t count = nRF24_read_register(NRF_OBSERVE_TX_REG);
 1632              		.loc 1 772 0
 1633 0002 0820     		movs	r0, #8
 1634 0004 FFF7FEFF 		bl	nRF24_read_register
 1635              	.LVL151:
 773:Generated_Source\PSoC4/nRF24_FUNCS.c ****     return count & NRF_OBSERVE_TX_ARC_CNT_MASK;
 1636              		.loc 1 773 0
 1637 0008 0F23     		movs	r3, #15
 1638 000a 1840     		ands	r0, r3
 1639              	.LVL152:
 774:Generated_Source\PSoC4/nRF24_FUNCS.c **** }
 1640              		.loc 1 774 0
 1641              		@ sp needed
 1642 000c 10BD     		pop	{r4, pc}
 1643              		.cfi_endproc
 1644              	.LFE81:
 1645              		.size	nRF24_get_retransmissions_count, .-nRF24_get_retransmissions_count
 1646 000e C046     		.section	.text.nRF24_get_lost_packets_count,"ax",%progbits
 1647              		.align	2
 1648              		.global	nRF24_get_lost_packets_count
 1649              		.code	16
 1650              		.thumb_func
 1651              		.type	nRF24_get_lost_packets_count, %function
 1652              	nRF24_get_lost_packets_count:
 1653              	.LFB82:
 775:Generated_Source\PSoC4/nRF24_FUNCS.c **** 
 776:Generated_Source\PSoC4/nRF24_FUNCS.c **** /**
ARM GAS  C:\Users\Xwx47\AppData\Local\Temp\ccJ5AxKs.s 			page 44


 777:Generated_Source\PSoC4/nRF24_FUNCS.c ****  * @brief Get the number of lost packets.
 778:Generated_Source\PSoC4/nRF24_FUNCS.c ****  *
 779:Generated_Source\PSoC4/nRF24_FUNCS.c ****  * @return uint8_t: Lost packets.
 780:Generated_Source\PSoC4/nRF24_FUNCS.c ****  */
 781:Generated_Source\PSoC4/nRF24_FUNCS.c **** uint8_t nRF24_get_lost_packets_count(void)
 782:Generated_Source\PSoC4/nRF24_FUNCS.c **** {
 1654              		.loc 1 782 0
 1655              		.cfi_startproc
 1656              		@ args = 0, pretend = 0, frame = 0
 1657              		@ frame_needed = 0, uses_anonymous_args = 0
 1658 0000 10B5     		push	{r4, lr}
 1659              		.cfi_def_cfa_offset 8
 1660              		.cfi_offset 4, -8
 1661              		.cfi_offset 14, -4
 783:Generated_Source\PSoC4/nRF24_FUNCS.c ****     uint8_t lostPackets = nRF24_read_register(NRF_OBSERVE_TX_REG);
 1662              		.loc 1 783 0
 1663 0002 0820     		movs	r0, #8
 1664 0004 FFF7FEFF 		bl	nRF24_read_register
 1665              	.LVL153:
 784:Generated_Source\PSoC4/nRF24_FUNCS.c ****     lostPackets = lostPackets & NRF_OBSERVE_TX_PLOS_CNT_MASK;
 785:Generated_Source\PSoC4/nRF24_FUNCS.c ****     return lostPackets >> NRF_OBSERVE_TX_PLOS_CNT;
 1666              		.loc 1 785 0
 1667 0008 0009     		lsrs	r0, r0, #4
 1668              	.LVL154:
 1669 000a C0B2     		uxtb	r0, r0
 786:Generated_Source\PSoC4/nRF24_FUNCS.c **** }
 1670              		.loc 1 786 0
 1671              		@ sp needed
 1672 000c 10BD     		pop	{r4, pc}
 1673              		.cfi_endproc
 1674              	.LFE82:
 1675              		.size	nRF24_get_lost_packets_count, .-nRF24_get_lost_packets_count
 1676 000e C046     		.section	.text.nRF24_put_in_tx_fifo,"ax",%progbits
 1677              		.align	2
 1678              		.global	nRF24_put_in_tx_fifo
 1679              		.code	16
 1680              		.thumb_func
 1681              		.type	nRF24_put_in_tx_fifo, %function
 1682              	nRF24_put_in_tx_fifo:
 1683              	.LFB83:
 787:Generated_Source\PSoC4/nRF24_FUNCS.c **** 
 788:Generated_Source\PSoC4/nRF24_FUNCS.c **** /**
 789:Generated_Source\PSoC4/nRF24_FUNCS.c ****  * Put data into the TX FIFO wihout sending it.
 790:Generated_Source\PSoC4/nRF24_FUNCS.c ****  *
 791:Generated_Source\PSoC4/nRF24_FUNCS.c ****  * @param const uint8_t* data:
 792:Generated_Source\PSoC4/nRF24_FUNCS.c ****  * @param const size_t size:
 793:Generated_Source\PSoC4/nRF24_FUNCS.c ****  */
 794:Generated_Source\PSoC4/nRF24_FUNCS.c **** void nRF24_put_in_tx_fifo(const uint8_t* data, size_t size)
 795:Generated_Source\PSoC4/nRF24_FUNCS.c **** {
 1684              		.loc 1 795 0
 1685              		.cfi_startproc
 1686              		@ args = 0, pretend = 0, frame = 0
 1687              		@ frame_needed = 0, uses_anonymous_args = 0
 1688              	.LVL155:
 1689 0000 10B5     		push	{r4, lr}
 1690              		.cfi_def_cfa_offset 8
 1691              		.cfi_offset 4, -8
ARM GAS  C:\Users\Xwx47\AppData\Local\Temp\ccJ5AxKs.s 			page 45


 1692              		.cfi_offset 14, -4
 796:Generated_Source\PSoC4/nRF24_FUNCS.c ****     if (NULL == data) {
 1693              		.loc 1 796 0
 1694 0002 0028     		cmp	r0, #0
 1695 0004 04D0     		beq	.L91
 797:Generated_Source\PSoC4/nRF24_FUNCS.c ****         return;
 798:Generated_Source\PSoC4/nRF24_FUNCS.c ****     }
 799:Generated_Source\PSoC4/nRF24_FUNCS.c **** 
 800:Generated_Source\PSoC4/nRF24_FUNCS.c ****     if (NRF_MAX_PAYLOAD_SIZE < size) {
 1696              		.loc 1 800 0
 1697 0006 2029     		cmp	r1, #32
 1698 0008 00D9     		bls	.L93
 801:Generated_Source\PSoC4/nRF24_FUNCS.c ****         size = NRF_MAX_PAYLOAD_SIZE;
 1699              		.loc 1 801 0
 1700 000a 2021     		movs	r1, #32
 1701              	.LVL156:
 1702              	.L93:
 802:Generated_Source\PSoC4/nRF24_FUNCS.c ****     }
 803:Generated_Source\PSoC4/nRF24_FUNCS.c ****     
 804:Generated_Source\PSoC4/nRF24_FUNCS.c ****     nRF24_write_tx_payload_cmd(data, size);
 1703              		.loc 1 804 0
 1704 000c FFF7FEFF 		bl	nRF24_write_tx_payload_cmd
 1705              	.LVL157:
 1706              	.L91:
 805:Generated_Source\PSoC4/nRF24_FUNCS.c **** }
 1707              		.loc 1 805 0
 1708              		@ sp needed
 1709 0010 10BD     		pop	{r4, pc}
 1710              		.cfi_endproc
 1711              	.LFE83:
 1712              		.size	nRF24_put_in_tx_fifo, .-nRF24_put_in_tx_fifo
 1713 0012 C046     		.section	.text.nRF24_transmit,"ax",%progbits
 1714              		.align	2
 1715              		.global	nRF24_transmit
 1716              		.code	16
 1717              		.thumb_func
 1718              		.type	nRF24_transmit, %function
 1719              	nRF24_transmit:
 1720              	.LFB84:
 806:Generated_Source\PSoC4/nRF24_FUNCS.c **** 
 807:Generated_Source\PSoC4/nRF24_FUNCS.c **** /**
 808:Generated_Source\PSoC4/nRF24_FUNCS.c ****  * Put data in TX FIFO and transmit it.
 809:Generated_Source\PSoC4/nRF24_FUNCS.c ****  *
 810:Generated_Source\PSoC4/nRF24_FUNCS.c ****  * @param const uint8_t* data:
 811:Generated_Source\PSoC4/nRF24_FUNCS.c ****  * @param const size_t size:
 812:Generated_Source\PSoC4/nRF24_FUNCS.c ****  */
 813:Generated_Source\PSoC4/nRF24_FUNCS.c **** void nRF24_transmit(const uint8_t* data, size_t size)
 814:Generated_Source\PSoC4/nRF24_FUNCS.c **** {
 1721              		.loc 1 814 0
 1722              		.cfi_startproc
 1723              		@ args = 0, pretend = 0, frame = 0
 1724              		@ frame_needed = 0, uses_anonymous_args = 0
 1725              	.LVL158:
 1726 0000 10B5     		push	{r4, lr}
 1727              		.cfi_def_cfa_offset 8
 1728              		.cfi_offset 4, -8
 1729              		.cfi_offset 14, -4
ARM GAS  C:\Users\Xwx47\AppData\Local\Temp\ccJ5AxKs.s 			page 46


 815:Generated_Source\PSoC4/nRF24_FUNCS.c ****     if (NULL == data) {
 1730              		.loc 1 815 0
 1731 0002 0028     		cmp	r0, #0
 1732 0004 06D0     		beq	.L95
 816:Generated_Source\PSoC4/nRF24_FUNCS.c ****         return;
 817:Generated_Source\PSoC4/nRF24_FUNCS.c ****     }
 818:Generated_Source\PSoC4/nRF24_FUNCS.c ****     
 819:Generated_Source\PSoC4/nRF24_FUNCS.c ****     if (NRF_MAX_PAYLOAD_SIZE < size) {
 1733              		.loc 1 819 0
 1734 0006 2029     		cmp	r1, #32
 1735 0008 00D9     		bls	.L97
 820:Generated_Source\PSoC4/nRF24_FUNCS.c ****         size = NRF_MAX_PAYLOAD_SIZE;
 1736              		.loc 1 820 0
 1737 000a 2021     		movs	r1, #32
 1738              	.LVL159:
 1739              	.L97:
 821:Generated_Source\PSoC4/nRF24_FUNCS.c ****     }
 822:Generated_Source\PSoC4/nRF24_FUNCS.c **** 
 823:Generated_Source\PSoC4/nRF24_FUNCS.c ****     nRF24_put_in_tx_fifo(data, size);
 1740              		.loc 1 823 0
 1741 000c FFF7FEFF 		bl	nRF24_put_in_tx_fifo
 1742              	.LVL160:
 824:Generated_Source\PSoC4/nRF24_FUNCS.c ****     nRF24_transmit_pulse();
 1743              		.loc 1 824 0
 1744 0010 FFF7FEFF 		bl	nRF24_transmit_pulse
 1745              	.LVL161:
 1746              	.L95:
 825:Generated_Source\PSoC4/nRF24_FUNCS.c **** }
 1747              		.loc 1 825 0
 1748              		@ sp needed
 1749 0014 10BD     		pop	{r4, pc}
 1750              		.cfi_endproc
 1751              	.LFE84:
 1752              		.size	nRF24_transmit, .-nRF24_transmit
 1753 0016 C046     		.section	.text.nRF24_is_data_ready,"ax",%progbits
 1754              		.align	2
 1755              		.global	nRF24_is_data_ready
 1756              		.code	16
 1757              		.thumb_func
 1758              		.type	nRF24_is_data_ready, %function
 1759              	nRF24_is_data_ready:
 1760              	.LFB85:
 826:Generated_Source\PSoC4/nRF24_FUNCS.c **** 
 827:Generated_Source\PSoC4/nRF24_FUNCS.c **** /**
 828:Generated_Source\PSoC4/nRF24_FUNCS.c ****  * @brief
 829:Generated_Source\PSoC4/nRF24_FUNCS.c ****  *
 830:Generated_Source\PSoC4/nRF24_FUNCS.c ****  * @return bool: True if there's data ready.
 831:Generated_Source\PSoC4/nRF24_FUNCS.c ****  */
 832:Generated_Source\PSoC4/nRF24_FUNCS.c **** bool nRF24_is_data_ready(void)
 833:Generated_Source\PSoC4/nRF24_FUNCS.c **** {
 1761              		.loc 1 833 0
 1762              		.cfi_startproc
 1763              		@ args = 0, pretend = 0, frame = 0
 1764              		@ frame_needed = 0, uses_anonymous_args = 0
 1765 0000 10B5     		push	{r4, lr}
 1766              		.cfi_def_cfa_offset 8
 1767              		.cfi_offset 4, -8
ARM GAS  C:\Users\Xwx47\AppData\Local\Temp\ccJ5AxKs.s 			page 47


 1768              		.cfi_offset 14, -4
 834:Generated_Source\PSoC4/nRF24_FUNCS.c ****     return NRF_STATUS_RX_DR_MASK & nRF24_get_status();
 1769              		.loc 1 834 0
 1770 0002 FFF7FEFF 		bl	nRF24_get_status
 1771              	.LVL162:
 1772 0006 8009     		lsrs	r0, r0, #6
 1773 0008 0123     		movs	r3, #1
 1774 000a 1840     		ands	r0, r3
 835:Generated_Source\PSoC4/nRF24_FUNCS.c **** }
 1775              		.loc 1 835 0
 1776              		@ sp needed
 1777 000c 10BD     		pop	{r4, pc}
 1778              		.cfi_endproc
 1779              	.LFE85:
 1780              		.size	nRF24_is_data_ready, .-nRF24_is_data_ready
 1781 000e C046     		.section	.text.nRF24_get_rx_payload,"ax",%progbits
 1782              		.align	2
 1783              		.global	nRF24_get_rx_payload
 1784              		.code	16
 1785              		.thumb_func
 1786              		.type	nRF24_get_rx_payload, %function
 1787              	nRF24_get_rx_payload:
 1788              	.LFB86:
 836:Generated_Source\PSoC4/nRF24_FUNCS.c **** 
 837:Generated_Source\PSoC4/nRF24_FUNCS.c **** /**
 838:Generated_Source\PSoC4/nRF24_FUNCS.c ****  * @brief
 839:Generated_Source\PSoC4/nRF24_FUNCS.c ****  *
 840:Generated_Source\PSoC4/nRF24_FUNCS.c ****  * @param uint8_t* data:
 841:Generated_Source\PSoC4/nRF24_FUNCS.c ****  * @param const size_t size:
 842:Generated_Source\PSoC4/nRF24_FUNCS.c ****  */
 843:Generated_Source\PSoC4/nRF24_FUNCS.c **** void nRF24_get_rx_payload(uint8_t* data, const size_t size)
 844:Generated_Source\PSoC4/nRF24_FUNCS.c **** {
 1789              		.loc 1 844 0
 1790              		.cfi_startproc
 1791              		@ args = 0, pretend = 0, frame = 0
 1792              		@ frame_needed = 0, uses_anonymous_args = 0
 1793              	.LVL163:
 1794 0000 70B5     		push	{r4, r5, r6, lr}
 1795              		.cfi_def_cfa_offset 16
 1796              		.cfi_offset 4, -16
 1797              		.cfi_offset 5, -12
 1798              		.cfi_offset 6, -8
 1799              		.cfi_offset 14, -4
 1800 0002 0400     		movs	r4, r0
 1801 0004 0D00     		movs	r5, r1
 845:Generated_Source\PSoC4/nRF24_FUNCS.c ****     if (NULL == data) {
 1802              		.loc 1 845 0
 1803 0006 0028     		cmp	r0, #0
 1804 0008 09D0     		beq	.L100
 846:Generated_Source\PSoC4/nRF24_FUNCS.c ****         return;
 847:Generated_Source\PSoC4/nRF24_FUNCS.c ****     }
 848:Generated_Source\PSoC4/nRF24_FUNCS.c **** #if defined(CY_GPIO_H)
 849:Generated_Source\PSoC4/nRF24_FUNCS.c ****     Cy_GPIO_Clr(CE_PORT, CE_NUM);
 850:Generated_Source\PSoC4/nRF24_FUNCS.c ****     nRF24_read_rx_payload_cmd(data, size);
 851:Generated_Source\PSoC4/nRF24_FUNCS.c ****     Cy_GPIO_Set(CE_PORT, CE_NUM);
 852:Generated_Source\PSoC4/nRF24_FUNCS.c **** #else
 853:Generated_Source\PSoC4/nRF24_FUNCS.c ****     CE_Write(0);
ARM GAS  C:\Users\Xwx47\AppData\Local\Temp\ccJ5AxKs.s 			page 48


 1805              		.loc 1 853 0
 1806 000a 0020     		movs	r0, #0
 1807              	.LVL164:
 1808 000c FFF7FEFF 		bl	CE_Write
 1809              	.LVL165:
 854:Generated_Source\PSoC4/nRF24_FUNCS.c ****     nRF24_read_rx_payload_cmd(data, size);
 1810              		.loc 1 854 0
 1811 0010 2900     		movs	r1, r5
 1812 0012 2000     		movs	r0, r4
 1813 0014 FFF7FEFF 		bl	nRF24_read_rx_payload_cmd
 1814              	.LVL166:
 855:Generated_Source\PSoC4/nRF24_FUNCS.c ****     CE_Write(1);
 1815              		.loc 1 855 0
 1816 0018 0120     		movs	r0, #1
 1817 001a FFF7FEFF 		bl	CE_Write
 1818              	.LVL167:
 1819              	.L100:
 856:Generated_Source\PSoC4/nRF24_FUNCS.c **** #endif
 857:Generated_Source\PSoC4/nRF24_FUNCS.c **** }
 1820              		.loc 1 857 0
 1821              		@ sp needed
 1822              	.LVL168:
 1823              	.LVL169:
 1824 001e 70BD     		pop	{r4, r5, r6, pc}
 1825              		.cfi_endproc
 1826              	.LFE86:
 1827              		.size	nRF24_get_rx_payload, .-nRF24_get_rx_payload
 1828              		.section	.text.nRF24_tx_transmit_wait_no_ack,"ax",%progbits
 1829              		.align	2
 1830              		.global	nRF24_tx_transmit_wait_no_ack
 1831              		.code	16
 1832              		.thumb_func
 1833              		.type	nRF24_tx_transmit_wait_no_ack, %function
 1834              	nRF24_tx_transmit_wait_no_ack:
 1835              	.LFB87:
 858:Generated_Source\PSoC4/nRF24_FUNCS.c **** 
 859:Generated_Source\PSoC4/nRF24_FUNCS.c **** /**
 860:Generated_Source\PSoC4/nRF24_FUNCS.c ****  * @brief
 861:Generated_Source\PSoC4/nRF24_FUNCS.c ****  *
 862:Generated_Source\PSoC4/nRF24_FUNCS.c ****  * @param const uint8_t* data:
 863:Generated_Source\PSoC4/nRF24_FUNCS.c ****  * @param size_t size:
 864:Generated_Source\PSoC4/nRF24_FUNCS.c ****  */
 865:Generated_Source\PSoC4/nRF24_FUNCS.c **** void nRF24_tx_transmit_wait_no_ack(const uint8_t* data, size_t size)
 866:Generated_Source\PSoC4/nRF24_FUNCS.c **** {
 1836              		.loc 1 866 0
 1837              		.cfi_startproc
 1838              		@ args = 0, pretend = 0, frame = 0
 1839              		@ frame_needed = 0, uses_anonymous_args = 0
 1840              	.LVL170:
 1841 0000 10B5     		push	{r4, lr}
 1842              		.cfi_def_cfa_offset 8
 1843              		.cfi_offset 4, -8
 1844              		.cfi_offset 14, -4
 867:Generated_Source\PSoC4/nRF24_FUNCS.c ****     if (NULL == data) {
 1845              		.loc 1 867 0
 1846 0002 0028     		cmp	r0, #0
 1847 0004 05D0     		beq	.L102
ARM GAS  C:\Users\Xwx47\AppData\Local\Temp\ccJ5AxKs.s 			page 49


 868:Generated_Source\PSoC4/nRF24_FUNCS.c ****         return;
 869:Generated_Source\PSoC4/nRF24_FUNCS.c ****     }
 870:Generated_Source\PSoC4/nRF24_FUNCS.c **** 
 871:Generated_Source\PSoC4/nRF24_FUNCS.c ****     if (NRF_MAX_PAYLOAD_SIZE < size) {
 1848              		.loc 1 871 0
 1849 0006 2029     		cmp	r1, #32
 1850 0008 03D8     		bhi	.L102
 872:Generated_Source\PSoC4/nRF24_FUNCS.c ****         return;
 873:Generated_Source\PSoC4/nRF24_FUNCS.c ****     }
 874:Generated_Source\PSoC4/nRF24_FUNCS.c ****     
 875:Generated_Source\PSoC4/nRF24_FUNCS.c ****     nRF24_no_ack_payload_cmd(data, size);
 1851              		.loc 1 875 0
 1852 000a FFF7FEFF 		bl	nRF24_no_ack_payload_cmd
 1853              	.LVL171:
 876:Generated_Source\PSoC4/nRF24_FUNCS.c ****     nRF24_transmit_pulse();
 1854              		.loc 1 876 0
 1855 000e FFF7FEFF 		bl	nRF24_transmit_pulse
 1856              	.LVL172:
 1857              	.L102:
 877:Generated_Source\PSoC4/nRF24_FUNCS.c **** }
 1858              		.loc 1 877 0
 1859              		@ sp needed
 1860 0012 10BD     		pop	{r4, pc}
 1861              		.cfi_endproc
 1862              	.LFE87:
 1863              		.size	nRF24_tx_transmit_wait_no_ack, .-nRF24_tx_transmit_wait_no_ack
 1864              		.section	.text.nRF24_rx_write_payload,"ax",%progbits
 1865              		.align	2
 1866              		.global	nRF24_rx_write_payload
 1867              		.code	16
 1868              		.thumb_func
 1869              		.type	nRF24_rx_write_payload, %function
 1870              	nRF24_rx_write_payload:
 1871              	.LFB88:
 878:Generated_Source\PSoC4/nRF24_FUNCS.c **** 
 879:Generated_Source\PSoC4/nRF24_FUNCS.c **** /**
 880:Generated_Source\PSoC4/nRF24_FUNCS.c ****  * @brief
 881:Generated_Source\PSoC4/nRF24_FUNCS.c ****  *
 882:Generated_Source\PSoC4/nRF24_FUNCS.c ****  * @param const nrf_pipe pipe:
 883:Generated_Source\PSoC4/nRF24_FUNCS.c ****  * @param const uint8_t* data:
 884:Generated_Source\PSoC4/nRF24_FUNCS.c ****  * @param size_t size:
 885:Generated_Source\PSoC4/nRF24_FUNCS.c ****  */
 886:Generated_Source\PSoC4/nRF24_FUNCS.c **** void nRF24_rx_write_payload(const nrf_pipe pipe, const uint8_t* data,
 887:Generated_Source\PSoC4/nRF24_FUNCS.c ****                                      size_t size)
 888:Generated_Source\PSoC4/nRF24_FUNCS.c **** {
 1872              		.loc 1 888 0
 1873              		.cfi_startproc
 1874              		@ args = 0, pretend = 0, frame = 0
 1875              		@ frame_needed = 0, uses_anonymous_args = 0
 1876              	.LVL173:
 1877 0000 10B5     		push	{r4, lr}
 1878              		.cfi_def_cfa_offset 8
 1879              		.cfi_offset 4, -8
 1880              		.cfi_offset 14, -4
 889:Generated_Source\PSoC4/nRF24_FUNCS.c ****     if (NULL == data) {
 1881              		.loc 1 889 0
 1882 0002 0029     		cmp	r1, #0
ARM GAS  C:\Users\Xwx47\AppData\Local\Temp\ccJ5AxKs.s 			page 50


 1883 0004 04D0     		beq	.L104
 890:Generated_Source\PSoC4/nRF24_FUNCS.c ****         return;
 891:Generated_Source\PSoC4/nRF24_FUNCS.c ****     }
 892:Generated_Source\PSoC4/nRF24_FUNCS.c **** 
 893:Generated_Source\PSoC4/nRF24_FUNCS.c ****     if (NRF_MAX_PAYLOAD_SIZE < size) {
 1884              		.loc 1 893 0
 1885 0006 202A     		cmp	r2, #32
 1886 0008 00D9     		bls	.L106
 894:Generated_Source\PSoC4/nRF24_FUNCS.c ****         size = NRF_MAX_PAYLOAD_SIZE;
 1887              		.loc 1 894 0
 1888 000a 2022     		movs	r2, #32
 1889              	.LVL174:
 1890              	.L106:
 895:Generated_Source\PSoC4/nRF24_FUNCS.c ****     }
 896:Generated_Source\PSoC4/nRF24_FUNCS.c ****     
 897:Generated_Source\PSoC4/nRF24_FUNCS.c ****     nRF24_write_ack_payload_cmd(pipe, data, size);
 1891              		.loc 1 897 0
 1892 000c FFF7FEFF 		bl	nRF24_write_ack_payload_cmd
 1893              	.LVL175:
 1894              	.L104:
 898:Generated_Source\PSoC4/nRF24_FUNCS.c **** }
 1895              		.loc 1 898 0
 1896              		@ sp needed
 1897 0010 10BD     		pop	{r4, pc}
 1898              		.cfi_endproc
 1899              	.LFE88:
 1900              		.size	nRF24_rx_write_payload, .-nRF24_rx_write_payload
 1901 0012 C046     		.section	.text.nRF24_get_data_pipe_with_payload,"ax",%progbits
 1902              		.align	2
 1903              		.global	nRF24_get_data_pipe_with_payload
 1904              		.code	16
 1905              		.thumb_func
 1906              		.type	nRF24_get_data_pipe_with_payload, %function
 1907              	nRF24_get_data_pipe_with_payload:
 1908              	.LFB89:
 899:Generated_Source\PSoC4/nRF24_FUNCS.c **** 
 900:Generated_Source\PSoC4/nRF24_FUNCS.c **** /**
 901:Generated_Source\PSoC4/nRF24_FUNCS.c ****  * Return the pipe number with data.
 902:Generated_Source\PSoC4/nRF24_FUNCS.c ****  *
 903:Generated_Source\PSoC4/nRF24_FUNCS.c ****  * @return uint8_t:
 904:Generated_Source\PSoC4/nRF24_FUNCS.c ****  */
 905:Generated_Source\PSoC4/nRF24_FUNCS.c **** uint8_t nRF24_get_data_pipe_with_payload(void)
 906:Generated_Source\PSoC4/nRF24_FUNCS.c **** {
 1909              		.loc 1 906 0
 1910              		.cfi_startproc
 1911              		@ args = 0, pretend = 0, frame = 0
 1912              		@ frame_needed = 0, uses_anonymous_args = 0
 1913 0000 10B5     		push	{r4, lr}
 1914              		.cfi_def_cfa_offset 8
 1915              		.cfi_offset 4, -8
 1916              		.cfi_offset 14, -4
 907:Generated_Source\PSoC4/nRF24_FUNCS.c ****     uint8_t pipe = nRF24_read_register(NRF_STATUS_REG);
 1917              		.loc 1 907 0
 1918 0002 0720     		movs	r0, #7
 1919 0004 FFF7FEFF 		bl	nRF24_read_register
 1920              	.LVL176:
 908:Generated_Source\PSoC4/nRF24_FUNCS.c ****     return (pipe & NRF_STATUS_PIPES_MASK) >> NRF_STATUS_PIPES_SHIFT;
ARM GAS  C:\Users\Xwx47\AppData\Local\Temp\ccJ5AxKs.s 			page 51


 1921              		.loc 1 908 0
 1922 0008 4010     		asrs	r0, r0, #1
 1923              	.LVL177:
 1924 000a 0723     		movs	r3, #7
 1925 000c 1840     		ands	r0, r3
 909:Generated_Source\PSoC4/nRF24_FUNCS.c **** }
 1926              		.loc 1 909 0
 1927              		@ sp needed
 1928 000e 10BD     		pop	{r4, pc}
 1929              		.cfi_endproc
 1930              	.LFE89:
 1931              		.size	nRF24_get_data_pipe_with_payload, .-nRF24_get_data_pipe_with_payload
 1932              		.section	.text.nRF24_received_power_detector,"ax",%progbits
 1933              		.align	2
 1934              		.global	nRF24_received_power_detector
 1935              		.code	16
 1936              		.thumb_func
 1937              		.type	nRF24_received_power_detector, %function
 1938              	nRF24_received_power_detector:
 1939              	.LFB90:
 910:Generated_Source\PSoC4/nRF24_FUNCS.c **** 
 911:Generated_Source\PSoC4/nRF24_FUNCS.c **** /**
 912:Generated_Source\PSoC4/nRF24_FUNCS.c ****  * @brief
 913:Generated_Source\PSoC4/nRF24_FUNCS.c ****  *
 914:Generated_Source\PSoC4/nRF24_FUNCS.c ****  * @return uint8_t:
 915:Generated_Source\PSoC4/nRF24_FUNCS.c ****  */
 916:Generated_Source\PSoC4/nRF24_FUNCS.c **** uint8_t nRF24_received_power_detector(void)
 917:Generated_Source\PSoC4/nRF24_FUNCS.c **** {
 1940              		.loc 1 917 0
 1941              		.cfi_startproc
 1942              		@ args = 0, pretend = 0, frame = 0
 1943              		@ frame_needed = 0, uses_anonymous_args = 0
 1944 0000 10B5     		push	{r4, lr}
 1945              		.cfi_def_cfa_offset 8
 1946              		.cfi_offset 4, -8
 1947              		.cfi_offset 14, -4
 918:Generated_Source\PSoC4/nRF24_FUNCS.c ****     return nRF24_read_bit(NRF_RPD_REG, NRF_RPD_RPD);
 1948              		.loc 1 918 0
 1949 0002 0021     		movs	r1, #0
 1950 0004 0920     		movs	r0, #9
 1951 0006 FFF7FEFF 		bl	nRF24_read_bit
 1952              	.LVL178:
 919:Generated_Source\PSoC4/nRF24_FUNCS.c **** }
 1953              		.loc 1 919 0
 1954              		@ sp needed
 1955 000a 10BD     		pop	{r4, pc}
 1956              		.cfi_endproc
 1957              	.LFE90:
 1958              		.size	nRF24_received_power_detector, .-nRF24_received_power_detector
 1959              		.section	.text.nRF24_is_tx_fifo_full,"ax",%progbits
 1960              		.align	2
 1961              		.global	nRF24_is_tx_fifo_full
 1962              		.code	16
 1963              		.thumb_func
 1964              		.type	nRF24_is_tx_fifo_full, %function
 1965              	nRF24_is_tx_fifo_full:
 1966              	.LFB91:
ARM GAS  C:\Users\Xwx47\AppData\Local\Temp\ccJ5AxKs.s 			page 52


 920:Generated_Source\PSoC4/nRF24_FUNCS.c **** 
 921:Generated_Source\PSoC4/nRF24_FUNCS.c **** /**
 922:Generated_Source\PSoC4/nRF24_FUNCS.c ****  * @return bool: true if the TX FIFO is full, false if it have available
 923:Generated_Source\PSoC4/nRF24_FUNCS.c ****  * locations.
 924:Generated_Source\PSoC4/nRF24_FUNCS.c ****  */
 925:Generated_Source\PSoC4/nRF24_FUNCS.c **** bool nRF24_is_tx_fifo_full(void)
 926:Generated_Source\PSoC4/nRF24_FUNCS.c **** {
 1967              		.loc 1 926 0
 1968              		.cfi_startproc
 1969              		@ args = 0, pretend = 0, frame = 0
 1970              		@ frame_needed = 0, uses_anonymous_args = 0
 1971 0000 10B5     		push	{r4, lr}
 1972              		.cfi_def_cfa_offset 8
 1973              		.cfi_offset 4, -8
 1974              		.cfi_offset 14, -4
 927:Generated_Source\PSoC4/nRF24_FUNCS.c ****     return nRF24_read_bit(NRF_FIFO_STATUS_REG, NRF_FIFO_STATUS_TX_FULL);
 1975              		.loc 1 927 0
 1976 0002 0521     		movs	r1, #5
 1977 0004 1720     		movs	r0, #23
 1978 0006 FFF7FEFF 		bl	nRF24_read_bit
 1979              	.LVL179:
 928:Generated_Source\PSoC4/nRF24_FUNCS.c **** }
 1980              		.loc 1 928 0
 1981              		@ sp needed
 1982 000a 10BD     		pop	{r4, pc}
 1983              		.cfi_endproc
 1984              	.LFE91:
 1985              		.size	nRF24_is_tx_fifo_full, .-nRF24_is_tx_fifo_full
 1986              		.section	.text.nRF24_is_rx_fifo_empty,"ax",%progbits
 1987              		.align	2
 1988              		.global	nRF24_is_rx_fifo_empty
 1989              		.code	16
 1990              		.thumb_func
 1991              		.type	nRF24_is_rx_fifo_empty, %function
 1992              	nRF24_is_rx_fifo_empty:
 1993              	.LFB92:
 929:Generated_Source\PSoC4/nRF24_FUNCS.c **** 
 930:Generated_Source\PSoC4/nRF24_FUNCS.c **** /**
 931:Generated_Source\PSoC4/nRF24_FUNCS.c ****  * @return bool: true if the RX FIFO es empty, false if any pipe have data.
 932:Generated_Source\PSoC4/nRF24_FUNCS.c ****  */
 933:Generated_Source\PSoC4/nRF24_FUNCS.c **** bool nRF24_is_rx_fifo_empty(void)
 934:Generated_Source\PSoC4/nRF24_FUNCS.c **** {
 1994              		.loc 1 934 0
 1995              		.cfi_startproc
 1996              		@ args = 0, pretend = 0, frame = 0
 1997              		@ frame_needed = 0, uses_anonymous_args = 0
 1998 0000 10B5     		push	{r4, lr}
 1999              		.cfi_def_cfa_offset 8
 2000              		.cfi_offset 4, -8
 2001              		.cfi_offset 14, -4
 935:Generated_Source\PSoC4/nRF24_FUNCS.c ****     return nRF24_read_bit(NRF_FIFO_STATUS_REG, NRF_FIFO_STATUS_RX_EMPTY);
 2002              		.loc 1 935 0
 2003 0002 0021     		movs	r1, #0
 2004 0004 1720     		movs	r0, #23
 2005 0006 FFF7FEFF 		bl	nRF24_read_bit
 2006              	.LVL180:
 936:Generated_Source\PSoC4/nRF24_FUNCS.c **** }
ARM GAS  C:\Users\Xwx47\AppData\Local\Temp\ccJ5AxKs.s 			page 53


 2007              		.loc 1 936 0
 2008              		@ sp needed
 2009 000a 10BD     		pop	{r4, pc}
 2010              		.cfi_endproc
 2011              	.LFE92:
 2012              		.size	nRF24_is_rx_fifo_empty, .-nRF24_is_rx_fifo_empty
 2013              		.section	.text.nRF24_test_carrier,"ax",%progbits
 2014              		.align	2
 2015              		.global	nRF24_test_carrier
 2016              		.code	16
 2017              		.thumb_func
 2018              		.type	nRF24_test_carrier, %function
 2019              	nRF24_test_carrier:
 2020              	.LFB93:
 937:Generated_Source\PSoC4/nRF24_FUNCS.c **** 
 938:Generated_Source\PSoC4/nRF24_FUNCS.c **** /**
 939:Generated_Source\PSoC4/nRF24_FUNCS.c ****  * Received Power Detector triggers at received power levels above -64dBm that
 940:Generated_Source\PSoC4/nRF24_FUNCS.c ****  * are present in the RF channel you receive on. If the received power is less
 941:Generated_Source\PSoC4/nRF24_FUNCS.c ****  * than -64dBm, RDP = 0.
 942:Generated_Source\PSoC4/nRF24_FUNCS.c ****  * The RPD can be read out at any time while nRF24L01+ is in receive mode.
 943:Generated_Source\PSoC4/nRF24_FUNCS.c ****  */
 944:Generated_Source\PSoC4/nRF24_FUNCS.c **** bool nRF24_test_carrier(void)
 945:Generated_Source\PSoC4/nRF24_FUNCS.c **** {
 2021              		.loc 1 945 0
 2022              		.cfi_startproc
 2023              		@ args = 0, pretend = 0, frame = 0
 2024              		@ frame_needed = 0, uses_anonymous_args = 0
 2025 0000 10B5     		push	{r4, lr}
 2026              		.cfi_def_cfa_offset 8
 2027              		.cfi_offset 4, -8
 2028              		.cfi_offset 14, -4
 946:Generated_Source\PSoC4/nRF24_FUNCS.c ****     return nRF24_read_bit(NRF_RPD_REG, NRF_RPD_RPD);
 2029              		.loc 1 946 0
 2030 0002 0021     		movs	r1, #0
 2031 0004 0920     		movs	r0, #9
 2032 0006 FFF7FEFF 		bl	nRF24_read_bit
 2033              	.LVL181:
 947:Generated_Source\PSoC4/nRF24_FUNCS.c **** }
 2034              		.loc 1 947 0
 2035              		@ sp needed
 2036 000a 10BD     		pop	{r4, pc}
 2037              		.cfi_endproc
 2038              	.LFE93:
 2039              		.size	nRF24_test_carrier, .-nRF24_test_carrier
 2040              		.section	.text.nRF24_clear_all_irqs,"ax",%progbits
 2041              		.align	2
 2042              		.global	nRF24_clear_all_irqs
 2043              		.code	16
 2044              		.thumb_func
 2045              		.type	nRF24_clear_all_irqs, %function
 2046              	nRF24_clear_all_irqs:
 2047              	.LFB94:
 948:Generated_Source\PSoC4/nRF24_FUNCS.c **** 
 949:Generated_Source\PSoC4/nRF24_FUNCS.c **** /**
 950:Generated_Source\PSoC4/nRF24_FUNCS.c ****  * This function will write 1 to all the three IRQ "flag" bits on the
 951:Generated_Source\PSoC4/nRF24_FUNCS.c ****  * STATUS register.
 952:Generated_Source\PSoC4/nRF24_FUNCS.c ****  */
ARM GAS  C:\Users\Xwx47\AppData\Local\Temp\ccJ5AxKs.s 			page 54


 953:Generated_Source\PSoC4/nRF24_FUNCS.c **** void nRF24_clear_all_irqs(void)
 954:Generated_Source\PSoC4/nRF24_FUNCS.c **** {
 2048              		.loc 1 954 0
 2049              		.cfi_startproc
 2050              		@ args = 0, pretend = 0, frame = 0
 2051              		@ frame_needed = 0, uses_anonymous_args = 0
 2052 0000 10B5     		push	{r4, lr}
 2053              		.cfi_def_cfa_offset 8
 2054              		.cfi_offset 4, -8
 2055              		.cfi_offset 14, -4
 955:Generated_Source\PSoC4/nRF24_FUNCS.c ****     nRF24_write_register(NRF_STATUS_REG, NRF_ALL_IRQ_MASK);
 2056              		.loc 1 955 0
 2057 0002 7021     		movs	r1, #112
 2058 0004 0720     		movs	r0, #7
 2059 0006 FFF7FEFF 		bl	nRF24_write_register
 2060              	.LVL182:
 956:Generated_Source\PSoC4/nRF24_FUNCS.c **** }
 2061              		.loc 1 956 0
 2062              		@ sp needed
 2063 000a 10BD     		pop	{r4, pc}
 2064              		.cfi_endproc
 2065              	.LFE94:
 2066              		.size	nRF24_clear_all_irqs, .-nRF24_clear_all_irqs
 2067              		.section	.text.nRF24_start,"ax",%progbits
 2068              		.align	2
 2069              		.global	nRF24_start
 2070              		.code	16
 2071              		.thumb_func
 2072              		.type	nRF24_start, %function
 2073              	nRF24_start:
 2074              	.LFB33:
  35:Generated_Source\PSoC4/nRF24_FUNCS.c ****     // Recommended delay to start using the nRF24
 2075              		.loc 1 35 0
 2076              		.cfi_startproc
 2077              		@ args = 0, pretend = 0, frame = 0
 2078              		@ frame_needed = 0, uses_anonymous_args = 0
 2079 0000 10B5     		push	{r4, lr}
 2080              		.cfi_def_cfa_offset 8
 2081              		.cfi_offset 4, -8
 2082              		.cfi_offset 14, -4
  37:Generated_Source\PSoC4/nRF24_FUNCS.c ****     
 2083              		.loc 1 37 0
 2084 0002 6420     		movs	r0, #100
 2085 0004 FFF7FEFF 		bl	CyDelay
 2086              	.LVL183:
  46:Generated_Source\PSoC4/nRF24_FUNCS.c ****     SS_Write(1);
 2087              		.loc 1 46 0
 2088 0008 0020     		movs	r0, #0
 2089 000a FFF7FEFF 		bl	CE_Write
 2090              	.LVL184:
  47:Generated_Source\PSoC4/nRF24_FUNCS.c **** #endif
 2091              		.loc 1 47 0
 2092 000e 0120     		movs	r0, #1
 2093 0010 FFF7FEFF 		bl	SS_Write
 2094              	.LVL185:
  49:Generated_Source\PSoC4/nRF24_FUNCS.c **** 
 2095              		.loc 1 49 0
ARM GAS  C:\Users\Xwx47\AppData\Local\Temp\ccJ5AxKs.s 			page 55


 2096 0014 FFF7FEFF 		bl	SPI_Start
 2097              	.LVL186:
  52:Generated_Source\PSoC4/nRF24_FUNCS.c ****     nRF24_flush_tx_cmd();
 2098              		.loc 1 52 0
 2099 0018 FFF7FEFF 		bl	nRF24_flush_rx_cmd
 2100              	.LVL187:
  53:Generated_Source\PSoC4/nRF24_FUNCS.c ****     // Clear IRQ flags
 2101              		.loc 1 53 0
 2102 001c FFF7FEFF 		bl	nRF24_flush_tx_cmd
 2103              	.LVL188:
  55:Generated_Source\PSoC4/nRF24_FUNCS.c ****     
 2104              		.loc 1 55 0
 2105 0020 FFF7FEFF 		bl	nRF24_clear_all_irqs
 2106              	.LVL189:
  58:Generated_Source\PSoC4/nRF24_FUNCS.c ****     
 2107              		.loc 1 58 0
 2108 0024 FFF7FEFF 		bl	nRF24_init
 2109              	.LVL190:
  61:Generated_Source\PSoC4/nRF24_FUNCS.c **** }
 2110              		.loc 1 61 0
 2111 0028 9620     		movs	r0, #150
 2112 002a FFF7FEFF 		bl	CyDelayUs
 2113              	.LVL191:
  62:Generated_Source\PSoC4/nRF24_FUNCS.c **** 
 2114              		.loc 1 62 0
 2115              		@ sp needed
 2116 002e 10BD     		pop	{r4, pc}
 2117              		.cfi_endproc
 2118              	.LFE33:
 2119              		.size	nRF24_start, .-nRF24_start
 2120              		.section	.text.nRF24_clear_irq_flag,"ax",%progbits
 2121              		.align	2
 2122              		.global	nRF24_clear_irq_flag
 2123              		.code	16
 2124              		.thumb_func
 2125              		.type	nRF24_clear_irq_flag, %function
 2126              	nRF24_clear_irq_flag:
 2127              	.LFB95:
 957:Generated_Source\PSoC4/nRF24_FUNCS.c **** 
 958:Generated_Source\PSoC4/nRF24_FUNCS.c **** /**
 959:Generated_Source\PSoC4/nRF24_FUNCS.c ****  * @brief Clears the specific IRQ flag.
 960:Generated_Source\PSoC4/nRF24_FUNCS.c ****  *
 961:Generated_Source\PSoC4/nRF24_FUNCS.c ****  * Clear the flag by writing 1 to the interrupt flag bit.
 962:Generated_Source\PSoC4/nRF24_FUNCS.c ****  *
 963:Generated_Source\PSoC4/nRF24_FUNCS.c ****  * @param nrf_irq irq_flag: Interrupt flag to clear.
 964:Generated_Source\PSoC4/nRF24_FUNCS.c ****  */
 965:Generated_Source\PSoC4/nRF24_FUNCS.c **** void nRF24_clear_irq_flag(const nrf_irq irq_flag)
 966:Generated_Source\PSoC4/nRF24_FUNCS.c **** {
 2128              		.loc 1 966 0
 2129              		.cfi_startproc
 2130              		@ args = 0, pretend = 0, frame = 0
 2131              		@ frame_needed = 0, uses_anonymous_args = 0
 2132              	.LVL192:
 2133 0000 10B5     		push	{r4, lr}
 2134              		.cfi_def_cfa_offset 8
 2135              		.cfi_offset 4, -8
 2136              		.cfi_offset 14, -4
ARM GAS  C:\Users\Xwx47\AppData\Local\Temp\ccJ5AxKs.s 			page 56


 967:Generated_Source\PSoC4/nRF24_FUNCS.c ****     nRF24_write_register(NRF_STATUS_REG, (1 << irq_flag));
 2137              		.loc 1 967 0
 2138 0002 0121     		movs	r1, #1
 2139 0004 8140     		lsls	r1, r1, r0
 2140 0006 C9B2     		uxtb	r1, r1
 2141 0008 0720     		movs	r0, #7
 2142              	.LVL193:
 2143 000a FFF7FEFF 		bl	nRF24_write_register
 2144              	.LVL194:
 968:Generated_Source\PSoC4/nRF24_FUNCS.c **** }
 2145              		.loc 1 968 0
 2146              		@ sp needed
 2147 000e 10BD     		pop	{r4, pc}
 2148              		.cfi_endproc
 2149              	.LFE95:
 2150              		.size	nRF24_clear_irq_flag, .-nRF24_clear_irq_flag
 2151              		.section	.text.nRF24_get_irq_flag,"ax",%progbits
 2152              		.align	2
 2153              		.global	nRF24_get_irq_flag
 2154              		.code	16
 2155              		.thumb_func
 2156              		.type	nRF24_get_irq_flag, %function
 2157              	nRF24_get_irq_flag:
 2158              	.LFB96:
 969:Generated_Source\PSoC4/nRF24_FUNCS.c **** 
 970:Generated_Source\PSoC4/nRF24_FUNCS.c **** /**
 971:Generated_Source\PSoC4/nRF24_FUNCS.c ****  * This method is used to get if any of the IRQ "flag" bits on the STATUS
 972:Generated_Source\PSoC4/nRF24_FUNCS.c ****  * register is set to 1. This function returns 0 is none of the flag bits
 973:Generated_Source\PSoC4/nRF24_FUNCS.c ****  * is not set to 1.
 974:Generated_Source\PSoC4/nRF24_FUNCS.c ****  *
 975:Generated_Source\PSoC4/nRF24_FUNCS.c ****  * @return nrf_irq: Asserted bit of the interrupt flags.
 976:Generated_Source\PSoC4/nRF24_FUNCS.c ****  */
 977:Generated_Source\PSoC4/nRF24_FUNCS.c **** nrf_irq nRF24_get_irq_flag(void)
 978:Generated_Source\PSoC4/nRF24_FUNCS.c **** {
 2159              		.loc 1 978 0
 2160              		.cfi_startproc
 2161              		@ args = 0, pretend = 0, frame = 0
 2162              		@ frame_needed = 0, uses_anonymous_args = 0
 2163 0000 10B5     		push	{r4, lr}
 2164              		.cfi_def_cfa_offset 8
 2165              		.cfi_offset 4, -8
 2166              		.cfi_offset 14, -4
 2167              	.LVL195:
 979:Generated_Source\PSoC4/nRF24_FUNCS.c ****     nrf_irq irq = NRF_NONE_IRQ;
 980:Generated_Source\PSoC4/nRF24_FUNCS.c ****     
 981:Generated_Source\PSoC4/nRF24_FUNCS.c ****     // Get the STATUS register
 982:Generated_Source\PSoC4/nRF24_FUNCS.c ****     uint8_t sts = nRF24_nop_cmd();
 2168              		.loc 1 982 0
 2169 0002 FFF7FEFF 		bl	nRF24_nop_cmd
 2170              	.LVL196:
 983:Generated_Source\PSoC4/nRF24_FUNCS.c ****     
 984:Generated_Source\PSoC4/nRF24_FUNCS.c ****     // We only care if bits 4, 5 or 6 are set, so we mask the STATUS with 0x0111_0000
 985:Generated_Source\PSoC4/nRF24_FUNCS.c ****     switch (sts & NRF_ALL_IRQ_MASK) {
 2171              		.loc 1 985 0
 2172 0006 7023     		movs	r3, #112
 2173 0008 1840     		ands	r0, r3
 2174              	.LVL197:
ARM GAS  C:\Users\Xwx47\AppData\Local\Temp\ccJ5AxKs.s 			page 57


 2175 000a 2028     		cmp	r0, #32
 2176 000c 0AD0     		beq	.L121
 2177 000e 4028     		cmp	r0, #64
 2178 0010 02D0     		beq	.L119
 2179 0012 1028     		cmp	r0, #16
 2180 0014 04D1     		bne	.L122
 2181 0016 01E0     		b	.L120
 2182              	.L119:
 986:Generated_Source\PSoC4/nRF24_FUNCS.c ****     case NRF_STATUS_RX_DR_MASK:
 987:Generated_Source\PSoC4/nRF24_FUNCS.c ****         irq = NRF_RX_DR_IRQ;
 2183              		.loc 1 987 0
 2184 0018 0620     		movs	r0, #6
 2185 001a 04E0     		b	.L118
 2186              	.L120:
 2187              	.LVL198:
 988:Generated_Source\PSoC4/nRF24_FUNCS.c ****         break;
 989:Generated_Source\PSoC4/nRF24_FUNCS.c ****     case NRF_STATUS_TX_DS_MASK:
 990:Generated_Source\PSoC4/nRF24_FUNCS.c ****         irq = NRF_TX_DS_IRQ;
 991:Generated_Source\PSoC4/nRF24_FUNCS.c ****         break;
 992:Generated_Source\PSoC4/nRF24_FUNCS.c ****     case NRF_STATUS_MAX_RT_MASK:
 993:Generated_Source\PSoC4/nRF24_FUNCS.c ****         irq = NRF_MAX_RT_IRQ;
 2188              		.loc 1 993 0
 2189 001c 0420     		movs	r0, #4
 994:Generated_Source\PSoC4/nRF24_FUNCS.c ****         break;
 2190              		.loc 1 994 0
 2191 001e 02E0     		b	.L118
 2192              	.LVL199:
 2193              	.L122:
 995:Generated_Source\PSoC4/nRF24_FUNCS.c ****     default:
 996:Generated_Source\PSoC4/nRF24_FUNCS.c ****         irq = NRF_ALL_IRQ_MASK;
 2194              		.loc 1 996 0
 2195 0020 7020     		movs	r0, #112
 997:Generated_Source\PSoC4/nRF24_FUNCS.c ****         break;
 2196              		.loc 1 997 0
 2197 0022 00E0     		b	.L118
 2198              	.LVL200:
 2199              	.L121:
 990:Generated_Source\PSoC4/nRF24_FUNCS.c ****         break;
 2200              		.loc 1 990 0
 2201 0024 0520     		movs	r0, #5
 2202              	.LVL201:
 2203              	.L118:
 998:Generated_Source\PSoC4/nRF24_FUNCS.c ****     }
 999:Generated_Source\PSoC4/nRF24_FUNCS.c ****     
1000:Generated_Source\PSoC4/nRF24_FUNCS.c ****     return irq;
1001:Generated_Source\PSoC4/nRF24_FUNCS.c **** }
 2204              		.loc 1 1001 0
 2205              		@ sp needed
 2206 0026 10BD     		pop	{r4, pc}
 2207              		.cfi_endproc
 2208              	.LFE96:
 2209              		.size	nRF24_get_irq_flag, .-nRF24_get_irq_flag
 2210              		.text
 2211              	.Letext0:
 2212              		.file 2 "c:\\program files (x86)\\cypress\\psoc creator\\4.1\\psoc creator\\import\\gnu\\arm\\5.4.
 2213              		.file 3 "c:\\program files (x86)\\cypress\\psoc creator\\4.1\\psoc creator\\import\\gnu\\arm\\5.4.
 2214              		.file 4 "c:\\program files (x86)\\cypress\\psoc creator\\4.1\\psoc creator\\import\\gnu\\arm\\5.4.
ARM GAS  C:\Users\Xwx47\AppData\Local\Temp\ccJ5AxKs.s 			page 58


 2215              		.file 5 "Generated_Source\\PSoC4\\nRF24_REGS.h"
 2216              		.file 6 "Generated_Source\\PSoC4\\nRF24_LL_SPI.h"
 2217              		.file 7 "Generated_Source\\PSoC4/CyLib.h"
 2218              		.file 8 "Generated_Source\\PSoC4\\CE.h"
 2219              		.file 9 "Generated_Source\\PSoC4\\nRF24_COMMANDS.h"
 2220              		.file 10 "Generated_Source\\PSoC4\\SS.h"
 2221              		.file 11 "Generated_Source\\PSoC4\\SPI.h"
 2222              		.section	.debug_info,"",%progbits
 2223              	.Ldebug_info0:
 2224 0000 69150000 		.4byte	0x1569
 2225 0004 0400     		.2byte	0x4
 2226 0006 00000000 		.4byte	.Ldebug_abbrev0
 2227 000a 04       		.byte	0x4
 2228 000b 01       		.uleb128 0x1
 2229 000c 28040000 		.4byte	.LASF222
 2230 0010 0C       		.byte	0xc
 2231 0011 A00C0000 		.4byte	.LASF223
 2232 0015 4C020000 		.4byte	.LASF224
 2233 0019 00000000 		.4byte	.Ldebug_ranges0+0
 2234 001d 00000000 		.4byte	0
 2235 0021 00000000 		.4byte	.Ldebug_line0
 2236 0025 02       		.uleb128 0x2
 2237 0026 01       		.byte	0x1
 2238 0027 06       		.byte	0x6
 2239 0028 110F0000 		.4byte	.LASF0
 2240 002c 03       		.uleb128 0x3
 2241 002d C50C0000 		.4byte	.LASF9
 2242 0031 02       		.byte	0x2
 2243 0032 1D       		.byte	0x1d
 2244 0033 37000000 		.4byte	0x37
 2245 0037 02       		.uleb128 0x2
 2246 0038 01       		.byte	0x1
 2247 0039 08       		.byte	0x8
 2248 003a 1D0E0000 		.4byte	.LASF1
 2249 003e 02       		.uleb128 0x2
 2250 003f 02       		.byte	0x2
 2251 0040 05       		.byte	0x5
 2252 0041 A10B0000 		.4byte	.LASF2
 2253 0045 02       		.uleb128 0x2
 2254 0046 02       		.byte	0x2
 2255 0047 07       		.byte	0x7
 2256 0048 1D0F0000 		.4byte	.LASF3
 2257 004c 02       		.uleb128 0x2
 2258 004d 04       		.byte	0x4
 2259 004e 05       		.byte	0x5
 2260 004f 030C0000 		.4byte	.LASF4
 2261 0053 02       		.uleb128 0x2
 2262 0054 04       		.byte	0x4
 2263 0055 07       		.byte	0x7
 2264 0056 960D0000 		.4byte	.LASF5
 2265 005a 02       		.uleb128 0x2
 2266 005b 08       		.byte	0x8
 2267 005c 05       		.byte	0x5
 2268 005d BA080000 		.4byte	.LASF6
 2269 0061 02       		.uleb128 0x2
 2270 0062 08       		.byte	0x8
 2271 0063 07       		.byte	0x7
ARM GAS  C:\Users\Xwx47\AppData\Local\Temp\ccJ5AxKs.s 			page 59


 2272 0064 0D050000 		.4byte	.LASF7
 2273 0068 04       		.uleb128 0x4
 2274 0069 04       		.byte	0x4
 2275 006a 05       		.byte	0x5
 2276 006b 696E7400 		.ascii	"int\000"
 2277 006f 02       		.uleb128 0x2
 2278 0070 04       		.byte	0x4
 2279 0071 07       		.byte	0x7
 2280 0072 1B010000 		.4byte	.LASF8
 2281 0076 03       		.uleb128 0x3
 2282 0077 49080000 		.4byte	.LASF10
 2283 007b 03       		.byte	0x3
 2284 007c 18       		.byte	0x18
 2285 007d 2C000000 		.4byte	0x2c
 2286 0081 02       		.uleb128 0x2
 2287 0082 04       		.byte	0x4
 2288 0083 04       		.byte	0x4
 2289 0084 FC030000 		.4byte	.LASF11
 2290 0088 02       		.uleb128 0x2
 2291 0089 08       		.byte	0x8
 2292 008a 04       		.byte	0x4
 2293 008b BE0F0000 		.4byte	.LASF12
 2294 008f 02       		.uleb128 0x2
 2295 0090 01       		.byte	0x1
 2296 0091 08       		.byte	0x8
 2297 0092 91070000 		.4byte	.LASF13
 2298 0096 03       		.uleb128 0x3
 2299 0097 6A060000 		.4byte	.LASF14
 2300 009b 04       		.byte	0x4
 2301 009c D8       		.byte	0xd8
 2302 009d 6F000000 		.4byte	0x6f
 2303 00a1 02       		.uleb128 0x2
 2304 00a2 08       		.byte	0x8
 2305 00a3 04       		.byte	0x4
 2306 00a4 CB0A0000 		.4byte	.LASF15
 2307 00a8 02       		.uleb128 0x2
 2308 00a9 04       		.byte	0x4
 2309 00aa 07       		.byte	0x7
 2310 00ab 5A0D0000 		.4byte	.LASF16
 2311 00af 05       		.uleb128 0x5
 2312 00b0 01       		.byte	0x1
 2313 00b1 37000000 		.4byte	0x37
 2314 00b5 05       		.byte	0x5
 2315 00b6 1F       		.byte	0x1f
 2316 00b7 58010000 		.4byte	0x158
 2317 00bb 06       		.uleb128 0x6
 2318 00bc 6C100000 		.4byte	.LASF17
 2319 00c0 00       		.byte	0
 2320 00c1 06       		.uleb128 0x6
 2321 00c2 880D0000 		.4byte	.LASF18
 2322 00c6 01       		.byte	0x1
 2323 00c7 06       		.uleb128 0x6
 2324 00c8 BE0B0000 		.4byte	.LASF19
 2325 00cc 02       		.byte	0x2
 2326 00cd 06       		.uleb128 0x6
 2327 00ce EF0C0000 		.4byte	.LASF20
 2328 00d2 03       		.byte	0x3
ARM GAS  C:\Users\Xwx47\AppData\Local\Temp\ccJ5AxKs.s 			page 60


 2329 00d3 06       		.uleb128 0x6
 2330 00d4 27020000 		.4byte	.LASF21
 2331 00d8 04       		.byte	0x4
 2332 00d9 06       		.uleb128 0x6
 2333 00da 99080000 		.4byte	.LASF22
 2334 00de 05       		.byte	0x5
 2335 00df 06       		.uleb128 0x6
 2336 00e0 6D0B0000 		.4byte	.LASF23
 2337 00e4 06       		.byte	0x6
 2338 00e5 06       		.uleb128 0x6
 2339 00e6 5B060000 		.4byte	.LASF24
 2340 00ea 07       		.byte	0x7
 2341 00eb 06       		.uleb128 0x6
 2342 00ec 6B0C0000 		.4byte	.LASF25
 2343 00f0 08       		.byte	0x8
 2344 00f1 06       		.uleb128 0x6
 2345 00f2 E30C0000 		.4byte	.LASF26
 2346 00f6 09       		.byte	0x9
 2347 00f7 06       		.uleb128 0x6
 2348 00f8 0F030000 		.4byte	.LASF27
 2349 00fc 0A       		.byte	0xa
 2350 00fd 06       		.uleb128 0x6
 2351 00fe 2B0E0000 		.4byte	.LASF28
 2352 0102 0B       		.byte	0xb
 2353 0103 06       		.uleb128 0x6
 2354 0104 A7080000 		.4byte	.LASF29
 2355 0108 0C       		.byte	0xc
 2356 0109 06       		.uleb128 0x6
 2357 010a 0F020000 		.4byte	.LASF30
 2358 010e 0D       		.byte	0xd
 2359 010f 06       		.uleb128 0x6
 2360 0110 C1060000 		.4byte	.LASF31
 2361 0114 0E       		.byte	0xe
 2362 0115 06       		.uleb128 0x6
 2363 0116 22080000 		.4byte	.LASF32
 2364 011a 0F       		.byte	0xf
 2365 011b 06       		.uleb128 0x6
 2366 011c C8080000 		.4byte	.LASF33
 2367 0120 10       		.byte	0x10
 2368 0121 06       		.uleb128 0x6
 2369 0122 90090000 		.4byte	.LASF34
 2370 0126 11       		.byte	0x11
 2371 0127 06       		.uleb128 0x6
 2372 0128 B7030000 		.4byte	.LASF35
 2373 012c 12       		.byte	0x12
 2374 012d 06       		.uleb128 0x6
 2375 012e 550E0000 		.4byte	.LASF36
 2376 0132 13       		.byte	0x13
 2377 0133 06       		.uleb128 0x6
 2378 0134 3E090000 		.4byte	.LASF37
 2379 0138 14       		.byte	0x14
 2380 0139 06       		.uleb128 0x6
 2381 013a A3020000 		.4byte	.LASF38
 2382 013e 15       		.byte	0x15
 2383 013f 06       		.uleb128 0x6
 2384 0140 DC0D0000 		.4byte	.LASF39
 2385 0144 16       		.byte	0x16
ARM GAS  C:\Users\Xwx47\AppData\Local\Temp\ccJ5AxKs.s 			page 61


 2386 0145 06       		.uleb128 0x6
 2387 0146 55000000 		.4byte	.LASF40
 2388 014a 17       		.byte	0x17
 2389 014b 06       		.uleb128 0x6
 2390 014c C7020000 		.4byte	.LASF41
 2391 0150 1C       		.byte	0x1c
 2392 0151 06       		.uleb128 0x6
 2393 0152 8C030000 		.4byte	.LASF42
 2394 0156 1D       		.byte	0x1d
 2395 0157 00       		.byte	0
 2396 0158 05       		.uleb128 0x5
 2397 0159 01       		.byte	0x1
 2398 015a 37000000 		.4byte	0x37
 2399 015e 05       		.byte	0x5
 2400 015f 4C       		.byte	0x4c
 2401 0160 89010000 		.4byte	0x189
 2402 0164 06       		.uleb128 0x6
 2403 0165 D4060000 		.4byte	.LASF43
 2404 0169 00       		.byte	0
 2405 016a 06       		.uleb128 0x6
 2406 016b DE060000 		.4byte	.LASF44
 2407 016f 01       		.byte	0x1
 2408 0170 06       		.uleb128 0x6
 2409 0171 E8060000 		.4byte	.LASF45
 2410 0175 02       		.byte	0x2
 2411 0176 06       		.uleb128 0x6
 2412 0177 F2060000 		.4byte	.LASF46
 2413 017b 03       		.byte	0x3
 2414 017c 06       		.uleb128 0x6
 2415 017d FC060000 		.4byte	.LASF47
 2416 0181 04       		.byte	0x4
 2417 0182 06       		.uleb128 0x6
 2418 0183 06070000 		.4byte	.LASF48
 2419 0187 05       		.byte	0x5
 2420 0188 00       		.byte	0
 2421 0189 03       		.uleb128 0x3
 2422 018a DD050000 		.4byte	.LASF49
 2423 018e 05       		.byte	0x5
 2424 018f 53       		.byte	0x53
 2425 0190 58010000 		.4byte	0x158
 2426 0194 05       		.uleb128 0x5
 2427 0195 01       		.byte	0x1
 2428 0196 37000000 		.4byte	0x37
 2429 019a 05       		.byte	0x5
 2430 019b 5F       		.byte	0x5f
 2431 019c C5010000 		.4byte	0x1c5
 2432 01a0 06       		.uleb128 0x6
 2433 01a1 600F0000 		.4byte	.LASF50
 2434 01a5 11       		.byte	0x11
 2435 01a6 06       		.uleb128 0x6
 2436 01a7 CB0E0000 		.4byte	.LASF51
 2437 01ab 12       		.byte	0x12
 2438 01ac 06       		.uleb128 0x6
 2439 01ad 55100000 		.4byte	.LASF52
 2440 01b1 13       		.byte	0x13
 2441 01b2 06       		.uleb128 0x6
 2442 01b3 300F0000 		.4byte	.LASF53
ARM GAS  C:\Users\Xwx47\AppData\Local\Temp\ccJ5AxKs.s 			page 62


 2443 01b7 14       		.byte	0x14
 2444 01b8 06       		.uleb128 0x6
 2445 01b9 9E0E0000 		.4byte	.LASF54
 2446 01bd 15       		.byte	0x15
 2447 01be 06       		.uleb128 0x6
 2448 01bf 3E0E0000 		.4byte	.LASF55
 2449 01c3 16       		.byte	0x16
 2450 01c4 00       		.byte	0
 2451 01c5 03       		.uleb128 0x3
 2452 01c6 B0100000 		.4byte	.LASF56
 2453 01ca 05       		.byte	0x5
 2454 01cb 66       		.byte	0x66
 2455 01cc 94010000 		.4byte	0x194
 2456 01d0 05       		.uleb128 0x5
 2457 01d1 01       		.byte	0x1
 2458 01d2 37000000 		.4byte	0x37
 2459 01d6 05       		.byte	0x5
 2460 01d7 69       		.byte	0x69
 2461 01d8 E9010000 		.4byte	0x1e9
 2462 01dc 06       		.uleb128 0x6
 2463 01dd A1090000 		.4byte	.LASF57
 2464 01e1 00       		.byte	0
 2465 01e2 06       		.uleb128 0x6
 2466 01e3 E1070000 		.4byte	.LASF58
 2467 01e7 01       		.byte	0x1
 2468 01e8 00       		.byte	0
 2469 01e9 03       		.uleb128 0x3
 2470 01ea 19080000 		.4byte	.LASF59
 2471 01ee 05       		.byte	0x5
 2472 01ef 6C       		.byte	0x6c
 2473 01f0 D0010000 		.4byte	0x1d0
 2474 01f4 05       		.uleb128 0x5
 2475 01f5 01       		.byte	0x1
 2476 01f6 37000000 		.4byte	0x37
 2477 01fa 05       		.byte	0x5
 2478 01fb 6E       		.byte	0x6e
 2479 01fc 19020000 		.4byte	0x219
 2480 0200 06       		.uleb128 0x6
 2481 0201 3E010000 		.4byte	.LASF60
 2482 0205 00       		.byte	0
 2483 0206 06       		.uleb128 0x6
 2484 0207 CA000000 		.4byte	.LASF61
 2485 020b 04       		.byte	0x4
 2486 020c 06       		.uleb128 0x6
 2487 020d 0C0C0000 		.4byte	.LASF62
 2488 0211 05       		.byte	0x5
 2489 0212 06       		.uleb128 0x6
 2490 0213 51080000 		.4byte	.LASF63
 2491 0217 06       		.byte	0x6
 2492 0218 00       		.byte	0
 2493 0219 03       		.uleb128 0x3
 2494 021a 0E060000 		.4byte	.LASF64
 2495 021e 05       		.byte	0x5
 2496 021f 73       		.byte	0x73
 2497 0220 F4010000 		.4byte	0x1f4
 2498 0224 05       		.uleb128 0x5
 2499 0225 01       		.byte	0x1
ARM GAS  C:\Users\Xwx47\AppData\Local\Temp\ccJ5AxKs.s 			page 63


 2500 0226 37000000 		.4byte	0x37
 2501 022a 05       		.byte	0x5
 2502 022b 76       		.byte	0x76
 2503 022c 5B020000 		.4byte	0x25b
 2504 0230 06       		.uleb128 0x6
 2505 0231 000D0000 		.4byte	.LASF65
 2506 0235 00       		.byte	0
 2507 0236 06       		.uleb128 0x6
 2508 0237 83060000 		.4byte	.LASF66
 2509 023b 01       		.byte	0x1
 2510 023c 06       		.uleb128 0x6
 2511 023d DE100000 		.4byte	.LASF67
 2512 0241 02       		.byte	0x2
 2513 0242 06       		.uleb128 0x6
 2514 0243 AC0F0000 		.4byte	.LASF68
 2515 0247 03       		.byte	0x3
 2516 0248 06       		.uleb128 0x6
 2517 0249 97010000 		.4byte	.LASF69
 2518 024d 04       		.byte	0x4
 2519 024e 06       		.uleb128 0x6
 2520 024f B4000000 		.4byte	.LASF70
 2521 0253 05       		.byte	0x5
 2522 0254 06       		.uleb128 0x6
 2523 0255 10070000 		.4byte	.LASF71
 2524 0259 06       		.byte	0x6
 2525 025a 00       		.byte	0
 2526 025b 05       		.uleb128 0x5
 2527 025c 01       		.byte	0x1
 2528 025d 37000000 		.4byte	0x37
 2529 0261 05       		.byte	0x5
 2530 0262 81       		.byte	0x81
 2531 0263 8C020000 		.4byte	0x28c
 2532 0267 06       		.uleb128 0x6
 2533 0268 D9000000 		.4byte	.LASF72
 2534 026c 00       		.byte	0
 2535 026d 06       		.uleb128 0x6
 2536 026e C50F0000 		.4byte	.LASF73
 2537 0272 01       		.byte	0x1
 2538 0273 06       		.uleb128 0x6
 2539 0274 D70F0000 		.4byte	.LASF74
 2540 0278 02       		.byte	0x2
 2541 0279 06       		.uleb128 0x6
 2542 027a E90F0000 		.4byte	.LASF75
 2543 027e 03       		.byte	0x3
 2544 027f 06       		.uleb128 0x6
 2545 0280 FB0F0000 		.4byte	.LASF76
 2546 0284 04       		.byte	0x4
 2547 0285 06       		.uleb128 0x6
 2548 0286 0D100000 		.4byte	.LASF77
 2549 028a 05       		.byte	0x5
 2550 028b 00       		.byte	0
 2551 028c 05       		.uleb128 0x5
 2552 028d 01       		.byte	0x1
 2553 028e 37000000 		.4byte	0x37
 2554 0292 05       		.byte	0x5
 2555 0293 8B       		.byte	0x8b
 2556 0294 BD020000 		.4byte	0x2bd
ARM GAS  C:\Users\Xwx47\AppData\Local\Temp\ccJ5AxKs.s 			page 64


 2557 0298 06       		.uleb128 0x6
 2558 0299 D7090000 		.4byte	.LASF78
 2559 029d 00       		.byte	0
 2560 029e 06       		.uleb128 0x6
 2561 029f EC090000 		.4byte	.LASF79
 2562 02a3 01       		.byte	0x1
 2563 02a4 06       		.uleb128 0x6
 2564 02a5 010A0000 		.4byte	.LASF80
 2565 02a9 02       		.byte	0x2
 2566 02aa 06       		.uleb128 0x6
 2567 02ab 160A0000 		.4byte	.LASF81
 2568 02af 03       		.byte	0x3
 2569 02b0 06       		.uleb128 0x6
 2570 02b1 2B0A0000 		.4byte	.LASF82
 2571 02b5 04       		.byte	0x4
 2572 02b6 06       		.uleb128 0x6
 2573 02b7 400A0000 		.4byte	.LASF83
 2574 02bb 05       		.byte	0x5
 2575 02bc 00       		.byte	0
 2576 02bd 05       		.uleb128 0x5
 2577 02be 01       		.byte	0x1
 2578 02bf 37000000 		.4byte	0x37
 2579 02c3 05       		.byte	0x5
 2580 02c4 95       		.byte	0x95
 2581 02c5 DC020000 		.4byte	0x2dc
 2582 02c9 06       		.uleb128 0x6
 2583 02ca AE010000 		.4byte	.LASF84
 2584 02ce 01       		.byte	0x1
 2585 02cf 06       		.uleb128 0x6
 2586 02d0 CF0C0000 		.4byte	.LASF85
 2587 02d4 02       		.byte	0x2
 2588 02d5 06       		.uleb128 0x6
 2589 02d6 4C070000 		.4byte	.LASF86
 2590 02da 03       		.byte	0x3
 2591 02db 00       		.byte	0
 2592 02dc 03       		.uleb128 0x3
 2593 02dd ED070000 		.4byte	.LASF87
 2594 02e1 05       		.byte	0x5
 2595 02e2 99       		.byte	0x99
 2596 02e3 BD020000 		.4byte	0x2bd
 2597 02e7 05       		.uleb128 0x5
 2598 02e8 01       		.byte	0x1
 2599 02e9 37000000 		.4byte	0x37
 2600 02ed 05       		.byte	0x5
 2601 02ee 9C       		.byte	0x9c
 2602 02ef 00030000 		.4byte	0x300
 2603 02f3 06       		.uleb128 0x6
 2604 02f4 41050000 		.4byte	.LASF88
 2605 02f8 00       		.byte	0
 2606 02f9 06       		.uleb128 0x6
 2607 02fa 54050000 		.4byte	.LASF89
 2608 02fe 04       		.byte	0x4
 2609 02ff 00       		.byte	0
 2610 0300 05       		.uleb128 0x5
 2611 0301 01       		.byte	0x1
 2612 0302 37000000 		.4byte	0x37
 2613 0306 05       		.byte	0x5
ARM GAS  C:\Users\Xwx47\AppData\Local\Temp\ccJ5AxKs.s 			page 65


 2614 0307 CA       		.byte	0xca
 2615 0308 31030000 		.4byte	0x331
 2616 030c 06       		.uleb128 0x6
 2617 030d ED0D0000 		.4byte	.LASF90
 2618 0311 01       		.byte	0x1
 2619 0312 06       		.uleb128 0x6
 2620 0313 AB0B0000 		.4byte	.LASF91
 2621 0317 03       		.byte	0x3
 2622 0318 06       		.uleb128 0x6
 2623 0319 70050000 		.4byte	.LASF92
 2624 031d 03       		.byte	0x3
 2625 031e 06       		.uleb128 0x6
 2626 031f B50E0000 		.4byte	.LASF93
 2627 0323 04       		.byte	0x4
 2628 0324 06       		.uleb128 0x6
 2629 0325 050B0000 		.4byte	.LASF94
 2630 0329 05       		.byte	0x5
 2631 032a 06       		.uleb128 0x6
 2632 032b 7E0C0000 		.4byte	.LASF95
 2633 032f 07       		.byte	0x7
 2634 0330 00       		.byte	0
 2635 0331 05       		.uleb128 0x5
 2636 0332 01       		.byte	0x1
 2637 0333 37000000 		.4byte	0x37
 2638 0337 05       		.byte	0x5
 2639 0338 E9       		.byte	0xe9
 2640 0339 50030000 		.4byte	0x350
 2641 033d 06       		.uleb128 0x6
 2642 033e 69000000 		.4byte	.LASF96
 2643 0342 10       		.byte	0x10
 2644 0343 06       		.uleb128 0x6
 2645 0344 D5020000 		.4byte	.LASF97
 2646 0348 20       		.byte	0x20
 2647 0349 06       		.uleb128 0x6
 2648 034a 28010000 		.4byte	.LASF98
 2649 034e 40       		.byte	0x40
 2650 034f 00       		.byte	0
 2651 0350 07       		.uleb128 0x7
 2652 0351 01       		.byte	0x1
 2653 0352 37000000 		.4byte	0x37
 2654 0356 05       		.byte	0x5
 2655 0357 0001     		.2byte	0x100
 2656 0359 6A030000 		.4byte	0x36a
 2657 035d 06       		.uleb128 0x6
 2658 035e 5B030000 		.4byte	.LASF99
 2659 0362 00       		.byte	0
 2660 0363 06       		.uleb128 0x6
 2661 0364 C6100000 		.4byte	.LASF100
 2662 0368 04       		.byte	0x4
 2663 0369 00       		.byte	0
 2664 036a 07       		.uleb128 0x7
 2665 036b 01       		.byte	0x1
 2666 036c 37000000 		.4byte	0x37
 2667 0370 05       		.byte	0x5
 2668 0371 0501     		.2byte	0x105
 2669 0373 84030000 		.4byte	0x384
 2670 0377 06       		.uleb128 0x6
ARM GAS  C:\Users\Xwx47\AppData\Local\Temp\ccJ5AxKs.s 			page 66


 2671 0378 240B0000 		.4byte	.LASF101
 2672 037c 0F       		.byte	0xf
 2673 037d 06       		.uleb128 0x6
 2674 037e 24050000 		.4byte	.LASF102
 2675 0382 F0       		.byte	0xf0
 2676 0383 00       		.byte	0
 2677 0384 07       		.uleb128 0x7
 2678 0385 01       		.byte	0x1
 2679 0386 37000000 		.4byte	0x37
 2680 038a 05       		.byte	0x5
 2681 038b 0B01     		.2byte	0x10b
 2682 038d 98030000 		.4byte	0x398
 2683 0391 06       		.uleb128 0x6
 2684 0392 76080000 		.4byte	.LASF103
 2685 0396 00       		.byte	0
 2686 0397 00       		.byte	0
 2687 0398 07       		.uleb128 0x7
 2688 0399 01       		.byte	0x1
 2689 039a 37000000 		.4byte	0x37
 2690 039e 05       		.byte	0x5
 2691 039f 1501     		.2byte	0x115
 2692 03a1 C4030000 		.4byte	0x3c4
 2693 03a5 06       		.uleb128 0x6
 2694 03a6 EC0A0000 		.4byte	.LASF104
 2695 03aa 00       		.byte	0
 2696 03ab 06       		.uleb128 0x6
 2697 03ac 7E0B0000 		.4byte	.LASF105
 2698 03b0 01       		.byte	0x1
 2699 03b1 06       		.uleb128 0x6
 2700 03b2 0F040000 		.4byte	.LASF106
 2701 03b6 04       		.byte	0x4
 2702 03b7 06       		.uleb128 0x6
 2703 03b8 C40D0000 		.4byte	.LASF107
 2704 03bc 05       		.byte	0x5
 2705 03bd 06       		.uleb128 0x6
 2706 03be 97100000 		.4byte	.LASF108
 2707 03c2 06       		.byte	0x6
 2708 03c3 00       		.byte	0
 2709 03c4 07       		.uleb128 0x7
 2710 03c5 01       		.byte	0x1
 2711 03c6 37000000 		.4byte	0x37
 2712 03ca 05       		.byte	0x5
 2713 03cb 1E01     		.2byte	0x11e
 2714 03cd F6030000 		.4byte	0x3f6
 2715 03d1 06       		.uleb128 0x6
 2716 03d2 61110000 		.4byte	.LASF109
 2717 03d6 00       		.byte	0
 2718 03d7 06       		.uleb128 0x6
 2719 03d8 72110000 		.4byte	.LASF110
 2720 03dc 01       		.byte	0x1
 2721 03dd 06       		.uleb128 0x6
 2722 03de 00000000 		.4byte	.LASF111
 2723 03e2 02       		.byte	0x2
 2724 03e3 06       		.uleb128 0x6
 2725 03e4 11000000 		.4byte	.LASF112
 2726 03e8 03       		.byte	0x3
 2727 03e9 06       		.uleb128 0x6
ARM GAS  C:\Users\Xwx47\AppData\Local\Temp\ccJ5AxKs.s 			page 67


 2728 03ea 22000000 		.4byte	.LASF113
 2729 03ee 04       		.byte	0x4
 2730 03ef 06       		.uleb128 0x6
 2731 03f0 33000000 		.4byte	.LASF114
 2732 03f4 05       		.byte	0x5
 2733 03f5 00       		.byte	0
 2734 03f6 07       		.uleb128 0x7
 2735 03f7 01       		.byte	0x1
 2736 03f8 37000000 		.4byte	0x37
 2737 03fc 05       		.byte	0x5
 2738 03fd 2801     		.2byte	0x128
 2739 03ff 16040000 		.4byte	0x416
 2740 0403 06       		.uleb128 0x6
 2741 0404 7F0A0000 		.4byte	.LASF115
 2742 0408 00       		.byte	0
 2743 0409 06       		.uleb128 0x6
 2744 040a 82080000 		.4byte	.LASF116
 2745 040e 01       		.byte	0x1
 2746 040f 06       		.uleb128 0x6
 2747 0410 550A0000 		.4byte	.LASF117
 2748 0414 02       		.byte	0x2
 2749 0415 00       		.byte	0
 2750 0416 07       		.uleb128 0x7
 2751 0417 01       		.byte	0x1
 2752 0418 37000000 		.4byte	0x37
 2753 041c 05       		.byte	0x5
 2754 041d 4001     		.2byte	0x140
 2755 041f 54040000 		.4byte	0x454
 2756 0423 06       		.uleb128 0x6
 2757 0424 5F080000 		.4byte	.LASF118
 2758 0428 01       		.byte	0x1
 2759 0429 06       		.uleb128 0x6
 2760 042a 7E090000 		.4byte	.LASF119
 2761 042e 05       		.byte	0x5
 2762 042f 06       		.uleb128 0x6
 2763 0430 830F0000 		.4byte	.LASF120
 2764 0434 0F       		.byte	0xf
 2765 0435 06       		.uleb128 0x6
 2766 0436 AC050000 		.4byte	.LASF121
 2767 043a 20       		.byte	0x20
 2768 043b 06       		.uleb128 0x6
 2769 043c 6B090000 		.4byte	.LASF122
 2770 0440 64       		.byte	0x64
 2771 0441 06       		.uleb128 0x6
 2772 0442 B4020000 		.4byte	.LASF123
 2773 0446 7D       		.byte	0x7d
 2774 0447 06       		.uleb128 0x6
 2775 0448 70010000 		.4byte	.LASF124
 2776 044c 70       		.byte	0x70
 2777 044d 06       		.uleb128 0x6
 2778 044e 81010000 		.4byte	.LASF125
 2779 0452 0E       		.byte	0xe
 2780 0453 00       		.byte	0
 2781 0454 08       		.uleb128 0x8
 2782 0455 440C0000 		.4byte	.LASF128
 2783 0459 01       		.byte	0x1
 2784 045a 43       		.byte	0x43
ARM GAS  C:\Users\Xwx47\AppData\Local\Temp\ccJ5AxKs.s 			page 68


 2785 045b 00000000 		.4byte	.LFB34
 2786 045f 5C000000 		.4byte	.LFE34-.LFB34
 2787 0463 01       		.uleb128 0x1
 2788 0464 9C       		.byte	0x9c
 2789 0465 70050000 		.4byte	0x570
 2790 0469 09       		.uleb128 0x9
 2791 046a 0A000000 		.4byte	.LVL0
 2792 046e 90140000 		.4byte	0x1490
 2793 0472 82040000 		.4byte	0x482
 2794 0476 0A       		.uleb128 0xa
 2795 0477 01       		.uleb128 0x1
 2796 0478 50       		.byte	0x50
 2797 0479 01       		.uleb128 0x1
 2798 047a 31       		.byte	0x31
 2799 047b 0A       		.uleb128 0xa
 2800 047c 01       		.uleb128 0x1
 2801 047d 51       		.byte	0x51
 2802 047e 02       		.uleb128 0x2
 2803 047f 08       		.byte	0x8
 2804 0480 3F       		.byte	0x3f
 2805 0481 00       		.byte	0
 2806 0482 09       		.uleb128 0x9
 2807 0483 12000000 		.4byte	.LVL1
 2808 0487 90140000 		.4byte	0x1490
 2809 048b 9A040000 		.4byte	0x49a
 2810 048f 0A       		.uleb128 0xa
 2811 0490 01       		.uleb128 0x1
 2812 0491 50       		.byte	0x50
 2813 0492 01       		.uleb128 0x1
 2814 0493 32       		.byte	0x32
 2815 0494 0A       		.uleb128 0xa
 2816 0495 01       		.uleb128 0x1
 2817 0496 51       		.byte	0x51
 2818 0497 01       		.uleb128 0x1
 2819 0498 33       		.byte	0x33
 2820 0499 00       		.byte	0
 2821 049a 09       		.uleb128 0x9
 2822 049b 1A000000 		.4byte	.LVL2
 2823 049f 90140000 		.4byte	0x1490
 2824 04a3 B2040000 		.4byte	0x4b2
 2825 04a7 0A       		.uleb128 0xa
 2826 04a8 01       		.uleb128 0x1
 2827 04a9 50       		.byte	0x50
 2828 04aa 01       		.uleb128 0x1
 2829 04ab 33       		.byte	0x33
 2830 04ac 0A       		.uleb128 0xa
 2831 04ad 01       		.uleb128 0x1
 2832 04ae 51       		.byte	0x51
 2833 04af 01       		.uleb128 0x1
 2834 04b0 33       		.byte	0x33
 2835 04b1 00       		.byte	0
 2836 04b2 09       		.uleb128 0x9
 2837 04b3 22000000 		.4byte	.LVL3
 2838 04b7 90140000 		.4byte	0x1490
 2839 04bb CA040000 		.4byte	0x4ca
 2840 04bf 0A       		.uleb128 0xa
 2841 04c0 01       		.uleb128 0x1
ARM GAS  C:\Users\Xwx47\AppData\Local\Temp\ccJ5AxKs.s 			page 69


 2842 04c1 50       		.byte	0x50
 2843 04c2 01       		.uleb128 0x1
 2844 04c3 34       		.byte	0x34
 2845 04c4 0A       		.uleb128 0xa
 2846 04c5 01       		.uleb128 0x1
 2847 04c6 51       		.byte	0x51
 2848 04c7 01       		.uleb128 0x1
 2849 04c8 33       		.byte	0x33
 2850 04c9 00       		.byte	0
 2851 04ca 09       		.uleb128 0x9
 2852 04cb 2A000000 		.4byte	.LVL4
 2853 04cf 90140000 		.4byte	0x1490
 2854 04d3 E2040000 		.4byte	0x4e2
 2855 04d7 0A       		.uleb128 0xa
 2856 04d8 01       		.uleb128 0x1
 2857 04d9 50       		.byte	0x50
 2858 04da 01       		.uleb128 0x1
 2859 04db 35       		.byte	0x35
 2860 04dc 0A       		.uleb128 0xa
 2861 04dd 01       		.uleb128 0x1
 2862 04de 51       		.byte	0x51
 2863 04df 01       		.uleb128 0x1
 2864 04e0 32       		.byte	0x32
 2865 04e1 00       		.byte	0
 2866 04e2 09       		.uleb128 0x9
 2867 04e3 32000000 		.4byte	.LVL5
 2868 04e7 90140000 		.4byte	0x1490
 2869 04eb FB040000 		.4byte	0x4fb
 2870 04ef 0A       		.uleb128 0xa
 2871 04f0 01       		.uleb128 0x1
 2872 04f1 50       		.byte	0x50
 2873 04f2 01       		.uleb128 0x1
 2874 04f3 36       		.byte	0x36
 2875 04f4 0A       		.uleb128 0xa
 2876 04f5 01       		.uleb128 0x1
 2877 04f6 51       		.byte	0x51
 2878 04f7 02       		.uleb128 0x2
 2879 04f8 08       		.byte	0x8
 2880 04f9 26       		.byte	0x26
 2881 04fa 00       		.byte	0
 2882 04fb 09       		.uleb128 0x9
 2883 04fc 3A000000 		.4byte	.LVL6
 2884 0500 90140000 		.4byte	0x1490
 2885 0504 13050000 		.4byte	0x513
 2886 0508 0A       		.uleb128 0xa
 2887 0509 01       		.uleb128 0x1
 2888 050a 50       		.byte	0x50
 2889 050b 01       		.uleb128 0x1
 2890 050c 4C       		.byte	0x4c
 2891 050d 0A       		.uleb128 0xa
 2892 050e 01       		.uleb128 0x1
 2893 050f 51       		.byte	0x51
 2894 0510 01       		.uleb128 0x1
 2895 0511 30       		.byte	0x30
 2896 0512 00       		.byte	0
 2897 0513 09       		.uleb128 0x9
 2898 0514 42000000 		.4byte	.LVL7
ARM GAS  C:\Users\Xwx47\AppData\Local\Temp\ccJ5AxKs.s 			page 70


 2899 0518 90140000 		.4byte	0x1490
 2900 051c 2B050000 		.4byte	0x52b
 2901 0520 0A       		.uleb128 0xa
 2902 0521 01       		.uleb128 0x1
 2903 0522 50       		.byte	0x50
 2904 0523 01       		.uleb128 0x1
 2905 0524 4D       		.byte	0x4d
 2906 0525 0A       		.uleb128 0xa
 2907 0526 01       		.uleb128 0x1
 2908 0527 51       		.byte	0x51
 2909 0528 01       		.uleb128 0x1
 2910 0529 30       		.byte	0x30
 2911 052a 00       		.byte	0
 2912 052b 09       		.uleb128 0x9
 2913 052c 4A000000 		.4byte	.LVL8
 2914 0530 90140000 		.4byte	0x1490
 2915 0534 43050000 		.4byte	0x543
 2916 0538 0A       		.uleb128 0xa
 2917 0539 01       		.uleb128 0x1
 2918 053a 50       		.byte	0x50
 2919 053b 01       		.uleb128 0x1
 2920 053c 41       		.byte	0x41
 2921 053d 0A       		.uleb128 0xa
 2922 053e 01       		.uleb128 0x1
 2923 053f 51       		.byte	0x51
 2924 0540 01       		.uleb128 0x1
 2925 0541 30       		.byte	0x30
 2926 0542 00       		.byte	0
 2927 0543 09       		.uleb128 0x9
 2928 0544 52000000 		.4byte	.LVL9
 2929 0548 90140000 		.4byte	0x1490
 2930 054c 5B050000 		.4byte	0x55b
 2931 0550 0A       		.uleb128 0xa
 2932 0551 01       		.uleb128 0x1
 2933 0552 50       		.byte	0x50
 2934 0553 01       		.uleb128 0x1
 2935 0554 42       		.byte	0x42
 2936 0555 0A       		.uleb128 0xa
 2937 0556 01       		.uleb128 0x1
 2938 0557 51       		.byte	0x51
 2939 0558 01       		.uleb128 0x1
 2940 0559 30       		.byte	0x30
 2941 055a 00       		.byte	0
 2942 055b 0B       		.uleb128 0xb
 2943 055c 5A000000 		.4byte	.LVL10
 2944 0560 90140000 		.4byte	0x1490
 2945 0564 0A       		.uleb128 0xa
 2946 0565 01       		.uleb128 0x1
 2947 0566 50       		.byte	0x50
 2948 0567 01       		.uleb128 0x1
 2949 0568 30       		.byte	0x30
 2950 0569 0A       		.uleb128 0xa
 2951 056a 01       		.uleb128 0x1
 2952 056b 51       		.byte	0x51
 2953 056c 01       		.uleb128 0x1
 2954 056d 3B       		.byte	0x3b
 2955 056e 00       		.byte	0
ARM GAS  C:\Users\Xwx47\AppData\Local\Temp\ccJ5AxKs.s 			page 71


 2956 056f 00       		.byte	0
 2957 0570 0C       		.uleb128 0xc
 2958 0571 88050000 		.4byte	.LASF126
 2959 0575 01       		.byte	0x1
 2960 0576 6E       		.byte	0x6e
 2961 0577 00000000 		.4byte	.LFB35
 2962 057b 02000000 		.4byte	.LFE35-.LFB35
 2963 057f 01       		.uleb128 0x1
 2964 0580 9C       		.byte	0x9c
 2965 0581 0C       		.uleb128 0xc
 2966 0582 960B0000 		.4byte	.LASF127
 2967 0586 01       		.byte	0x1
 2968 0587 77       		.byte	0x77
 2969 0588 00000000 		.4byte	.LFB36
 2970 058c 02000000 		.4byte	.LFE36-.LFB36
 2971 0590 01       		.uleb128 0x1
 2972 0591 9C       		.byte	0x9c
 2973 0592 08       		.uleb128 0x8
 2974 0593 02040000 		.4byte	.LASF129
 2975 0597 01       		.byte	0x1
 2976 0598 8A       		.byte	0x8a
 2977 0599 00000000 		.4byte	.LFB38
 2978 059d 12000000 		.4byte	.LFE38-.LFB38
 2979 05a1 01       		.uleb128 0x1
 2980 05a2 9C       		.byte	0x9c
 2981 05a3 CF050000 		.4byte	0x5cf
 2982 05a7 09       		.uleb128 0x9
 2983 05a8 0A000000 		.4byte	.LVL11
 2984 05ac 9B140000 		.4byte	0x149b
 2985 05b0 BF050000 		.4byte	0x5bf
 2986 05b4 0A       		.uleb128 0xa
 2987 05b5 01       		.uleb128 0x1
 2988 05b6 50       		.byte	0x50
 2989 05b7 01       		.uleb128 0x1
 2990 05b8 30       		.byte	0x30
 2991 05b9 0A       		.uleb128 0xa
 2992 05ba 01       		.uleb128 0x1
 2993 05bb 51       		.byte	0x51
 2994 05bc 01       		.uleb128 0x1
 2995 05bd 31       		.byte	0x31
 2996 05be 00       		.byte	0
 2997 05bf 0B       		.uleb128 0xb
 2998 05c0 10000000 		.4byte	.LVL12
 2999 05c4 A6140000 		.4byte	0x14a6
 3000 05c8 0A       		.uleb128 0xa
 3001 05c9 01       		.uleb128 0x1
 3002 05ca 50       		.byte	0x50
 3003 05cb 01       		.uleb128 0x1
 3004 05cc 35       		.byte	0x35
 3005 05cd 00       		.byte	0
 3006 05ce 00       		.byte	0
 3007 05cf 0C       		.uleb128 0xc
 3008 05d0 71060000 		.4byte	.LASF130
 3009 05d4 01       		.byte	0x1
 3010 05d5 97       		.byte	0x97
 3011 05d6 00000000 		.4byte	.LFB39
 3012 05da 02000000 		.4byte	.LFE39-.LFB39
ARM GAS  C:\Users\Xwx47\AppData\Local\Temp\ccJ5AxKs.s 			page 72


 3013 05de 01       		.uleb128 0x1
 3014 05df 9C       		.byte	0x9c
 3015 05e0 0C       		.uleb128 0xc
 3016 05e1 9C0A0000 		.4byte	.LASF131
 3017 05e5 01       		.byte	0x1
 3018 05e6 A0       		.byte	0xa0
 3019 05e7 00000000 		.4byte	.LFB40
 3020 05eb 02000000 		.4byte	.LFE40-.LFB40
 3021 05ef 01       		.uleb128 0x1
 3022 05f0 9C       		.byte	0x9c
 3023 05f1 08       		.uleb128 0x8
 3024 05f2 72030000 		.4byte	.LASF132
 3025 05f6 01       		.byte	0x1
 3026 05f7 B8       		.byte	0xb8
 3027 05f8 00000000 		.4byte	.LFB42
 3028 05fc 0C000000 		.4byte	.LFE42-.LFB42
 3029 0600 01       		.uleb128 0x1
 3030 0601 9C       		.byte	0x9c
 3031 0602 1B060000 		.4byte	0x61b
 3032 0606 0B       		.uleb128 0xb
 3033 0607 0A000000 		.4byte	.LVL13
 3034 060b B1140000 		.4byte	0x14b1
 3035 060f 0A       		.uleb128 0xa
 3036 0610 01       		.uleb128 0x1
 3037 0611 50       		.byte	0x50
 3038 0612 01       		.uleb128 0x1
 3039 0613 30       		.byte	0x30
 3040 0614 0A       		.uleb128 0xa
 3041 0615 01       		.uleb128 0x1
 3042 0616 51       		.byte	0x51
 3043 0617 01       		.uleb128 0x1
 3044 0618 31       		.byte	0x31
 3045 0619 00       		.byte	0
 3046 061a 00       		.byte	0
 3047 061b 08       		.uleb128 0x8
 3048 061c 3A020000 		.4byte	.LASF133
 3049 0620 01       		.byte	0x1
 3050 0621 EB       		.byte	0xeb
 3051 0622 00000000 		.4byte	.LFB45
 3052 0626 0C000000 		.4byte	.LFE45-.LFB45
 3053 062a 01       		.uleb128 0x1
 3054 062b 9C       		.byte	0x9c
 3055 062c 45060000 		.4byte	0x645
 3056 0630 0B       		.uleb128 0xb
 3057 0631 0A000000 		.4byte	.LVL14
 3058 0635 9B140000 		.4byte	0x149b
 3059 0639 0A       		.uleb128 0xa
 3060 063a 01       		.uleb128 0x1
 3061 063b 50       		.byte	0x50
 3062 063c 01       		.uleb128 0x1
 3063 063d 30       		.byte	0x30
 3064 063e 0A       		.uleb128 0xa
 3065 063f 01       		.uleb128 0x1
 3066 0640 51       		.byte	0x51
 3067 0641 01       		.uleb128 0x1
 3068 0642 30       		.byte	0x30
 3069 0643 00       		.byte	0
ARM GAS  C:\Users\Xwx47\AppData\Local\Temp\ccJ5AxKs.s 			page 73


 3070 0644 00       		.byte	0
 3071 0645 08       		.uleb128 0x8
 3072 0646 95050000 		.4byte	.LASF134
 3073 064a 01       		.byte	0x1
 3074 064b F7       		.byte	0xf7
 3075 064c 00000000 		.4byte	.LFB46
 3076 0650 0C000000 		.4byte	.LFE46-.LFB46
 3077 0654 01       		.uleb128 0x1
 3078 0655 9C       		.byte	0x9c
 3079 0656 6F060000 		.4byte	0x66f
 3080 065a 0B       		.uleb128 0xb
 3081 065b 0A000000 		.4byte	.LVL15
 3082 065f B1140000 		.4byte	0x14b1
 3083 0663 0A       		.uleb128 0xa
 3084 0664 01       		.uleb128 0x1
 3085 0665 50       		.byte	0x50
 3086 0666 01       		.uleb128 0x1
 3087 0667 30       		.byte	0x30
 3088 0668 0A       		.uleb128 0xa
 3089 0669 01       		.uleb128 0x1
 3090 066a 51       		.byte	0x51
 3091 066b 01       		.uleb128 0x1
 3092 066c 30       		.byte	0x30
 3093 066d 00       		.byte	0
 3094 066e 00       		.byte	0
 3095 066f 08       		.uleb128 0x8
 3096 0670 16060000 		.4byte	.LASF135
 3097 0674 01       		.byte	0x1
 3098 0675 AA       		.byte	0xaa
 3099 0676 00000000 		.4byte	.LFB41
 3100 067a 12000000 		.4byte	.LFE41-.LFB41
 3101 067e 01       		.uleb128 0x1
 3102 067f 9C       		.byte	0x9c
 3103 0680 A6060000 		.4byte	0x6a6
 3104 0684 0D       		.uleb128 0xd
 3105 0685 22020000 		.4byte	.LASF137
 3106 0689 01       		.byte	0x1
 3107 068a AA       		.byte	0xaa
 3108 068b A6060000 		.4byte	0x6a6
 3109 068f 00000000 		.4byte	.LLST0
 3110 0693 0E       		.uleb128 0xe
 3111 0694 0A000000 		.4byte	.LVL17
 3112 0698 1B060000 		.4byte	0x61b
 3113 069c 0E       		.uleb128 0xe
 3114 069d 10000000 		.4byte	.LVL19
 3115 06a1 45060000 		.4byte	0x645
 3116 06a5 00       		.byte	0
 3117 06a6 0F       		.uleb128 0xf
 3118 06a7 E9010000 		.4byte	0x1e9
 3119 06ab 10       		.uleb128 0x10
 3120 06ac 130D0000 		.4byte	.LASF136
 3121 06b0 01       		.byte	0x1
 3122 06b1 0101     		.2byte	0x101
 3123 06b3 00000000 		.4byte	.LFB47
 3124 06b7 0C000000 		.4byte	.LFE47-.LFB47
 3125 06bb 01       		.uleb128 0x1
 3126 06bc 9C       		.byte	0x9c
ARM GAS  C:\Users\Xwx47\AppData\Local\Temp\ccJ5AxKs.s 			page 74


 3127 06bd E1060000 		.4byte	0x6e1
 3128 06c1 11       		.uleb128 0x11
 3129 06c2 A7050000 		.4byte	.LASF138
 3130 06c6 01       		.byte	0x1
 3131 06c7 0101     		.2byte	0x101
 3132 06c9 E1060000 		.4byte	0x6e1
 3133 06cd 3A000000 		.4byte	.LLST1
 3134 06d1 0B       		.uleb128 0xb
 3135 06d2 0A000000 		.4byte	.LVL22
 3136 06d6 9B140000 		.4byte	0x149b
 3137 06da 0A       		.uleb128 0xa
 3138 06db 01       		.uleb128 0x1
 3139 06dc 50       		.byte	0x50
 3140 06dd 01       		.uleb128 0x1
 3141 06de 31       		.byte	0x31
 3142 06df 00       		.byte	0
 3143 06e0 00       		.byte	0
 3144 06e1 0F       		.uleb128 0xf
 3145 06e2 89010000 		.4byte	0x189
 3146 06e6 10       		.uleb128 0x10
 3147 06e7 9D000000 		.4byte	.LASF139
 3148 06eb 01       		.byte	0x1
 3149 06ec 0B01     		.2byte	0x10b
 3150 06ee 00000000 		.4byte	.LFB48
 3151 06f2 0C000000 		.4byte	.LFE48-.LFB48
 3152 06f6 01       		.uleb128 0x1
 3153 06f7 9C       		.byte	0x9c
 3154 06f8 1C070000 		.4byte	0x71c
 3155 06fc 11       		.uleb128 0x11
 3156 06fd A7050000 		.4byte	.LASF138
 3157 0701 01       		.byte	0x1
 3158 0702 0B01     		.2byte	0x10b
 3159 0704 E1060000 		.4byte	0x6e1
 3160 0708 5B000000 		.4byte	.LLST2
 3161 070c 0B       		.uleb128 0xb
 3162 070d 0A000000 		.4byte	.LVL25
 3163 0711 B1140000 		.4byte	0x14b1
 3164 0715 0A       		.uleb128 0xa
 3165 0716 01       		.uleb128 0x1
 3166 0717 50       		.byte	0x50
 3167 0718 01       		.uleb128 0x1
 3168 0719 31       		.byte	0x31
 3169 071a 00       		.byte	0
 3170 071b 00       		.byte	0
 3171 071c 10       		.uleb128 0x10
 3172 071d 400B0000 		.4byte	.LASF140
 3173 0721 01       		.byte	0x1
 3174 0722 1501     		.2byte	0x115
 3175 0724 00000000 		.4byte	.LFB49
 3176 0728 12000000 		.4byte	.LFE49-.LFB49
 3177 072c 01       		.uleb128 0x1
 3178 072d 9C       		.byte	0x9c
 3179 072e 52070000 		.4byte	0x752
 3180 0732 11       		.uleb128 0x11
 3181 0733 1C0B0000 		.4byte	.LASF141
 3182 0737 01       		.byte	0x1
 3183 0738 1501     		.2byte	0x115
ARM GAS  C:\Users\Xwx47\AppData\Local\Temp\ccJ5AxKs.s 			page 75


 3184 073a 76000000 		.4byte	0x76
 3185 073e 7C000000 		.4byte	.LLST3
 3186 0742 0B       		.uleb128 0xb
 3187 0743 10000000 		.4byte	.LVL28
 3188 0747 90140000 		.4byte	0x1490
 3189 074b 0A       		.uleb128 0xa
 3190 074c 01       		.uleb128 0x1
 3191 074d 50       		.byte	0x50
 3192 074e 01       		.uleb128 0x1
 3193 074f 35       		.byte	0x35
 3194 0750 00       		.byte	0
 3195 0751 00       		.byte	0
 3196 0752 10       		.uleb128 0x10
 3197 0753 E20E0000 		.4byte	.LASF142
 3198 0757 01       		.byte	0x1
 3199 0758 2301     		.2byte	0x123
 3200 075a 00000000 		.4byte	.LFB50
 3201 075e 0C000000 		.4byte	.LFE50-.LFB50
 3202 0762 01       		.uleb128 0x1
 3203 0763 9C       		.byte	0x9c
 3204 0764 88070000 		.4byte	0x788
 3205 0768 11       		.uleb128 0x11
 3206 0769 950C0000 		.4byte	.LASF143
 3207 076d 01       		.byte	0x1
 3208 076e 2301     		.2byte	0x123
 3209 0770 88070000 		.4byte	0x788
 3210 0774 9A000000 		.4byte	.LLST4
 3211 0778 0B       		.uleb128 0xb
 3212 0779 0A000000 		.4byte	.LVL31
 3213 077d 90140000 		.4byte	0x1490
 3214 0781 0A       		.uleb128 0xa
 3215 0782 01       		.uleb128 0x1
 3216 0783 50       		.byte	0x50
 3217 0784 01       		.uleb128 0x1
 3218 0785 33       		.byte	0x33
 3219 0786 00       		.byte	0
 3220 0787 00       		.byte	0
 3221 0788 0F       		.uleb128 0xf
 3222 0789 DC020000 		.4byte	0x2dc
 3223 078d 12       		.uleb128 0x12
 3224 078e 3D100000 		.4byte	.LASF162
 3225 0792 01       		.byte	0x1
 3226 0793 2D01     		.2byte	0x12d
 3227 0795 76000000 		.4byte	0x76
 3228 0799 00000000 		.4byte	.LFB51
 3229 079d 24000000 		.4byte	.LFE51-.LFB51
 3230 07a1 01       		.uleb128 0x1
 3231 07a2 9C       		.byte	0x9c
 3232 07a3 D7070000 		.4byte	0x7d7
 3233 07a7 13       		.uleb128 0x13
 3234 07a8 950C0000 		.4byte	.LASF143
 3235 07ac 01       		.byte	0x1
 3236 07ad 2F01     		.2byte	0x12f
 3237 07af 76000000 		.4byte	0x76
 3238 07b3 BB000000 		.4byte	.LLST5
 3239 07b7 14       		.uleb128 0x14
 3240 07b8 72656700 		.ascii	"reg\000"
ARM GAS  C:\Users\Xwx47\AppData\Local\Temp\ccJ5AxKs.s 			page 76


 3241 07bc 01       		.byte	0x1
 3242 07bd 3001     		.2byte	0x130
 3243 07bf 76000000 		.4byte	0x76
 3244 07c3 FE000000 		.4byte	.LLST6
 3245 07c7 0B       		.uleb128 0xb
 3246 07c8 08000000 		.4byte	.LVL33
 3247 07cc BC140000 		.4byte	0x14bc
 3248 07d0 0A       		.uleb128 0xa
 3249 07d1 01       		.uleb128 0x1
 3250 07d2 50       		.byte	0x50
 3251 07d3 01       		.uleb128 0x1
 3252 07d4 33       		.byte	0x33
 3253 07d5 00       		.byte	0
 3254 07d6 00       		.byte	0
 3255 07d7 10       		.uleb128 0x10
 3256 07d8 7B100000 		.4byte	.LASF144
 3257 07dc 01       		.byte	0x1
 3258 07dd 4B01     		.2byte	0x14b
 3259 07df 00000000 		.4byte	.LFB52
 3260 07e3 18000000 		.4byte	.LFE52-.LFB52
 3261 07e7 01       		.uleb128 0x1
 3262 07e8 9C       		.byte	0x9c
 3263 07e9 24080000 		.4byte	0x824
 3264 07ed 11       		.uleb128 0x11
 3265 07ee 7F0E0000 		.4byte	.LASF145
 3266 07f2 01       		.byte	0x1
 3267 07f3 4B01     		.2byte	0x14b
 3268 07f5 24080000 		.4byte	0x824
 3269 07f9 32010000 		.4byte	.LLST7
 3270 07fd 11       		.uleb128 0x11
 3271 07fe AD090000 		.4byte	.LASF146
 3272 0802 01       		.byte	0x1
 3273 0803 4B01     		.2byte	0x14b
 3274 0805 96000000 		.4byte	0x96
 3275 0809 5E010000 		.4byte	.LLST8
 3276 080d 0B       		.uleb128 0xb
 3277 080e 16000000 		.4byte	.LVL45
 3278 0812 C7140000 		.4byte	0x14c7
 3279 0816 0A       		.uleb128 0xa
 3280 0817 01       		.uleb128 0x1
 3281 0818 50       		.byte	0x50
 3282 0819 01       		.uleb128 0x1
 3283 081a 3A       		.byte	0x3a
 3284 081b 0A       		.uleb128 0xa
 3285 081c 01       		.uleb128 0x1
 3286 081d 51       		.byte	0x51
 3287 081e 03       		.uleb128 0x3
 3288 081f F3       		.byte	0xf3
 3289 0820 01       		.uleb128 0x1
 3290 0821 50       		.byte	0x50
 3291 0822 00       		.byte	0
 3292 0823 00       		.byte	0
 3293 0824 15       		.uleb128 0x15
 3294 0825 04       		.byte	0x4
 3295 0826 2A080000 		.4byte	0x82a
 3296 082a 0F       		.uleb128 0xf
 3297 082b 76000000 		.4byte	0x76
ARM GAS  C:\Users\Xwx47\AppData\Local\Temp\ccJ5AxKs.s 			page 77


 3298 082f 10       		.uleb128 0x10
 3299 0830 F3010000 		.4byte	.LASF147
 3300 0834 01       		.byte	0x1
 3301 0835 5F01     		.2byte	0x15f
 3302 0837 00000000 		.4byte	.LFB53
 3303 083b 18000000 		.4byte	.LFE53-.LFB53
 3304 083f 01       		.uleb128 0x1
 3305 0840 9C       		.byte	0x9c
 3306 0841 7C080000 		.4byte	0x87c
 3307 0845 11       		.uleb128 0x11
 3308 0846 7F0E0000 		.4byte	.LASF145
 3309 084a 01       		.byte	0x1
 3310 084b 5F01     		.2byte	0x15f
 3311 084d 7C080000 		.4byte	0x87c
 3312 0851 87010000 		.4byte	.LLST9
 3313 0855 11       		.uleb128 0x11
 3314 0856 AD090000 		.4byte	.LASF146
 3315 085a 01       		.byte	0x1
 3316 085b 5F01     		.2byte	0x15f
 3317 085d 96000000 		.4byte	0x96
 3318 0861 B3010000 		.4byte	.LLST10
 3319 0865 0B       		.uleb128 0xb
 3320 0866 16000000 		.4byte	.LVL50
 3321 086a D2140000 		.4byte	0x14d2
 3322 086e 0A       		.uleb128 0xa
 3323 086f 01       		.uleb128 0x1
 3324 0870 50       		.byte	0x50
 3325 0871 01       		.uleb128 0x1
 3326 0872 3A       		.byte	0x3a
 3327 0873 0A       		.uleb128 0xa
 3328 0874 01       		.uleb128 0x1
 3329 0875 51       		.byte	0x51
 3330 0876 03       		.uleb128 0x3
 3331 0877 F3       		.byte	0xf3
 3332 0878 01       		.uleb128 0x1
 3333 0879 50       		.byte	0x50
 3334 087a 00       		.byte	0
 3335 087b 00       		.byte	0
 3336 087c 15       		.uleb128 0x15
 3337 087d 04       		.byte	0x4
 3338 087e 76000000 		.4byte	0x76
 3339 0882 10       		.uleb128 0x10
 3340 0883 A80D0000 		.4byte	.LASF148
 3341 0887 01       		.byte	0x1
 3342 0888 7401     		.2byte	0x174
 3343 088a 00000000 		.4byte	.LFB54
 3344 088e 18000000 		.4byte	.LFE54-.LFB54
 3345 0892 01       		.uleb128 0x1
 3346 0893 9C       		.byte	0x9c
 3347 0894 CF080000 		.4byte	0x8cf
 3348 0898 11       		.uleb128 0x11
 3349 0899 7F0E0000 		.4byte	.LASF145
 3350 089d 01       		.byte	0x1
 3351 089e 7401     		.2byte	0x174
 3352 08a0 24080000 		.4byte	0x824
 3353 08a4 DC010000 		.4byte	.LLST11
 3354 08a8 11       		.uleb128 0x11
ARM GAS  C:\Users\Xwx47\AppData\Local\Temp\ccJ5AxKs.s 			page 78


 3355 08a9 AD090000 		.4byte	.LASF146
 3356 08ad 01       		.byte	0x1
 3357 08ae 7401     		.2byte	0x174
 3358 08b0 96000000 		.4byte	0x96
 3359 08b4 08020000 		.4byte	.LLST12
 3360 08b8 0B       		.uleb128 0xb
 3361 08b9 16000000 		.4byte	.LVL55
 3362 08bd C7140000 		.4byte	0x14c7
 3363 08c1 0A       		.uleb128 0xa
 3364 08c2 01       		.uleb128 0x1
 3365 08c3 50       		.byte	0x50
 3366 08c4 01       		.uleb128 0x1
 3367 08c5 3B       		.byte	0x3b
 3368 08c6 0A       		.uleb128 0xa
 3369 08c7 01       		.uleb128 0x1
 3370 08c8 51       		.byte	0x51
 3371 08c9 03       		.uleb128 0x3
 3372 08ca F3       		.byte	0xf3
 3373 08cb 01       		.uleb128 0x1
 3374 08cc 50       		.byte	0x50
 3375 08cd 00       		.byte	0
 3376 08ce 00       		.byte	0
 3377 08cf 10       		.uleb128 0x10
 3378 08d0 C5070000 		.4byte	.LASF149
 3379 08d4 01       		.byte	0x1
 3380 08d5 8701     		.2byte	0x187
 3381 08d7 00000000 		.4byte	.LFB55
 3382 08db 18000000 		.4byte	.LFE55-.LFB55
 3383 08df 01       		.uleb128 0x1
 3384 08e0 9C       		.byte	0x9c
 3385 08e1 1C090000 		.4byte	0x91c
 3386 08e5 11       		.uleb128 0x11
 3387 08e6 7F0E0000 		.4byte	.LASF145
 3388 08ea 01       		.byte	0x1
 3389 08eb 8701     		.2byte	0x187
 3390 08ed 7C080000 		.4byte	0x87c
 3391 08f1 31020000 		.4byte	.LLST13
 3392 08f5 11       		.uleb128 0x11
 3393 08f6 AD090000 		.4byte	.LASF146
 3394 08fa 01       		.byte	0x1
 3395 08fb 8701     		.2byte	0x187
 3396 08fd 96000000 		.4byte	0x96
 3397 0901 5D020000 		.4byte	.LLST14
 3398 0905 0B       		.uleb128 0xb
 3399 0906 16000000 		.4byte	.LVL60
 3400 090a D2140000 		.4byte	0x14d2
 3401 090e 0A       		.uleb128 0xa
 3402 090f 01       		.uleb128 0x1
 3403 0910 50       		.byte	0x50
 3404 0911 01       		.uleb128 0x1
 3405 0912 3B       		.byte	0x3b
 3406 0913 0A       		.uleb128 0xa
 3407 0914 01       		.uleb128 0x1
 3408 0915 51       		.byte	0x51
 3409 0916 03       		.uleb128 0x3
 3410 0917 F3       		.byte	0xf3
 3411 0918 01       		.uleb128 0x1
ARM GAS  C:\Users\Xwx47\AppData\Local\Temp\ccJ5AxKs.s 			page 79


 3412 0919 50       		.byte	0x50
 3413 091a 00       		.byte	0
 3414 091b 00       		.byte	0
 3415 091c 10       		.uleb128 0x10
 3416 091d 4F090000 		.4byte	.LASF150
 3417 0921 01       		.byte	0x1
 3418 0922 9901     		.2byte	0x199
 3419 0924 00000000 		.4byte	.LFB56
 3420 0928 0C000000 		.4byte	.LFE56-.LFB56
 3421 092c 01       		.uleb128 0x1
 3422 092d 9C       		.byte	0x9c
 3423 092e 52090000 		.4byte	0x952
 3424 0932 11       		.uleb128 0x11
 3425 0933 18090000 		.4byte	.LASF151
 3426 0937 01       		.byte	0x1
 3427 0938 9901     		.2byte	0x199
 3428 093a 2A080000 		.4byte	0x82a
 3429 093e 86020000 		.4byte	.LLST15
 3430 0942 0B       		.uleb128 0xb
 3431 0943 0A000000 		.4byte	.LVL63
 3432 0947 90140000 		.4byte	0x1490
 3433 094b 0A       		.uleb128 0xa
 3434 094c 01       		.uleb128 0x1
 3435 094d 50       		.byte	0x50
 3436 094e 01       		.uleb128 0x1
 3437 094f 3C       		.byte	0x3c
 3438 0950 00       		.byte	0
 3439 0951 00       		.byte	0
 3440 0952 10       		.uleb128 0x10
 3441 0953 4F0C0000 		.4byte	.LASF152
 3442 0957 01       		.byte	0x1
 3443 0958 A401     		.2byte	0x1a4
 3444 095a 00000000 		.4byte	.LFB57
 3445 095e 24000000 		.4byte	.LFE57-.LFB57
 3446 0962 01       		.uleb128 0x1
 3447 0963 9C       		.byte	0x9c
 3448 0964 B7090000 		.4byte	0x9b7
 3449 0968 11       		.uleb128 0x11
 3450 0969 7F0E0000 		.4byte	.LASF145
 3451 096d 01       		.byte	0x1
 3452 096e A401     		.2byte	0x1a4
 3453 0970 7C080000 		.4byte	0x87c
 3454 0974 A7020000 		.4byte	.LLST16
 3455 0978 11       		.uleb128 0x11
 3456 0979 AD090000 		.4byte	.LASF146
 3457 097d 01       		.byte	0x1
 3458 097e A401     		.2byte	0x1a4
 3459 0980 96000000 		.4byte	0x96
 3460 0984 D3020000 		.4byte	.LLST17
 3461 0988 09       		.uleb128 0x9
 3462 0989 18000000 		.4byte	.LVL68
 3463 098d D2140000 		.4byte	0x14d2
 3464 0991 A7090000 		.4byte	0x9a7
 3465 0995 0A       		.uleb128 0xa
 3466 0996 01       		.uleb128 0x1
 3467 0997 50       		.byte	0x50
 3468 0998 01       		.uleb128 0x1
ARM GAS  C:\Users\Xwx47\AppData\Local\Temp\ccJ5AxKs.s 			page 80


 3469 0999 3B       		.byte	0x3b
 3470 099a 0A       		.uleb128 0xa
 3471 099b 01       		.uleb128 0x1
 3472 099c 51       		.byte	0x51
 3473 099d 02       		.uleb128 0x2
 3474 099e 75       		.byte	0x75
 3475 099f 00       		.sleb128 0
 3476 09a0 0A       		.uleb128 0xa
 3477 09a1 01       		.uleb128 0x1
 3478 09a2 52       		.byte	0x52
 3479 09a3 02       		.uleb128 0x2
 3480 09a4 74       		.byte	0x74
 3481 09a5 00       		.sleb128 0
 3482 09a6 00       		.byte	0
 3483 09a7 0B       		.uleb128 0xb
 3484 09a8 20000000 		.4byte	.LVL70
 3485 09ac BC140000 		.4byte	0x14bc
 3486 09b0 0A       		.uleb128 0xa
 3487 09b1 01       		.uleb128 0x1
 3488 09b2 50       		.byte	0x50
 3489 09b3 01       		.uleb128 0x1
 3490 09b4 3C       		.byte	0x3c
 3491 09b5 00       		.byte	0
 3492 09b6 00       		.byte	0
 3493 09b7 10       		.uleb128 0x10
 3494 09b8 010E0000 		.4byte	.LASF153
 3495 09bc 01       		.byte	0x1
 3496 09bd B801     		.2byte	0x1b8
 3497 09bf 00000000 		.4byte	.LFB58
 3498 09c3 0C000000 		.4byte	.LFE58-.LFB58
 3499 09c7 01       		.uleb128 0x1
 3500 09c8 9C       		.byte	0x9c
 3501 09c9 ED090000 		.4byte	0x9ed
 3502 09cd 11       		.uleb128 0x11
 3503 09ce 18090000 		.4byte	.LASF151
 3504 09d2 01       		.byte	0x1
 3505 09d3 B801     		.2byte	0x1b8
 3506 09d5 2A080000 		.4byte	0x82a
 3507 09d9 0B030000 		.4byte	.LLST18
 3508 09dd 0B       		.uleb128 0xb
 3509 09de 0A000000 		.4byte	.LVL74
 3510 09e2 90140000 		.4byte	0x1490
 3511 09e6 0A       		.uleb128 0xa
 3512 09e7 01       		.uleb128 0x1
 3513 09e8 50       		.byte	0x50
 3514 09e9 01       		.uleb128 0x1
 3515 09ea 3D       		.byte	0x3d
 3516 09eb 00       		.byte	0
 3517 09ec 00       		.byte	0
 3518 09ed 10       		.uleb128 0x10
 3519 09ee 45110000 		.4byte	.LASF154
 3520 09f2 01       		.byte	0x1
 3521 09f3 C301     		.2byte	0x1c3
 3522 09f5 00000000 		.4byte	.LFB59
 3523 09f9 24000000 		.4byte	.LFE59-.LFB59
 3524 09fd 01       		.uleb128 0x1
 3525 09fe 9C       		.byte	0x9c
ARM GAS  C:\Users\Xwx47\AppData\Local\Temp\ccJ5AxKs.s 			page 81


 3526 09ff 520A0000 		.4byte	0xa52
 3527 0a03 11       		.uleb128 0x11
 3528 0a04 7F0E0000 		.4byte	.LASF145
 3529 0a08 01       		.byte	0x1
 3530 0a09 C301     		.2byte	0x1c3
 3531 0a0b 7C080000 		.4byte	0x87c
 3532 0a0f 2C030000 		.4byte	.LLST19
 3533 0a13 11       		.uleb128 0x11
 3534 0a14 AD090000 		.4byte	.LASF146
 3535 0a18 01       		.byte	0x1
 3536 0a19 C301     		.2byte	0x1c3
 3537 0a1b 96000000 		.4byte	0x96
 3538 0a1f 58030000 		.4byte	.LLST20
 3539 0a23 09       		.uleb128 0x9
 3540 0a24 18000000 		.4byte	.LVL79
 3541 0a28 D2140000 		.4byte	0x14d2
 3542 0a2c 420A0000 		.4byte	0xa42
 3543 0a30 0A       		.uleb128 0xa
 3544 0a31 01       		.uleb128 0x1
 3545 0a32 50       		.byte	0x50
 3546 0a33 01       		.uleb128 0x1
 3547 0a34 3B       		.byte	0x3b
 3548 0a35 0A       		.uleb128 0xa
 3549 0a36 01       		.uleb128 0x1
 3550 0a37 51       		.byte	0x51
 3551 0a38 02       		.uleb128 0x2
 3552 0a39 75       		.byte	0x75
 3553 0a3a 00       		.sleb128 0
 3554 0a3b 0A       		.uleb128 0xa
 3555 0a3c 01       		.uleb128 0x1
 3556 0a3d 52       		.byte	0x52
 3557 0a3e 02       		.uleb128 0x2
 3558 0a3f 74       		.byte	0x74
 3559 0a40 00       		.sleb128 0
 3560 0a41 00       		.byte	0
 3561 0a42 0B       		.uleb128 0xb
 3562 0a43 20000000 		.4byte	.LVL81
 3563 0a47 BC140000 		.4byte	0x14bc
 3564 0a4b 0A       		.uleb128 0xa
 3565 0a4c 01       		.uleb128 0x1
 3566 0a4d 50       		.byte	0x50
 3567 0a4e 01       		.uleb128 0x1
 3568 0a4f 3D       		.byte	0x3d
 3569 0a50 00       		.byte	0
 3570 0a51 00       		.byte	0
 3571 0a52 10       		.uleb128 0x10
 3572 0a53 D7010000 		.4byte	.LASF155
 3573 0a57 01       		.byte	0x1
 3574 0a58 D701     		.2byte	0x1d7
 3575 0a5a 00000000 		.4byte	.LFB60
 3576 0a5e 0C000000 		.4byte	.LFE60-.LFB60
 3577 0a62 01       		.uleb128 0x1
 3578 0a63 9C       		.byte	0x9c
 3579 0a64 880A0000 		.4byte	0xa88
 3580 0a68 11       		.uleb128 0x11
 3581 0a69 18090000 		.4byte	.LASF151
 3582 0a6d 01       		.byte	0x1
ARM GAS  C:\Users\Xwx47\AppData\Local\Temp\ccJ5AxKs.s 			page 82


 3583 0a6e D701     		.2byte	0x1d7
 3584 0a70 2A080000 		.4byte	0x82a
 3585 0a74 90030000 		.4byte	.LLST21
 3586 0a78 0B       		.uleb128 0xb
 3587 0a79 0A000000 		.4byte	.LVL85
 3588 0a7d 90140000 		.4byte	0x1490
 3589 0a81 0A       		.uleb128 0xa
 3590 0a82 01       		.uleb128 0x1
 3591 0a83 50       		.byte	0x50
 3592 0a84 01       		.uleb128 0x1
 3593 0a85 3E       		.byte	0x3e
 3594 0a86 00       		.byte	0
 3595 0a87 00       		.byte	0
 3596 0a88 10       		.uleb128 0x10
 3597 0a89 C1050000 		.4byte	.LASF156
 3598 0a8d 01       		.byte	0x1
 3599 0a8e E201     		.2byte	0x1e2
 3600 0a90 00000000 		.4byte	.LFB61
 3601 0a94 24000000 		.4byte	.LFE61-.LFB61
 3602 0a98 01       		.uleb128 0x1
 3603 0a99 9C       		.byte	0x9c
 3604 0a9a ED0A0000 		.4byte	0xaed
 3605 0a9e 11       		.uleb128 0x11
 3606 0a9f 7F0E0000 		.4byte	.LASF145
 3607 0aa3 01       		.byte	0x1
 3608 0aa4 E201     		.2byte	0x1e2
 3609 0aa6 7C080000 		.4byte	0x87c
 3610 0aaa B1030000 		.4byte	.LLST22
 3611 0aae 11       		.uleb128 0x11
 3612 0aaf AD090000 		.4byte	.LASF146
 3613 0ab3 01       		.byte	0x1
 3614 0ab4 E201     		.2byte	0x1e2
 3615 0ab6 96000000 		.4byte	0x96
 3616 0aba DD030000 		.4byte	.LLST23
 3617 0abe 09       		.uleb128 0x9
 3618 0abf 18000000 		.4byte	.LVL90
 3619 0ac3 D2140000 		.4byte	0x14d2
 3620 0ac7 DD0A0000 		.4byte	0xadd
 3621 0acb 0A       		.uleb128 0xa
 3622 0acc 01       		.uleb128 0x1
 3623 0acd 50       		.byte	0x50
 3624 0ace 01       		.uleb128 0x1
 3625 0acf 3B       		.byte	0x3b
 3626 0ad0 0A       		.uleb128 0xa
 3627 0ad1 01       		.uleb128 0x1
 3628 0ad2 51       		.byte	0x51
 3629 0ad3 02       		.uleb128 0x2
 3630 0ad4 75       		.byte	0x75
 3631 0ad5 00       		.sleb128 0
 3632 0ad6 0A       		.uleb128 0xa
 3633 0ad7 01       		.uleb128 0x1
 3634 0ad8 52       		.byte	0x52
 3635 0ad9 02       		.uleb128 0x2
 3636 0ada 74       		.byte	0x74
 3637 0adb 00       		.sleb128 0
 3638 0adc 00       		.byte	0
 3639 0add 0B       		.uleb128 0xb
ARM GAS  C:\Users\Xwx47\AppData\Local\Temp\ccJ5AxKs.s 			page 83


 3640 0ade 20000000 		.4byte	.LVL92
 3641 0ae2 BC140000 		.4byte	0x14bc
 3642 0ae6 0A       		.uleb128 0xa
 3643 0ae7 01       		.uleb128 0x1
 3644 0ae8 50       		.byte	0x50
 3645 0ae9 01       		.uleb128 0x1
 3646 0aea 3E       		.byte	0x3e
 3647 0aeb 00       		.byte	0
 3648 0aec 00       		.byte	0
 3649 0aed 10       		.uleb128 0x10
 3650 0aee 75070000 		.4byte	.LASF157
 3651 0af2 01       		.byte	0x1
 3652 0af3 F601     		.2byte	0x1f6
 3653 0af5 00000000 		.4byte	.LFB62
 3654 0af9 0C000000 		.4byte	.LFE62-.LFB62
 3655 0afd 01       		.uleb128 0x1
 3656 0afe 9C       		.byte	0x9c
 3657 0aff 230B0000 		.4byte	0xb23
 3658 0b03 11       		.uleb128 0x11
 3659 0b04 18090000 		.4byte	.LASF151
 3660 0b08 01       		.byte	0x1
 3661 0b09 F601     		.2byte	0x1f6
 3662 0b0b 2A080000 		.4byte	0x82a
 3663 0b0f 15040000 		.4byte	.LLST24
 3664 0b13 0B       		.uleb128 0xb
 3665 0b14 0A000000 		.4byte	.LVL96
 3666 0b18 90140000 		.4byte	0x1490
 3667 0b1c 0A       		.uleb128 0xa
 3668 0b1d 01       		.uleb128 0x1
 3669 0b1e 50       		.byte	0x50
 3670 0b1f 01       		.uleb128 0x1
 3671 0b20 3F       		.byte	0x3f
 3672 0b21 00       		.byte	0
 3673 0b22 00       		.byte	0
 3674 0b23 10       		.uleb128 0x10
 3675 0b24 BB090000 		.4byte	.LASF158
 3676 0b28 01       		.byte	0x1
 3677 0b29 0102     		.2byte	0x201
 3678 0b2b 00000000 		.4byte	.LFB63
 3679 0b2f 24000000 		.4byte	.LFE63-.LFB63
 3680 0b33 01       		.uleb128 0x1
 3681 0b34 9C       		.byte	0x9c
 3682 0b35 880B0000 		.4byte	0xb88
 3683 0b39 11       		.uleb128 0x11
 3684 0b3a 7F0E0000 		.4byte	.LASF145
 3685 0b3e 01       		.byte	0x1
 3686 0b3f 0102     		.2byte	0x201
 3687 0b41 7C080000 		.4byte	0x87c
 3688 0b45 36040000 		.4byte	.LLST25
 3689 0b49 11       		.uleb128 0x11
 3690 0b4a AD090000 		.4byte	.LASF146
 3691 0b4e 01       		.byte	0x1
 3692 0b4f 0102     		.2byte	0x201
 3693 0b51 96000000 		.4byte	0x96
 3694 0b55 62040000 		.4byte	.LLST26
 3695 0b59 09       		.uleb128 0x9
 3696 0b5a 18000000 		.4byte	.LVL101
ARM GAS  C:\Users\Xwx47\AppData\Local\Temp\ccJ5AxKs.s 			page 84


 3697 0b5e D2140000 		.4byte	0x14d2
 3698 0b62 780B0000 		.4byte	0xb78
 3699 0b66 0A       		.uleb128 0xa
 3700 0b67 01       		.uleb128 0x1
 3701 0b68 50       		.byte	0x50
 3702 0b69 01       		.uleb128 0x1
 3703 0b6a 3B       		.byte	0x3b
 3704 0b6b 0A       		.uleb128 0xa
 3705 0b6c 01       		.uleb128 0x1
 3706 0b6d 51       		.byte	0x51
 3707 0b6e 02       		.uleb128 0x2
 3708 0b6f 75       		.byte	0x75
 3709 0b70 00       		.sleb128 0
 3710 0b71 0A       		.uleb128 0xa
 3711 0b72 01       		.uleb128 0x1
 3712 0b73 52       		.byte	0x52
 3713 0b74 02       		.uleb128 0x2
 3714 0b75 74       		.byte	0x74
 3715 0b76 00       		.sleb128 0
 3716 0b77 00       		.byte	0
 3717 0b78 0B       		.uleb128 0xb
 3718 0b79 20000000 		.4byte	.LVL103
 3719 0b7d BC140000 		.4byte	0x14bc
 3720 0b81 0A       		.uleb128 0xa
 3721 0b82 01       		.uleb128 0x1
 3722 0b83 50       		.byte	0x50
 3723 0b84 01       		.uleb128 0x1
 3724 0b85 3F       		.byte	0x3f
 3725 0b86 00       		.byte	0
 3726 0b87 00       		.byte	0
 3727 0b88 10       		.uleb128 0x10
 3728 0b89 60070000 		.4byte	.LASF159
 3729 0b8d 01       		.byte	0x1
 3730 0b8e 1602     		.2byte	0x216
 3731 0b90 00000000 		.4byte	.LFB64
 3732 0b94 18000000 		.4byte	.LFE64-.LFB64
 3733 0b98 01       		.uleb128 0x1
 3734 0b99 9C       		.byte	0x9c
 3735 0b9a D50B0000 		.4byte	0xbd5
 3736 0b9e 11       		.uleb128 0x11
 3737 0b9f 7F0E0000 		.4byte	.LASF145
 3738 0ba3 01       		.byte	0x1
 3739 0ba4 1602     		.2byte	0x216
 3740 0ba6 D50B0000 		.4byte	0xbd5
 3741 0baa 9A040000 		.4byte	.LLST27
 3742 0bae 11       		.uleb128 0x11
 3743 0baf AD090000 		.4byte	.LASF146
 3744 0bb3 01       		.byte	0x1
 3745 0bb4 1602     		.2byte	0x216
 3746 0bb6 96000000 		.4byte	0x96
 3747 0bba C6040000 		.4byte	.LLST28
 3748 0bbe 0B       		.uleb128 0xb
 3749 0bbf 16000000 		.4byte	.LVL109
 3750 0bc3 C7140000 		.4byte	0x14c7
 3751 0bc7 0A       		.uleb128 0xa
 3752 0bc8 01       		.uleb128 0x1
 3753 0bc9 50       		.byte	0x50
ARM GAS  C:\Users\Xwx47\AppData\Local\Temp\ccJ5AxKs.s 			page 85


 3754 0bca 01       		.uleb128 0x1
 3755 0bcb 40       		.byte	0x40
 3756 0bcc 0A       		.uleb128 0xa
 3757 0bcd 01       		.uleb128 0x1
 3758 0bce 51       		.byte	0x51
 3759 0bcf 03       		.uleb128 0x3
 3760 0bd0 F3       		.byte	0xf3
 3761 0bd1 01       		.uleb128 0x1
 3762 0bd2 50       		.byte	0x50
 3763 0bd3 00       		.byte	0
 3764 0bd4 00       		.byte	0
 3765 0bd5 0F       		.uleb128 0xf
 3766 0bd6 24080000 		.4byte	0x824
 3767 0bda 10       		.uleb128 0x10
 3768 0bdb D70A0000 		.4byte	.LASF160
 3769 0bdf 01       		.byte	0x1
 3770 0be0 2902     		.2byte	0x229
 3771 0be2 00000000 		.4byte	.LFB65
 3772 0be6 18000000 		.4byte	.LFE65-.LFB65
 3773 0bea 01       		.uleb128 0x1
 3774 0beb 9C       		.byte	0x9c
 3775 0bec 270C0000 		.4byte	0xc27
 3776 0bf0 11       		.uleb128 0x11
 3777 0bf1 7F0E0000 		.4byte	.LASF145
 3778 0bf5 01       		.byte	0x1
 3779 0bf6 2902     		.2byte	0x229
 3780 0bf8 7C080000 		.4byte	0x87c
 3781 0bfc EF040000 		.4byte	.LLST29
 3782 0c00 11       		.uleb128 0x11
 3783 0c01 AD090000 		.4byte	.LASF146
 3784 0c05 01       		.byte	0x1
 3785 0c06 2902     		.2byte	0x229
 3786 0c08 96000000 		.4byte	0x96
 3787 0c0c 1B050000 		.4byte	.LLST30
 3788 0c10 0B       		.uleb128 0xb
 3789 0c11 16000000 		.4byte	.LVL114
 3790 0c15 D2140000 		.4byte	0x14d2
 3791 0c19 0A       		.uleb128 0xa
 3792 0c1a 01       		.uleb128 0x1
 3793 0c1b 50       		.byte	0x50
 3794 0c1c 01       		.uleb128 0x1
 3795 0c1d 40       		.byte	0x40
 3796 0c1e 0A       		.uleb128 0xa
 3797 0c1f 01       		.uleb128 0x1
 3798 0c20 51       		.byte	0x51
 3799 0c21 03       		.uleb128 0x3
 3800 0c22 F3       		.byte	0xf3
 3801 0c23 01       		.uleb128 0x1
 3802 0c24 50       		.byte	0x50
 3803 0c25 00       		.byte	0
 3804 0c26 00       		.byte	0
 3805 0c27 10       		.uleb128 0x10
 3806 0c28 F7050000 		.4byte	.LASF161
 3807 0c2c 01       		.byte	0x1
 3808 0c2d 3E02     		.2byte	0x23e
 3809 0c2f 00000000 		.4byte	.LFB66
 3810 0c33 0E000000 		.4byte	.LFE66-.LFB66
ARM GAS  C:\Users\Xwx47\AppData\Local\Temp\ccJ5AxKs.s 			page 86


 3811 0c37 01       		.uleb128 0x1
 3812 0c38 9C       		.byte	0x9c
 3813 0c39 670C0000 		.4byte	0xc67
 3814 0c3d 11       		.uleb128 0x11
 3815 0c3e A7050000 		.4byte	.LASF138
 3816 0c42 01       		.byte	0x1
 3817 0c43 3E02     		.2byte	0x23e
 3818 0c45 670C0000 		.4byte	0xc67
 3819 0c49 44050000 		.4byte	.LLST31
 3820 0c4d 11       		.uleb128 0x11
 3821 0c4e AD090000 		.4byte	.LASF146
 3822 0c52 01       		.byte	0x1
 3823 0c53 3E02     		.2byte	0x23e
 3824 0c55 76000000 		.4byte	0x76
 3825 0c59 65050000 		.4byte	.LLST32
 3826 0c5d 0E       		.uleb128 0xe
 3827 0c5e 0C000000 		.4byte	.LVL117
 3828 0c62 90140000 		.4byte	0x1490
 3829 0c66 00       		.byte	0
 3830 0c67 0F       		.uleb128 0xf
 3831 0c68 C5010000 		.4byte	0x1c5
 3832 0c6c 12       		.uleb128 0x12
 3833 0c6d 95060000 		.4byte	.LASF163
 3834 0c71 01       		.byte	0x1
 3835 0c72 4E02     		.2byte	0x24e
 3836 0c74 76000000 		.4byte	0x76
 3837 0c78 00000000 		.4byte	.LFB67
 3838 0c7c 08000000 		.4byte	.LFE67-.LFB67
 3839 0c80 01       		.uleb128 0x1
 3840 0c81 9C       		.byte	0x9c
 3841 0c82 A00C0000 		.4byte	0xca0
 3842 0c86 11       		.uleb128 0x11
 3843 0c87 A7050000 		.4byte	.LASF138
 3844 0c8b 01       		.byte	0x1
 3845 0c8c 4E02     		.2byte	0x24e
 3846 0c8e 670C0000 		.4byte	0xc67
 3847 0c92 83050000 		.4byte	.LLST33
 3848 0c96 0E       		.uleb128 0xe
 3849 0c97 06000000 		.4byte	.LVL119
 3850 0c9b BC140000 		.4byte	0x14bc
 3851 0c9f 00       		.byte	0
 3852 0ca0 10       		.uleb128 0x10
 3853 0ca1 80000000 		.4byte	.LASF164
 3854 0ca5 01       		.byte	0x1
 3855 0ca6 6402     		.2byte	0x264
 3856 0ca8 00000000 		.4byte	.LFB69
 3857 0cac 26000000 		.4byte	.LFE69-.LFB69
 3858 0cb0 01       		.uleb128 0x1
 3859 0cb1 9C       		.byte	0x9c
 3860 0cb2 250D0000 		.4byte	0xd25
 3861 0cb6 11       		.uleb128 0x11
 3862 0cb7 A7050000 		.4byte	.LASF138
 3863 0cbb 01       		.byte	0x1
 3864 0cbc 6402     		.2byte	0x264
 3865 0cbe E1060000 		.4byte	0x6e1
 3866 0cc2 A4050000 		.4byte	.LLST34
 3867 0cc6 09       		.uleb128 0x9
ARM GAS  C:\Users\Xwx47\AppData\Local\Temp\ccJ5AxKs.s 			page 87


 3868 0cc7 0C000000 		.4byte	.LVL122
 3869 0ccb 9B140000 		.4byte	0x149b
 3870 0ccf DF0C0000 		.4byte	0xcdf
 3871 0cd3 0A       		.uleb128 0xa
 3872 0cd4 01       		.uleb128 0x1
 3873 0cd5 50       		.byte	0x50
 3874 0cd6 01       		.uleb128 0x1
 3875 0cd7 31       		.byte	0x31
 3876 0cd8 0A       		.uleb128 0xa
 3877 0cd9 01       		.uleb128 0x1
 3878 0cda 51       		.byte	0x51
 3879 0cdb 02       		.uleb128 0x2
 3880 0cdc 74       		.byte	0x74
 3881 0cdd 00       		.sleb128 0
 3882 0cde 00       		.byte	0
 3883 0cdf 09       		.uleb128 0x9
 3884 0ce0 14000000 		.4byte	.LVL123
 3885 0ce4 9B140000 		.4byte	0x149b
 3886 0ce8 F70C0000 		.4byte	0xcf7
 3887 0cec 0A       		.uleb128 0xa
 3888 0ced 01       		.uleb128 0x1
 3889 0cee 50       		.byte	0x50
 3890 0cef 01       		.uleb128 0x1
 3891 0cf0 4D       		.byte	0x4d
 3892 0cf1 0A       		.uleb128 0xa
 3893 0cf2 01       		.uleb128 0x1
 3894 0cf3 51       		.byte	0x51
 3895 0cf4 01       		.uleb128 0x1
 3896 0cf5 31       		.byte	0x31
 3897 0cf6 00       		.byte	0
 3898 0cf7 09       		.uleb128 0x9
 3899 0cf8 1C000000 		.4byte	.LVL124
 3900 0cfc 9B140000 		.4byte	0x149b
 3901 0d00 0F0D0000 		.4byte	0xd0f
 3902 0d04 0A       		.uleb128 0xa
 3903 0d05 01       		.uleb128 0x1
 3904 0d06 50       		.byte	0x50
 3905 0d07 01       		.uleb128 0x1
 3906 0d08 4D       		.byte	0x4d
 3907 0d09 0A       		.uleb128 0xa
 3908 0d0a 01       		.uleb128 0x1
 3909 0d0b 51       		.byte	0x51
 3910 0d0c 01       		.uleb128 0x1
 3911 0d0d 32       		.byte	0x32
 3912 0d0e 00       		.byte	0
 3913 0d0f 0B       		.uleb128 0xb
 3914 0d10 24000000 		.4byte	.LVL125
 3915 0d14 9B140000 		.4byte	0x149b
 3916 0d18 0A       		.uleb128 0xa
 3917 0d19 01       		.uleb128 0x1
 3918 0d1a 50       		.byte	0x50
 3919 0d1b 01       		.uleb128 0x1
 3920 0d1c 4C       		.byte	0x4c
 3921 0d1d 0A       		.uleb128 0xa
 3922 0d1e 01       		.uleb128 0x1
 3923 0d1f 51       		.byte	0x51
 3924 0d20 02       		.uleb128 0x2
ARM GAS  C:\Users\Xwx47\AppData\Local\Temp\ccJ5AxKs.s 			page 88


 3925 0d21 74       		.byte	0x74
 3926 0d22 00       		.sleb128 0
 3927 0d23 00       		.byte	0
 3928 0d24 00       		.byte	0
 3929 0d25 10       		.uleb128 0x10
 3930 0d26 EE100000 		.4byte	.LASF165
 3931 0d2a 01       		.byte	0x1
 3932 0d2b 7102     		.2byte	0x271
 3933 0d2d 00000000 		.4byte	.LFB70
 3934 0d31 26000000 		.4byte	.LFE70-.LFB70
 3935 0d35 01       		.uleb128 0x1
 3936 0d36 9C       		.byte	0x9c
 3937 0d37 AA0D0000 		.4byte	0xdaa
 3938 0d3b 11       		.uleb128 0x11
 3939 0d3c A7050000 		.4byte	.LASF138
 3940 0d40 01       		.byte	0x1
 3941 0d41 7102     		.2byte	0x271
 3942 0d43 E1060000 		.4byte	0x6e1
 3943 0d47 C5050000 		.4byte	.LLST35
 3944 0d4b 09       		.uleb128 0x9
 3945 0d4c 0C000000 		.4byte	.LVL128
 3946 0d50 B1140000 		.4byte	0x14b1
 3947 0d54 640D0000 		.4byte	0xd64
 3948 0d58 0A       		.uleb128 0xa
 3949 0d59 01       		.uleb128 0x1
 3950 0d5a 50       		.byte	0x50
 3951 0d5b 01       		.uleb128 0x1
 3952 0d5c 31       		.byte	0x31
 3953 0d5d 0A       		.uleb128 0xa
 3954 0d5e 01       		.uleb128 0x1
 3955 0d5f 51       		.byte	0x51
 3956 0d60 02       		.uleb128 0x2
 3957 0d61 74       		.byte	0x74
 3958 0d62 00       		.sleb128 0
 3959 0d63 00       		.byte	0
 3960 0d64 09       		.uleb128 0x9
 3961 0d65 14000000 		.4byte	.LVL129
 3962 0d69 B1140000 		.4byte	0x14b1
 3963 0d6d 7C0D0000 		.4byte	0xd7c
 3964 0d71 0A       		.uleb128 0xa
 3965 0d72 01       		.uleb128 0x1
 3966 0d73 50       		.byte	0x50
 3967 0d74 01       		.uleb128 0x1
 3968 0d75 4D       		.byte	0x4d
 3969 0d76 0A       		.uleb128 0xa
 3970 0d77 01       		.uleb128 0x1
 3971 0d78 51       		.byte	0x51
 3972 0d79 01       		.uleb128 0x1
 3973 0d7a 31       		.byte	0x31
 3974 0d7b 00       		.byte	0
 3975 0d7c 09       		.uleb128 0x9
 3976 0d7d 1C000000 		.4byte	.LVL130
 3977 0d81 B1140000 		.4byte	0x14b1
 3978 0d85 940D0000 		.4byte	0xd94
 3979 0d89 0A       		.uleb128 0xa
 3980 0d8a 01       		.uleb128 0x1
 3981 0d8b 50       		.byte	0x50
ARM GAS  C:\Users\Xwx47\AppData\Local\Temp\ccJ5AxKs.s 			page 89


 3982 0d8c 01       		.uleb128 0x1
 3983 0d8d 4D       		.byte	0x4d
 3984 0d8e 0A       		.uleb128 0xa
 3985 0d8f 01       		.uleb128 0x1
 3986 0d90 51       		.byte	0x51
 3987 0d91 01       		.uleb128 0x1
 3988 0d92 32       		.byte	0x32
 3989 0d93 00       		.byte	0
 3990 0d94 0B       		.uleb128 0xb
 3991 0d95 24000000 		.4byte	.LVL131
 3992 0d99 B1140000 		.4byte	0x14b1
 3993 0d9d 0A       		.uleb128 0xa
 3994 0d9e 01       		.uleb128 0x1
 3995 0d9f 50       		.byte	0x50
 3996 0da0 01       		.uleb128 0x1
 3997 0da1 4C       		.byte	0x4c
 3998 0da2 0A       		.uleb128 0xa
 3999 0da3 01       		.uleb128 0x1
 4000 0da4 51       		.byte	0x51
 4001 0da5 02       		.uleb128 0x2
 4002 0da6 74       		.byte	0x74
 4003 0da7 00       		.sleb128 0
 4004 0da8 00       		.byte	0
 4005 0da9 00       		.byte	0
 4006 0daa 10       		.uleb128 0x10
 4007 0dab F7000000 		.4byte	.LASF166
 4008 0daf 01       		.byte	0x1
 4009 0db0 7C02     		.2byte	0x27c
 4010 0db2 00000000 		.4byte	.LFB71
 4011 0db6 0C000000 		.4byte	.LFE71-.LFB71
 4012 0dba 01       		.uleb128 0x1
 4013 0dbb 9C       		.byte	0x9c
 4014 0dbc D50D0000 		.4byte	0xdd5
 4015 0dc0 0B       		.uleb128 0xb
 4016 0dc1 0A000000 		.4byte	.LVL132
 4017 0dc5 9B140000 		.4byte	0x149b
 4018 0dc9 0A       		.uleb128 0xa
 4019 0dca 01       		.uleb128 0x1
 4020 0dcb 50       		.byte	0x50
 4021 0dcc 01       		.uleb128 0x1
 4022 0dcd 4D       		.byte	0x4d
 4023 0dce 0A       		.uleb128 0xa
 4024 0dcf 01       		.uleb128 0x1
 4025 0dd0 51       		.byte	0x51
 4026 0dd1 01       		.uleb128 0x1
 4027 0dd2 32       		.byte	0x32
 4028 0dd3 00       		.byte	0
 4029 0dd4 00       		.byte	0
 4030 0dd5 10       		.uleb128 0x10
 4031 0dd6 630D0000 		.4byte	.LASF167
 4032 0dda 01       		.byte	0x1
 4033 0ddb 8402     		.2byte	0x284
 4034 0ddd 00000000 		.4byte	.LFB72
 4035 0de1 0C000000 		.4byte	.LFE72-.LFB72
 4036 0de5 01       		.uleb128 0x1
 4037 0de6 9C       		.byte	0x9c
 4038 0de7 000E0000 		.4byte	0xe00
ARM GAS  C:\Users\Xwx47\AppData\Local\Temp\ccJ5AxKs.s 			page 90


 4039 0deb 0B       		.uleb128 0xb
 4040 0dec 0A000000 		.4byte	.LVL133
 4041 0df0 B1140000 		.4byte	0x14b1
 4042 0df4 0A       		.uleb128 0xa
 4043 0df5 01       		.uleb128 0x1
 4044 0df6 50       		.byte	0x50
 4045 0df7 01       		.uleb128 0x1
 4046 0df8 4D       		.byte	0x4d
 4047 0df9 0A       		.uleb128 0xa
 4048 0dfa 01       		.uleb128 0x1
 4049 0dfb 51       		.byte	0x51
 4050 0dfc 01       		.uleb128 0x1
 4051 0dfd 32       		.byte	0x32
 4052 0dfe 00       		.byte	0
 4053 0dff 00       		.byte	0
 4054 0e00 10       		.uleb128 0x10
 4055 0e01 3C0D0000 		.4byte	.LASF168
 4056 0e05 01       		.byte	0x1
 4057 0e06 8C02     		.2byte	0x28c
 4058 0e08 00000000 		.4byte	.LFB73
 4059 0e0c 0C000000 		.4byte	.LFE73-.LFB73
 4060 0e10 01       		.uleb128 0x1
 4061 0e11 9C       		.byte	0x9c
 4062 0e12 2B0E0000 		.4byte	0xe2b
 4063 0e16 0B       		.uleb128 0xb
 4064 0e17 0A000000 		.4byte	.LVL134
 4065 0e1b 9B140000 		.4byte	0x149b
 4066 0e1f 0A       		.uleb128 0xa
 4067 0e20 01       		.uleb128 0x1
 4068 0e21 50       		.byte	0x50
 4069 0e22 01       		.uleb128 0x1
 4070 0e23 4D       		.byte	0x4d
 4071 0e24 0A       		.uleb128 0xa
 4072 0e25 01       		.uleb128 0x1
 4073 0e26 51       		.byte	0x51
 4074 0e27 01       		.uleb128 0x1
 4075 0e28 31       		.byte	0x31
 4076 0e29 00       		.byte	0
 4077 0e2a 00       		.byte	0
 4078 0e2b 10       		.uleb128 0x10
 4079 0e2c D8080000 		.4byte	.LASF169
 4080 0e30 01       		.byte	0x1
 4081 0e31 9402     		.2byte	0x294
 4082 0e33 00000000 		.4byte	.LFB74
 4083 0e37 0C000000 		.4byte	.LFE74-.LFB74
 4084 0e3b 01       		.uleb128 0x1
 4085 0e3c 9C       		.byte	0x9c
 4086 0e3d 560E0000 		.4byte	0xe56
 4087 0e41 0B       		.uleb128 0xb
 4088 0e42 0A000000 		.4byte	.LVL135
 4089 0e46 B1140000 		.4byte	0x14b1
 4090 0e4a 0A       		.uleb128 0xa
 4091 0e4b 01       		.uleb128 0x1
 4092 0e4c 50       		.byte	0x50
 4093 0e4d 01       		.uleb128 0x1
 4094 0e4e 4D       		.byte	0x4d
 4095 0e4f 0A       		.uleb128 0xa
ARM GAS  C:\Users\Xwx47\AppData\Local\Temp\ccJ5AxKs.s 			page 91


 4096 0e50 01       		.uleb128 0x1
 4097 0e51 51       		.byte	0x51
 4098 0e52 01       		.uleb128 0x1
 4099 0e53 31       		.byte	0x31
 4100 0e54 00       		.byte	0
 4101 0e55 00       		.byte	0
 4102 0e56 10       		.uleb128 0x10
 4103 0e57 0C110000 		.4byte	.LASF170
 4104 0e5b 01       		.byte	0x1
 4105 0e5c 9C02     		.2byte	0x29c
 4106 0e5e 00000000 		.4byte	.LFB75
 4107 0e62 0C000000 		.4byte	.LFE75-.LFB75
 4108 0e66 01       		.uleb128 0x1
 4109 0e67 9C       		.byte	0x9c
 4110 0e68 810E0000 		.4byte	0xe81
 4111 0e6c 0B       		.uleb128 0xb
 4112 0e6d 0A000000 		.4byte	.LVL136
 4113 0e71 9B140000 		.4byte	0x149b
 4114 0e75 0A       		.uleb128 0xa
 4115 0e76 01       		.uleb128 0x1
 4116 0e77 50       		.byte	0x50
 4117 0e78 01       		.uleb128 0x1
 4118 0e79 4D       		.byte	0x4d
 4119 0e7a 0A       		.uleb128 0xa
 4120 0e7b 01       		.uleb128 0x1
 4121 0e7c 51       		.byte	0x51
 4122 0e7d 01       		.uleb128 0x1
 4123 0e7e 30       		.byte	0x30
 4124 0e7f 00       		.byte	0
 4125 0e80 00       		.byte	0
 4126 0e81 10       		.uleb128 0x10
 4127 0e82 C8030000 		.4byte	.LASF171
 4128 0e86 01       		.byte	0x1
 4129 0e87 A402     		.2byte	0x2a4
 4130 0e89 00000000 		.4byte	.LFB76
 4131 0e8d 0C000000 		.4byte	.LFE76-.LFB76
 4132 0e91 01       		.uleb128 0x1
 4133 0e92 9C       		.byte	0x9c
 4134 0e93 AC0E0000 		.4byte	0xeac
 4135 0e97 0B       		.uleb128 0xb
 4136 0e98 0A000000 		.4byte	.LVL137
 4137 0e9c B1140000 		.4byte	0x14b1
 4138 0ea0 0A       		.uleb128 0xa
 4139 0ea1 01       		.uleb128 0x1
 4140 0ea2 50       		.byte	0x50
 4141 0ea3 01       		.uleb128 0x1
 4142 0ea4 4D       		.byte	0x4d
 4143 0ea5 0A       		.uleb128 0xa
 4144 0ea6 01       		.uleb128 0x1
 4145 0ea7 51       		.byte	0x51
 4146 0ea8 01       		.uleb128 0x1
 4147 0ea9 30       		.byte	0x30
 4148 0eaa 00       		.byte	0
 4149 0eab 00       		.byte	0
 4150 0eac 10       		.uleb128 0x10
 4151 0ead DD040000 		.4byte	.LASF172
 4152 0eb1 01       		.byte	0x1
ARM GAS  C:\Users\Xwx47\AppData\Local\Temp\ccJ5AxKs.s 			page 92


 4153 0eb2 C002     		.2byte	0x2c0
 4154 0eb4 00000000 		.4byte	.LFB77
 4155 0eb8 0A000000 		.4byte	.LFE77-.LFB77
 4156 0ebc 01       		.uleb128 0x1
 4157 0ebd 9C       		.byte	0x9c
 4158 0ebe D20E0000 		.4byte	0xed2
 4159 0ec2 0B       		.uleb128 0xb
 4160 0ec3 08000000 		.4byte	.LVL138
 4161 0ec7 DD140000 		.4byte	0x14dd
 4162 0ecb 0A       		.uleb128 0xa
 4163 0ecc 01       		.uleb128 0x1
 4164 0ecd 50       		.byte	0x50
 4165 0ece 01       		.uleb128 0x1
 4166 0ecf 31       		.byte	0x31
 4167 0ed0 00       		.byte	0
 4168 0ed1 00       		.byte	0
 4169 0ed2 08       		.uleb128 0x8
 4170 0ed3 840E0000 		.4byte	.LASF173
 4171 0ed7 01       		.byte	0x1
 4172 0ed8 DA       		.byte	0xda
 4173 0ed9 00000000 		.4byte	.LFB44
 4174 0edd 10000000 		.4byte	.LFE44-.LFB44
 4175 0ee1 01       		.uleb128 0x1
 4176 0ee2 9C       		.byte	0x9c
 4177 0ee3 050F0000 		.4byte	0xf05
 4178 0ee7 0E       		.uleb128 0xe
 4179 0ee8 06000000 		.4byte	.LVL139
 4180 0eec AC0E0000 		.4byte	0xeac
 4181 0ef0 0B       		.uleb128 0xb
 4182 0ef1 0E000000 		.4byte	.LVL140
 4183 0ef5 9B140000 		.4byte	0x149b
 4184 0ef9 0A       		.uleb128 0xa
 4185 0efa 01       		.uleb128 0x1
 4186 0efb 50       		.byte	0x50
 4187 0efc 01       		.uleb128 0x1
 4188 0efd 30       		.byte	0x30
 4189 0efe 0A       		.uleb128 0xa
 4190 0eff 01       		.uleb128 0x1
 4191 0f00 51       		.byte	0x51
 4192 0f01 01       		.uleb128 0x1
 4193 0f02 31       		.byte	0x31
 4194 0f03 00       		.byte	0
 4195 0f04 00       		.byte	0
 4196 0f05 10       		.uleb128 0x10
 4197 0f06 EE0B0000 		.4byte	.LASF174
 4198 0f0a 01       		.byte	0x1
 4199 0f0b D302     		.2byte	0x2d3
 4200 0f0d 00000000 		.4byte	.LFB78
 4201 0f11 0A000000 		.4byte	.LFE78-.LFB78
 4202 0f15 01       		.uleb128 0x1
 4203 0f16 9C       		.byte	0x9c
 4204 0f17 2B0F0000 		.4byte	0xf2b
 4205 0f1b 0B       		.uleb128 0xb
 4206 0f1c 08000000 		.4byte	.LVL141
 4207 0f20 DD140000 		.4byte	0x14dd
 4208 0f24 0A       		.uleb128 0xa
 4209 0f25 01       		.uleb128 0x1
ARM GAS  C:\Users\Xwx47\AppData\Local\Temp\ccJ5AxKs.s 			page 93


 4210 0f26 50       		.byte	0x50
 4211 0f27 01       		.uleb128 0x1
 4212 0f28 30       		.byte	0x30
 4213 0f29 00       		.byte	0
 4214 0f2a 00       		.byte	0
 4215 0f2b 08       		.uleb128 0x8
 4216 0f2c 660E0000 		.4byte	.LASF175
 4217 0f30 01       		.byte	0x1
 4218 0f31 C7       		.byte	0xc7
 4219 0f32 00000000 		.4byte	.LFB43
 4220 0f36 10000000 		.4byte	.LFE43-.LFB43
 4221 0f3a 01       		.uleb128 0x1
 4222 0f3b 9C       		.byte	0x9c
 4223 0f3c 5E0F0000 		.4byte	0xf5e
 4224 0f40 0E       		.uleb128 0xe
 4225 0f41 06000000 		.4byte	.LVL142
 4226 0f45 050F0000 		.4byte	0xf05
 4227 0f49 0B       		.uleb128 0xb
 4228 0f4a 0E000000 		.4byte	.LVL143
 4229 0f4e 9B140000 		.4byte	0x149b
 4230 0f52 0A       		.uleb128 0xa
 4231 0f53 01       		.uleb128 0x1
 4232 0f54 50       		.byte	0x50
 4233 0f55 01       		.uleb128 0x1
 4234 0f56 30       		.byte	0x30
 4235 0f57 0A       		.uleb128 0xa
 4236 0f58 01       		.uleb128 0x1
 4237 0f59 51       		.byte	0x51
 4238 0f5a 01       		.uleb128 0x1
 4239 0f5b 31       		.byte	0x31
 4240 0f5c 00       		.byte	0
 4241 0f5d 00       		.byte	0
 4242 0f5e 08       		.uleb128 0x8
 4243 0f5f EB000000 		.4byte	.LASF176
 4244 0f63 01       		.byte	0x1
 4245 0f64 7F       		.byte	0x7f
 4246 0f65 00000000 		.4byte	.LFB37
 4247 0f69 08000000 		.4byte	.LFE37-.LFB37
 4248 0f6d 01       		.uleb128 0x1
 4249 0f6e 9C       		.byte	0x9c
 4250 0f6f 7D0F0000 		.4byte	0xf7d
 4251 0f73 0E       		.uleb128 0xe
 4252 0f74 06000000 		.4byte	.LVL144
 4253 0f78 2B0F0000 		.4byte	0xf2b
 4254 0f7c 00       		.byte	0
 4255 0f7d 10       		.uleb128 0x10
 4256 0f7e 1A0C0000 		.4byte	.LASF177
 4257 0f82 01       		.byte	0x1
 4258 0f83 E602     		.2byte	0x2e6
 4259 0f85 00000000 		.4byte	.LFB79
 4260 0f89 16000000 		.4byte	.LFE79-.LFB79
 4261 0f8d 01       		.uleb128 0x1
 4262 0f8e 9C       		.byte	0x9c
 4263 0f8f C90F0000 		.4byte	0xfc9
 4264 0f93 09       		.uleb128 0x9
 4265 0f94 08000000 		.4byte	.LVL145
 4266 0f98 DD140000 		.4byte	0x14dd
ARM GAS  C:\Users\Xwx47\AppData\Local\Temp\ccJ5AxKs.s 			page 94


 4267 0f9c A60F0000 		.4byte	0xfa6
 4268 0fa0 0A       		.uleb128 0xa
 4269 0fa1 01       		.uleb128 0x1
 4270 0fa2 50       		.byte	0x50
 4271 0fa3 01       		.uleb128 0x1
 4272 0fa4 31       		.byte	0x31
 4273 0fa5 00       		.byte	0
 4274 0fa6 09       		.uleb128 0x9
 4275 0fa7 0E000000 		.4byte	.LVL146
 4276 0fab E8140000 		.4byte	0x14e8
 4277 0faf B90F0000 		.4byte	0xfb9
 4278 0fb3 0A       		.uleb128 0xa
 4279 0fb4 01       		.uleb128 0x1
 4280 0fb5 50       		.byte	0x50
 4281 0fb6 01       		.uleb128 0x1
 4282 0fb7 3F       		.byte	0x3f
 4283 0fb8 00       		.byte	0
 4284 0fb9 0B       		.uleb128 0xb
 4285 0fba 14000000 		.4byte	.LVL147
 4286 0fbe DD140000 		.4byte	0x14dd
 4287 0fc2 0A       		.uleb128 0xa
 4288 0fc3 01       		.uleb128 0x1
 4289 0fc4 50       		.byte	0x50
 4290 0fc5 01       		.uleb128 0x1
 4291 0fc6 30       		.byte	0x30
 4292 0fc7 00       		.byte	0
 4293 0fc8 00       		.byte	0
 4294 0fc9 10       		.uleb128 0x10
 4295 0fca 4B010000 		.4byte	.LASF178
 4296 0fce 01       		.byte	0x1
 4297 0fcf 5902     		.2byte	0x259
 4298 0fd1 00000000 		.4byte	.LFB68
 4299 0fd5 0C000000 		.4byte	.LFE68-.LFB68
 4300 0fd9 01       		.uleb128 0x1
 4301 0fda 9C       		.byte	0x9c
 4302 0fdb F20F0000 		.4byte	0xff2
 4303 0fdf 0E       		.uleb128 0xe
 4304 0fe0 06000000 		.4byte	.LVL148
 4305 0fe4 F3140000 		.4byte	0x14f3
 4306 0fe8 0E       		.uleb128 0xe
 4307 0fe9 0A000000 		.4byte	.LVL149
 4308 0fed 7D0F0000 		.4byte	0xf7d
 4309 0ff1 00       		.byte	0
 4310 0ff2 12       		.uleb128 0x12
 4311 0ff3 E6050000 		.4byte	.LASF179
 4312 0ff7 01       		.byte	0x1
 4313 0ff8 F802     		.2byte	0x2f8
 4314 0ffa 76000000 		.4byte	0x76
 4315 0ffe 00000000 		.4byte	.LFB80
 4316 1002 08000000 		.4byte	.LFE80-.LFB80
 4317 1006 01       		.uleb128 0x1
 4318 1007 9C       		.byte	0x9c
 4319 1008 16100000 		.4byte	0x1016
 4320 100c 0E       		.uleb128 0xe
 4321 100d 06000000 		.4byte	.LVL150
 4322 1011 FE140000 		.4byte	0x14fe
 4323 1015 00       		.byte	0
ARM GAS  C:\Users\Xwx47\AppData\Local\Temp\ccJ5AxKs.s 			page 95


 4324 1016 12       		.uleb128 0x12
 4325 1017 3B030000 		.4byte	.LASF180
 4326 101b 01       		.byte	0x1
 4327 101c 0203     		.2byte	0x302
 4328 101e 76000000 		.4byte	0x76
 4329 1022 00000000 		.4byte	.LFB81
 4330 1026 0E000000 		.4byte	.LFE81-.LFB81
 4331 102a 01       		.uleb128 0x1
 4332 102b 9C       		.byte	0x9c
 4333 102c 50100000 		.4byte	0x1050
 4334 1030 13       		.uleb128 0x13
 4335 1031 CD040000 		.4byte	.LASF181
 4336 1035 01       		.byte	0x1
 4337 1036 0403     		.2byte	0x304
 4338 1038 76000000 		.4byte	0x76
 4339 103c E6050000 		.4byte	.LLST36
 4340 1040 0B       		.uleb128 0xb
 4341 1041 08000000 		.4byte	.LVL151
 4342 1045 BC140000 		.4byte	0x14bc
 4343 1049 0A       		.uleb128 0xa
 4344 104a 01       		.uleb128 0x1
 4345 104b 50       		.byte	0x50
 4346 104c 01       		.uleb128 0x1
 4347 104d 38       		.byte	0x38
 4348 104e 00       		.byte	0
 4349 104f 00       		.byte	0
 4350 1050 12       		.uleb128 0x12
 4351 1051 21090000 		.4byte	.LASF182
 4352 1055 01       		.byte	0x1
 4353 1056 0D03     		.2byte	0x30d
 4354 1058 76000000 		.4byte	0x76
 4355 105c 00000000 		.4byte	.LFB82
 4356 1060 0E000000 		.4byte	.LFE82-.LFB82
 4357 1064 01       		.uleb128 0x1
 4358 1065 9C       		.byte	0x9c
 4359 1066 8A100000 		.4byte	0x108a
 4360 106a 13       		.uleb128 0x13
 4361 106b 770F0000 		.4byte	.LASF183
 4362 106f 01       		.byte	0x1
 4363 1070 0F03     		.2byte	0x30f
 4364 1072 76000000 		.4byte	0x76
 4365 1076 F9050000 		.4byte	.LLST37
 4366 107a 0B       		.uleb128 0xb
 4367 107b 08000000 		.4byte	.LVL153
 4368 107f BC140000 		.4byte	0x14bc
 4369 1083 0A       		.uleb128 0xa
 4370 1084 01       		.uleb128 0x1
 4371 1085 50       		.byte	0x50
 4372 1086 01       		.uleb128 0x1
 4373 1087 38       		.byte	0x38
 4374 1088 00       		.byte	0
 4375 1089 00       		.byte	0
 4376 108a 10       		.uleb128 0x10
 4377 108b EB020000 		.4byte	.LASF184
 4378 108f 01       		.byte	0x1
 4379 1090 1A03     		.2byte	0x31a
 4380 1092 00000000 		.4byte	.LFB83
ARM GAS  C:\Users\Xwx47\AppData\Local\Temp\ccJ5AxKs.s 			page 96


 4381 1096 12000000 		.4byte	.LFE83-.LFB83
 4382 109a 01       		.uleb128 0x1
 4383 109b 9C       		.byte	0x9c
 4384 109c CA100000 		.4byte	0x10ca
 4385 10a0 11       		.uleb128 0x11
 4386 10a1 35080000 		.4byte	.LASF185
 4387 10a5 01       		.byte	0x1
 4388 10a6 1A03     		.2byte	0x31a
 4389 10a8 24080000 		.4byte	0x824
 4390 10ac 11060000 		.4byte	.LLST38
 4391 10b0 11       		.uleb128 0x11
 4392 10b1 AD090000 		.4byte	.LASF146
 4393 10b5 01       		.byte	0x1
 4394 10b6 1A03     		.2byte	0x31a
 4395 10b8 96000000 		.4byte	0x96
 4396 10bc 32060000 		.4byte	.LLST39
 4397 10c0 0E       		.uleb128 0xe
 4398 10c1 10000000 		.4byte	.LVL157
 4399 10c5 09150000 		.4byte	0x1509
 4400 10c9 00       		.byte	0
 4401 10ca 10       		.uleb128 0x10
 4402 10cb 00030000 		.4byte	.LASF186
 4403 10cf 01       		.byte	0x1
 4404 10d0 2D03     		.2byte	0x32d
 4405 10d2 00000000 		.4byte	.LFB84
 4406 10d6 16000000 		.4byte	.LFE84-.LFB84
 4407 10da 01       		.uleb128 0x1
 4408 10db 9C       		.byte	0x9c
 4409 10dc 13110000 		.4byte	0x1113
 4410 10e0 11       		.uleb128 0x11
 4411 10e1 35080000 		.4byte	.LASF185
 4412 10e5 01       		.byte	0x1
 4413 10e6 2D03     		.2byte	0x32d
 4414 10e8 24080000 		.4byte	0x824
 4415 10ec 50060000 		.4byte	.LLST40
 4416 10f0 11       		.uleb128 0x11
 4417 10f1 AD090000 		.4byte	.LASF146
 4418 10f5 01       		.byte	0x1
 4419 10f6 2D03     		.2byte	0x32d
 4420 10f8 96000000 		.4byte	0x96
 4421 10fc 71060000 		.4byte	.LLST41
 4422 1100 0E       		.uleb128 0xe
 4423 1101 10000000 		.4byte	.LVL160
 4424 1105 8A100000 		.4byte	0x108a
 4425 1109 0E       		.uleb128 0xe
 4426 110a 14000000 		.4byte	.LVL161
 4427 110e 7D0F0000 		.4byte	0xf7d
 4428 1112 00       		.byte	0
 4429 1113 12       		.uleb128 0x12
 4430 1114 05080000 		.4byte	.LASF187
 4431 1118 01       		.byte	0x1
 4432 1119 4003     		.2byte	0x340
 4433 111b 37110000 		.4byte	0x1137
 4434 111f 00000000 		.4byte	.LFB85
 4435 1123 0E000000 		.4byte	.LFE85-.LFB85
 4436 1127 01       		.uleb128 0x1
 4437 1128 9C       		.byte	0x9c
ARM GAS  C:\Users\Xwx47\AppData\Local\Temp\ccJ5AxKs.s 			page 97


 4438 1129 37110000 		.4byte	0x1137
 4439 112d 0E       		.uleb128 0xe
 4440 112e 06000000 		.4byte	.LVL162
 4441 1132 F20F0000 		.4byte	0xff2
 4442 1136 00       		.byte	0
 4443 1137 02       		.uleb128 0x2
 4444 1138 01       		.byte	0x1
 4445 1139 02       		.byte	0x2
 4446 113a 960A0000 		.4byte	.LASF188
 4447 113e 10       		.uleb128 0x10
 4448 113f 2F0C0000 		.4byte	.LASF189
 4449 1143 01       		.byte	0x1
 4450 1144 4B03     		.2byte	0x34b
 4451 1146 00000000 		.4byte	.LFB86
 4452 114a 20000000 		.4byte	.LFE86-.LFB86
 4453 114e 01       		.uleb128 0x1
 4454 114f 9C       		.byte	0x9c
 4455 1150 B1110000 		.4byte	0x11b1
 4456 1154 11       		.uleb128 0x11
 4457 1155 35080000 		.4byte	.LASF185
 4458 1159 01       		.byte	0x1
 4459 115a 4B03     		.2byte	0x34b
 4460 115c 7C080000 		.4byte	0x87c
 4461 1160 8F060000 		.4byte	.LLST42
 4462 1164 11       		.uleb128 0x11
 4463 1165 AD090000 		.4byte	.LASF146
 4464 1169 01       		.byte	0x1
 4465 116a 4B03     		.2byte	0x34b
 4466 116c B1110000 		.4byte	0x11b1
 4467 1170 BB060000 		.4byte	.LLST43
 4468 1174 09       		.uleb128 0x9
 4469 1175 10000000 		.4byte	.LVL165
 4470 1179 DD140000 		.4byte	0x14dd
 4471 117d 87110000 		.4byte	0x1187
 4472 1181 0A       		.uleb128 0xa
 4473 1182 01       		.uleb128 0x1
 4474 1183 50       		.byte	0x50
 4475 1184 01       		.uleb128 0x1
 4476 1185 30       		.byte	0x30
 4477 1186 00       		.byte	0
 4478 1187 09       		.uleb128 0x9
 4479 1188 18000000 		.4byte	.LVL166
 4480 118c 14150000 		.4byte	0x1514
 4481 1190 A1110000 		.4byte	0x11a1
 4482 1194 0A       		.uleb128 0xa
 4483 1195 01       		.uleb128 0x1
 4484 1196 50       		.byte	0x50
 4485 1197 02       		.uleb128 0x2
 4486 1198 74       		.byte	0x74
 4487 1199 00       		.sleb128 0
 4488 119a 0A       		.uleb128 0xa
 4489 119b 01       		.uleb128 0x1
 4490 119c 51       		.byte	0x51
 4491 119d 02       		.uleb128 0x2
 4492 119e 75       		.byte	0x75
 4493 119f 00       		.sleb128 0
 4494 11a0 00       		.byte	0
ARM GAS  C:\Users\Xwx47\AppData\Local\Temp\ccJ5AxKs.s 			page 98


 4495 11a1 0B       		.uleb128 0xb
 4496 11a2 1E000000 		.4byte	.LVL167
 4497 11a6 DD140000 		.4byte	0x14dd
 4498 11aa 0A       		.uleb128 0xa
 4499 11ab 01       		.uleb128 0x1
 4500 11ac 50       		.byte	0x50
 4501 11ad 01       		.uleb128 0x1
 4502 11ae 31       		.byte	0x31
 4503 11af 00       		.byte	0
 4504 11b0 00       		.byte	0
 4505 11b1 0F       		.uleb128 0xf
 4506 11b2 96000000 		.4byte	0x96
 4507 11b6 10       		.uleb128 0x10
 4508 11b7 1F100000 		.4byte	.LASF190
 4509 11bb 01       		.byte	0x1
 4510 11bc 6103     		.2byte	0x361
 4511 11be 00000000 		.4byte	.LFB87
 4512 11c2 14000000 		.4byte	.LFE87-.LFB87
 4513 11c6 01       		.uleb128 0x1
 4514 11c7 9C       		.byte	0x9c
 4515 11c8 12120000 		.4byte	0x1212
 4516 11cc 11       		.uleb128 0x11
 4517 11cd 35080000 		.4byte	.LASF185
 4518 11d1 01       		.byte	0x1
 4519 11d2 6103     		.2byte	0x361
 4520 11d4 24080000 		.4byte	0x824
 4521 11d8 E7060000 		.4byte	.LLST44
 4522 11dc 11       		.uleb128 0x11
 4523 11dd AD090000 		.4byte	.LASF146
 4524 11e1 01       		.byte	0x1
 4525 11e2 6103     		.2byte	0x361
 4526 11e4 96000000 		.4byte	0x96
 4527 11e8 08070000 		.4byte	.LLST45
 4528 11ec 09       		.uleb128 0x9
 4529 11ed 0E000000 		.4byte	.LVL171
 4530 11f1 1F150000 		.4byte	0x151f
 4531 11f5 08120000 		.4byte	0x1208
 4532 11f9 0A       		.uleb128 0xa
 4533 11fa 01       		.uleb128 0x1
 4534 11fb 50       		.byte	0x50
 4535 11fc 03       		.uleb128 0x3
 4536 11fd F3       		.byte	0xf3
 4537 11fe 01       		.uleb128 0x1
 4538 11ff 50       		.byte	0x50
 4539 1200 0A       		.uleb128 0xa
 4540 1201 01       		.uleb128 0x1
 4541 1202 51       		.byte	0x51
 4542 1203 03       		.uleb128 0x3
 4543 1204 F3       		.byte	0xf3
 4544 1205 01       		.uleb128 0x1
 4545 1206 51       		.byte	0x51
 4546 1207 00       		.byte	0
 4547 1208 0E       		.uleb128 0xe
 4548 1209 12000000 		.4byte	.LVL172
 4549 120d 7D0F0000 		.4byte	0xf7d
 4550 1211 00       		.byte	0
 4551 1212 10       		.uleb128 0x10
ARM GAS  C:\Users\Xwx47\AppData\Local\Temp\ccJ5AxKs.s 			page 99


 4552 1213 680A0000 		.4byte	.LASF191
 4553 1217 01       		.byte	0x1
 4554 1218 7603     		.2byte	0x376
 4555 121a 00000000 		.4byte	.LFB88
 4556 121e 12000000 		.4byte	.LFE88-.LFB88
 4557 1222 01       		.uleb128 0x1
 4558 1223 9C       		.byte	0x9c
 4559 1224 62120000 		.4byte	0x1262
 4560 1228 11       		.uleb128 0x11
 4561 1229 A7050000 		.4byte	.LASF138
 4562 122d 01       		.byte	0x1
 4563 122e 7603     		.2byte	0x376
 4564 1230 E1060000 		.4byte	0x6e1
 4565 1234 29070000 		.4byte	.LLST46
 4566 1238 11       		.uleb128 0x11
 4567 1239 35080000 		.4byte	.LASF185
 4568 123d 01       		.byte	0x1
 4569 123e 7603     		.2byte	0x376
 4570 1240 24080000 		.4byte	0x824
 4571 1244 4A070000 		.4byte	.LLST47
 4572 1248 11       		.uleb128 0x11
 4573 1249 AD090000 		.4byte	.LASF146
 4574 124d 01       		.byte	0x1
 4575 124e 7703     		.2byte	0x377
 4576 1250 96000000 		.4byte	0x96
 4577 1254 6B070000 		.4byte	.LLST48
 4578 1258 0E       		.uleb128 0xe
 4579 1259 10000000 		.4byte	.LVL175
 4580 125d 2A150000 		.4byte	0x152a
 4581 1261 00       		.byte	0
 4582 1262 12       		.uleb128 0x12
 4583 1263 3A060000 		.4byte	.LASF192
 4584 1267 01       		.byte	0x1
 4585 1268 8903     		.2byte	0x389
 4586 126a 76000000 		.4byte	0x76
 4587 126e 00000000 		.4byte	.LFB89
 4588 1272 10000000 		.4byte	.LFE89-.LFB89
 4589 1276 01       		.uleb128 0x1
 4590 1277 9C       		.byte	0x9c
 4591 1278 9C120000 		.4byte	0x129c
 4592 127c 13       		.uleb128 0x13
 4593 127d A7050000 		.4byte	.LASF138
 4594 1281 01       		.byte	0x1
 4595 1282 8B03     		.2byte	0x38b
 4596 1284 76000000 		.4byte	0x76
 4597 1288 89070000 		.4byte	.LLST49
 4598 128c 0B       		.uleb128 0xb
 4599 128d 08000000 		.4byte	.LVL176
 4600 1291 BC140000 		.4byte	0x14bc
 4601 1295 0A       		.uleb128 0xa
 4602 1296 01       		.uleb128 0x1
 4603 1297 50       		.byte	0x50
 4604 1298 01       		.uleb128 0x1
 4605 1299 37       		.byte	0x37
 4606 129a 00       		.byte	0
 4607 129b 00       		.byte	0
 4608 129c 12       		.uleb128 0x12
ARM GAS  C:\Users\Xwx47\AppData\Local\Temp\ccJ5AxKs.s 			page 100


 4609 129d D00B0000 		.4byte	.LASF193
 4610 12a1 01       		.byte	0x1
 4611 12a2 9403     		.2byte	0x394
 4612 12a4 76000000 		.4byte	0x76
 4613 12a8 00000000 		.4byte	.LFB90
 4614 12ac 0C000000 		.4byte	.LFE90-.LFB90
 4615 12b0 01       		.uleb128 0x1
 4616 12b1 9C       		.byte	0x9c
 4617 12b2 CB120000 		.4byte	0x12cb
 4618 12b6 0B       		.uleb128 0xb
 4619 12b7 0A000000 		.4byte	.LVL178
 4620 12bb 35150000 		.4byte	0x1535
 4621 12bf 0A       		.uleb128 0xa
 4622 12c0 01       		.uleb128 0x1
 4623 12c1 50       		.byte	0x50
 4624 12c2 01       		.uleb128 0x1
 4625 12c3 39       		.byte	0x39
 4626 12c4 0A       		.uleb128 0xa
 4627 12c5 01       		.uleb128 0x1
 4628 12c6 51       		.byte	0x51
 4629 12c7 01       		.uleb128 0x1
 4630 12c8 30       		.byte	0x30
 4631 12c9 00       		.byte	0
 4632 12ca 00       		.byte	0
 4633 12cb 12       		.uleb128 0x12
 4634 12cc 960F0000 		.4byte	.LASF194
 4635 12d0 01       		.byte	0x1
 4636 12d1 9D03     		.2byte	0x39d
 4637 12d3 37110000 		.4byte	0x1137
 4638 12d7 00000000 		.4byte	.LFB91
 4639 12db 0C000000 		.4byte	.LFE91-.LFB91
 4640 12df 01       		.uleb128 0x1
 4641 12e0 9C       		.byte	0x9c
 4642 12e1 FA120000 		.4byte	0x12fa
 4643 12e5 0B       		.uleb128 0xb
 4644 12e6 0A000000 		.4byte	.LVL179
 4645 12ea 35150000 		.4byte	0x1535
 4646 12ee 0A       		.uleb128 0xa
 4647 12ef 01       		.uleb128 0x1
 4648 12f0 50       		.byte	0x50
 4649 12f1 01       		.uleb128 0x1
 4650 12f2 47       		.byte	0x47
 4651 12f3 0A       		.uleb128 0xa
 4652 12f4 01       		.uleb128 0x1
 4653 12f5 51       		.byte	0x51
 4654 12f6 01       		.uleb128 0x1
 4655 12f7 35       		.byte	0x35
 4656 12f8 00       		.byte	0
 4657 12f9 00       		.byte	0
 4658 12fa 12       		.uleb128 0x12
 4659 12fb FA0E0000 		.4byte	.LASF195
 4660 12ff 01       		.byte	0x1
 4661 1300 A503     		.2byte	0x3a5
 4662 1302 37110000 		.4byte	0x1137
 4663 1306 00000000 		.4byte	.LFB92
 4664 130a 0C000000 		.4byte	.LFE92-.LFB92
 4665 130e 01       		.uleb128 0x1
ARM GAS  C:\Users\Xwx47\AppData\Local\Temp\ccJ5AxKs.s 			page 101


 4666 130f 9C       		.byte	0x9c
 4667 1310 29130000 		.4byte	0x1329
 4668 1314 0B       		.uleb128 0xb
 4669 1315 0A000000 		.4byte	.LVL180
 4670 1319 35150000 		.4byte	0x1535
 4671 131d 0A       		.uleb128 0xa
 4672 131e 01       		.uleb128 0x1
 4673 131f 50       		.byte	0x50
 4674 1320 01       		.uleb128 0x1
 4675 1321 47       		.byte	0x47
 4676 1322 0A       		.uleb128 0xa
 4677 1323 01       		.uleb128 0x1
 4678 1324 51       		.byte	0x51
 4679 1325 01       		.uleb128 0x1
 4680 1326 30       		.byte	0x30
 4681 1327 00       		.byte	0
 4682 1328 00       		.byte	0
 4683 1329 12       		.uleb128 0x12
 4684 132a B2070000 		.4byte	.LASF196
 4685 132e 01       		.byte	0x1
 4686 132f B003     		.2byte	0x3b0
 4687 1331 37110000 		.4byte	0x1137
 4688 1335 00000000 		.4byte	.LFB93
 4689 1339 0C000000 		.4byte	.LFE93-.LFB93
 4690 133d 01       		.uleb128 0x1
 4691 133e 9C       		.byte	0x9c
 4692 133f 58130000 		.4byte	0x1358
 4693 1343 0B       		.uleb128 0xb
 4694 1344 0A000000 		.4byte	.LVL181
 4695 1348 35150000 		.4byte	0x1535
 4696 134c 0A       		.uleb128 0xa
 4697 134d 01       		.uleb128 0x1
 4698 134e 50       		.byte	0x50
 4699 134f 01       		.uleb128 0x1
 4700 1350 39       		.byte	0x39
 4701 1351 0A       		.uleb128 0xa
 4702 1352 01       		.uleb128 0x1
 4703 1353 51       		.byte	0x51
 4704 1354 01       		.uleb128 0x1
 4705 1355 30       		.byte	0x30
 4706 1356 00       		.byte	0
 4707 1357 00       		.byte	0
 4708 1358 10       		.uleb128 0x10
 4709 1359 C2010000 		.4byte	.LASF197
 4710 135d 01       		.byte	0x1
 4711 135e B903     		.2byte	0x3b9
 4712 1360 00000000 		.4byte	.LFB94
 4713 1364 0C000000 		.4byte	.LFE94-.LFB94
 4714 1368 01       		.uleb128 0x1
 4715 1369 9C       		.byte	0x9c
 4716 136a 84130000 		.4byte	0x1384
 4717 136e 0B       		.uleb128 0xb
 4718 136f 0A000000 		.4byte	.LVL182
 4719 1373 90140000 		.4byte	0x1490
 4720 1377 0A       		.uleb128 0xa
 4721 1378 01       		.uleb128 0x1
 4722 1379 50       		.byte	0x50
ARM GAS  C:\Users\Xwx47\AppData\Local\Temp\ccJ5AxKs.s 			page 102


 4723 137a 01       		.uleb128 0x1
 4724 137b 37       		.byte	0x37
 4725 137c 0A       		.uleb128 0xa
 4726 137d 01       		.uleb128 0x1
 4727 137e 51       		.byte	0x51
 4728 137f 02       		.uleb128 0x2
 4729 1380 08       		.byte	0x8
 4730 1381 70       		.byte	0x70
 4731 1382 00       		.byte	0
 4732 1383 00       		.byte	0
 4733 1384 08       		.uleb128 0x8
 4734 1385 40070000 		.4byte	.LASF198
 4735 1389 01       		.byte	0x1
 4736 138a 22       		.byte	0x22
 4737 138b 00000000 		.4byte	.LFB33
 4738 138f 30000000 		.4byte	.LFE33-.LFB33
 4739 1393 01       		.uleb128 0x1
 4740 1394 9C       		.byte	0x9c
 4741 1395 11140000 		.4byte	0x1411
 4742 1399 09       		.uleb128 0x9
 4743 139a 08000000 		.4byte	.LVL183
 4744 139e A6140000 		.4byte	0x14a6
 4745 13a2 AD130000 		.4byte	0x13ad
 4746 13a6 0A       		.uleb128 0xa
 4747 13a7 01       		.uleb128 0x1
 4748 13a8 50       		.byte	0x50
 4749 13a9 02       		.uleb128 0x2
 4750 13aa 08       		.byte	0x8
 4751 13ab 64       		.byte	0x64
 4752 13ac 00       		.byte	0
 4753 13ad 09       		.uleb128 0x9
 4754 13ae 0E000000 		.4byte	.LVL184
 4755 13b2 DD140000 		.4byte	0x14dd
 4756 13b6 C0130000 		.4byte	0x13c0
 4757 13ba 0A       		.uleb128 0xa
 4758 13bb 01       		.uleb128 0x1
 4759 13bc 50       		.byte	0x50
 4760 13bd 01       		.uleb128 0x1
 4761 13be 30       		.byte	0x30
 4762 13bf 00       		.byte	0
 4763 13c0 09       		.uleb128 0x9
 4764 13c1 14000000 		.4byte	.LVL185
 4765 13c5 40150000 		.4byte	0x1540
 4766 13c9 D3130000 		.4byte	0x13d3
 4767 13cd 0A       		.uleb128 0xa
 4768 13ce 01       		.uleb128 0x1
 4769 13cf 50       		.byte	0x50
 4770 13d0 01       		.uleb128 0x1
 4771 13d1 31       		.byte	0x31
 4772 13d2 00       		.byte	0
 4773 13d3 0E       		.uleb128 0xe
 4774 13d4 18000000 		.4byte	.LVL186
 4775 13d8 4B150000 		.4byte	0x154b
 4776 13dc 0E       		.uleb128 0xe
 4777 13dd 1C000000 		.4byte	.LVL187
 4778 13e1 56150000 		.4byte	0x1556
 4779 13e5 0E       		.uleb128 0xe
ARM GAS  C:\Users\Xwx47\AppData\Local\Temp\ccJ5AxKs.s 			page 103


 4780 13e6 20000000 		.4byte	.LVL188
 4781 13ea 61150000 		.4byte	0x1561
 4782 13ee 0E       		.uleb128 0xe
 4783 13ef 24000000 		.4byte	.LVL189
 4784 13f3 58130000 		.4byte	0x1358
 4785 13f7 0E       		.uleb128 0xe
 4786 13f8 28000000 		.4byte	.LVL190
 4787 13fc 54040000 		.4byte	0x454
 4788 1400 0B       		.uleb128 0xb
 4789 1401 2E000000 		.4byte	.LVL191
 4790 1405 E8140000 		.4byte	0x14e8
 4791 1409 0A       		.uleb128 0xa
 4792 140a 01       		.uleb128 0x1
 4793 140b 50       		.byte	0x50
 4794 140c 02       		.uleb128 0x2
 4795 140d 08       		.byte	0x8
 4796 140e 96       		.byte	0x96
 4797 140f 00       		.byte	0
 4798 1410 00       		.byte	0
 4799 1411 10       		.uleb128 0x10
 4800 1412 25060000 		.4byte	.LASF199
 4801 1416 01       		.byte	0x1
 4802 1417 C503     		.2byte	0x3c5
 4803 1419 00000000 		.4byte	.LFB95
 4804 141d 10000000 		.4byte	.LFE95-.LFB95
 4805 1421 01       		.uleb128 0x1
 4806 1422 9C       		.byte	0x9c
 4807 1423 47140000 		.4byte	0x1447
 4808 1427 11       		.uleb128 0x11
 4809 1428 44000000 		.4byte	.LASF200
 4810 142c 01       		.byte	0x1
 4811 142d C503     		.2byte	0x3c5
 4812 142f 47140000 		.4byte	0x1447
 4813 1433 9C070000 		.4byte	.LLST50
 4814 1437 0B       		.uleb128 0xb
 4815 1438 0E000000 		.4byte	.LVL194
 4816 143c 90140000 		.4byte	0x1490
 4817 1440 0A       		.uleb128 0xa
 4818 1441 01       		.uleb128 0x1
 4819 1442 50       		.byte	0x50
 4820 1443 01       		.uleb128 0x1
 4821 1444 37       		.byte	0x37
 4822 1445 00       		.byte	0
 4823 1446 00       		.byte	0
 4824 1447 0F       		.uleb128 0xf
 4825 1448 19020000 		.4byte	0x219
 4826 144c 12       		.uleb128 0x12
 4827 144d 290D0000 		.4byte	.LASF201
 4828 1451 01       		.byte	0x1
 4829 1452 D103     		.2byte	0x3d1
 4830 1454 19020000 		.4byte	0x219
 4831 1458 00000000 		.4byte	.LFB96
 4832 145c 28000000 		.4byte	.LFE96-.LFB96
 4833 1460 01       		.uleb128 0x1
 4834 1461 9C       		.byte	0x9c
 4835 1462 90140000 		.4byte	0x1490
 4836 1466 14       		.uleb128 0x14
ARM GAS  C:\Users\Xwx47\AppData\Local\Temp\ccJ5AxKs.s 			page 104


 4837 1467 69727100 		.ascii	"irq\000"
 4838 146b 01       		.byte	0x1
 4839 146c D303     		.2byte	0x3d3
 4840 146e 19020000 		.4byte	0x219
 4841 1472 BD070000 		.4byte	.LLST51
 4842 1476 14       		.uleb128 0x14
 4843 1477 73747300 		.ascii	"sts\000"
 4844 147b 01       		.byte	0x1
 4845 147c D603     		.2byte	0x3d6
 4846 147e 76000000 		.4byte	0x76
 4847 1482 01080000 		.4byte	.LLST52
 4848 1486 0E       		.uleb128 0xe
 4849 1487 06000000 		.4byte	.LVL196
 4850 148b FE140000 		.4byte	0x14fe
 4851 148f 00       		.byte	0
 4852 1490 16       		.uleb128 0x16
 4853 1491 AC060000 		.4byte	.LASF202
 4854 1495 AC060000 		.4byte	.LASF202
 4855 1499 06       		.byte	0x6
 4856 149a 23       		.byte	0x23
 4857 149b 16       		.uleb128 0x16
 4858 149c EE030000 		.4byte	.LASF203
 4859 14a0 EE030000 		.4byte	.LASF203
 4860 14a4 06       		.byte	0x6
 4861 14a5 28       		.byte	0x28
 4862 14a6 16       		.uleb128 0x16
 4863 14a7 4D000000 		.4byte	.LASF204
 4864 14ab 4D000000 		.4byte	.LASF204
 4865 14af 07       		.byte	0x7
 4866 14b0 D9       		.byte	0xd9
 4867 14b1 16       		.uleb128 0x16
 4868 14b2 FD040000 		.4byte	.LASF205
 4869 14b6 FD040000 		.4byte	.LASF205
 4870 14ba 06       		.byte	0x6
 4871 14bb 27       		.byte	0x27
 4872 14bc 16       		.uleb128 0x16
 4873 14bd 31110000 		.4byte	.LASF206
 4874 14c1 31110000 		.4byte	.LASF206
 4875 14c5 06       		.byte	0x6
 4876 14c6 21       		.byte	0x21
 4877 14c7 16       		.uleb128 0x16
 4878 14c8 26070000 		.4byte	.LASF207
 4879 14cc 26070000 		.4byte	.LASF207
 4880 14d0 06       		.byte	0x6
 4881 14d1 24       		.byte	0x24
 4882 14d2 16       		.uleb128 0x16
 4883 14d3 470F0000 		.4byte	.LASF208
 4884 14d7 470F0000 		.4byte	.LASF208
 4885 14db 06       		.byte	0x6
 4886 14dc 22       		.byte	0x22
 4887 14dd 16       		.uleb128 0x16
 4888 14de B2090000 		.4byte	.LASF209
 4889 14e2 B2090000 		.4byte	.LASF209
 4890 14e6 08       		.byte	0x8
 4891 14e7 33       		.byte	0x33
 4892 14e8 16       		.uleb128 0x16
 4893 14e9 D3040000 		.4byte	.LASF210
ARM GAS  C:\Users\Xwx47\AppData\Local\Temp\ccJ5AxKs.s 			page 105


 4894 14ed D3040000 		.4byte	.LASF210
 4895 14f1 07       		.byte	0x7
 4896 14f2 DA       		.byte	0xda
 4897 14f3 16       		.uleb128 0x16
 4898 14f4 9C030000 		.4byte	.LASF211
 4899 14f8 9C030000 		.4byte	.LASF211
 4900 14fc 09       		.byte	0x9
 4901 14fd 29       		.byte	0x29
 4902 14fe 16       		.uleb128 0x16
 4903 14ff 0A090000 		.4byte	.LASF212
 4904 1503 0A090000 		.4byte	.LASF212
 4905 1507 09       		.byte	0x9
 4906 1508 31       		.byte	0x31
 4907 1509 16       		.uleb128 0x16
 4908 150a 520B0000 		.4byte	.LASF213
 4909 150e 520B0000 		.4byte	.LASF213
 4910 1512 09       		.byte	0x9
 4911 1513 2B       		.byte	0x2b
 4912 1514 16       		.uleb128 0x16
 4913 1515 B10A0000 		.4byte	.LASF214
 4914 1519 B10A0000 		.4byte	.LASF214
 4915 151d 09       		.byte	0x9
 4916 151e 2A       		.byte	0x2a
 4917 151f 16       		.uleb128 0x16
 4918 1520 22030000 		.4byte	.LASF215
 4919 1524 22030000 		.4byte	.LASF215
 4920 1528 09       		.byte	0x9
 4921 1529 30       		.byte	0x30
 4922 152a 16       		.uleb128 0x16
 4923 152b 96070000 		.4byte	.LASF216
 4924 152f 96070000 		.4byte	.LASF216
 4925 1533 09       		.byte	0x9
 4926 1534 2F       		.byte	0x2f
 4927 1535 16       		.uleb128 0x16
 4928 1536 3A080000 		.4byte	.LASF217
 4929 153a 3A080000 		.4byte	.LASF217
 4930 153e 06       		.byte	0x6
 4931 153f 25       		.byte	0x25
 4932 1540 16       		.uleb128 0x16
 4933 1541 67050000 		.4byte	.LASF218
 4934 1545 67050000 		.4byte	.LASF218
 4935 1549 0A       		.byte	0xa
 4936 154a 33       		.byte	0x33
 4937 154b 16       		.uleb128 0x16
 4938 154c F3040000 		.4byte	.LASF219
 4939 1550 F3040000 		.4byte	.LASF219
 4940 1554 0B       		.byte	0xb
 4941 1555 72       		.byte	0x72
 4942 1556 16       		.uleb128 0x16
 4943 1557 BA040000 		.4byte	.LASF220
 4944 155b BA040000 		.4byte	.LASF220
 4945 155f 09       		.byte	0x9
 4946 1560 2C       		.byte	0x2c
 4947 1561 16       		.uleb128 0x16
 4948 1562 F7080000 		.4byte	.LASF221
 4949 1566 F7080000 		.4byte	.LASF221
 4950 156a 09       		.byte	0x9
ARM GAS  C:\Users\Xwx47\AppData\Local\Temp\ccJ5AxKs.s 			page 106


 4951 156b 2D       		.byte	0x2d
 4952 156c 00       		.byte	0
 4953              		.section	.debug_abbrev,"",%progbits
 4954              	.Ldebug_abbrev0:
 4955 0000 01       		.uleb128 0x1
 4956 0001 11       		.uleb128 0x11
 4957 0002 01       		.byte	0x1
 4958 0003 25       		.uleb128 0x25
 4959 0004 0E       		.uleb128 0xe
 4960 0005 13       		.uleb128 0x13
 4961 0006 0B       		.uleb128 0xb
 4962 0007 03       		.uleb128 0x3
 4963 0008 0E       		.uleb128 0xe
 4964 0009 1B       		.uleb128 0x1b
 4965 000a 0E       		.uleb128 0xe
 4966 000b 55       		.uleb128 0x55
 4967 000c 17       		.uleb128 0x17
 4968 000d 11       		.uleb128 0x11
 4969 000e 01       		.uleb128 0x1
 4970 000f 10       		.uleb128 0x10
 4971 0010 17       		.uleb128 0x17
 4972 0011 00       		.byte	0
 4973 0012 00       		.byte	0
 4974 0013 02       		.uleb128 0x2
 4975 0014 24       		.uleb128 0x24
 4976 0015 00       		.byte	0
 4977 0016 0B       		.uleb128 0xb
 4978 0017 0B       		.uleb128 0xb
 4979 0018 3E       		.uleb128 0x3e
 4980 0019 0B       		.uleb128 0xb
 4981 001a 03       		.uleb128 0x3
 4982 001b 0E       		.uleb128 0xe
 4983 001c 00       		.byte	0
 4984 001d 00       		.byte	0
 4985 001e 03       		.uleb128 0x3
 4986 001f 16       		.uleb128 0x16
 4987 0020 00       		.byte	0
 4988 0021 03       		.uleb128 0x3
 4989 0022 0E       		.uleb128 0xe
 4990 0023 3A       		.uleb128 0x3a
 4991 0024 0B       		.uleb128 0xb
 4992 0025 3B       		.uleb128 0x3b
 4993 0026 0B       		.uleb128 0xb
 4994 0027 49       		.uleb128 0x49
 4995 0028 13       		.uleb128 0x13
 4996 0029 00       		.byte	0
 4997 002a 00       		.byte	0
 4998 002b 04       		.uleb128 0x4
 4999 002c 24       		.uleb128 0x24
 5000 002d 00       		.byte	0
 5001 002e 0B       		.uleb128 0xb
 5002 002f 0B       		.uleb128 0xb
 5003 0030 3E       		.uleb128 0x3e
 5004 0031 0B       		.uleb128 0xb
 5005 0032 03       		.uleb128 0x3
 5006 0033 08       		.uleb128 0x8
 5007 0034 00       		.byte	0
ARM GAS  C:\Users\Xwx47\AppData\Local\Temp\ccJ5AxKs.s 			page 107


 5008 0035 00       		.byte	0
 5009 0036 05       		.uleb128 0x5
 5010 0037 04       		.uleb128 0x4
 5011 0038 01       		.byte	0x1
 5012 0039 0B       		.uleb128 0xb
 5013 003a 0B       		.uleb128 0xb
 5014 003b 49       		.uleb128 0x49
 5015 003c 13       		.uleb128 0x13
 5016 003d 3A       		.uleb128 0x3a
 5017 003e 0B       		.uleb128 0xb
 5018 003f 3B       		.uleb128 0x3b
 5019 0040 0B       		.uleb128 0xb
 5020 0041 01       		.uleb128 0x1
 5021 0042 13       		.uleb128 0x13
 5022 0043 00       		.byte	0
 5023 0044 00       		.byte	0
 5024 0045 06       		.uleb128 0x6
 5025 0046 28       		.uleb128 0x28
 5026 0047 00       		.byte	0
 5027 0048 03       		.uleb128 0x3
 5028 0049 0E       		.uleb128 0xe
 5029 004a 1C       		.uleb128 0x1c
 5030 004b 0B       		.uleb128 0xb
 5031 004c 00       		.byte	0
 5032 004d 00       		.byte	0
 5033 004e 07       		.uleb128 0x7
 5034 004f 04       		.uleb128 0x4
 5035 0050 01       		.byte	0x1
 5036 0051 0B       		.uleb128 0xb
 5037 0052 0B       		.uleb128 0xb
 5038 0053 49       		.uleb128 0x49
 5039 0054 13       		.uleb128 0x13
 5040 0055 3A       		.uleb128 0x3a
 5041 0056 0B       		.uleb128 0xb
 5042 0057 3B       		.uleb128 0x3b
 5043 0058 05       		.uleb128 0x5
 5044 0059 01       		.uleb128 0x1
 5045 005a 13       		.uleb128 0x13
 5046 005b 00       		.byte	0
 5047 005c 00       		.byte	0
 5048 005d 08       		.uleb128 0x8
 5049 005e 2E       		.uleb128 0x2e
 5050 005f 01       		.byte	0x1
 5051 0060 3F       		.uleb128 0x3f
 5052 0061 19       		.uleb128 0x19
 5053 0062 03       		.uleb128 0x3
 5054 0063 0E       		.uleb128 0xe
 5055 0064 3A       		.uleb128 0x3a
 5056 0065 0B       		.uleb128 0xb
 5057 0066 3B       		.uleb128 0x3b
 5058 0067 0B       		.uleb128 0xb
 5059 0068 27       		.uleb128 0x27
 5060 0069 19       		.uleb128 0x19
 5061 006a 11       		.uleb128 0x11
 5062 006b 01       		.uleb128 0x1
 5063 006c 12       		.uleb128 0x12
 5064 006d 06       		.uleb128 0x6
ARM GAS  C:\Users\Xwx47\AppData\Local\Temp\ccJ5AxKs.s 			page 108


 5065 006e 40       		.uleb128 0x40
 5066 006f 18       		.uleb128 0x18
 5067 0070 9742     		.uleb128 0x2117
 5068 0072 19       		.uleb128 0x19
 5069 0073 01       		.uleb128 0x1
 5070 0074 13       		.uleb128 0x13
 5071 0075 00       		.byte	0
 5072 0076 00       		.byte	0
 5073 0077 09       		.uleb128 0x9
 5074 0078 898201   		.uleb128 0x4109
 5075 007b 01       		.byte	0x1
 5076 007c 11       		.uleb128 0x11
 5077 007d 01       		.uleb128 0x1
 5078 007e 31       		.uleb128 0x31
 5079 007f 13       		.uleb128 0x13
 5080 0080 01       		.uleb128 0x1
 5081 0081 13       		.uleb128 0x13
 5082 0082 00       		.byte	0
 5083 0083 00       		.byte	0
 5084 0084 0A       		.uleb128 0xa
 5085 0085 8A8201   		.uleb128 0x410a
 5086 0088 00       		.byte	0
 5087 0089 02       		.uleb128 0x2
 5088 008a 18       		.uleb128 0x18
 5089 008b 9142     		.uleb128 0x2111
 5090 008d 18       		.uleb128 0x18
 5091 008e 00       		.byte	0
 5092 008f 00       		.byte	0
 5093 0090 0B       		.uleb128 0xb
 5094 0091 898201   		.uleb128 0x4109
 5095 0094 01       		.byte	0x1
 5096 0095 11       		.uleb128 0x11
 5097 0096 01       		.uleb128 0x1
 5098 0097 31       		.uleb128 0x31
 5099 0098 13       		.uleb128 0x13
 5100 0099 00       		.byte	0
 5101 009a 00       		.byte	0
 5102 009b 0C       		.uleb128 0xc
 5103 009c 2E       		.uleb128 0x2e
 5104 009d 00       		.byte	0
 5105 009e 3F       		.uleb128 0x3f
 5106 009f 19       		.uleb128 0x19
 5107 00a0 03       		.uleb128 0x3
 5108 00a1 0E       		.uleb128 0xe
 5109 00a2 3A       		.uleb128 0x3a
 5110 00a3 0B       		.uleb128 0xb
 5111 00a4 3B       		.uleb128 0x3b
 5112 00a5 0B       		.uleb128 0xb
 5113 00a6 27       		.uleb128 0x27
 5114 00a7 19       		.uleb128 0x19
 5115 00a8 11       		.uleb128 0x11
 5116 00a9 01       		.uleb128 0x1
 5117 00aa 12       		.uleb128 0x12
 5118 00ab 06       		.uleb128 0x6
 5119 00ac 40       		.uleb128 0x40
 5120 00ad 18       		.uleb128 0x18
 5121 00ae 9742     		.uleb128 0x2117
ARM GAS  C:\Users\Xwx47\AppData\Local\Temp\ccJ5AxKs.s 			page 109


 5122 00b0 19       		.uleb128 0x19
 5123 00b1 00       		.byte	0
 5124 00b2 00       		.byte	0
 5125 00b3 0D       		.uleb128 0xd
 5126 00b4 05       		.uleb128 0x5
 5127 00b5 00       		.byte	0
 5128 00b6 03       		.uleb128 0x3
 5129 00b7 0E       		.uleb128 0xe
 5130 00b8 3A       		.uleb128 0x3a
 5131 00b9 0B       		.uleb128 0xb
 5132 00ba 3B       		.uleb128 0x3b
 5133 00bb 0B       		.uleb128 0xb
 5134 00bc 49       		.uleb128 0x49
 5135 00bd 13       		.uleb128 0x13
 5136 00be 02       		.uleb128 0x2
 5137 00bf 17       		.uleb128 0x17
 5138 00c0 00       		.byte	0
 5139 00c1 00       		.byte	0
 5140 00c2 0E       		.uleb128 0xe
 5141 00c3 898201   		.uleb128 0x4109
 5142 00c6 00       		.byte	0
 5143 00c7 11       		.uleb128 0x11
 5144 00c8 01       		.uleb128 0x1
 5145 00c9 31       		.uleb128 0x31
 5146 00ca 13       		.uleb128 0x13
 5147 00cb 00       		.byte	0
 5148 00cc 00       		.byte	0
 5149 00cd 0F       		.uleb128 0xf
 5150 00ce 26       		.uleb128 0x26
 5151 00cf 00       		.byte	0
 5152 00d0 49       		.uleb128 0x49
 5153 00d1 13       		.uleb128 0x13
 5154 00d2 00       		.byte	0
 5155 00d3 00       		.byte	0
 5156 00d4 10       		.uleb128 0x10
 5157 00d5 2E       		.uleb128 0x2e
 5158 00d6 01       		.byte	0x1
 5159 00d7 3F       		.uleb128 0x3f
 5160 00d8 19       		.uleb128 0x19
 5161 00d9 03       		.uleb128 0x3
 5162 00da 0E       		.uleb128 0xe
 5163 00db 3A       		.uleb128 0x3a
 5164 00dc 0B       		.uleb128 0xb
 5165 00dd 3B       		.uleb128 0x3b
 5166 00de 05       		.uleb128 0x5
 5167 00df 27       		.uleb128 0x27
 5168 00e0 19       		.uleb128 0x19
 5169 00e1 11       		.uleb128 0x11
 5170 00e2 01       		.uleb128 0x1
 5171 00e3 12       		.uleb128 0x12
 5172 00e4 06       		.uleb128 0x6
 5173 00e5 40       		.uleb128 0x40
 5174 00e6 18       		.uleb128 0x18
 5175 00e7 9742     		.uleb128 0x2117
 5176 00e9 19       		.uleb128 0x19
 5177 00ea 01       		.uleb128 0x1
 5178 00eb 13       		.uleb128 0x13
ARM GAS  C:\Users\Xwx47\AppData\Local\Temp\ccJ5AxKs.s 			page 110


 5179 00ec 00       		.byte	0
 5180 00ed 00       		.byte	0
 5181 00ee 11       		.uleb128 0x11
 5182 00ef 05       		.uleb128 0x5
 5183 00f0 00       		.byte	0
 5184 00f1 03       		.uleb128 0x3
 5185 00f2 0E       		.uleb128 0xe
 5186 00f3 3A       		.uleb128 0x3a
 5187 00f4 0B       		.uleb128 0xb
 5188 00f5 3B       		.uleb128 0x3b
 5189 00f6 05       		.uleb128 0x5
 5190 00f7 49       		.uleb128 0x49
 5191 00f8 13       		.uleb128 0x13
 5192 00f9 02       		.uleb128 0x2
 5193 00fa 17       		.uleb128 0x17
 5194 00fb 00       		.byte	0
 5195 00fc 00       		.byte	0
 5196 00fd 12       		.uleb128 0x12
 5197 00fe 2E       		.uleb128 0x2e
 5198 00ff 01       		.byte	0x1
 5199 0100 3F       		.uleb128 0x3f
 5200 0101 19       		.uleb128 0x19
 5201 0102 03       		.uleb128 0x3
 5202 0103 0E       		.uleb128 0xe
 5203 0104 3A       		.uleb128 0x3a
 5204 0105 0B       		.uleb128 0xb
 5205 0106 3B       		.uleb128 0x3b
 5206 0107 05       		.uleb128 0x5
 5207 0108 27       		.uleb128 0x27
 5208 0109 19       		.uleb128 0x19
 5209 010a 49       		.uleb128 0x49
 5210 010b 13       		.uleb128 0x13
 5211 010c 11       		.uleb128 0x11
 5212 010d 01       		.uleb128 0x1
 5213 010e 12       		.uleb128 0x12
 5214 010f 06       		.uleb128 0x6
 5215 0110 40       		.uleb128 0x40
 5216 0111 18       		.uleb128 0x18
 5217 0112 9742     		.uleb128 0x2117
 5218 0114 19       		.uleb128 0x19
 5219 0115 01       		.uleb128 0x1
 5220 0116 13       		.uleb128 0x13
 5221 0117 00       		.byte	0
 5222 0118 00       		.byte	0
 5223 0119 13       		.uleb128 0x13
 5224 011a 34       		.uleb128 0x34
 5225 011b 00       		.byte	0
 5226 011c 03       		.uleb128 0x3
 5227 011d 0E       		.uleb128 0xe
 5228 011e 3A       		.uleb128 0x3a
 5229 011f 0B       		.uleb128 0xb
 5230 0120 3B       		.uleb128 0x3b
 5231 0121 05       		.uleb128 0x5
 5232 0122 49       		.uleb128 0x49
 5233 0123 13       		.uleb128 0x13
 5234 0124 02       		.uleb128 0x2
 5235 0125 17       		.uleb128 0x17
ARM GAS  C:\Users\Xwx47\AppData\Local\Temp\ccJ5AxKs.s 			page 111


 5236 0126 00       		.byte	0
 5237 0127 00       		.byte	0
 5238 0128 14       		.uleb128 0x14
 5239 0129 34       		.uleb128 0x34
 5240 012a 00       		.byte	0
 5241 012b 03       		.uleb128 0x3
 5242 012c 08       		.uleb128 0x8
 5243 012d 3A       		.uleb128 0x3a
 5244 012e 0B       		.uleb128 0xb
 5245 012f 3B       		.uleb128 0x3b
 5246 0130 05       		.uleb128 0x5
 5247 0131 49       		.uleb128 0x49
 5248 0132 13       		.uleb128 0x13
 5249 0133 02       		.uleb128 0x2
 5250 0134 17       		.uleb128 0x17
 5251 0135 00       		.byte	0
 5252 0136 00       		.byte	0
 5253 0137 15       		.uleb128 0x15
 5254 0138 0F       		.uleb128 0xf
 5255 0139 00       		.byte	0
 5256 013a 0B       		.uleb128 0xb
 5257 013b 0B       		.uleb128 0xb
 5258 013c 49       		.uleb128 0x49
 5259 013d 13       		.uleb128 0x13
 5260 013e 00       		.byte	0
 5261 013f 00       		.byte	0
 5262 0140 16       		.uleb128 0x16
 5263 0141 2E       		.uleb128 0x2e
 5264 0142 00       		.byte	0
 5265 0143 3F       		.uleb128 0x3f
 5266 0144 19       		.uleb128 0x19
 5267 0145 3C       		.uleb128 0x3c
 5268 0146 19       		.uleb128 0x19
 5269 0147 6E       		.uleb128 0x6e
 5270 0148 0E       		.uleb128 0xe
 5271 0149 03       		.uleb128 0x3
 5272 014a 0E       		.uleb128 0xe
 5273 014b 3A       		.uleb128 0x3a
 5274 014c 0B       		.uleb128 0xb
 5275 014d 3B       		.uleb128 0x3b
 5276 014e 0B       		.uleb128 0xb
 5277 014f 00       		.byte	0
 5278 0150 00       		.byte	0
 5279 0151 00       		.byte	0
 5280              		.section	.debug_loc,"",%progbits
 5281              	.Ldebug_loc0:
 5282              	.LLST0:
 5283 0000 00000000 		.4byte	.LVL16
 5284 0004 09000000 		.4byte	.LVL17-1
 5285 0008 0100     		.2byte	0x1
 5286 000a 50       		.byte	0x50
 5287 000b 09000000 		.4byte	.LVL17-1
 5288 000f 0C000000 		.4byte	.LVL18
 5289 0013 0400     		.2byte	0x4
 5290 0015 F3       		.byte	0xf3
 5291 0016 01       		.uleb128 0x1
 5292 0017 50       		.byte	0x50
ARM GAS  C:\Users\Xwx47\AppData\Local\Temp\ccJ5AxKs.s 			page 112


 5293 0018 9F       		.byte	0x9f
 5294 0019 0C000000 		.4byte	.LVL18
 5295 001d 0F000000 		.4byte	.LVL19-1
 5296 0021 0100     		.2byte	0x1
 5297 0023 50       		.byte	0x50
 5298 0024 0F000000 		.4byte	.LVL19-1
 5299 0028 12000000 		.4byte	.LFE41
 5300 002c 0400     		.2byte	0x4
 5301 002e F3       		.byte	0xf3
 5302 002f 01       		.uleb128 0x1
 5303 0030 50       		.byte	0x50
 5304 0031 9F       		.byte	0x9f
 5305 0032 00000000 		.4byte	0
 5306 0036 00000000 		.4byte	0
 5307              	.LLST1:
 5308 003a 00000000 		.4byte	.LVL20
 5309 003e 06000000 		.4byte	.LVL21
 5310 0042 0100     		.2byte	0x1
 5311 0044 50       		.byte	0x50
 5312 0045 06000000 		.4byte	.LVL21
 5313 0049 0C000000 		.4byte	.LFE47
 5314 004d 0400     		.2byte	0x4
 5315 004f F3       		.byte	0xf3
 5316 0050 01       		.uleb128 0x1
 5317 0051 50       		.byte	0x50
 5318 0052 9F       		.byte	0x9f
 5319 0053 00000000 		.4byte	0
 5320 0057 00000000 		.4byte	0
 5321              	.LLST2:
 5322 005b 00000000 		.4byte	.LVL23
 5323 005f 06000000 		.4byte	.LVL24
 5324 0063 0100     		.2byte	0x1
 5325 0065 50       		.byte	0x50
 5326 0066 06000000 		.4byte	.LVL24
 5327 006a 0C000000 		.4byte	.LFE48
 5328 006e 0400     		.2byte	0x4
 5329 0070 F3       		.byte	0xf3
 5330 0071 01       		.uleb128 0x1
 5331 0072 50       		.byte	0x50
 5332 0073 9F       		.byte	0x9f
 5333 0074 00000000 		.4byte	0
 5334 0078 00000000 		.4byte	0
 5335              	.LLST3:
 5336 007c 00000000 		.4byte	.LVL26
 5337 0080 0A000000 		.4byte	.LVL27
 5338 0084 0100     		.2byte	0x1
 5339 0086 50       		.byte	0x50
 5340 0087 0A000000 		.4byte	.LVL27
 5341 008b 0F000000 		.4byte	.LVL28-1
 5342 008f 0100     		.2byte	0x1
 5343 0091 51       		.byte	0x51
 5344 0092 00000000 		.4byte	0
 5345 0096 00000000 		.4byte	0
 5346              	.LLST4:
 5347 009a 00000000 		.4byte	.LVL29
 5348 009e 06000000 		.4byte	.LVL30
 5349 00a2 0100     		.2byte	0x1
ARM GAS  C:\Users\Xwx47\AppData\Local\Temp\ccJ5AxKs.s 			page 113


 5350 00a4 50       		.byte	0x50
 5351 00a5 06000000 		.4byte	.LVL30
 5352 00a9 0C000000 		.4byte	.LFE50
 5353 00ad 0400     		.2byte	0x4
 5354 00af F3       		.byte	0xf3
 5355 00b0 01       		.uleb128 0x1
 5356 00b1 50       		.byte	0x50
 5357 00b2 9F       		.byte	0x9f
 5358 00b3 00000000 		.4byte	0
 5359 00b7 00000000 		.4byte	0
 5360              	.LLST5:
 5361 00bb 02000000 		.4byte	.LVL32
 5362 00bf 18000000 		.4byte	.LVL35
 5363 00c3 0200     		.2byte	0x2
 5364 00c5 30       		.byte	0x30
 5365 00c6 9F       		.byte	0x9f
 5366 00c7 18000000 		.4byte	.LVL35
 5367 00cb 1C000000 		.4byte	.LVL37
 5368 00cf 0200     		.2byte	0x2
 5369 00d1 34       		.byte	0x34
 5370 00d2 9F       		.byte	0x9f
 5371 00d3 1C000000 		.4byte	.LVL37
 5372 00d7 20000000 		.4byte	.LVL39
 5373 00db 0200     		.2byte	0x2
 5374 00dd 35       		.byte	0x35
 5375 00de 9F       		.byte	0x9f
 5376 00df 20000000 		.4byte	.LVL39
 5377 00e3 22000000 		.4byte	.LVL40
 5378 00e7 0200     		.2byte	0x2
 5379 00e9 30       		.byte	0x30
 5380 00ea 9F       		.byte	0x9f
 5381 00eb 22000000 		.4byte	.LVL40
 5382 00ef 24000000 		.4byte	.LFE51
 5383 00f3 0100     		.2byte	0x1
 5384 00f5 50       		.byte	0x50
 5385 00f6 00000000 		.4byte	0
 5386 00fa 00000000 		.4byte	0
 5387              	.LLST6:
 5388 00fe 08000000 		.4byte	.LVL33
 5389 0102 16000000 		.4byte	.LVL34
 5390 0106 0100     		.2byte	0x1
 5391 0108 50       		.byte	0x50
 5392 0109 18000000 		.4byte	.LVL35
 5393 010d 1A000000 		.4byte	.LVL36
 5394 0111 0100     		.2byte	0x1
 5395 0113 50       		.byte	0x50
 5396 0114 1C000000 		.4byte	.LVL37
 5397 0118 1E000000 		.4byte	.LVL38
 5398 011c 0100     		.2byte	0x1
 5399 011e 50       		.byte	0x50
 5400 011f 20000000 		.4byte	.LVL39
 5401 0123 22000000 		.4byte	.LVL40
 5402 0127 0100     		.2byte	0x1
 5403 0129 50       		.byte	0x50
 5404 012a 00000000 		.4byte	0
 5405 012e 00000000 		.4byte	0
 5406              	.LLST7:
ARM GAS  C:\Users\Xwx47\AppData\Local\Temp\ccJ5AxKs.s 			page 114


 5407 0132 00000000 		.4byte	.LVL41
 5408 0136 12000000 		.4byte	.LVL44
 5409 013a 0100     		.2byte	0x1
 5410 013c 50       		.byte	0x50
 5411 013d 12000000 		.4byte	.LVL44
 5412 0141 15000000 		.4byte	.LVL45-1
 5413 0145 0100     		.2byte	0x1
 5414 0147 51       		.byte	0x51
 5415 0148 15000000 		.4byte	.LVL45-1
 5416 014c 18000000 		.4byte	.LFE52
 5417 0150 0400     		.2byte	0x4
 5418 0152 F3       		.byte	0xf3
 5419 0153 01       		.uleb128 0x1
 5420 0154 50       		.byte	0x50
 5421 0155 9F       		.byte	0x9f
 5422 0156 00000000 		.4byte	0
 5423 015a 00000000 		.4byte	0
 5424              	.LLST8:
 5425 015e 00000000 		.4byte	.LVL41
 5426 0162 0C000000 		.4byte	.LVL42
 5427 0166 0100     		.2byte	0x1
 5428 0168 51       		.byte	0x51
 5429 0169 0C000000 		.4byte	.LVL42
 5430 016d 10000000 		.4byte	.LVL43
 5431 0171 0100     		.2byte	0x1
 5432 0173 51       		.byte	0x51
 5433 0174 10000000 		.4byte	.LVL43
 5434 0178 15000000 		.4byte	.LVL45-1
 5435 017c 0100     		.2byte	0x1
 5436 017e 52       		.byte	0x52
 5437 017f 00000000 		.4byte	0
 5438 0183 00000000 		.4byte	0
 5439              	.LLST9:
 5440 0187 00000000 		.4byte	.LVL46
 5441 018b 12000000 		.4byte	.LVL49
 5442 018f 0100     		.2byte	0x1
 5443 0191 50       		.byte	0x50
 5444 0192 12000000 		.4byte	.LVL49
 5445 0196 15000000 		.4byte	.LVL50-1
 5446 019a 0100     		.2byte	0x1
 5447 019c 51       		.byte	0x51
 5448 019d 15000000 		.4byte	.LVL50-1
 5449 01a1 18000000 		.4byte	.LFE53
 5450 01a5 0400     		.2byte	0x4
 5451 01a7 F3       		.byte	0xf3
 5452 01a8 01       		.uleb128 0x1
 5453 01a9 50       		.byte	0x50
 5454 01aa 9F       		.byte	0x9f
 5455 01ab 00000000 		.4byte	0
 5456 01af 00000000 		.4byte	0
 5457              	.LLST10:
 5458 01b3 00000000 		.4byte	.LVL46
 5459 01b7 0C000000 		.4byte	.LVL47
 5460 01bb 0100     		.2byte	0x1
 5461 01bd 51       		.byte	0x51
 5462 01be 0C000000 		.4byte	.LVL47
 5463 01c2 10000000 		.4byte	.LVL48
ARM GAS  C:\Users\Xwx47\AppData\Local\Temp\ccJ5AxKs.s 			page 115


 5464 01c6 0100     		.2byte	0x1
 5465 01c8 51       		.byte	0x51
 5466 01c9 10000000 		.4byte	.LVL48
 5467 01cd 15000000 		.4byte	.LVL50-1
 5468 01d1 0100     		.2byte	0x1
 5469 01d3 52       		.byte	0x52
 5470 01d4 00000000 		.4byte	0
 5471 01d8 00000000 		.4byte	0
 5472              	.LLST11:
 5473 01dc 00000000 		.4byte	.LVL51
 5474 01e0 12000000 		.4byte	.LVL54
 5475 01e4 0100     		.2byte	0x1
 5476 01e6 50       		.byte	0x50
 5477 01e7 12000000 		.4byte	.LVL54
 5478 01eb 15000000 		.4byte	.LVL55-1
 5479 01ef 0100     		.2byte	0x1
 5480 01f1 51       		.byte	0x51
 5481 01f2 15000000 		.4byte	.LVL55-1
 5482 01f6 18000000 		.4byte	.LFE54
 5483 01fa 0400     		.2byte	0x4
 5484 01fc F3       		.byte	0xf3
 5485 01fd 01       		.uleb128 0x1
 5486 01fe 50       		.byte	0x50
 5487 01ff 9F       		.byte	0x9f
 5488 0200 00000000 		.4byte	0
 5489 0204 00000000 		.4byte	0
 5490              	.LLST12:
 5491 0208 00000000 		.4byte	.LVL51
 5492 020c 0C000000 		.4byte	.LVL52
 5493 0210 0100     		.2byte	0x1
 5494 0212 51       		.byte	0x51
 5495 0213 0C000000 		.4byte	.LVL52
 5496 0217 10000000 		.4byte	.LVL53
 5497 021b 0100     		.2byte	0x1
 5498 021d 51       		.byte	0x51
 5499 021e 10000000 		.4byte	.LVL53
 5500 0222 15000000 		.4byte	.LVL55-1
 5501 0226 0100     		.2byte	0x1
 5502 0228 52       		.byte	0x52
 5503 0229 00000000 		.4byte	0
 5504 022d 00000000 		.4byte	0
 5505              	.LLST13:
 5506 0231 00000000 		.4byte	.LVL56
 5507 0235 12000000 		.4byte	.LVL59
 5508 0239 0100     		.2byte	0x1
 5509 023b 50       		.byte	0x50
 5510 023c 12000000 		.4byte	.LVL59
 5511 0240 15000000 		.4byte	.LVL60-1
 5512 0244 0100     		.2byte	0x1
 5513 0246 51       		.byte	0x51
 5514 0247 15000000 		.4byte	.LVL60-1
 5515 024b 18000000 		.4byte	.LFE55
 5516 024f 0400     		.2byte	0x4
 5517 0251 F3       		.byte	0xf3
 5518 0252 01       		.uleb128 0x1
 5519 0253 50       		.byte	0x50
 5520 0254 9F       		.byte	0x9f
ARM GAS  C:\Users\Xwx47\AppData\Local\Temp\ccJ5AxKs.s 			page 116


 5521 0255 00000000 		.4byte	0
 5522 0259 00000000 		.4byte	0
 5523              	.LLST14:
 5524 025d 00000000 		.4byte	.LVL56
 5525 0261 0C000000 		.4byte	.LVL57
 5526 0265 0100     		.2byte	0x1
 5527 0267 51       		.byte	0x51
 5528 0268 0C000000 		.4byte	.LVL57
 5529 026c 10000000 		.4byte	.LVL58
 5530 0270 0100     		.2byte	0x1
 5531 0272 51       		.byte	0x51
 5532 0273 10000000 		.4byte	.LVL58
 5533 0277 15000000 		.4byte	.LVL60-1
 5534 027b 0100     		.2byte	0x1
 5535 027d 52       		.byte	0x52
 5536 027e 00000000 		.4byte	0
 5537 0282 00000000 		.4byte	0
 5538              	.LLST15:
 5539 0286 00000000 		.4byte	.LVL61
 5540 028a 06000000 		.4byte	.LVL62
 5541 028e 0100     		.2byte	0x1
 5542 0290 50       		.byte	0x50
 5543 0291 06000000 		.4byte	.LVL62
 5544 0295 0C000000 		.4byte	.LFE56
 5545 0299 0400     		.2byte	0x4
 5546 029b F3       		.byte	0xf3
 5547 029c 01       		.uleb128 0x1
 5548 029d 50       		.byte	0x50
 5549 029e 9F       		.byte	0x9f
 5550 029f 00000000 		.4byte	0
 5551 02a3 00000000 		.4byte	0
 5552              	.LLST16:
 5553 02a7 00000000 		.4byte	.LVL64
 5554 02ab 14000000 		.4byte	.LVL67
 5555 02af 0100     		.2byte	0x1
 5556 02b1 50       		.byte	0x50
 5557 02b2 14000000 		.4byte	.LVL67
 5558 02b6 22000000 		.4byte	.LVL71
 5559 02ba 0100     		.2byte	0x1
 5560 02bc 55       		.byte	0x55
 5561 02bd 22000000 		.4byte	.LVL71
 5562 02c1 24000000 		.4byte	.LFE57
 5563 02c5 0400     		.2byte	0x4
 5564 02c7 F3       		.byte	0xf3
 5565 02c8 01       		.uleb128 0x1
 5566 02c9 50       		.byte	0x50
 5567 02ca 9F       		.byte	0x9f
 5568 02cb 00000000 		.4byte	0
 5569 02cf 00000000 		.4byte	0
 5570              	.LLST17:
 5571 02d3 00000000 		.4byte	.LVL64
 5572 02d7 0C000000 		.4byte	.LVL65
 5573 02db 0100     		.2byte	0x1
 5574 02dd 51       		.byte	0x51
 5575 02de 0C000000 		.4byte	.LVL65
 5576 02e2 12000000 		.4byte	.LVL66
 5577 02e6 0100     		.2byte	0x1
ARM GAS  C:\Users\Xwx47\AppData\Local\Temp\ccJ5AxKs.s 			page 117


 5578 02e8 51       		.byte	0x51
 5579 02e9 12000000 		.4byte	.LVL66
 5580 02ed 17000000 		.4byte	.LVL68-1
 5581 02f1 0300     		.2byte	0x3
 5582 02f3 72       		.byte	0x72
 5583 02f4 01       		.sleb128 1
 5584 02f5 9F       		.byte	0x9f
 5585 02f6 17000000 		.4byte	.LVL68-1
 5586 02fa 1A000000 		.4byte	.LVL69
 5587 02fe 0300     		.2byte	0x3
 5588 0300 74       		.byte	0x74
 5589 0301 01       		.sleb128 1
 5590 0302 9F       		.byte	0x9f
 5591 0303 00000000 		.4byte	0
 5592 0307 00000000 		.4byte	0
 5593              	.LLST18:
 5594 030b 00000000 		.4byte	.LVL72
 5595 030f 06000000 		.4byte	.LVL73
 5596 0313 0100     		.2byte	0x1
 5597 0315 50       		.byte	0x50
 5598 0316 06000000 		.4byte	.LVL73
 5599 031a 0C000000 		.4byte	.LFE58
 5600 031e 0400     		.2byte	0x4
 5601 0320 F3       		.byte	0xf3
 5602 0321 01       		.uleb128 0x1
 5603 0322 50       		.byte	0x50
 5604 0323 9F       		.byte	0x9f
 5605 0324 00000000 		.4byte	0
 5606 0328 00000000 		.4byte	0
 5607              	.LLST19:
 5608 032c 00000000 		.4byte	.LVL75
 5609 0330 14000000 		.4byte	.LVL78
 5610 0334 0100     		.2byte	0x1
 5611 0336 50       		.byte	0x50
 5612 0337 14000000 		.4byte	.LVL78
 5613 033b 22000000 		.4byte	.LVL82
 5614 033f 0100     		.2byte	0x1
 5615 0341 55       		.byte	0x55
 5616 0342 22000000 		.4byte	.LVL82
 5617 0346 24000000 		.4byte	.LFE59
 5618 034a 0400     		.2byte	0x4
 5619 034c F3       		.byte	0xf3
 5620 034d 01       		.uleb128 0x1
 5621 034e 50       		.byte	0x50
 5622 034f 9F       		.byte	0x9f
 5623 0350 00000000 		.4byte	0
 5624 0354 00000000 		.4byte	0
 5625              	.LLST20:
 5626 0358 00000000 		.4byte	.LVL75
 5627 035c 0C000000 		.4byte	.LVL76
 5628 0360 0100     		.2byte	0x1
 5629 0362 51       		.byte	0x51
 5630 0363 0C000000 		.4byte	.LVL76
 5631 0367 12000000 		.4byte	.LVL77
 5632 036b 0100     		.2byte	0x1
 5633 036d 51       		.byte	0x51
 5634 036e 12000000 		.4byte	.LVL77
ARM GAS  C:\Users\Xwx47\AppData\Local\Temp\ccJ5AxKs.s 			page 118


 5635 0372 17000000 		.4byte	.LVL79-1
 5636 0376 0300     		.2byte	0x3
 5637 0378 72       		.byte	0x72
 5638 0379 01       		.sleb128 1
 5639 037a 9F       		.byte	0x9f
 5640 037b 17000000 		.4byte	.LVL79-1
 5641 037f 1A000000 		.4byte	.LVL80
 5642 0383 0300     		.2byte	0x3
 5643 0385 74       		.byte	0x74
 5644 0386 01       		.sleb128 1
 5645 0387 9F       		.byte	0x9f
 5646 0388 00000000 		.4byte	0
 5647 038c 00000000 		.4byte	0
 5648              	.LLST21:
 5649 0390 00000000 		.4byte	.LVL83
 5650 0394 06000000 		.4byte	.LVL84
 5651 0398 0100     		.2byte	0x1
 5652 039a 50       		.byte	0x50
 5653 039b 06000000 		.4byte	.LVL84
 5654 039f 0C000000 		.4byte	.LFE60
 5655 03a3 0400     		.2byte	0x4
 5656 03a5 F3       		.byte	0xf3
 5657 03a6 01       		.uleb128 0x1
 5658 03a7 50       		.byte	0x50
 5659 03a8 9F       		.byte	0x9f
 5660 03a9 00000000 		.4byte	0
 5661 03ad 00000000 		.4byte	0
 5662              	.LLST22:
 5663 03b1 00000000 		.4byte	.LVL86
 5664 03b5 14000000 		.4byte	.LVL89
 5665 03b9 0100     		.2byte	0x1
 5666 03bb 50       		.byte	0x50
 5667 03bc 14000000 		.4byte	.LVL89
 5668 03c0 22000000 		.4byte	.LVL93
 5669 03c4 0100     		.2byte	0x1
 5670 03c6 55       		.byte	0x55
 5671 03c7 22000000 		.4byte	.LVL93
 5672 03cb 24000000 		.4byte	.LFE61
 5673 03cf 0400     		.2byte	0x4
 5674 03d1 F3       		.byte	0xf3
 5675 03d2 01       		.uleb128 0x1
 5676 03d3 50       		.byte	0x50
 5677 03d4 9F       		.byte	0x9f
 5678 03d5 00000000 		.4byte	0
 5679 03d9 00000000 		.4byte	0
 5680              	.LLST23:
 5681 03dd 00000000 		.4byte	.LVL86
 5682 03e1 0C000000 		.4byte	.LVL87
 5683 03e5 0100     		.2byte	0x1
 5684 03e7 51       		.byte	0x51
 5685 03e8 0C000000 		.4byte	.LVL87
 5686 03ec 12000000 		.4byte	.LVL88
 5687 03f0 0100     		.2byte	0x1
 5688 03f2 51       		.byte	0x51
 5689 03f3 12000000 		.4byte	.LVL88
 5690 03f7 17000000 		.4byte	.LVL90-1
 5691 03fb 0300     		.2byte	0x3
ARM GAS  C:\Users\Xwx47\AppData\Local\Temp\ccJ5AxKs.s 			page 119


 5692 03fd 72       		.byte	0x72
 5693 03fe 01       		.sleb128 1
 5694 03ff 9F       		.byte	0x9f
 5695 0400 17000000 		.4byte	.LVL90-1
 5696 0404 1A000000 		.4byte	.LVL91
 5697 0408 0300     		.2byte	0x3
 5698 040a 74       		.byte	0x74
 5699 040b 01       		.sleb128 1
 5700 040c 9F       		.byte	0x9f
 5701 040d 00000000 		.4byte	0
 5702 0411 00000000 		.4byte	0
 5703              	.LLST24:
 5704 0415 00000000 		.4byte	.LVL94
 5705 0419 06000000 		.4byte	.LVL95
 5706 041d 0100     		.2byte	0x1
 5707 041f 50       		.byte	0x50
 5708 0420 06000000 		.4byte	.LVL95
 5709 0424 0C000000 		.4byte	.LFE62
 5710 0428 0400     		.2byte	0x4
 5711 042a F3       		.byte	0xf3
 5712 042b 01       		.uleb128 0x1
 5713 042c 50       		.byte	0x50
 5714 042d 9F       		.byte	0x9f
 5715 042e 00000000 		.4byte	0
 5716 0432 00000000 		.4byte	0
 5717              	.LLST25:
 5718 0436 00000000 		.4byte	.LVL97
 5719 043a 14000000 		.4byte	.LVL100
 5720 043e 0100     		.2byte	0x1
 5721 0440 50       		.byte	0x50
 5722 0441 14000000 		.4byte	.LVL100
 5723 0445 22000000 		.4byte	.LVL104
 5724 0449 0100     		.2byte	0x1
 5725 044b 55       		.byte	0x55
 5726 044c 22000000 		.4byte	.LVL104
 5727 0450 24000000 		.4byte	.LFE63
 5728 0454 0400     		.2byte	0x4
 5729 0456 F3       		.byte	0xf3
 5730 0457 01       		.uleb128 0x1
 5731 0458 50       		.byte	0x50
 5732 0459 9F       		.byte	0x9f
 5733 045a 00000000 		.4byte	0
 5734 045e 00000000 		.4byte	0
 5735              	.LLST26:
 5736 0462 00000000 		.4byte	.LVL97
 5737 0466 0C000000 		.4byte	.LVL98
 5738 046a 0100     		.2byte	0x1
 5739 046c 51       		.byte	0x51
 5740 046d 0C000000 		.4byte	.LVL98
 5741 0471 12000000 		.4byte	.LVL99
 5742 0475 0100     		.2byte	0x1
 5743 0477 51       		.byte	0x51
 5744 0478 12000000 		.4byte	.LVL99
 5745 047c 17000000 		.4byte	.LVL101-1
 5746 0480 0300     		.2byte	0x3
 5747 0482 72       		.byte	0x72
 5748 0483 01       		.sleb128 1
ARM GAS  C:\Users\Xwx47\AppData\Local\Temp\ccJ5AxKs.s 			page 120


 5749 0484 9F       		.byte	0x9f
 5750 0485 17000000 		.4byte	.LVL101-1
 5751 0489 1A000000 		.4byte	.LVL102
 5752 048d 0300     		.2byte	0x3
 5753 048f 74       		.byte	0x74
 5754 0490 01       		.sleb128 1
 5755 0491 9F       		.byte	0x9f
 5756 0492 00000000 		.4byte	0
 5757 0496 00000000 		.4byte	0
 5758              	.LLST27:
 5759 049a 00000000 		.4byte	.LVL105
 5760 049e 12000000 		.4byte	.LVL108
 5761 04a2 0100     		.2byte	0x1
 5762 04a4 50       		.byte	0x50
 5763 04a5 12000000 		.4byte	.LVL108
 5764 04a9 15000000 		.4byte	.LVL109-1
 5765 04ad 0100     		.2byte	0x1
 5766 04af 51       		.byte	0x51
 5767 04b0 15000000 		.4byte	.LVL109-1
 5768 04b4 18000000 		.4byte	.LFE64
 5769 04b8 0400     		.2byte	0x4
 5770 04ba F3       		.byte	0xf3
 5771 04bb 01       		.uleb128 0x1
 5772 04bc 50       		.byte	0x50
 5773 04bd 9F       		.byte	0x9f
 5774 04be 00000000 		.4byte	0
 5775 04c2 00000000 		.4byte	0
 5776              	.LLST28:
 5777 04c6 00000000 		.4byte	.LVL105
 5778 04ca 0C000000 		.4byte	.LVL106
 5779 04ce 0100     		.2byte	0x1
 5780 04d0 51       		.byte	0x51
 5781 04d1 0C000000 		.4byte	.LVL106
 5782 04d5 10000000 		.4byte	.LVL107
 5783 04d9 0100     		.2byte	0x1
 5784 04db 51       		.byte	0x51
 5785 04dc 10000000 		.4byte	.LVL107
 5786 04e0 15000000 		.4byte	.LVL109-1
 5787 04e4 0100     		.2byte	0x1
 5788 04e6 52       		.byte	0x52
 5789 04e7 00000000 		.4byte	0
 5790 04eb 00000000 		.4byte	0
 5791              	.LLST29:
 5792 04ef 00000000 		.4byte	.LVL110
 5793 04f3 12000000 		.4byte	.LVL113
 5794 04f7 0100     		.2byte	0x1
 5795 04f9 50       		.byte	0x50
 5796 04fa 12000000 		.4byte	.LVL113
 5797 04fe 15000000 		.4byte	.LVL114-1
 5798 0502 0100     		.2byte	0x1
 5799 0504 51       		.byte	0x51
 5800 0505 15000000 		.4byte	.LVL114-1
 5801 0509 18000000 		.4byte	.LFE65
 5802 050d 0400     		.2byte	0x4
 5803 050f F3       		.byte	0xf3
 5804 0510 01       		.uleb128 0x1
 5805 0511 50       		.byte	0x50
ARM GAS  C:\Users\Xwx47\AppData\Local\Temp\ccJ5AxKs.s 			page 121


 5806 0512 9F       		.byte	0x9f
 5807 0513 00000000 		.4byte	0
 5808 0517 00000000 		.4byte	0
 5809              	.LLST30:
 5810 051b 00000000 		.4byte	.LVL110
 5811 051f 0C000000 		.4byte	.LVL111
 5812 0523 0100     		.2byte	0x1
 5813 0525 51       		.byte	0x51
 5814 0526 0C000000 		.4byte	.LVL111
 5815 052a 10000000 		.4byte	.LVL112
 5816 052e 0100     		.2byte	0x1
 5817 0530 51       		.byte	0x51
 5818 0531 10000000 		.4byte	.LVL112
 5819 0535 15000000 		.4byte	.LVL114-1
 5820 0539 0100     		.2byte	0x1
 5821 053b 52       		.byte	0x52
 5822 053c 00000000 		.4byte	0
 5823 0540 00000000 		.4byte	0
 5824              	.LLST31:
 5825 0544 00000000 		.4byte	.LVL115
 5826 0548 0B000000 		.4byte	.LVL117-1
 5827 054c 0100     		.2byte	0x1
 5828 054e 50       		.byte	0x50
 5829 054f 0B000000 		.4byte	.LVL117-1
 5830 0553 0E000000 		.4byte	.LFE66
 5831 0557 0400     		.2byte	0x4
 5832 0559 F3       		.byte	0xf3
 5833 055a 01       		.uleb128 0x1
 5834 055b 50       		.byte	0x50
 5835 055c 9F       		.byte	0x9f
 5836 055d 00000000 		.4byte	0
 5837 0561 00000000 		.4byte	0
 5838              	.LLST32:
 5839 0565 00000000 		.4byte	.LVL115
 5840 0569 08000000 		.4byte	.LVL116
 5841 056d 0100     		.2byte	0x1
 5842 056f 51       		.byte	0x51
 5843 0570 08000000 		.4byte	.LVL116
 5844 0574 0B000000 		.4byte	.LVL117-1
 5845 0578 0100     		.2byte	0x1
 5846 057a 51       		.byte	0x51
 5847 057b 00000000 		.4byte	0
 5848 057f 00000000 		.4byte	0
 5849              	.LLST33:
 5850 0583 00000000 		.4byte	.LVL118
 5851 0587 05000000 		.4byte	.LVL119-1
 5852 058b 0100     		.2byte	0x1
 5853 058d 50       		.byte	0x50
 5854 058e 05000000 		.4byte	.LVL119-1
 5855 0592 08000000 		.4byte	.LFE67
 5856 0596 0400     		.2byte	0x4
 5857 0598 F3       		.byte	0xf3
 5858 0599 01       		.uleb128 0x1
 5859 059a 50       		.byte	0x50
 5860 059b 9F       		.byte	0x9f
 5861 059c 00000000 		.4byte	0
 5862 05a0 00000000 		.4byte	0
ARM GAS  C:\Users\Xwx47\AppData\Local\Temp\ccJ5AxKs.s 			page 122


 5863              	.LLST34:
 5864 05a4 00000000 		.4byte	.LVL120
 5865 05a8 08000000 		.4byte	.LVL121
 5866 05ac 0100     		.2byte	0x1
 5867 05ae 50       		.byte	0x50
 5868 05af 08000000 		.4byte	.LVL121
 5869 05b3 26000000 		.4byte	.LFE69
 5870 05b7 0400     		.2byte	0x4
 5871 05b9 F3       		.byte	0xf3
 5872 05ba 01       		.uleb128 0x1
 5873 05bb 50       		.byte	0x50
 5874 05bc 9F       		.byte	0x9f
 5875 05bd 00000000 		.4byte	0
 5876 05c1 00000000 		.4byte	0
 5877              	.LLST35:
 5878 05c5 00000000 		.4byte	.LVL126
 5879 05c9 08000000 		.4byte	.LVL127
 5880 05cd 0100     		.2byte	0x1
 5881 05cf 50       		.byte	0x50
 5882 05d0 08000000 		.4byte	.LVL127
 5883 05d4 26000000 		.4byte	.LFE70
 5884 05d8 0400     		.2byte	0x4
 5885 05da F3       		.byte	0xf3
 5886 05db 01       		.uleb128 0x1
 5887 05dc 50       		.byte	0x50
 5888 05dd 9F       		.byte	0x9f
 5889 05de 00000000 		.4byte	0
 5890 05e2 00000000 		.4byte	0
 5891              	.LLST36:
 5892 05e6 08000000 		.4byte	.LVL151
 5893 05ea 0C000000 		.4byte	.LVL152
 5894 05ee 0100     		.2byte	0x1
 5895 05f0 50       		.byte	0x50
 5896 05f1 00000000 		.4byte	0
 5897 05f5 00000000 		.4byte	0
 5898              	.LLST37:
 5899 05f9 08000000 		.4byte	.LVL153
 5900 05fd 0A000000 		.4byte	.LVL154
 5901 0601 0600     		.2byte	0x6
 5902 0603 70       		.byte	0x70
 5903 0604 00       		.sleb128 0
 5904 0605 09       		.byte	0x9
 5905 0606 F0       		.byte	0xf0
 5906 0607 1A       		.byte	0x1a
 5907 0608 9F       		.byte	0x9f
 5908 0609 00000000 		.4byte	0
 5909 060d 00000000 		.4byte	0
 5910              	.LLST38:
 5911 0611 00000000 		.4byte	.LVL155
 5912 0615 0F000000 		.4byte	.LVL157-1
 5913 0619 0100     		.2byte	0x1
 5914 061b 50       		.byte	0x50
 5915 061c 0F000000 		.4byte	.LVL157-1
 5916 0620 12000000 		.4byte	.LFE83
 5917 0624 0400     		.2byte	0x4
 5918 0626 F3       		.byte	0xf3
 5919 0627 01       		.uleb128 0x1
ARM GAS  C:\Users\Xwx47\AppData\Local\Temp\ccJ5AxKs.s 			page 123


 5920 0628 50       		.byte	0x50
 5921 0629 9F       		.byte	0x9f
 5922 062a 00000000 		.4byte	0
 5923 062e 00000000 		.4byte	0
 5924              	.LLST39:
 5925 0632 00000000 		.4byte	.LVL155
 5926 0636 0C000000 		.4byte	.LVL156
 5927 063a 0100     		.2byte	0x1
 5928 063c 51       		.byte	0x51
 5929 063d 0C000000 		.4byte	.LVL156
 5930 0641 0F000000 		.4byte	.LVL157-1
 5931 0645 0100     		.2byte	0x1
 5932 0647 51       		.byte	0x51
 5933 0648 00000000 		.4byte	0
 5934 064c 00000000 		.4byte	0
 5935              	.LLST40:
 5936 0650 00000000 		.4byte	.LVL158
 5937 0654 0F000000 		.4byte	.LVL160-1
 5938 0658 0100     		.2byte	0x1
 5939 065a 50       		.byte	0x50
 5940 065b 0F000000 		.4byte	.LVL160-1
 5941 065f 16000000 		.4byte	.LFE84
 5942 0663 0400     		.2byte	0x4
 5943 0665 F3       		.byte	0xf3
 5944 0666 01       		.uleb128 0x1
 5945 0667 50       		.byte	0x50
 5946 0668 9F       		.byte	0x9f
 5947 0669 00000000 		.4byte	0
 5948 066d 00000000 		.4byte	0
 5949              	.LLST41:
 5950 0671 00000000 		.4byte	.LVL158
 5951 0675 0C000000 		.4byte	.LVL159
 5952 0679 0100     		.2byte	0x1
 5953 067b 51       		.byte	0x51
 5954 067c 0C000000 		.4byte	.LVL159
 5955 0680 0F000000 		.4byte	.LVL160-1
 5956 0684 0100     		.2byte	0x1
 5957 0686 51       		.byte	0x51
 5958 0687 00000000 		.4byte	0
 5959 068b 00000000 		.4byte	0
 5960              	.LLST42:
 5961 068f 00000000 		.4byte	.LVL163
 5962 0693 0C000000 		.4byte	.LVL164
 5963 0697 0100     		.2byte	0x1
 5964 0699 50       		.byte	0x50
 5965 069a 0C000000 		.4byte	.LVL164
 5966 069e 1E000000 		.4byte	.LVL168
 5967 06a2 0100     		.2byte	0x1
 5968 06a4 54       		.byte	0x54
 5969 06a5 1E000000 		.4byte	.LVL168
 5970 06a9 20000000 		.4byte	.LFE86
 5971 06ad 0400     		.2byte	0x4
 5972 06af F3       		.byte	0xf3
 5973 06b0 01       		.uleb128 0x1
 5974 06b1 50       		.byte	0x50
 5975 06b2 9F       		.byte	0x9f
 5976 06b3 00000000 		.4byte	0
ARM GAS  C:\Users\Xwx47\AppData\Local\Temp\ccJ5AxKs.s 			page 124


 5977 06b7 00000000 		.4byte	0
 5978              	.LLST43:
 5979 06bb 00000000 		.4byte	.LVL163
 5980 06bf 0F000000 		.4byte	.LVL165-1
 5981 06c3 0100     		.2byte	0x1
 5982 06c5 51       		.byte	0x51
 5983 06c6 0F000000 		.4byte	.LVL165-1
 5984 06ca 1E000000 		.4byte	.LVL169
 5985 06ce 0100     		.2byte	0x1
 5986 06d0 55       		.byte	0x55
 5987 06d1 1E000000 		.4byte	.LVL169
 5988 06d5 20000000 		.4byte	.LFE86
 5989 06d9 0400     		.2byte	0x4
 5990 06db F3       		.byte	0xf3
 5991 06dc 01       		.uleb128 0x1
 5992 06dd 51       		.byte	0x51
 5993 06de 9F       		.byte	0x9f
 5994 06df 00000000 		.4byte	0
 5995 06e3 00000000 		.4byte	0
 5996              	.LLST44:
 5997 06e7 00000000 		.4byte	.LVL170
 5998 06eb 0D000000 		.4byte	.LVL171-1
 5999 06ef 0100     		.2byte	0x1
 6000 06f1 50       		.byte	0x50
 6001 06f2 0D000000 		.4byte	.LVL171-1
 6002 06f6 14000000 		.4byte	.LFE87
 6003 06fa 0400     		.2byte	0x4
 6004 06fc F3       		.byte	0xf3
 6005 06fd 01       		.uleb128 0x1
 6006 06fe 50       		.byte	0x50
 6007 06ff 9F       		.byte	0x9f
 6008 0700 00000000 		.4byte	0
 6009 0704 00000000 		.4byte	0
 6010              	.LLST45:
 6011 0708 00000000 		.4byte	.LVL170
 6012 070c 0D000000 		.4byte	.LVL171-1
 6013 0710 0100     		.2byte	0x1
 6014 0712 51       		.byte	0x51
 6015 0713 0D000000 		.4byte	.LVL171-1
 6016 0717 14000000 		.4byte	.LFE87
 6017 071b 0400     		.2byte	0x4
 6018 071d F3       		.byte	0xf3
 6019 071e 01       		.uleb128 0x1
 6020 071f 51       		.byte	0x51
 6021 0720 9F       		.byte	0x9f
 6022 0721 00000000 		.4byte	0
 6023 0725 00000000 		.4byte	0
 6024              	.LLST46:
 6025 0729 00000000 		.4byte	.LVL173
 6026 072d 0F000000 		.4byte	.LVL175-1
 6027 0731 0100     		.2byte	0x1
 6028 0733 50       		.byte	0x50
 6029 0734 0F000000 		.4byte	.LVL175-1
 6030 0738 12000000 		.4byte	.LFE88
 6031 073c 0400     		.2byte	0x4
 6032 073e F3       		.byte	0xf3
 6033 073f 01       		.uleb128 0x1
ARM GAS  C:\Users\Xwx47\AppData\Local\Temp\ccJ5AxKs.s 			page 125


 6034 0740 50       		.byte	0x50
 6035 0741 9F       		.byte	0x9f
 6036 0742 00000000 		.4byte	0
 6037 0746 00000000 		.4byte	0
 6038              	.LLST47:
 6039 074a 00000000 		.4byte	.LVL173
 6040 074e 0F000000 		.4byte	.LVL175-1
 6041 0752 0100     		.2byte	0x1
 6042 0754 51       		.byte	0x51
 6043 0755 0F000000 		.4byte	.LVL175-1
 6044 0759 12000000 		.4byte	.LFE88
 6045 075d 0400     		.2byte	0x4
 6046 075f F3       		.byte	0xf3
 6047 0760 01       		.uleb128 0x1
 6048 0761 51       		.byte	0x51
 6049 0762 9F       		.byte	0x9f
 6050 0763 00000000 		.4byte	0
 6051 0767 00000000 		.4byte	0
 6052              	.LLST48:
 6053 076b 00000000 		.4byte	.LVL173
 6054 076f 0C000000 		.4byte	.LVL174
 6055 0773 0100     		.2byte	0x1
 6056 0775 52       		.byte	0x52
 6057 0776 0C000000 		.4byte	.LVL174
 6058 077a 0F000000 		.4byte	.LVL175-1
 6059 077e 0100     		.2byte	0x1
 6060 0780 52       		.byte	0x52
 6061 0781 00000000 		.4byte	0
 6062 0785 00000000 		.4byte	0
 6063              	.LLST49:
 6064 0789 08000000 		.4byte	.LVL176
 6065 078d 0A000000 		.4byte	.LVL177
 6066 0791 0100     		.2byte	0x1
 6067 0793 50       		.byte	0x50
 6068 0794 00000000 		.4byte	0
 6069 0798 00000000 		.4byte	0
 6070              	.LLST50:
 6071 079c 00000000 		.4byte	.LVL192
 6072 07a0 0A000000 		.4byte	.LVL193
 6073 07a4 0100     		.2byte	0x1
 6074 07a6 50       		.byte	0x50
 6075 07a7 0A000000 		.4byte	.LVL193
 6076 07ab 10000000 		.4byte	.LFE95
 6077 07af 0400     		.2byte	0x4
 6078 07b1 F3       		.byte	0xf3
 6079 07b2 01       		.uleb128 0x1
 6080 07b3 50       		.byte	0x50
 6081 07b4 9F       		.byte	0x9f
 6082 07b5 00000000 		.4byte	0
 6083 07b9 00000000 		.4byte	0
 6084              	.LLST51:
 6085 07bd 02000000 		.4byte	.LVL195
 6086 07c1 1C000000 		.4byte	.LVL198
 6087 07c5 0200     		.2byte	0x2
 6088 07c7 30       		.byte	0x30
 6089 07c8 9F       		.byte	0x9f
 6090 07c9 1C000000 		.4byte	.LVL198
ARM GAS  C:\Users\Xwx47\AppData\Local\Temp\ccJ5AxKs.s 			page 126


 6091 07cd 20000000 		.4byte	.LVL199
 6092 07d1 0200     		.2byte	0x2
 6093 07d3 34       		.byte	0x34
 6094 07d4 9F       		.byte	0x9f
 6095 07d5 20000000 		.4byte	.LVL199
 6096 07d9 24000000 		.4byte	.LVL200
 6097 07dd 0300     		.2byte	0x3
 6098 07df 08       		.byte	0x8
 6099 07e0 70       		.byte	0x70
 6100 07e1 9F       		.byte	0x9f
 6101 07e2 24000000 		.4byte	.LVL200
 6102 07e6 26000000 		.4byte	.LVL201
 6103 07ea 0200     		.2byte	0x2
 6104 07ec 30       		.byte	0x30
 6105 07ed 9F       		.byte	0x9f
 6106 07ee 26000000 		.4byte	.LVL201
 6107 07f2 28000000 		.4byte	.LFE96
 6108 07f6 0100     		.2byte	0x1
 6109 07f8 50       		.byte	0x50
 6110 07f9 00000000 		.4byte	0
 6111 07fd 00000000 		.4byte	0
 6112              	.LLST52:
 6113 0801 06000000 		.4byte	.LVL196
 6114 0805 0A000000 		.4byte	.LVL197
 6115 0809 0100     		.2byte	0x1
 6116 080b 50       		.byte	0x50
 6117 080c 00000000 		.4byte	0
 6118 0810 00000000 		.4byte	0
 6119              		.section	.debug_aranges,"",%progbits
 6120 0000 14020000 		.4byte	0x214
 6121 0004 0200     		.2byte	0x2
 6122 0006 00000000 		.4byte	.Ldebug_info0
 6123 000a 04       		.byte	0x4
 6124 000b 00       		.byte	0
 6125 000c 0000     		.2byte	0
 6126 000e 0000     		.2byte	0
 6127 0010 00000000 		.4byte	.LFB34
 6128 0014 5C000000 		.4byte	.LFE34-.LFB34
 6129 0018 00000000 		.4byte	.LFB35
 6130 001c 02000000 		.4byte	.LFE35-.LFB35
 6131 0020 00000000 		.4byte	.LFB36
 6132 0024 02000000 		.4byte	.LFE36-.LFB36
 6133 0028 00000000 		.4byte	.LFB38
 6134 002c 12000000 		.4byte	.LFE38-.LFB38
 6135 0030 00000000 		.4byte	.LFB39
 6136 0034 02000000 		.4byte	.LFE39-.LFB39
 6137 0038 00000000 		.4byte	.LFB40
 6138 003c 02000000 		.4byte	.LFE40-.LFB40
 6139 0040 00000000 		.4byte	.LFB42
 6140 0044 0C000000 		.4byte	.LFE42-.LFB42
 6141 0048 00000000 		.4byte	.LFB45
 6142 004c 0C000000 		.4byte	.LFE45-.LFB45
 6143 0050 00000000 		.4byte	.LFB46
 6144 0054 0C000000 		.4byte	.LFE46-.LFB46
 6145 0058 00000000 		.4byte	.LFB41
 6146 005c 12000000 		.4byte	.LFE41-.LFB41
 6147 0060 00000000 		.4byte	.LFB47
ARM GAS  C:\Users\Xwx47\AppData\Local\Temp\ccJ5AxKs.s 			page 127


 6148 0064 0C000000 		.4byte	.LFE47-.LFB47
 6149 0068 00000000 		.4byte	.LFB48
 6150 006c 0C000000 		.4byte	.LFE48-.LFB48
 6151 0070 00000000 		.4byte	.LFB49
 6152 0074 12000000 		.4byte	.LFE49-.LFB49
 6153 0078 00000000 		.4byte	.LFB50
 6154 007c 0C000000 		.4byte	.LFE50-.LFB50
 6155 0080 00000000 		.4byte	.LFB51
 6156 0084 24000000 		.4byte	.LFE51-.LFB51
 6157 0088 00000000 		.4byte	.LFB52
 6158 008c 18000000 		.4byte	.LFE52-.LFB52
 6159 0090 00000000 		.4byte	.LFB53
 6160 0094 18000000 		.4byte	.LFE53-.LFB53
 6161 0098 00000000 		.4byte	.LFB54
 6162 009c 18000000 		.4byte	.LFE54-.LFB54
 6163 00a0 00000000 		.4byte	.LFB55
 6164 00a4 18000000 		.4byte	.LFE55-.LFB55
 6165 00a8 00000000 		.4byte	.LFB56
 6166 00ac 0C000000 		.4byte	.LFE56-.LFB56
 6167 00b0 00000000 		.4byte	.LFB57
 6168 00b4 24000000 		.4byte	.LFE57-.LFB57
 6169 00b8 00000000 		.4byte	.LFB58
 6170 00bc 0C000000 		.4byte	.LFE58-.LFB58
 6171 00c0 00000000 		.4byte	.LFB59
 6172 00c4 24000000 		.4byte	.LFE59-.LFB59
 6173 00c8 00000000 		.4byte	.LFB60
 6174 00cc 0C000000 		.4byte	.LFE60-.LFB60
 6175 00d0 00000000 		.4byte	.LFB61
 6176 00d4 24000000 		.4byte	.LFE61-.LFB61
 6177 00d8 00000000 		.4byte	.LFB62
 6178 00dc 0C000000 		.4byte	.LFE62-.LFB62
 6179 00e0 00000000 		.4byte	.LFB63
 6180 00e4 24000000 		.4byte	.LFE63-.LFB63
 6181 00e8 00000000 		.4byte	.LFB64
 6182 00ec 18000000 		.4byte	.LFE64-.LFB64
 6183 00f0 00000000 		.4byte	.LFB65
 6184 00f4 18000000 		.4byte	.LFE65-.LFB65
 6185 00f8 00000000 		.4byte	.LFB66
 6186 00fc 0E000000 		.4byte	.LFE66-.LFB66
 6187 0100 00000000 		.4byte	.LFB67
 6188 0104 08000000 		.4byte	.LFE67-.LFB67
 6189 0108 00000000 		.4byte	.LFB69
 6190 010c 26000000 		.4byte	.LFE69-.LFB69
 6191 0110 00000000 		.4byte	.LFB70
 6192 0114 26000000 		.4byte	.LFE70-.LFB70
 6193 0118 00000000 		.4byte	.LFB71
 6194 011c 0C000000 		.4byte	.LFE71-.LFB71
 6195 0120 00000000 		.4byte	.LFB72
 6196 0124 0C000000 		.4byte	.LFE72-.LFB72
 6197 0128 00000000 		.4byte	.LFB73
 6198 012c 0C000000 		.4byte	.LFE73-.LFB73
 6199 0130 00000000 		.4byte	.LFB74
 6200 0134 0C000000 		.4byte	.LFE74-.LFB74
 6201 0138 00000000 		.4byte	.LFB75
 6202 013c 0C000000 		.4byte	.LFE75-.LFB75
 6203 0140 00000000 		.4byte	.LFB76
 6204 0144 0C000000 		.4byte	.LFE76-.LFB76
ARM GAS  C:\Users\Xwx47\AppData\Local\Temp\ccJ5AxKs.s 			page 128


 6205 0148 00000000 		.4byte	.LFB77
 6206 014c 0A000000 		.4byte	.LFE77-.LFB77
 6207 0150 00000000 		.4byte	.LFB44
 6208 0154 10000000 		.4byte	.LFE44-.LFB44
 6209 0158 00000000 		.4byte	.LFB78
 6210 015c 0A000000 		.4byte	.LFE78-.LFB78
 6211 0160 00000000 		.4byte	.LFB43
 6212 0164 10000000 		.4byte	.LFE43-.LFB43
 6213 0168 00000000 		.4byte	.LFB37
 6214 016c 08000000 		.4byte	.LFE37-.LFB37
 6215 0170 00000000 		.4byte	.LFB79
 6216 0174 16000000 		.4byte	.LFE79-.LFB79
 6217 0178 00000000 		.4byte	.LFB68
 6218 017c 0C000000 		.4byte	.LFE68-.LFB68
 6219 0180 00000000 		.4byte	.LFB80
 6220 0184 08000000 		.4byte	.LFE80-.LFB80
 6221 0188 00000000 		.4byte	.LFB81
 6222 018c 0E000000 		.4byte	.LFE81-.LFB81
 6223 0190 00000000 		.4byte	.LFB82
 6224 0194 0E000000 		.4byte	.LFE82-.LFB82
 6225 0198 00000000 		.4byte	.LFB83
 6226 019c 12000000 		.4byte	.LFE83-.LFB83
 6227 01a0 00000000 		.4byte	.LFB84
 6228 01a4 16000000 		.4byte	.LFE84-.LFB84
 6229 01a8 00000000 		.4byte	.LFB85
 6230 01ac 0E000000 		.4byte	.LFE85-.LFB85
 6231 01b0 00000000 		.4byte	.LFB86
 6232 01b4 20000000 		.4byte	.LFE86-.LFB86
 6233 01b8 00000000 		.4byte	.LFB87
 6234 01bc 14000000 		.4byte	.LFE87-.LFB87
 6235 01c0 00000000 		.4byte	.LFB88
 6236 01c4 12000000 		.4byte	.LFE88-.LFB88
 6237 01c8 00000000 		.4byte	.LFB89
 6238 01cc 10000000 		.4byte	.LFE89-.LFB89
 6239 01d0 00000000 		.4byte	.LFB90
 6240 01d4 0C000000 		.4byte	.LFE90-.LFB90
 6241 01d8 00000000 		.4byte	.LFB91
 6242 01dc 0C000000 		.4byte	.LFE91-.LFB91
 6243 01e0 00000000 		.4byte	.LFB92
 6244 01e4 0C000000 		.4byte	.LFE92-.LFB92
 6245 01e8 00000000 		.4byte	.LFB93
 6246 01ec 0C000000 		.4byte	.LFE93-.LFB93
 6247 01f0 00000000 		.4byte	.LFB94
 6248 01f4 0C000000 		.4byte	.LFE94-.LFB94
 6249 01f8 00000000 		.4byte	.LFB33
 6250 01fc 30000000 		.4byte	.LFE33-.LFB33
 6251 0200 00000000 		.4byte	.LFB95
 6252 0204 10000000 		.4byte	.LFE95-.LFB95
 6253 0208 00000000 		.4byte	.LFB96
 6254 020c 28000000 		.4byte	.LFE96-.LFB96
 6255 0210 00000000 		.4byte	0
 6256 0214 00000000 		.4byte	0
 6257              		.section	.debug_ranges,"",%progbits
 6258              	.Ldebug_ranges0:
 6259 0000 00000000 		.4byte	.LFB34
 6260 0004 5C000000 		.4byte	.LFE34
 6261 0008 00000000 		.4byte	.LFB35
ARM GAS  C:\Users\Xwx47\AppData\Local\Temp\ccJ5AxKs.s 			page 129


 6262 000c 02000000 		.4byte	.LFE35
 6263 0010 00000000 		.4byte	.LFB36
 6264 0014 02000000 		.4byte	.LFE36
 6265 0018 00000000 		.4byte	.LFB38
 6266 001c 12000000 		.4byte	.LFE38
 6267 0020 00000000 		.4byte	.LFB39
 6268 0024 02000000 		.4byte	.LFE39
 6269 0028 00000000 		.4byte	.LFB40
 6270 002c 02000000 		.4byte	.LFE40
 6271 0030 00000000 		.4byte	.LFB42
 6272 0034 0C000000 		.4byte	.LFE42
 6273 0038 00000000 		.4byte	.LFB45
 6274 003c 0C000000 		.4byte	.LFE45
 6275 0040 00000000 		.4byte	.LFB46
 6276 0044 0C000000 		.4byte	.LFE46
 6277 0048 00000000 		.4byte	.LFB41
 6278 004c 12000000 		.4byte	.LFE41
 6279 0050 00000000 		.4byte	.LFB47
 6280 0054 0C000000 		.4byte	.LFE47
 6281 0058 00000000 		.4byte	.LFB48
 6282 005c 0C000000 		.4byte	.LFE48
 6283 0060 00000000 		.4byte	.LFB49
 6284 0064 12000000 		.4byte	.LFE49
 6285 0068 00000000 		.4byte	.LFB50
 6286 006c 0C000000 		.4byte	.LFE50
 6287 0070 00000000 		.4byte	.LFB51
 6288 0074 24000000 		.4byte	.LFE51
 6289 0078 00000000 		.4byte	.LFB52
 6290 007c 18000000 		.4byte	.LFE52
 6291 0080 00000000 		.4byte	.LFB53
 6292 0084 18000000 		.4byte	.LFE53
 6293 0088 00000000 		.4byte	.LFB54
 6294 008c 18000000 		.4byte	.LFE54
 6295 0090 00000000 		.4byte	.LFB55
 6296 0094 18000000 		.4byte	.LFE55
 6297 0098 00000000 		.4byte	.LFB56
 6298 009c 0C000000 		.4byte	.LFE56
 6299 00a0 00000000 		.4byte	.LFB57
 6300 00a4 24000000 		.4byte	.LFE57
 6301 00a8 00000000 		.4byte	.LFB58
 6302 00ac 0C000000 		.4byte	.LFE58
 6303 00b0 00000000 		.4byte	.LFB59
 6304 00b4 24000000 		.4byte	.LFE59
 6305 00b8 00000000 		.4byte	.LFB60
 6306 00bc 0C000000 		.4byte	.LFE60
 6307 00c0 00000000 		.4byte	.LFB61
 6308 00c4 24000000 		.4byte	.LFE61
 6309 00c8 00000000 		.4byte	.LFB62
 6310 00cc 0C000000 		.4byte	.LFE62
 6311 00d0 00000000 		.4byte	.LFB63
 6312 00d4 24000000 		.4byte	.LFE63
 6313 00d8 00000000 		.4byte	.LFB64
 6314 00dc 18000000 		.4byte	.LFE64
 6315 00e0 00000000 		.4byte	.LFB65
 6316 00e4 18000000 		.4byte	.LFE65
 6317 00e8 00000000 		.4byte	.LFB66
 6318 00ec 0E000000 		.4byte	.LFE66
ARM GAS  C:\Users\Xwx47\AppData\Local\Temp\ccJ5AxKs.s 			page 130


 6319 00f0 00000000 		.4byte	.LFB67
 6320 00f4 08000000 		.4byte	.LFE67
 6321 00f8 00000000 		.4byte	.LFB69
 6322 00fc 26000000 		.4byte	.LFE69
 6323 0100 00000000 		.4byte	.LFB70
 6324 0104 26000000 		.4byte	.LFE70
 6325 0108 00000000 		.4byte	.LFB71
 6326 010c 0C000000 		.4byte	.LFE71
 6327 0110 00000000 		.4byte	.LFB72
 6328 0114 0C000000 		.4byte	.LFE72
 6329 0118 00000000 		.4byte	.LFB73
 6330 011c 0C000000 		.4byte	.LFE73
 6331 0120 00000000 		.4byte	.LFB74
 6332 0124 0C000000 		.4byte	.LFE74
 6333 0128 00000000 		.4byte	.LFB75
 6334 012c 0C000000 		.4byte	.LFE75
 6335 0130 00000000 		.4byte	.LFB76
 6336 0134 0C000000 		.4byte	.LFE76
 6337 0138 00000000 		.4byte	.LFB77
 6338 013c 0A000000 		.4byte	.LFE77
 6339 0140 00000000 		.4byte	.LFB44
 6340 0144 10000000 		.4byte	.LFE44
 6341 0148 00000000 		.4byte	.LFB78
 6342 014c 0A000000 		.4byte	.LFE78
 6343 0150 00000000 		.4byte	.LFB43
 6344 0154 10000000 		.4byte	.LFE43
 6345 0158 00000000 		.4byte	.LFB37
 6346 015c 08000000 		.4byte	.LFE37
 6347 0160 00000000 		.4byte	.LFB79
 6348 0164 16000000 		.4byte	.LFE79
 6349 0168 00000000 		.4byte	.LFB68
 6350 016c 0C000000 		.4byte	.LFE68
 6351 0170 00000000 		.4byte	.LFB80
 6352 0174 08000000 		.4byte	.LFE80
 6353 0178 00000000 		.4byte	.LFB81
 6354 017c 0E000000 		.4byte	.LFE81
 6355 0180 00000000 		.4byte	.LFB82
 6356 0184 0E000000 		.4byte	.LFE82
 6357 0188 00000000 		.4byte	.LFB83
 6358 018c 12000000 		.4byte	.LFE83
 6359 0190 00000000 		.4byte	.LFB84
 6360 0194 16000000 		.4byte	.LFE84
 6361 0198 00000000 		.4byte	.LFB85
 6362 019c 0E000000 		.4byte	.LFE85
 6363 01a0 00000000 		.4byte	.LFB86
 6364 01a4 20000000 		.4byte	.LFE86
 6365 01a8 00000000 		.4byte	.LFB87
 6366 01ac 14000000 		.4byte	.LFE87
 6367 01b0 00000000 		.4byte	.LFB88
 6368 01b4 12000000 		.4byte	.LFE88
 6369 01b8 00000000 		.4byte	.LFB89
 6370 01bc 10000000 		.4byte	.LFE89
 6371 01c0 00000000 		.4byte	.LFB90
 6372 01c4 0C000000 		.4byte	.LFE90
 6373 01c8 00000000 		.4byte	.LFB91
 6374 01cc 0C000000 		.4byte	.LFE91
 6375 01d0 00000000 		.4byte	.LFB92
ARM GAS  C:\Users\Xwx47\AppData\Local\Temp\ccJ5AxKs.s 			page 131


 6376 01d4 0C000000 		.4byte	.LFE92
 6377 01d8 00000000 		.4byte	.LFB93
 6378 01dc 0C000000 		.4byte	.LFE93
 6379 01e0 00000000 		.4byte	.LFB94
 6380 01e4 0C000000 		.4byte	.LFE94
 6381 01e8 00000000 		.4byte	.LFB33
 6382 01ec 30000000 		.4byte	.LFE33
 6383 01f0 00000000 		.4byte	.LFB95
 6384 01f4 10000000 		.4byte	.LFE95
 6385 01f8 00000000 		.4byte	.LFB96
 6386 01fc 28000000 		.4byte	.LFE96
 6387 0200 00000000 		.4byte	0
 6388 0204 00000000 		.4byte	0
 6389              		.section	.debug_line,"",%progbits
 6390              	.Ldebug_line0:
 6391 0000 12070000 		.section	.debug_str,"MS",%progbits,1
 6391      02001402 
 6391      00000201 
 6391      FB0E0D00 
 6391      01010101 
 6392              	.LASF111:
 6393 0000 4E52465F 		.ascii	"NRF_DYNPD_DPL_P2\000"
 6393      44594E50 
 6393      445F4450 
 6393      4C5F5032 
 6393      00
 6394              	.LASF112:
 6395 0011 4E52465F 		.ascii	"NRF_DYNPD_DPL_P3\000"
 6395      44594E50 
 6395      445F4450 
 6395      4C5F5033 
 6395      00
 6396              	.LASF113:
 6397 0022 4E52465F 		.ascii	"NRF_DYNPD_DPL_P4\000"
 6397      44594E50 
 6397      445F4450 
 6397      4C5F5034 
 6397      00
 6398              	.LASF114:
 6399 0033 4E52465F 		.ascii	"NRF_DYNPD_DPL_P5\000"
 6399      44594E50 
 6399      445F4450 
 6399      4C5F5035 
 6399      00
 6400              	.LASF200:
 6401 0044 6972715F 		.ascii	"irq_flag\000"
 6401      666C6167 
 6401      00
 6402              	.LASF204:
 6403 004d 43794465 		.ascii	"CyDelay\000"
 6403      6C617900 
 6404              	.LASF40:
 6405 0055 4E52465F 		.ascii	"NRF_FIFO_STATUS_REG\000"
 6405      4649464F 
 6405      5F535441 
 6405      5455535F 
 6405      52454700 
ARM GAS  C:\Users\Xwx47\AppData\Local\Temp\ccJ5AxKs.s 			page 132


 6406              	.LASF96:
 6407 0069 4E52465F 		.ascii	"NRF_STATUS_MAX_RT_MASK\000"
 6407      53544154 
 6407      55535F4D 
 6407      41585F52 
 6407      545F4D41 
 6408              	.LASF164:
 6409 0080 6E524632 		.ascii	"nRF24_enable_dynamic_payload\000"
 6409      345F656E 
 6409      61626C65 
 6409      5F64796E 
 6409      616D6963 
 6410              	.LASF139:
 6411 009d 6E524632 		.ascii	"nRF24_disable_auto_ack\000"
 6411      345F6469 
 6411      7361626C 
 6411      655F6175 
 6411      746F5F61 
 6412              	.LASF70:
 6413 00b4 4E52465F 		.ascii	"NRF_CONFIG_MASK_TX_DS\000"
 6413      434F4E46 
 6413      49475F4D 
 6413      41534B5F 
 6413      54585F44 
 6414              	.LASF61:
 6415 00ca 4E52465F 		.ascii	"NRF_MAX_RT_IRQ\000"
 6415      4D41585F 
 6415      52545F49 
 6415      525100
 6416              	.LASF72:
 6417 00d9 4E52465F 		.ascii	"NRF_EN_AA_ENAA_P0\000"
 6417      454E5F41 
 6417      415F454E 
 6417      41415F50 
 6417      3000
 6418              	.LASF176:
 6419 00eb 6E524632 		.ascii	"nRF24_sleep\000"
 6419      345F736C 
 6419      65657000 
 6420              	.LASF166:
 6421 00f7 6E524632 		.ascii	"nRF24_enable_dynamic_payload_length\000"
 6421      345F656E 
 6421      61626C65 
 6421      5F64796E 
 6421      616D6963 
 6422              	.LASF8:
 6423 011b 756E7369 		.ascii	"unsigned int\000"
 6423      676E6564 
 6423      20696E74 
 6423      00
 6424              	.LASF98:
 6425 0128 4E52465F 		.ascii	"NRF_STATUS_RX_DR_MASK\000"
 6425      53544154 
 6425      55535F52 
 6425      585F4452 
 6425      5F4D4153 
 6426              	.LASF60:
ARM GAS  C:\Users\Xwx47\AppData\Local\Temp\ccJ5AxKs.s 			page 133


 6427 013e 4E52465F 		.ascii	"NRF_NONE_IRQ\000"
 6427      4E4F4E45 
 6427      5F495251 
 6427      00
 6428              	.LASF178:
 6429 014b 6E524632 		.ascii	"nRF24_reuse_last_transmitted_payload\000"
 6429      345F7265 
 6429      7573655F 
 6429      6C617374 
 6429      5F747261 
 6430              	.LASF124:
 6431 0170 4E52465F 		.ascii	"NRF_ALL_IRQ_MASK\000"
 6431      414C4C5F 
 6431      4952515F 
 6431      4D41534B 
 6431      00
 6432              	.LASF125:
 6433 0181 4E52465F 		.ascii	"NRF_STATUS_PIPES_MASK\000"
 6433      53544154 
 6433      55535F50 
 6433      49504553 
 6433      5F4D4153 
 6434              	.LASF69:
 6435 0197 4E52465F 		.ascii	"NRF_CONFIG_MASK_MAX_RT\000"
 6435      434F4E46 
 6435      49475F4D 
 6435      41534B5F 
 6435      4D41585F 
 6436              	.LASF84:
 6437 01ae 4E52465F 		.ascii	"NRF_SETUP_AW_3BYTES\000"
 6437      53455455 
 6437      505F4157 
 6437      5F334259 
 6437      54455300 
 6438              	.LASF197:
 6439 01c2 6E524632 		.ascii	"nRF24_clear_all_irqs\000"
 6439      345F636C 
 6439      6561725F 
 6439      616C6C5F 
 6439      69727173 
 6440              	.LASF155:
 6441 01d7 6E524632 		.ascii	"nRF24_set_rx_pipe_4_address\000"
 6441      345F7365 
 6441      745F7278 
 6441      5F706970 
 6441      655F345F 
 6442              	.LASF147:
 6443 01f3 6E524632 		.ascii	"nRF24_get_rx_pipe_0_address\000"
 6443      345F6765 
 6443      745F7278 
 6443      5F706970 
 6443      655F305F 
 6444              	.LASF30:
 6445 020f 4E52465F 		.ascii	"NRF_RX_ADDR_P3_REG\000"
 6445      52585F41 
 6445      4444525F 
 6445      50335F52 
ARM GAS  C:\Users\Xwx47\AppData\Local\Temp\ccJ5AxKs.s 			page 134


 6445      454700
 6446              	.LASF137:
 6447 0222 6D6F6465 		.ascii	"mode\000"
 6447      00
 6448              	.LASF21:
 6449 0227 4E52465F 		.ascii	"NRF_SETUP_RETR_REG\000"
 6449      53455455 
 6449      505F5245 
 6449      54525F52 
 6449      454700
 6450              	.LASF133:
 6451 023a 6E524632 		.ascii	"nRF24_set_rx_mode\000"
 6451      345F7365 
 6451      745F7278 
 6451      5F6D6F64 
 6451      6500
 6452              	.LASF224:
 6453 024c 433A5C55 		.ascii	"C:\\Users\\Xwx47\\Documents\\Creator\\nRF24_Example"
 6453      73657273 
 6453      5C587778 
 6453      34375C44 
 6453      6F63756D 
 6454 027a 5F50726F 		.ascii	"_Projects\\02_EnhancedShockBurst_Rx.cydsn\000"
 6454      6A656374 
 6454      735C3032 
 6454      5F456E68 
 6454      616E6365 
 6455              	.LASF38:
 6456 02a3 4E52465F 		.ascii	"NRF_RX_PW_P4_REG\000"
 6456      52585F50 
 6456      575F5034 
 6456      5F524547 
 6456      00
 6457              	.LASF123:
 6458 02b4 4E52465F 		.ascii	"NRF_MAX_RF_CHANNEL\000"
 6458      4D41585F 
 6458      52465F43 
 6458      48414E4E 
 6458      454C00
 6459              	.LASF41:
 6460 02c7 4E52465F 		.ascii	"NRF_DYNPD_REG\000"
 6460      44594E50 
 6460      445F5245 
 6460      4700
 6461              	.LASF97:
 6462 02d5 4E52465F 		.ascii	"NRF_STATUS_TX_DS_MASK\000"
 6462      53544154 
 6462      55535F54 
 6462      585F4453 
 6462      5F4D4153 
 6463              	.LASF184:
 6464 02eb 6E524632 		.ascii	"nRF24_put_in_tx_fifo\000"
 6464      345F7075 
 6464      745F696E 
 6464      5F74785F 
 6464      6669666F 
 6465              	.LASF186:
ARM GAS  C:\Users\Xwx47\AppData\Local\Temp\ccJ5AxKs.s 			page 135


 6466 0300 6E524632 		.ascii	"nRF24_transmit\000"
 6466      345F7472 
 6466      616E736D 
 6466      697400
 6467              	.LASF27:
 6468 030f 4E52465F 		.ascii	"NRF_RX_ADDR_P0_REG\000"
 6468      52585F41 
 6468      4444525F 
 6468      50305F52 
 6468      454700
 6469              	.LASF215:
 6470 0322 6E524632 		.ascii	"nRF24_no_ack_payload_cmd\000"
 6470      345F6E6F 
 6470      5F61636B 
 6470      5F706179 
 6470      6C6F6164 
 6471              	.LASF180:
 6472 033b 6E524632 		.ascii	"nRF24_get_retransmissions_count\000"
 6472      345F6765 
 6472      745F7265 
 6472      7472616E 
 6472      736D6973 
 6473              	.LASF99:
 6474 035b 4E52465F 		.ascii	"NRF_OBSERVE_TX_ARC_CNT\000"
 6474      4F425345 
 6474      5256455F 
 6474      54585F41 
 6474      52435F43 
 6475              	.LASF132:
 6476 0372 6E524632 		.ascii	"nRF24_set_power_down_mode\000"
 6476      345F7365 
 6476      745F706F 
 6476      7765725F 
 6476      646F776E 
 6477              	.LASF42:
 6478 038c 4E52465F 		.ascii	"NRF_FEATURE_REG\000"
 6478      46454154 
 6478      5552455F 
 6478      52454700 
 6479              	.LASF211:
 6480 039c 6E524632 		.ascii	"nRF24_reuse_tx_payload_cmd\000"
 6480      345F7265 
 6480      7573655F 
 6480      74785F70 
 6480      61796C6F 
 6481              	.LASF35:
 6482 03b7 4E52465F 		.ascii	"NRF_RX_PW_P1_REG\000"
 6482      52585F50 
 6482      575F5031 
 6482      5F524547 
 6482      00
 6483              	.LASF171:
 6484 03c8 6E524632 		.ascii	"nRF24_disable_payload_with_no_ack_cmd\000"
 6484      345F6469 
 6484      7361626C 
 6484      655F7061 
 6484      796C6F61 
ARM GAS  C:\Users\Xwx47\AppData\Local\Temp\ccJ5AxKs.s 			page 136


 6485              	.LASF203:
 6486 03ee 6E524632 		.ascii	"nRF24_set_bit\000"
 6486      345F7365 
 6486      745F6269 
 6486      7400
 6487              	.LASF11:
 6488 03fc 666C6F61 		.ascii	"float\000"
 6488      7400
 6489              	.LASF129:
 6490 0402 6E524632 		.ascii	"nRF24_wakeup\000"
 6490      345F7761 
 6490      6B657570 
 6490      00
 6491              	.LASF106:
 6492 040f 4E52465F 		.ascii	"NRF_FIFO_STATUS_TX_EMPTY\000"
 6492      4649464F 
 6492      5F535441 
 6492      5455535F 
 6492      54585F45 
 6493              	.LASF222:
 6494 0428 474E5520 		.ascii	"GNU C11 5.4.1 20160609 (release) [ARM/embedded-5-br"
 6494      43313120 
 6494      352E342E 
 6494      31203230 
 6494      31363036 
 6495 045b 616E6368 		.ascii	"anch revision 237715] -mcpu=cortex-m0plus -mthumb -"
 6495      20726576 
 6495      6973696F 
 6495      6E203233 
 6495      37373135 
 6496 048e 67202D4F 		.ascii	"g -Og -ffunction-sections -ffat-lto-objects\000"
 6496      67202D66 
 6496      66756E63 
 6496      74696F6E 
 6496      2D736563 
 6497              	.LASF220:
 6498 04ba 6E524632 		.ascii	"nRF24_flush_rx_cmd\000"
 6498      345F666C 
 6498      7573685F 
 6498      72785F63 
 6498      6D6400
 6499              	.LASF181:
 6500 04cd 636F756E 		.ascii	"count\000"
 6500      7400
 6501              	.LASF210:
 6502 04d3 43794465 		.ascii	"CyDelayUs\000"
 6502      6C617955 
 6502      7300
 6503              	.LASF172:
 6504 04dd 6E524632 		.ascii	"nRF24_start_listening\000"
 6504      345F7374 
 6504      6172745F 
 6504      6C697374 
 6504      656E696E 
 6505              	.LASF219:
 6506 04f3 5350495F 		.ascii	"SPI_Start\000"
 6506      53746172 
ARM GAS  C:\Users\Xwx47\AppData\Local\Temp\ccJ5AxKs.s 			page 137


 6506      7400
 6507              	.LASF205:
 6508 04fd 6E524632 		.ascii	"nRF24_clear_bit\000"
 6508      345F636C 
 6508      6561725F 
 6508      62697400 
 6509              	.LASF7:
 6510 050d 6C6F6E67 		.ascii	"long long unsigned int\000"
 6510      206C6F6E 
 6510      6720756E 
 6510      7369676E 
 6510      65642069 
 6511              	.LASF102:
 6512 0524 4E52465F 		.ascii	"NRF_OBSERVE_TX_PLOS_CNT_MASK\000"
 6512      4F425345 
 6512      5256455F 
 6512      54585F50 
 6512      4C4F535F 
 6513              	.LASF88:
 6514 0541 4E52465F 		.ascii	"NRF_SETUP_RETR_ARC\000"
 6514      53455455 
 6514      505F5245 
 6514      54525F41 
 6514      524300
 6515              	.LASF89:
 6516 0554 4E52465F 		.ascii	"NRF_SETUP_RETR_ARD\000"
 6516      53455455 
 6516      505F5245 
 6516      54525F41 
 6516      524400
 6517              	.LASF218:
 6518 0567 53535F57 		.ascii	"SS_Write\000"
 6518      72697465 
 6518      00
 6519              	.LASF92:
 6520 0570 4E52465F 		.ascii	"NRF_RF_SETUP_RF_DR_HIGH\000"
 6520      52465F53 
 6520      45545550 
 6520      5F52465F 
 6520      44525F48 
 6521              	.LASF126:
 6522 0588 6E524632 		.ascii	"nRF24_enable\000"
 6522      345F656E 
 6522      61626C65 
 6522      00
 6523              	.LASF134:
 6524 0595 6E524632 		.ascii	"nRF24_set_tx_mode\000"
 6524      345F7365 
 6524      745F7478 
 6524      5F6D6F64 
 6524      6500
 6525              	.LASF138:
 6526 05a7 70697065 		.ascii	"pipe\000"
 6526      00
 6527              	.LASF121:
 6528 05ac 4E52465F 		.ascii	"NRF_MAX_PAYLOAD_SIZE\000"
 6528      4D41585F 
ARM GAS  C:\Users\Xwx47\AppData\Local\Temp\ccJ5AxKs.s 			page 138


 6528      5041594C 
 6528      4F41445F 
 6528      53495A45 
 6529              	.LASF156:
 6530 05c1 6E524632 		.ascii	"nRF24_get_rx_pipe_4_address\000"
 6530      345F6765 
 6530      745F7278 
 6530      5F706970 
 6530      655F345F 
 6531              	.LASF49:
 6532 05dd 6E72665F 		.ascii	"nrf_pipe\000"
 6532      70697065 
 6532      00
 6533              	.LASF179:
 6534 05e6 6E524632 		.ascii	"nRF24_get_status\000"
 6534      345F6765 
 6534      745F7374 
 6534      61747573 
 6534      00
 6535              	.LASF161:
 6536 05f7 6E524632 		.ascii	"nRF24_set_payload_size\000"
 6536      345F7365 
 6536      745F7061 
 6536      796C6F61 
 6536      645F7369 
 6537              	.LASF64:
 6538 060e 6E72665F 		.ascii	"nrf_irq\000"
 6538      69727100 
 6539              	.LASF135:
 6540 0616 6E524632 		.ascii	"nRF24_set_mode\000"
 6540      345F7365 
 6540      745F6D6F 
 6540      646500
 6541              	.LASF199:
 6542 0625 6E524632 		.ascii	"nRF24_clear_irq_flag\000"
 6542      345F636C 
 6542      6561725F 
 6542      6972715F 
 6542      666C6167 
 6543              	.LASF192:
 6544 063a 6E524632 		.ascii	"nRF24_get_data_pipe_with_payload\000"
 6544      345F6765 
 6544      745F6461 
 6544      74615F70 
 6544      6970655F 
 6545              	.LASF24:
 6546 065b 4E52465F 		.ascii	"NRF_STATUS_REG\000"
 6546      53544154 
 6546      55535F52 
 6546      454700
 6547              	.LASF14:
 6548 066a 73697A65 		.ascii	"size_t\000"
 6548      5F7400
 6549              	.LASF130:
 6550 0671 6E524632 		.ascii	"nRF24_save_config\000"
 6550      345F7361 
 6550      76655F63 
ARM GAS  C:\Users\Xwx47\AppData\Local\Temp\ccJ5AxKs.s 			page 139


 6550      6F6E6669 
 6550      6700
 6551              	.LASF66:
 6552 0683 4E52465F 		.ascii	"NRF_CONFIG_PWR_UP\000"
 6552      434F4E46 
 6552      49475F50 
 6552      57525F55 
 6552      5000
 6553              	.LASF163:
 6554 0695 6E524632 		.ascii	"nRF24_get_payload_size\000"
 6554      345F6765 
 6554      745F7061 
 6554      796C6F61 
 6554      645F7369 
 6555              	.LASF202:
 6556 06ac 6E524632 		.ascii	"nRF24_write_register\000"
 6556      345F7772 
 6556      6974655F 
 6556      72656769 
 6556      73746572 
 6557              	.LASF31:
 6558 06c1 4E52465F 		.ascii	"NRF_RX_ADDR_P4_REG\000"
 6558      52585F41 
 6558      4444525F 
 6558      50345F52 
 6558      454700
 6559              	.LASF43:
 6560 06d4 4E52465F 		.ascii	"NRF_PIPE0\000"
 6560      50495045 
 6560      3000
 6561              	.LASF44:
 6562 06de 4E52465F 		.ascii	"NRF_PIPE1\000"
 6562      50495045 
 6562      3100
 6563              	.LASF45:
 6564 06e8 4E52465F 		.ascii	"NRF_PIPE2\000"
 6564      50495045 
 6564      3200
 6565              	.LASF46:
 6566 06f2 4E52465F 		.ascii	"NRF_PIPE3\000"
 6566      50495045 
 6566      3300
 6567              	.LASF47:
 6568 06fc 4E52465F 		.ascii	"NRF_PIPE4\000"
 6568      50495045 
 6568      3400
 6569              	.LASF48:
 6570 0706 4E52465F 		.ascii	"NRF_PIPE5\000"
 6570      50495045 
 6570      3500
 6571              	.LASF71:
 6572 0710 4E52465F 		.ascii	"NRF_CONFIG_MASK_RX_DR\000"
 6572      434F4E46 
 6572      49475F4D 
 6572      41534B5F 
 6572      52585F44 
 6573              	.LASF207:
ARM GAS  C:\Users\Xwx47\AppData\Local\Temp\ccJ5AxKs.s 			page 140


 6574 0726 6E524632 		.ascii	"nRF24_write_long_register\000"
 6574      345F7772 
 6574      6974655F 
 6574      6C6F6E67 
 6574      5F726567 
 6575              	.LASF198:
 6576 0740 6E524632 		.ascii	"nRF24_start\000"
 6576      345F7374 
 6576      61727400 
 6577              	.LASF86:
 6578 074c 4E52465F 		.ascii	"NRF_SETUP_AW_5BYTES\000"
 6578      53455455 
 6578      505F4157 
 6578      5F354259 
 6578      54455300 
 6579              	.LASF159:
 6580 0760 6E524632 		.ascii	"nRF24_set_tx_address\000"
 6580      345F7365 
 6580      745F7478 
 6580      5F616464 
 6580      72657373 
 6581              	.LASF157:
 6582 0775 6E524632 		.ascii	"nRF24_set_rx_pipe_5_address\000"
 6582      345F7365 
 6582      745F7278 
 6582      5F706970 
 6582      655F355F 
 6583              	.LASF13:
 6584 0791 63686172 		.ascii	"char\000"
 6584      00
 6585              	.LASF216:
 6586 0796 6E524632 		.ascii	"nRF24_write_ack_payload_cmd\000"
 6586      345F7772 
 6586      6974655F 
 6586      61636B5F 
 6586      7061796C 
 6587              	.LASF196:
 6588 07b2 6E524632 		.ascii	"nRF24_test_carrier\000"
 6588      345F7465 
 6588      73745F63 
 6588      61727269 
 6588      657200
 6589              	.LASF149:
 6590 07c5 6E524632 		.ascii	"nRF24_get_rx_pipe_1_address\000"
 6590      345F6765 
 6590      745F7278 
 6590      5F706970 
 6590      655F315F 
 6591              	.LASF58:
 6592 07e1 4E52465F 		.ascii	"NRF_MODE_RX\000"
 6592      4D4F4445 
 6592      5F525800 
 6593              	.LASF87:
 6594 07ed 6E72665F 		.ascii	"nrf_setup_address_width\000"
 6594      73657475 
 6594      705F6164 
 6594      64726573 
ARM GAS  C:\Users\Xwx47\AppData\Local\Temp\ccJ5AxKs.s 			page 141


 6594      735F7769 
 6595              	.LASF187:
 6596 0805 6E524632 		.ascii	"nRF24_is_data_ready\000"
 6596      345F6973 
 6596      5F646174 
 6596      615F7265 
 6596      61647900 
 6597              	.LASF59:
 6598 0819 6E72665F 		.ascii	"nrf_mode\000"
 6598      6D6F6465 
 6598      00
 6599              	.LASF32:
 6600 0822 4E52465F 		.ascii	"NRF_RX_ADDR_P5_REG\000"
 6600      52585F41 
 6600      4444525F 
 6600      50355F52 
 6600      454700
 6601              	.LASF185:
 6602 0835 64617461 		.ascii	"data\000"
 6602      00
 6603              	.LASF217:
 6604 083a 6E524632 		.ascii	"nRF24_read_bit\000"
 6604      345F7265 
 6604      61645F62 
 6604      697400
 6605              	.LASF10:
 6606 0849 75696E74 		.ascii	"uint8_t\000"
 6606      385F7400 
 6607              	.LASF63:
 6608 0851 4E52465F 		.ascii	"NRF_RX_DR_IRQ\000"
 6608      52585F44 
 6608      525F4952 
 6608      5100
 6609              	.LASF118:
 6610 085f 4E52465F 		.ascii	"NRF_STATUS_PIPES_SHIFT\000"
 6610      53544154 
 6610      55535F50 
 6610      49504553 
 6610      5F534849 
 6611              	.LASF103:
 6612 0876 4E52465F 		.ascii	"NRF_RPD_RPD\000"
 6612      5250445F 
 6612      52504400 
 6613              	.LASF116:
 6614 0882 4E52465F 		.ascii	"NRF_FEATURE_EN_ACK_PAY\000"
 6614      46454154 
 6614      5552455F 
 6614      454E5F41 
 6614      434B5F50 
 6615              	.LASF22:
 6616 0899 4E52465F 		.ascii	"NRF_RF_CH_REG\000"
 6616      52465F43 
 6616      485F5245 
 6616      4700
 6617              	.LASF29:
 6618 08a7 4E52465F 		.ascii	"NRF_RX_ADDR_P2_REG\000"
 6618      52585F41 
ARM GAS  C:\Users\Xwx47\AppData\Local\Temp\ccJ5AxKs.s 			page 142


 6618      4444525F 
 6618      50325F52 
 6618      454700
 6619              	.LASF6:
 6620 08ba 6C6F6E67 		.ascii	"long long int\000"
 6620      206C6F6E 
 6620      6720696E 
 6620      7400
 6621              	.LASF33:
 6622 08c8 4E52465F 		.ascii	"NRF_TX_ADDR_REG\000"
 6622      54585F41 
 6622      4444525F 
 6622      52454700 
 6623              	.LASF169:
 6624 08d8 6E524632 		.ascii	"nRF24_disable_payload_with_ack\000"
 6624      345F6469 
 6624      7361626C 
 6624      655F7061 
 6624      796C6F61 
 6625              	.LASF221:
 6626 08f7 6E524632 		.ascii	"nRF24_flush_tx_cmd\000"
 6626      345F666C 
 6626      7573685F 
 6626      74785F63 
 6626      6D6400
 6627              	.LASF212:
 6628 090a 6E524632 		.ascii	"nRF24_nop_cmd\000"
 6628      345F6E6F 
 6628      705F636D 
 6628      6400
 6629              	.LASF151:
 6630 0918 61646472 		.ascii	"addr_lsb\000"
 6630      5F6C7362 
 6630      00
 6631              	.LASF182:
 6632 0921 6E524632 		.ascii	"nRF24_get_lost_packets_count\000"
 6632      345F6765 
 6632      745F6C6F 
 6632      73745F70 
 6632      61636B65 
 6633              	.LASF37:
 6634 093e 4E52465F 		.ascii	"NRF_RX_PW_P3_REG\000"
 6634      52585F50 
 6634      575F5033 
 6634      5F524547 
 6634      00
 6635              	.LASF150:
 6636 094f 6E524632 		.ascii	"nRF24_set_rx_pipe_2_address\000"
 6636      345F7365 
 6636      745F7278 
 6636      5F706970 
 6636      655F325F 
 6637              	.LASF122:
 6638 096b 4E52465F 		.ascii	"NRF_POWER_UP_DELAY\000"
 6638      504F5745 
 6638      525F5550 
 6638      5F44454C 
ARM GAS  C:\Users\Xwx47\AppData\Local\Temp\ccJ5AxKs.s 			page 143


 6638      415900
 6639              	.LASF119:
 6640 097e 4E52465F 		.ascii	"NRF_MAX_ADDR_SIZE\000"
 6640      4D41585F 
 6640      41444452 
 6640      5F53495A 
 6640      4500
 6641              	.LASF34:
 6642 0990 4E52465F 		.ascii	"NRF_RX_PW_P0_REG\000"
 6642      52585F50 
 6642      575F5030 
 6642      5F524547 
 6642      00
 6643              	.LASF57:
 6644 09a1 4E52465F 		.ascii	"NRF_MODE_TX\000"
 6644      4D4F4445 
 6644      5F545800 
 6645              	.LASF146:
 6646 09ad 73697A65 		.ascii	"size\000"
 6646      00
 6647              	.LASF209:
 6648 09b2 43455F57 		.ascii	"CE_Write\000"
 6648      72697465 
 6648      00
 6649              	.LASF158:
 6650 09bb 6E524632 		.ascii	"nRF24_get_rx_pipe_5_address\000"
 6650      345F6765 
 6650      745F7278 
 6650      5F706970 
 6650      655F355F 
 6651              	.LASF78:
 6652 09d7 4E52465F 		.ascii	"NRF_EN_RXADDR_ERX_P0\000"
 6652      454E5F52 
 6652      58414444 
 6652      525F4552 
 6652      585F5030 
 6653              	.LASF79:
 6654 09ec 4E52465F 		.ascii	"NRF_EN_RXADDR_ERX_P1\000"
 6654      454E5F52 
 6654      58414444 
 6654      525F4552 
 6654      585F5031 
 6655              	.LASF80:
 6656 0a01 4E52465F 		.ascii	"NRF_EN_RXADDR_ERX_P2\000"
 6656      454E5F52 
 6656      58414444 
 6656      525F4552 
 6656      585F5032 
 6657              	.LASF81:
 6658 0a16 4E52465F 		.ascii	"NRF_EN_RXADDR_ERX_P3\000"
 6658      454E5F52 
 6658      58414444 
 6658      525F4552 
 6658      585F5033 
 6659              	.LASF82:
 6660 0a2b 4E52465F 		.ascii	"NRF_EN_RXADDR_ERX_P4\000"
 6660      454E5F52 
ARM GAS  C:\Users\Xwx47\AppData\Local\Temp\ccJ5AxKs.s 			page 144


 6660      58414444 
 6660      525F4552 
 6660      585F5034 
 6661              	.LASF83:
 6662 0a40 4E52465F 		.ascii	"NRF_EN_RXADDR_ERX_P5\000"
 6662      454E5F52 
 6662      58414444 
 6662      525F4552 
 6662      585F5035 
 6663              	.LASF117:
 6664 0a55 4E52465F 		.ascii	"NRF_FEATURE_EN_DPL\000"
 6664      46454154 
 6664      5552455F 
 6664      454E5F44 
 6664      504C00
 6665              	.LASF191:
 6666 0a68 6E524632 		.ascii	"nRF24_rx_write_payload\000"
 6666      345F7278 
 6666      5F777269 
 6666      74655F70 
 6666      61796C6F 
 6667              	.LASF115:
 6668 0a7f 4E52465F 		.ascii	"NRF_FEATURE_EN_DYN_ACK\000"
 6668      46454154 
 6668      5552455F 
 6668      454E5F44 
 6668      594E5F41 
 6669              	.LASF188:
 6670 0a96 5F426F6F 		.ascii	"_Bool\000"
 6670      6C00
 6671              	.LASF131:
 6672 0a9c 6E524632 		.ascii	"nRF24_restore_config\000"
 6672      345F7265 
 6672      73746F72 
 6672      655F636F 
 6672      6E666967 
 6673              	.LASF214:
 6674 0ab1 6E524632 		.ascii	"nRF24_read_rx_payload_cmd\000"
 6674      345F7265 
 6674      61645F72 
 6674      785F7061 
 6674      796C6F61 
 6675              	.LASF15:
 6676 0acb 6C6F6E67 		.ascii	"long double\000"
 6676      20646F75 
 6676      626C6500 
 6677              	.LASF160:
 6678 0ad7 6E524632 		.ascii	"nRF24_get_tx_address\000"
 6678      345F6765 
 6678      745F7478 
 6678      5F616464 
 6678      72657373 
 6679              	.LASF104:
 6680 0aec 4E52465F 		.ascii	"NRF_FIFO_STATUS_RX_EMPTY\000"
 6680      4649464F 
 6680      5F535441 
 6680      5455535F 
ARM GAS  C:\Users\Xwx47\AppData\Local\Temp\ccJ5AxKs.s 			page 145


 6680      52585F45 
 6681              	.LASF94:
 6682 0b05 4E52465F 		.ascii	"NRF_RF_SETUP_RF_DR_LOW\000"
 6682      52465F53 
 6682      45545550 
 6682      5F52465F 
 6682      44525F4C 
 6683              	.LASF141:
 6684 0b1c 6368616E 		.ascii	"channel\000"
 6684      6E656C00 
 6685              	.LASF101:
 6686 0b24 4E52465F 		.ascii	"NRF_OBSERVE_TX_ARC_CNT_MASK\000"
 6686      4F425345 
 6686      5256455F 
 6686      54585F41 
 6686      52435F43 
 6687              	.LASF140:
 6688 0b40 6E524632 		.ascii	"nRF24_set_channel\000"
 6688      345F7365 
 6688      745F6368 
 6688      616E6E65 
 6688      6C00
 6689              	.LASF213:
 6690 0b52 6E524632 		.ascii	"nRF24_write_tx_payload_cmd\000"
 6690      345F7772 
 6690      6974655F 
 6690      74785F70 
 6690      61796C6F 
 6691              	.LASF23:
 6692 0b6d 4E52465F 		.ascii	"NRF_RF_SETUP_REG\000"
 6692      52465F53 
 6692      45545550 
 6692      5F524547 
 6692      00
 6693              	.LASF105:
 6694 0b7e 4E52465F 		.ascii	"NRF_FIFO_STATUS_RX_FULL\000"
 6694      4649464F 
 6694      5F535441 
 6694      5455535F 
 6694      52585F46 
 6695              	.LASF127:
 6696 0b96 6E524632 		.ascii	"nRF24_stop\000"
 6696      345F7374 
 6696      6F7000
 6697              	.LASF2:
 6698 0ba1 73686F72 		.ascii	"short int\000"
 6698      7420696E 
 6698      7400
 6699              	.LASF91:
 6700 0bab 4E52465F 		.ascii	"NRF_RF_SETUP_RF_DR\000"
 6700      52465F53 
 6700      45545550 
 6700      5F52465F 
 6700      445200
 6701              	.LASF19:
 6702 0bbe 4E52465F 		.ascii	"NRF_EN_RXADDR_REG\000"
 6702      454E5F52 
ARM GAS  C:\Users\Xwx47\AppData\Local\Temp\ccJ5AxKs.s 			page 146


 6702      58414444 
 6702      525F5245 
 6702      4700
 6703              	.LASF193:
 6704 0bd0 6E524632 		.ascii	"nRF24_received_power_detector\000"
 6704      345F7265 
 6704      63656976 
 6704      65645F70 
 6704      6F776572 
 6705              	.LASF174:
 6706 0bee 6E524632 		.ascii	"nRF24_stop_listening\000"
 6706      345F7374 
 6706      6F705F6C 
 6706      69737465 
 6706      6E696E67 
 6707              	.LASF4:
 6708 0c03 6C6F6E67 		.ascii	"long int\000"
 6708      20696E74 
 6708      00
 6709              	.LASF62:
 6710 0c0c 4E52465F 		.ascii	"NRF_TX_DS_IRQ\000"
 6710      54585F44 
 6710      535F4952 
 6710      5100
 6711              	.LASF177:
 6712 0c1a 6E524632 		.ascii	"nRF24_transmit_pulse\000"
 6712      345F7472 
 6712      616E736D 
 6712      69745F70 
 6712      756C7365 
 6713              	.LASF189:
 6714 0c2f 6E524632 		.ascii	"nRF24_get_rx_payload\000"
 6714      345F6765 
 6714      745F7278 
 6714      5F706179 
 6714      6C6F6164 
 6715              	.LASF128:
 6716 0c44 6E524632 		.ascii	"nRF24_init\000"
 6716      345F696E 
 6716      697400
 6717              	.LASF152:
 6718 0c4f 6E524632 		.ascii	"nRF24_get_rx_pipe_2_address\000"
 6718      345F6765 
 6718      745F7278 
 6718      5F706970 
 6718      655F325F 
 6719              	.LASF25:
 6720 0c6b 4E52465F 		.ascii	"NRF_OBSERVE_TX_REG\000"
 6720      4F425345 
 6720      5256455F 
 6720      54585F52 
 6720      454700
 6721              	.LASF95:
 6722 0c7e 4E52465F 		.ascii	"NRF_RF_SETUP_CONT_WAVE\000"
 6722      52465F53 
 6722      45545550 
 6722      5F434F4E 
ARM GAS  C:\Users\Xwx47\AppData\Local\Temp\ccJ5AxKs.s 			page 147


 6722      545F5741 
 6723              	.LASF143:
 6724 0c95 61646472 		.ascii	"addr_width\000"
 6724      5F776964 
 6724      746800
 6725              	.LASF223:
 6726 0ca0 47656E65 		.ascii	"Generated_Source\\PSoC4\\nRF24_FUNCS.c\000"
 6726      72617465 
 6726      645F536F 
 6726      75726365 
 6726      5C50536F 
 6727              	.LASF9:
 6728 0cc5 5F5F7569 		.ascii	"__uint8_t\000"
 6728      6E74385F 
 6728      7400
 6729              	.LASF85:
 6730 0ccf 4E52465F 		.ascii	"NRF_SETUP_AW_4BYTES\000"
 6730      53455455 
 6730      505F4157 
 6730      5F344259 
 6730      54455300 
 6731              	.LASF26:
 6732 0ce3 4E52465F 		.ascii	"NRF_RPD_REG\000"
 6732      5250445F 
 6732      52454700 
 6733              	.LASF20:
 6734 0cef 4E52465F 		.ascii	"NRF_SETUP_AW_REG\000"
 6734      53455455 
 6734      505F4157 
 6734      5F524547 
 6734      00
 6735              	.LASF65:
 6736 0d00 4E52465F 		.ascii	"NRF_CONFIG_PRIM_RX\000"
 6736      434F4E46 
 6736      49475F50 
 6736      52494D5F 
 6736      525800
 6737              	.LASF136:
 6738 0d13 6E524632 		.ascii	"nRF24_enable_auto_ack\000"
 6738      345F656E 
 6738      61626C65 
 6738      5F617574 
 6738      6F5F6163 
 6739              	.LASF201:
 6740 0d29 6E524632 		.ascii	"nRF24_get_irq_flag\000"
 6740      345F6765 
 6740      745F6972 
 6740      715F666C 
 6740      616700
 6741              	.LASF168:
 6742 0d3c 6E524632 		.ascii	"nRF24_enable_payload_with_ack\000"
 6742      345F656E 
 6742      61626C65 
 6742      5F706179 
 6742      6C6F6164 
 6743              	.LASF16:
 6744 0d5a 73697A65 		.ascii	"sizetype\000"
ARM GAS  C:\Users\Xwx47\AppData\Local\Temp\ccJ5AxKs.s 			page 148


 6744      74797065 
 6744      00
 6745              	.LASF167:
 6746 0d63 6E524632 		.ascii	"nRF24_disable_dynamic_payload_length\000"
 6746      345F6469 
 6746      7361626C 
 6746      655F6479 
 6746      6E616D69 
 6747              	.LASF18:
 6748 0d88 4E52465F 		.ascii	"NRF_EN_AA_REG\000"
 6748      454E5F41 
 6748      415F5245 
 6748      4700
 6749              	.LASF5:
 6750 0d96 6C6F6E67 		.ascii	"long unsigned int\000"
 6750      20756E73 
 6750      69676E65 
 6750      6420696E 
 6750      7400
 6751              	.LASF148:
 6752 0da8 6E524632 		.ascii	"nRF24_set_rx_pipe_1_address\000"
 6752      345F7365 
 6752      745F7278 
 6752      5F706970 
 6752      655F315F 
 6753              	.LASF107:
 6754 0dc4 4E52465F 		.ascii	"NRF_FIFO_STATUS_TX_FULL\000"
 6754      4649464F 
 6754      5F535441 
 6754      5455535F 
 6754      54585F46 
 6755              	.LASF39:
 6756 0ddc 4E52465F 		.ascii	"NRF_RX_PW_P5_REG\000"
 6756      52585F50 
 6756      575F5035 
 6756      5F524547 
 6756      00
 6757              	.LASF90:
 6758 0ded 4E52465F 		.ascii	"NRF_RF_SETUP_RF_PWR\000"
 6758      52465F53 
 6758      45545550 
 6758      5F52465F 
 6758      50575200 
 6759              	.LASF153:
 6760 0e01 6E524632 		.ascii	"nRF24_set_rx_pipe_3_address\000"
 6760      345F7365 
 6760      745F7278 
 6760      5F706970 
 6760      655F335F 
 6761              	.LASF1:
 6762 0e1d 756E7369 		.ascii	"unsigned char\000"
 6762      676E6564 
 6762      20636861 
 6762      7200
 6763              	.LASF28:
 6764 0e2b 4E52465F 		.ascii	"NRF_RX_ADDR_P1_REG\000"
 6764      52585F41 
ARM GAS  C:\Users\Xwx47\AppData\Local\Temp\ccJ5AxKs.s 			page 149


 6764      4444525F 
 6764      50315F52 
 6764      454700
 6765              	.LASF55:
 6766 0e3e 4E52465F 		.ascii	"NRF_PIPE5_PAYLOAD_SIZE\000"
 6766      50495045 
 6766      355F5041 
 6766      594C4F41 
 6766      445F5349 
 6767              	.LASF36:
 6768 0e55 4E52465F 		.ascii	"NRF_RX_PW_P2_REG\000"
 6768      52585F50 
 6768      575F5032 
 6768      5F524547 
 6768      00
 6769              	.LASF175:
 6770 0e66 6E524632 		.ascii	"nRF24_set_standby_i_mode\000"
 6770      345F7365 
 6770      745F7374 
 6770      616E6462 
 6770      795F695F 
 6771              	.LASF145:
 6772 0e7f 61646472 		.ascii	"addr\000"
 6772      00
 6773              	.LASF173:
 6774 0e84 6E524632 		.ascii	"nRF24_set_standby_ii_mode\000"
 6774      345F7365 
 6774      745F7374 
 6774      616E6462 
 6774      795F6969 
 6775              	.LASF54:
 6776 0e9e 4E52465F 		.ascii	"NRF_PIPE4_PAYLOAD_SIZE\000"
 6776      50495045 
 6776      345F5041 
 6776      594C4F41 
 6776      445F5349 
 6777              	.LASF93:
 6778 0eb5 4E52465F 		.ascii	"NRF_RF_SETUP_PLL_LOCK\000"
 6778      52465F53 
 6778      45545550 
 6778      5F504C4C 
 6778      5F4C4F43 
 6779              	.LASF51:
 6780 0ecb 4E52465F 		.ascii	"NRF_PIPE1_PAYLOAD_SIZE\000"
 6780      50495045 
 6780      315F5041 
 6780      594C4F41 
 6780      445F5349 
 6781              	.LASF142:
 6782 0ee2 6E524632 		.ascii	"nRF24_set_address_width\000"
 6782      345F7365 
 6782      745F6164 
 6782      64726573 
 6782      735F7769 
 6783              	.LASF195:
 6784 0efa 6E524632 		.ascii	"nRF24_is_rx_fifo_empty\000"
 6784      345F6973 
ARM GAS  C:\Users\Xwx47\AppData\Local\Temp\ccJ5AxKs.s 			page 150


 6784      5F72785F 
 6784      6669666F 
 6784      5F656D70 
 6785              	.LASF0:
 6786 0f11 7369676E 		.ascii	"signed char\000"
 6786      65642063 
 6786      68617200 
 6787              	.LASF3:
 6788 0f1d 73686F72 		.ascii	"short unsigned int\000"
 6788      7420756E 
 6788      7369676E 
 6788      65642069 
 6788      6E7400
 6789              	.LASF53:
 6790 0f30 4E52465F 		.ascii	"NRF_PIPE3_PAYLOAD_SIZE\000"
 6790      50495045 
 6790      335F5041 
 6790      594C4F41 
 6790      445F5349 
 6791              	.LASF208:
 6792 0f47 6E524632 		.ascii	"nRF24_read_long_register\000"
 6792      345F7265 
 6792      61645F6C 
 6792      6F6E675F 
 6792      72656769 
 6793              	.LASF50:
 6794 0f60 4E52465F 		.ascii	"NRF_PIPE0_PAYLOAD_SIZE\000"
 6794      50495045 
 6794      305F5041 
 6794      594C4F41 
 6794      445F5349 
 6795              	.LASF183:
 6796 0f77 6C6F7374 		.ascii	"lostPackets\000"
 6796      5061636B 
 6796      65747300 
 6797              	.LASF120:
 6798 0f83 4E52465F 		.ascii	"NRF_CE_PULSE_WIDTH\000"
 6798      43455F50 
 6798      554C5345 
 6798      5F574944 
 6798      544800
 6799              	.LASF194:
 6800 0f96 6E524632 		.ascii	"nRF24_is_tx_fifo_full\000"
 6800      345F6973 
 6800      5F74785F 
 6800      6669666F 
 6800      5F66756C 
 6801              	.LASF68:
 6802 0fac 4E52465F 		.ascii	"NRF_CONFIG_EN_CRC\000"
 6802      434F4E46 
 6802      49475F45 
 6802      4E5F4352 
 6802      4300
 6803              	.LASF12:
 6804 0fbe 646F7562 		.ascii	"double\000"
 6804      6C6500
 6805              	.LASF73:
ARM GAS  C:\Users\Xwx47\AppData\Local\Temp\ccJ5AxKs.s 			page 151


 6806 0fc5 4E52465F 		.ascii	"NRF_EN_AA_ENAA_P1\000"
 6806      454E5F41 
 6806      415F454E 
 6806      41415F50 
 6806      3100
 6807              	.LASF74:
 6808 0fd7 4E52465F 		.ascii	"NRF_EN_AA_ENAA_P2\000"
 6808      454E5F41 
 6808      415F454E 
 6808      41415F50 
 6808      3200
 6809              	.LASF75:
 6810 0fe9 4E52465F 		.ascii	"NRF_EN_AA_ENAA_P3\000"
 6810      454E5F41 
 6810      415F454E 
 6810      41415F50 
 6810      3300
 6811              	.LASF76:
 6812 0ffb 4E52465F 		.ascii	"NRF_EN_AA_ENAA_P4\000"
 6812      454E5F41 
 6812      415F454E 
 6812      41415F50 
 6812      3400
 6813              	.LASF77:
 6814 100d 4E52465F 		.ascii	"NRF_EN_AA_ENAA_P5\000"
 6814      454E5F41 
 6814      415F454E 
 6814      41415F50 
 6814      3500
 6815              	.LASF190:
 6816 101f 6E524632 		.ascii	"nRF24_tx_transmit_wait_no_ack\000"
 6816      345F7478 
 6816      5F747261 
 6816      6E736D69 
 6816      745F7761 
 6817              	.LASF162:
 6818 103d 6E524632 		.ascii	"nRF24_get_address_width\000"
 6818      345F6765 
 6818      745F6164 
 6818      64726573 
 6818      735F7769 
 6819              	.LASF52:
 6820 1055 4E52465F 		.ascii	"NRF_PIPE2_PAYLOAD_SIZE\000"
 6820      50495045 
 6820      325F5041 
 6820      594C4F41 
 6820      445F5349 
 6821              	.LASF17:
 6822 106c 4E52465F 		.ascii	"NRF_CONFIG_REG\000"
 6822      434F4E46 
 6822      49475F52 
 6822      454700
 6823              	.LASF144:
 6824 107b 6E524632 		.ascii	"nRF24_set_rx_pipe_0_address\000"
 6824      345F7365 
 6824      745F7278 
 6824      5F706970 
ARM GAS  C:\Users\Xwx47\AppData\Local\Temp\ccJ5AxKs.s 			page 152


 6824      655F305F 
 6825              	.LASF108:
 6826 1097 4E52465F 		.ascii	"NRF_FIFO_STATUS_TX_REUSE\000"
 6826      4649464F 
 6826      5F535441 
 6826      5455535F 
 6826      54585F52 
 6827              	.LASF56:
 6828 10b0 6E72665F 		.ascii	"nrf_pipe_payload_size\000"
 6828      70697065 
 6828      5F706179 
 6828      6C6F6164 
 6828      5F73697A 
 6829              	.LASF100:
 6830 10c6 4E52465F 		.ascii	"NRF_OBSERVE_TX_PLOS_CNT\000"
 6830      4F425345 
 6830      5256455F 
 6830      54585F50 
 6830      4C4F535F 
 6831              	.LASF67:
 6832 10de 4E52465F 		.ascii	"NRF_CONFIG_CRCO\000"
 6832      434F4E46 
 6832      49475F43 
 6832      52434F00 
 6833              	.LASF165:
 6834 10ee 6E524632 		.ascii	"nRF24_disable_dynamic_payload\000"
 6834      345F6469 
 6834      7361626C 
 6834      655F6479 
 6834      6E616D69 
 6835              	.LASF170:
 6836 110c 6E524632 		.ascii	"nRF24_enable_payload_with_no_ack_cmd\000"
 6836      345F656E 
 6836      61626C65 
 6836      5F706179 
 6836      6C6F6164 
 6837              	.LASF206:
 6838 1131 6E524632 		.ascii	"nRF24_read_register\000"
 6838      345F7265 
 6838      61645F72 
 6838      65676973 
 6838      74657200 
 6839              	.LASF154:
 6840 1145 6E524632 		.ascii	"nRF24_get_rx_pipe_3_address\000"
 6840      345F6765 
 6840      745F7278 
 6840      5F706970 
 6840      655F335F 
 6841              	.LASF109:
 6842 1161 4E52465F 		.ascii	"NRF_DYNPD_DPL_P0\000"
 6842      44594E50 
 6842      445F4450 
 6842      4C5F5030 
 6842      00
 6843              	.LASF110:
 6844 1172 4E52465F 		.ascii	"NRF_DYNPD_DPL_P1\000"
 6844      44594E50 
ARM GAS  C:\Users\Xwx47\AppData\Local\Temp\ccJ5AxKs.s 			page 153


 6844      445F4450 
 6844      4C5F5031 
 6844      00
 6845              		.ident	"GCC: (GNU Tools for ARM Embedded Processors) 5.4.1 20160609 (release) [ARM/embedded-5-bran
