ARM GAS  C:\Users\Xwx47\AppData\Local\Temp\ccj7Qs1R.s 			page 1


   1              		.syntax unified
   2              		.cpu cortex-m0plus
   3              		.fpu softvfp
   4              		.eabi_attribute 20, 1
   5              		.eabi_attribute 21, 1
   6              		.eabi_attribute 23, 3
   7              		.eabi_attribute 24, 1
   8              		.eabi_attribute 25, 1
   9              		.eabi_attribute 26, 1
  10              		.eabi_attribute 30, 1
  11              		.eabi_attribute 34, 0
  12              		.eabi_attribute 18, 4
  13              		.thumb
  14              		.syntax unified
  15              		.file	"nRF24_FUNCS.c"
  16              		.text
  17              	.Ltext0:
  18              		.cfi_sections	.debug_frame
  19              		.section	.text._addr_width_conf_to_bytes,"ax",%progbits
  20              		.align	2
  21              		.code	16
  22              		.thumb_func
  23              		.type	_addr_width_conf_to_bytes, %function
  24              	_addr_width_conf_to_bytes:
  25              	.LFB1:
  26              		.file 1 "Generated_Source\\PSoC4\\nRF24_FUNCS.c"
   1:Generated_Source\PSoC4/nRF24_FUNCS.c **** /****************************************************************************
   2:Generated_Source\PSoC4/nRF24_FUNCS.c **** * This file is part of the nRF24 Custom Component for PSoC Devices.
   3:Generated_Source\PSoC4/nRF24_FUNCS.c **** *
   4:Generated_Source\PSoC4/nRF24_FUNCS.c **** * Copyright (C) 2017 Carlos Diaz <carlos.santiago.diaz@gmail.com>
   5:Generated_Source\PSoC4/nRF24_FUNCS.c **** *
   6:Generated_Source\PSoC4/nRF24_FUNCS.c **** * Permission to use, copy, modify, and/or distribute this software for any
   7:Generated_Source\PSoC4/nRF24_FUNCS.c **** * purpose with or without fee is hereby granted, provided that the above
   8:Generated_Source\PSoC4/nRF24_FUNCS.c **** * copyright notice and this permission notice appear in all copies.
   9:Generated_Source\PSoC4/nRF24_FUNCS.c **** *
  10:Generated_Source\PSoC4/nRF24_FUNCS.c **** * THE SOFTWARE IS PROVIDED "AS IS" AND THE AUTHOR DISCLAIMS ALL WARRANTIES
  11:Generated_Source\PSoC4/nRF24_FUNCS.c **** * WITH REGARD TO THIS SOFTWARE INCLUDING ALL IMPLIED WARRANTIES OF
  12:Generated_Source\PSoC4/nRF24_FUNCS.c **** * MERCHANTABILITY AND FITNESS. IN NO EVENT SHALL THE AUTHOR BE LIABLE FOR
  13:Generated_Source\PSoC4/nRF24_FUNCS.c **** * ANY SPECIAL, DIRECT, INDIRECT, OR CONSEQUENTIAL DAMAGES OR ANY DAMAGES
  14:Generated_Source\PSoC4/nRF24_FUNCS.c **** * WHATSOEVER RESULTING FROM LOSS OF USE, DATA OR PROFITS, WHETHER IN AN
  15:Generated_Source\PSoC4/nRF24_FUNCS.c **** * ACTION OF CONTRACT, NEGLIGENCE OR OTHER TORTIOUS ACTION, ARISING OUT OF
  16:Generated_Source\PSoC4/nRF24_FUNCS.c **** * OR IN CONNECTION WITH THE USE OR PERFORMANCE OF THIS SOFTWARE.
  17:Generated_Source\PSoC4/nRF24_FUNCS.c **** ****************************************************************************/
  18:Generated_Source\PSoC4/nRF24_FUNCS.c **** 
  19:Generated_Source\PSoC4/nRF24_FUNCS.c **** /**
  20:Generated_Source\PSoC4/nRF24_FUNCS.c **** * @file nRF24_NRF_FUNCS.c
  21:Generated_Source\PSoC4/nRF24_FUNCS.c **** *
  22:Generated_Source\PSoC4/nRF24_FUNCS.c **** * @brief This file define all the functions available to the user.
  23:Generated_Source\PSoC4/nRF24_FUNCS.c **** */
  24:Generated_Source\PSoC4/nRF24_FUNCS.c **** 
  25:Generated_Source\PSoC4/nRF24_FUNCS.c **** #include "nRF24_CONFIG.h"
  26:Generated_Source\PSoC4/nRF24_FUNCS.c **** #include "nRF24_HAL.h"
  27:Generated_Source\PSoC4/nRF24_FUNCS.c **** #include "nRF24_COMMANDS.h"
  28:Generated_Source\PSoC4/nRF24_FUNCS.c **** #include "nRF24_FUNCS.h"
  29:Generated_Source\PSoC4/nRF24_FUNCS.c **** #include "nRF24_DEFS.h"
  30:Generated_Source\PSoC4/nRF24_FUNCS.c **** 
  31:Generated_Source\PSoC4/nRF24_FUNCS.c **** /* "Helper" global variables */
ARM GAS  C:\Users\Xwx47\AppData\Local\Temp\ccj7Qs1R.s 			page 2


  32:Generated_Source\PSoC4/nRF24_FUNCS.c **** /* _nrf_addr_width expresed in bytes, declared with the default value */
  33:Generated_Source\PSoC4/nRF24_FUNCS.c **** static nrf_pipe_addr_width _nrf_addr_width = NRF_PIPE_ADDR_WIDTH_5BYTES;
  34:Generated_Source\PSoC4/nRF24_FUNCS.c **** 
  35:Generated_Source\PSoC4/nRF24_FUNCS.c **** static void
  36:Generated_Source\PSoC4/nRF24_FUNCS.c **** _addr_width_conf_to_bytes(nrf_addr_width addr_width)
  37:Generated_Source\PSoC4/nRF24_FUNCS.c **** {
  27              		.loc 1 37 0
  28              		.cfi_startproc
  29              		@ args = 0, pretend = 0, frame = 0
  30              		@ frame_needed = 0, uses_anonymous_args = 0
  31              		@ link register save eliminated.
  32              	.LVL0:
  38:Generated_Source\PSoC4/nRF24_FUNCS.c ****     switch(addr_width)
  33              		.loc 1 38 0
  34 0000 0228     		cmp	r0, #2
  35 0002 07D0     		beq	.L3
  36 0004 0328     		cmp	r0, #3
  37 0006 09D0     		beq	.L4
  38 0008 0128     		cmp	r0, #1
  39 000a 0AD1     		bne	.L1
  39:Generated_Source\PSoC4/nRF24_FUNCS.c ****     {
  40:Generated_Source\PSoC4/nRF24_FUNCS.c ****     case NRF_SETUP_AW_3BYTES:
  41:Generated_Source\PSoC4/nRF24_FUNCS.c ****         _nrf_addr_width = NRF_PIPE_ADDR_WIDTH_3BYTES;
  40              		.loc 1 41 0
  41 000c 0322     		movs	r2, #3
  42 000e 054B     		ldr	r3, .L6
  43 0010 1A70     		strb	r2, [r3]
  42:Generated_Source\PSoC4/nRF24_FUNCS.c ****         break;
  44              		.loc 1 42 0
  45 0012 06E0     		b	.L1
  46              	.L3:
  43:Generated_Source\PSoC4/nRF24_FUNCS.c ****     case NRF_SETUP_AW_4BYTES:
  44:Generated_Source\PSoC4/nRF24_FUNCS.c ****         _nrf_addr_width = NRF_PIPE_ADDR_WIDTH_4BYTES;
  47              		.loc 1 44 0
  48 0014 0422     		movs	r2, #4
  49 0016 034B     		ldr	r3, .L6
  50 0018 1A70     		strb	r2, [r3]
  45:Generated_Source\PSoC4/nRF24_FUNCS.c ****         break;
  51              		.loc 1 45 0
  52 001a 02E0     		b	.L1
  53              	.L4:
  46:Generated_Source\PSoC4/nRF24_FUNCS.c ****     case NRF_SETUP_AW_5BYTES:
  47:Generated_Source\PSoC4/nRF24_FUNCS.c ****         _nrf_addr_width = NRF_PIPE_ADDR_WIDTH_5BYTES;
  54              		.loc 1 47 0
  55 001c 0522     		movs	r2, #5
  56 001e 014B     		ldr	r3, .L6
  57 0020 1A70     		strb	r2, [r3]
  58              	.L1:
  48:Generated_Source\PSoC4/nRF24_FUNCS.c ****         break;
  49:Generated_Source\PSoC4/nRF24_FUNCS.c ****     }
  50:Generated_Source\PSoC4/nRF24_FUNCS.c **** }
  59              		.loc 1 50 0
  60              		@ sp needed
  61 0022 7047     		bx	lr
  62              	.L7:
  63              		.align	2
  64              	.L6:
ARM GAS  C:\Users\Xwx47\AppData\Local\Temp\ccj7Qs1R.s 			page 3


  65 0024 00000000 		.word	.LANCHOR0
  66              		.cfi_endproc
  67              	.LFE1:
  68              		.size	_addr_width_conf_to_bytes, .-_addr_width_conf_to_bytes
  69              		.section	.text.nRF24_init,"ax",%progbits
  70              		.align	2
  71              		.global	nRF24_init
  72              		.code	16
  73              		.thumb_func
  74              		.type	nRF24_init, %function
  75              	nRF24_init:
  76              	.LFB3:
  51:Generated_Source\PSoC4/nRF24_FUNCS.c **** 
  52:Generated_Source\PSoC4/nRF24_FUNCS.c **** /**
  53:Generated_Source\PSoC4/nRF24_FUNCS.c ****  * @brief Configure the radio and clear IRQs, TX and RX FIFOs.
  54:Generated_Source\PSoC4/nRF24_FUNCS.c ****  */
  55:Generated_Source\PSoC4/nRF24_FUNCS.c **** void nRF24_start(void)
  56:Generated_Source\PSoC4/nRF24_FUNCS.c **** {
  57:Generated_Source\PSoC4/nRF24_FUNCS.c ****     // Recommended delay before start using the nRF24
  58:Generated_Source\PSoC4/nRF24_FUNCS.c ****     CyDelay(NRF_POWER_UP_DELAY_MS);
  59:Generated_Source\PSoC4/nRF24_FUNCS.c **** 
  60:Generated_Source\PSoC4/nRF24_FUNCS.c ****     // Now the radio is in Power Down mode
  61:Generated_Source\PSoC4/nRF24_FUNCS.c **** 
  62:Generated_Source\PSoC4/nRF24_FUNCS.c ****     // Start the SPI and set CE and SS to a known value
  63:Generated_Source\PSoC4/nRF24_FUNCS.c **** #if defined (_PSOC6)
  64:Generated_Source\PSoC4/nRF24_FUNCS.c ****     /* We are using the low level driver, so pass NULL to the context */
  65:Generated_Source\PSoC4/nRF24_FUNCS.c ****     (void) Cy_SCB_SPI_Init(SPI_HW, &SPI_config, NULL);
  66:Generated_Source\PSoC4/nRF24_FUNCS.c ****     Cy_SCB_SPI_Enable(SPI_HW);
  67:Generated_Source\PSoC4/nRF24_FUNCS.c ****     Cy_GPIO_Clr(CE_PORT, CE_NUM);
  68:Generated_Source\PSoC4/nRF24_FUNCS.c ****     Cy_GPIO_Set(SS_PORT, SS_NUM);
  69:Generated_Source\PSoC4/nRF24_FUNCS.c **** #else // PSoC 4 and 5LP
  70:Generated_Source\PSoC4/nRF24_FUNCS.c ****     SPI_Start();
  71:Generated_Source\PSoC4/nRF24_FUNCS.c ****     CE_Write(0);
  72:Generated_Source\PSoC4/nRF24_FUNCS.c ****     SS_Write(1);
  73:Generated_Source\PSoC4/nRF24_FUNCS.c **** #endif
  74:Generated_Source\PSoC4/nRF24_FUNCS.c **** 
  75:Generated_Source\PSoC4/nRF24_FUNCS.c ****     // Flush both nRF24 FIFOs
  76:Generated_Source\PSoC4/nRF24_FUNCS.c ****     nRF24_flush_rx_cmd();
  77:Generated_Source\PSoC4/nRF24_FUNCS.c ****     nRF24_flush_tx_cmd();
  78:Generated_Source\PSoC4/nRF24_FUNCS.c ****     // Clear IRQ flags
  79:Generated_Source\PSoC4/nRF24_FUNCS.c ****     nRF24_clear_all_irqs();
  80:Generated_Source\PSoC4/nRF24_FUNCS.c **** 
  81:Generated_Source\PSoC4/nRF24_FUNCS.c ****     // Configure the nRF24 with the data from the customizer
  82:Generated_Source\PSoC4/nRF24_FUNCS.c ****     nRF24_init();
  83:Generated_Source\PSoC4/nRF24_FUNCS.c **** 
  84:Generated_Source\PSoC4/nRF24_FUNCS.c ****     // After PWR_UP = 1 the radio is in Standby-I mode, 130us of delay for settling
  85:Generated_Source\PSoC4/nRF24_FUNCS.c ****     CyDelayUs(150);
  86:Generated_Source\PSoC4/nRF24_FUNCS.c **** }
  87:Generated_Source\PSoC4/nRF24_FUNCS.c **** 
  88:Generated_Source\PSoC4/nRF24_FUNCS.c **** /**
  89:Generated_Source\PSoC4/nRF24_FUNCS.c ****  * Configure the nRF radio with the data from the customizer.
  90:Generated_Source\PSoC4/nRF24_FUNCS.c ****  */
  91:Generated_Source\PSoC4/nRF24_FUNCS.c **** void nRF24_init(void)
  92:Generated_Source\PSoC4/nRF24_FUNCS.c **** {
  77              		.loc 1 92 0
  78              		.cfi_startproc
  79              		@ args = 0, pretend = 0, frame = 0
ARM GAS  C:\Users\Xwx47\AppData\Local\Temp\ccj7Qs1R.s 			page 4


  80              		@ frame_needed = 0, uses_anonymous_args = 0
  81 0000 10B5     		push	{r4, lr}
  82              		.cfi_def_cfa_offset 8
  83              		.cfi_offset 4, -8
  84              		.cfi_offset 14, -4
  93:Generated_Source\PSoC4/nRF24_FUNCS.c ****     nRF24_write_register(NRF_REG_EN_AA, CUSTOMIZER_EN_AA);
  85              		.loc 1 93 0
  86 0002 3F21     		movs	r1, #63
  87 0004 0120     		movs	r0, #1
  88 0006 FFF7FEFF 		bl	nRF24_write_register
  89              	.LVL1:
  94:Generated_Source\PSoC4/nRF24_FUNCS.c ****     nRF24_write_register(NRF_REG_EN_RXADDR, CUSTOMIZER_EN_RXADDR);
  90              		.loc 1 94 0
  91 000a 0321     		movs	r1, #3
  92 000c 0220     		movs	r0, #2
  93 000e FFF7FEFF 		bl	nRF24_write_register
  94              	.LVL2:
  95:Generated_Source\PSoC4/nRF24_FUNCS.c ****     nRF24_write_register(NRF_REG_SETUP_AW, CUSTOMIZER_SETUP_AW);
  95              		.loc 1 95 0
  96 0012 0321     		movs	r1, #3
  97 0014 0320     		movs	r0, #3
  98 0016 FFF7FEFF 		bl	nRF24_write_register
  99              	.LVL3:
  96:Generated_Source\PSoC4/nRF24_FUNCS.c ****     nRF24_write_register(NRF_REG_SETUP_RETR, CUSTOMIZER_SETUP_RETR);
 100              		.loc 1 96 0
 101 001a 0321     		movs	r1, #3
 102 001c 0420     		movs	r0, #4
 103 001e FFF7FEFF 		bl	nRF24_write_register
 104              	.LVL4:
  97:Generated_Source\PSoC4/nRF24_FUNCS.c ****     nRF24_write_register(NRF_REG_RF_CH, CUSTOMIZER_RF_CH);
 105              		.loc 1 97 0
 106 0022 0221     		movs	r1, #2
 107 0024 0520     		movs	r0, #5
 108 0026 FFF7FEFF 		bl	nRF24_write_register
 109              	.LVL5:
  98:Generated_Source\PSoC4/nRF24_FUNCS.c ****     nRF24_write_register(NRF_REG_RF_SETUP, CUSTOMIZER_RF_SETUP);
 110              		.loc 1 98 0
 111 002a 2621     		movs	r1, #38
 112 002c 0620     		movs	r0, #6
 113 002e FFF7FEFF 		bl	nRF24_write_register
 114              	.LVL6:
  99:Generated_Source\PSoC4/nRF24_FUNCS.c ****     nRF24_write_register(NRF_REG_DYNPD, CUSTOMIZER_DYNPD);
 115              		.loc 1 99 0
 116 0032 0021     		movs	r1, #0
 117 0034 1C20     		movs	r0, #28
 118 0036 FFF7FEFF 		bl	nRF24_write_register
 119              	.LVL7:
 100:Generated_Source\PSoC4/nRF24_FUNCS.c ****     nRF24_write_register(NRF_REG_FEATURE, CUSTOMIZER_FEATURE);
 120              		.loc 1 100 0
 121 003a 0021     		movs	r1, #0
 122 003c 1D20     		movs	r0, #29
 123 003e FFF7FEFF 		bl	nRF24_write_register
 124              	.LVL8:
 101:Generated_Source\PSoC4/nRF24_FUNCS.c **** 
 102:Generated_Source\PSoC4/nRF24_FUNCS.c **** // Configuring data pipes
 103:Generated_Source\PSoC4/nRF24_FUNCS.c **** #if (ENABLE_PIPE0 == 1)
 104:Generated_Source\PSoC4/nRF24_FUNCS.c ****     nRF24_write_register(NRF_REG_RX_PW_P0, CUSTOMIZER_RX_PW_P0);
ARM GAS  C:\Users\Xwx47\AppData\Local\Temp\ccj7Qs1R.s 			page 5


 125              		.loc 1 104 0
 126 0042 0021     		movs	r1, #0
 127 0044 1120     		movs	r0, #17
 128 0046 FFF7FEFF 		bl	nRF24_write_register
 129              	.LVL9:
 105:Generated_Source\PSoC4/nRF24_FUNCS.c **** #endif
 106:Generated_Source\PSoC4/nRF24_FUNCS.c **** #if (ENABLE_PIPE1 == 1)
 107:Generated_Source\PSoC4/nRF24_FUNCS.c ****     nRF24_write_register(NRF_REG_RX_PW_P1, CUSTOMIZER_RX_PW_P1);
 130              		.loc 1 107 0
 131 004a 0021     		movs	r1, #0
 132 004c 1220     		movs	r0, #18
 133 004e FFF7FEFF 		bl	nRF24_write_register
 134              	.LVL10:
 108:Generated_Source\PSoC4/nRF24_FUNCS.c **** #endif
 109:Generated_Source\PSoC4/nRF24_FUNCS.c **** #if (ENABLE_PIPE2 == 1)
 110:Generated_Source\PSoC4/nRF24_FUNCS.c ****     nRF24_write_register(NRF_REG_RX_ADDR_P2, CUSTOMIZER_RX_ADDR_P2);
 111:Generated_Source\PSoC4/nRF24_FUNCS.c ****     nRF24_write_register(NRF_REG_RX_PW_P2, CUSTOMIZER_RX_PW_P2);
 112:Generated_Source\PSoC4/nRF24_FUNCS.c **** #endif
 113:Generated_Source\PSoC4/nRF24_FUNCS.c **** #if (ENABLE_PIPE3 == 1)
 114:Generated_Source\PSoC4/nRF24_FUNCS.c ****     nRF24_write_register(NRF_REG_RX_ADDR_P3, CUSTOMIZER_RX_ADDR_P3);
 115:Generated_Source\PSoC4/nRF24_FUNCS.c ****     nRF24_write_register(NRF_REG_RX_PW_P3, CUSTOMIZER_RX_PW_P3);
 116:Generated_Source\PSoC4/nRF24_FUNCS.c **** #endif
 117:Generated_Source\PSoC4/nRF24_FUNCS.c **** #if (ENABLE_PIPE4 == 1)
 118:Generated_Source\PSoC4/nRF24_FUNCS.c ****     nRF24_write_register(NRF_REG_RX_ADDR_P4, CUSTOMIZER_RX_ADDR_P4);
 119:Generated_Source\PSoC4/nRF24_FUNCS.c ****     nRF24_write_register(NRF_REG_RX_PW_P4, CUSTOMIZER_RX_PW_P4);
 120:Generated_Source\PSoC4/nRF24_FUNCS.c **** #endif
 121:Generated_Source\PSoC4/nRF24_FUNCS.c **** #if (ENABLE_PIPE5 == 1)
 122:Generated_Source\PSoC4/nRF24_FUNCS.c ****     nRF24_write_register(NRF_REG_RX_ADDR_P5, CUSTOMIZER_RX_ADDR_P5);
 123:Generated_Source\PSoC4/nRF24_FUNCS.c ****     nRF24_write_register(NRF_REG_RX_PW_P5, CUSTOMIZER_RX_PW_P5);
 124:Generated_Source\PSoC4/nRF24_FUNCS.c **** #endif
 125:Generated_Source\PSoC4/nRF24_FUNCS.c **** 
 126:Generated_Source\PSoC4/nRF24_FUNCS.c ****     nRF24_write_register(NRF_REG_CONFIG, CUSTOMIZER_CONFIG);
 135              		.loc 1 126 0
 136 0052 0B21     		movs	r1, #11
 137 0054 0020     		movs	r0, #0
 138 0056 FFF7FEFF 		bl	nRF24_write_register
 139              	.LVL11:
 127:Generated_Source\PSoC4/nRF24_FUNCS.c **** 
 128:Generated_Source\PSoC4/nRF24_FUNCS.c ****     // Set the _nrf_addr_width variable
 129:Generated_Source\PSoC4/nRF24_FUNCS.c ****     _addr_width_conf_to_bytes(CUSTOMIZER_SETUP_AW);
 140              		.loc 1 129 0
 141 005a 0320     		movs	r0, #3
 142 005c FFF7FEFF 		bl	_addr_width_conf_to_bytes
 143              	.LVL12:
 130:Generated_Source\PSoC4/nRF24_FUNCS.c **** }
 144              		.loc 1 130 0
 145              		@ sp needed
 146 0060 10BD     		pop	{r4, pc}
 147              		.cfi_endproc
 148              	.LFE3:
 149              		.size	nRF24_init, .-nRF24_init
 150 0062 C046     		.section	.text.nRF24_enable,"ax",%progbits
 151              		.align	2
 152              		.global	nRF24_enable
 153              		.code	16
 154              		.thumb_func
 155              		.type	nRF24_enable, %function
ARM GAS  C:\Users\Xwx47\AppData\Local\Temp\ccj7Qs1R.s 			page 6


 156              	nRF24_enable:
 157              	.LFB4:
 131:Generated_Source\PSoC4/nRF24_FUNCS.c **** 
 132:Generated_Source\PSoC4/nRF24_FUNCS.c **** /**
 133:Generated_Source\PSoC4/nRF24_FUNCS.c ****  * Enable the nRF24 radio.
 134:Generated_Source\PSoC4/nRF24_FUNCS.c ****  *
 135:Generated_Source\PSoC4/nRF24_FUNCS.c ****  * @todo Implement this function
 136:Generated_Source\PSoC4/nRF24_FUNCS.c ****  */
 137:Generated_Source\PSoC4/nRF24_FUNCS.c **** void nRF24_enable(void)
 138:Generated_Source\PSoC4/nRF24_FUNCS.c **** {
 158              		.loc 1 138 0
 159              		.cfi_startproc
 160              		@ args = 0, pretend = 0, frame = 0
 161              		@ frame_needed = 0, uses_anonymous_args = 0
 162              		@ link register save eliminated.
 139:Generated_Source\PSoC4/nRF24_FUNCS.c **** }
 163              		.loc 1 139 0
 164              		@ sp needed
 165 0000 7047     		bx	lr
 166              		.cfi_endproc
 167              	.LFE4:
 168              		.size	nRF24_enable, .-nRF24_enable
 169 0002 C046     		.section	.text.nRF24_stop,"ax",%progbits
 170              		.align	2
 171              		.global	nRF24_stop
 172              		.code	16
 173              		.thumb_func
 174              		.type	nRF24_stop, %function
 175              	nRF24_stop:
 176              	.LFB5:
 140:Generated_Source\PSoC4/nRF24_FUNCS.c **** 
 141:Generated_Source\PSoC4/nRF24_FUNCS.c **** /**
 142:Generated_Source\PSoC4/nRF24_FUNCS.c ****  * Stop the nRF24 radio.
 143:Generated_Source\PSoC4/nRF24_FUNCS.c ****  *
 144:Generated_Source\PSoC4/nRF24_FUNCS.c ****  * @todo Implement this function
 145:Generated_Source\PSoC4/nRF24_FUNCS.c ****  */
 146:Generated_Source\PSoC4/nRF24_FUNCS.c **** void nRF24_stop(void)
 147:Generated_Source\PSoC4/nRF24_FUNCS.c **** {
 177              		.loc 1 147 0
 178              		.cfi_startproc
 179              		@ args = 0, pretend = 0, frame = 0
 180              		@ frame_needed = 0, uses_anonymous_args = 0
 181              		@ link register save eliminated.
 148:Generated_Source\PSoC4/nRF24_FUNCS.c **** }
 182              		.loc 1 148 0
 183              		@ sp needed
 184 0000 7047     		bx	lr
 185              		.cfi_endproc
 186              	.LFE5:
 187              		.size	nRF24_stop, .-nRF24_stop
 188 0002 C046     		.section	.text.nRF24_wakeup,"ax",%progbits
 189              		.align	2
 190              		.global	nRF24_wakeup
 191              		.code	16
 192              		.thumb_func
 193              		.type	nRF24_wakeup, %function
 194              	nRF24_wakeup:
ARM GAS  C:\Users\Xwx47\AppData\Local\Temp\ccj7Qs1R.s 			page 7


 195              	.LFB7:
 149:Generated_Source\PSoC4/nRF24_FUNCS.c **** 
 150:Generated_Source\PSoC4/nRF24_FUNCS.c **** /**
 151:Generated_Source\PSoC4/nRF24_FUNCS.c ****  * Put the nRF24 radio on Standby-I mode.
 152:Generated_Source\PSoC4/nRF24_FUNCS.c ****  * This function doesn't put the SPI, MCU nor pins to sleep
 153:Generated_Source\PSoC4/nRF24_FUNCS.c ****  */
 154:Generated_Source\PSoC4/nRF24_FUNCS.c **** void nRF24_sleep(void)
 155:Generated_Source\PSoC4/nRF24_FUNCS.c **** {
 156:Generated_Source\PSoC4/nRF24_FUNCS.c ****     // is standby.I the lowest power mode?
 157:Generated_Source\PSoC4/nRF24_FUNCS.c ****     nRF24_set_standby_i_mode();
 158:Generated_Source\PSoC4/nRF24_FUNCS.c **** }
 159:Generated_Source\PSoC4/nRF24_FUNCS.c **** 
 160:Generated_Source\PSoC4/nRF24_FUNCS.c **** /**
 161:Generated_Source\PSoC4/nRF24_FUNCS.c ****  * Wakeup the nRF24 radio, and restore the configuration.
 162:Generated_Source\PSoC4/nRF24_FUNCS.c ****  *
 163:Generated_Source\PSoC4/nRF24_FUNCS.c ****  * @todo Implement this function.
 164:Generated_Source\PSoC4/nRF24_FUNCS.c ****  */
 165:Generated_Source\PSoC4/nRF24_FUNCS.c **** void nRF24_wakeup(void)
 166:Generated_Source\PSoC4/nRF24_FUNCS.c **** {
 196              		.loc 1 166 0
 197              		.cfi_startproc
 198              		@ args = 0, pretend = 0, frame = 0
 199              		@ frame_needed = 0, uses_anonymous_args = 0
 200 0000 10B5     		push	{r4, lr}
 201              		.cfi_def_cfa_offset 8
 202              		.cfi_offset 4, -8
 203              		.cfi_offset 14, -4
 167:Generated_Source\PSoC4/nRF24_FUNCS.c ****     // after leaving standby-I mode the radio need a time to
 168:Generated_Source\PSoC4/nRF24_FUNCS.c ****     // return to TX or RX Mode
 169:Generated_Source\PSoC4/nRF24_FUNCS.c ****     nRF24_set_bit(NRF_REG_CONFIG, NRF_CONFIG_PWR_UP);
 204              		.loc 1 169 0
 205 0002 0221     		movs	r1, #2
 206 0004 0020     		movs	r0, #0
 207 0006 FFF7FEFF 		bl	nRF24_set_bit
 208              	.LVL13:
 170:Generated_Source\PSoC4/nRF24_FUNCS.c ****     CyDelay(5);
 209              		.loc 1 170 0
 210 000a 0520     		movs	r0, #5
 211 000c FFF7FEFF 		bl	CyDelay
 212              	.LVL14:
 171:Generated_Source\PSoC4/nRF24_FUNCS.c **** }
 213              		.loc 1 171 0
 214              		@ sp needed
 215 0010 10BD     		pop	{r4, pc}
 216              		.cfi_endproc
 217              	.LFE7:
 218              		.size	nRF24_wakeup, .-nRF24_wakeup
 219 0012 C046     		.section	.text.nRF24_save_config,"ax",%progbits
 220              		.align	2
 221              		.global	nRF24_save_config
 222              		.code	16
 223              		.thumb_func
 224              		.type	nRF24_save_config, %function
 225              	nRF24_save_config:
 226              	.LFB8:
 172:Generated_Source\PSoC4/nRF24_FUNCS.c **** 
 173:Generated_Source\PSoC4/nRF24_FUNCS.c **** /**
ARM GAS  C:\Users\Xwx47\AppData\Local\Temp\ccj7Qs1R.s 			page 8


 174:Generated_Source\PSoC4/nRF24_FUNCS.c ****  * Save the nRF24 radio configuration.
 175:Generated_Source\PSoC4/nRF24_FUNCS.c ****  *
 176:Generated_Source\PSoC4/nRF24_FUNCS.c ****  * @todo Implement this function.
 177:Generated_Source\PSoC4/nRF24_FUNCS.c ****  */
 178:Generated_Source\PSoC4/nRF24_FUNCS.c **** void nRF24_save_config(void)
 179:Generated_Source\PSoC4/nRF24_FUNCS.c **** {
 227              		.loc 1 179 0
 228              		.cfi_startproc
 229              		@ args = 0, pretend = 0, frame = 0
 230              		@ frame_needed = 0, uses_anonymous_args = 0
 231              		@ link register save eliminated.
 180:Generated_Source\PSoC4/nRF24_FUNCS.c **** }
 232              		.loc 1 180 0
 233              		@ sp needed
 234 0000 7047     		bx	lr
 235              		.cfi_endproc
 236              	.LFE8:
 237              		.size	nRF24_save_config, .-nRF24_save_config
 238 0002 C046     		.section	.text.nRF24_restore_config,"ax",%progbits
 239              		.align	2
 240              		.global	nRF24_restore_config
 241              		.code	16
 242              		.thumb_func
 243              		.type	nRF24_restore_config, %function
 244              	nRF24_restore_config:
 245              	.LFB9:
 181:Generated_Source\PSoC4/nRF24_FUNCS.c **** 
 182:Generated_Source\PSoC4/nRF24_FUNCS.c **** /**
 183:Generated_Source\PSoC4/nRF24_FUNCS.c ****  * Restore the nRF24 radio configuration.
 184:Generated_Source\PSoC4/nRF24_FUNCS.c ****  *
 185:Generated_Source\PSoC4/nRF24_FUNCS.c ****  * @todo Implement this function.
 186:Generated_Source\PSoC4/nRF24_FUNCS.c ****  */
 187:Generated_Source\PSoC4/nRF24_FUNCS.c **** void nRF24_restore_config(void)
 188:Generated_Source\PSoC4/nRF24_FUNCS.c **** {
 246              		.loc 1 188 0
 247              		.cfi_startproc
 248              		@ args = 0, pretend = 0, frame = 0
 249              		@ frame_needed = 0, uses_anonymous_args = 0
 250              		@ link register save eliminated.
 189:Generated_Source\PSoC4/nRF24_FUNCS.c **** }
 251              		.loc 1 189 0
 252              		@ sp needed
 253 0000 7047     		bx	lr
 254              		.cfi_endproc
 255              	.LFE9:
 256              		.size	nRF24_restore_config, .-nRF24_restore_config
 257 0002 C046     		.section	.text.nRF24_set_power_down_mode,"ax",%progbits
 258              		.align	2
 259              		.global	nRF24_set_power_down_mode
 260              		.code	16
 261              		.thumb_func
 262              		.type	nRF24_set_power_down_mode, %function
 263              	nRF24_set_power_down_mode:
 264              	.LFB11:
 190:Generated_Source\PSoC4/nRF24_FUNCS.c **** 
 191:Generated_Source\PSoC4/nRF24_FUNCS.c **** /**
 192:Generated_Source\PSoC4/nRF24_FUNCS.c ****  * Configure the radio as Receiver or Transmitter.
ARM GAS  C:\Users\Xwx47\AppData\Local\Temp\ccj7Qs1R.s 			page 9


 193:Generated_Source\PSoC4/nRF24_FUNCS.c ****  *
 194:Generated_Source\PSoC4/nRF24_FUNCS.c ****  * @param const nrf_mode mode: The radio can be configured as Receiver (PRX)
 195:Generated_Source\PSoC4/nRF24_FUNCS.c ****  * or Transmitter (PTX).
 196:Generated_Source\PSoC4/nRF24_FUNCS.c ****  */
 197:Generated_Source\PSoC4/nRF24_FUNCS.c **** void nRF24_set_mode(const nrf_mode mode)
 198:Generated_Source\PSoC4/nRF24_FUNCS.c **** {
 199:Generated_Source\PSoC4/nRF24_FUNCS.c ****     mode ? nRF24_set_rx_mode() : nRF24_set_tx_mode();
 200:Generated_Source\PSoC4/nRF24_FUNCS.c **** }
 201:Generated_Source\PSoC4/nRF24_FUNCS.c **** 
 202:Generated_Source\PSoC4/nRF24_FUNCS.c **** /**
 203:Generated_Source\PSoC4/nRF24_FUNCS.c ****  * @brief Set radio in Power Down Mode.
 204:Generated_Source\PSoC4/nRF24_FUNCS.c ****  *
 205:Generated_Source\PSoC4/nRF24_FUNCS.c ****  * In power down mode nRF24 is disabled using minimal current consumption.
 206:Generated_Source\PSoC4/nRF24_FUNCS.c ****  * All register values available are maintained and the SPI is kept active,
 207:Generated_Source\PSoC4/nRF24_FUNCS.c ****  * enabling change of configuration and the uploading/downloading of data
 208:Generated_Source\PSoC4/nRF24_FUNCS.c ****  * registers.
 209:Generated_Source\PSoC4/nRF24_FUNCS.c ****  * Power down mode is entered by setting the PWR_UP bit (CONFIG register) to 0.
 210:Generated_Source\PSoC4/nRF24_FUNCS.c ****  */
 211:Generated_Source\PSoC4/nRF24_FUNCS.c **** void nRF24_set_power_down_mode(void)
 212:Generated_Source\PSoC4/nRF24_FUNCS.c **** {
 265              		.loc 1 212 0
 266              		.cfi_startproc
 267              		@ args = 0, pretend = 0, frame = 0
 268              		@ frame_needed = 0, uses_anonymous_args = 0
 269 0000 10B5     		push	{r4, lr}
 270              		.cfi_def_cfa_offset 8
 271              		.cfi_offset 4, -8
 272              		.cfi_offset 14, -4
 213:Generated_Source\PSoC4/nRF24_FUNCS.c ****     nRF24_clear_bit(NRF_REG_CONFIG, NRF_CONFIG_PWR_UP);
 273              		.loc 1 213 0
 274 0002 0221     		movs	r1, #2
 275 0004 0020     		movs	r0, #0
 276 0006 FFF7FEFF 		bl	nRF24_clear_bit
 277              	.LVL15:
 214:Generated_Source\PSoC4/nRF24_FUNCS.c **** }
 278              		.loc 1 214 0
 279              		@ sp needed
 280 000a 10BD     		pop	{r4, pc}
 281              		.cfi_endproc
 282              	.LFE11:
 283              		.size	nRF24_set_power_down_mode, .-nRF24_set_power_down_mode
 284              		.section	.text.nRF24_set_rx_mode,"ax",%progbits
 285              		.align	2
 286              		.global	nRF24_set_rx_mode
 287              		.code	16
 288              		.thumb_func
 289              		.type	nRF24_set_rx_mode, %function
 290              	nRF24_set_rx_mode:
 291              	.LFB14:
 215:Generated_Source\PSoC4/nRF24_FUNCS.c **** 
 216:Generated_Source\PSoC4/nRF24_FUNCS.c **** /**
 217:Generated_Source\PSoC4/nRF24_FUNCS.c ****  * @brief Set the radio in Standby I Mode.
 218:Generated_Source\PSoC4/nRF24_FUNCS.c ****  *
 219:Generated_Source\PSoC4/nRF24_FUNCS.c ****  * By setting the PWR_UP bit in the CONFIG register to 1, the device enters
 220:Generated_Source\PSoC4/nRF24_FUNCS.c ****  * standby-I mode. Standby-I mode is used to minimize average current
 221:Generated_Source\PSoC4/nRF24_FUNCS.c ****  * consumption while maintaining short start up times.
 222:Generated_Source\PSoC4/nRF24_FUNCS.c ****  * In this mode only part of the crystal oscillator is active. Change to
ARM GAS  C:\Users\Xwx47\AppData\Local\Temp\ccj7Qs1R.s 			page 10


 223:Generated_Source\PSoC4/nRF24_FUNCS.c ****  * active modes only happens if CE is set high and when CE is set low,
 224:Generated_Source\PSoC4/nRF24_FUNCS.c ****  * the nRF24 returns to standby-I mode from both the TX and RX modes.
 225:Generated_Source\PSoC4/nRF24_FUNCS.c ****  */
 226:Generated_Source\PSoC4/nRF24_FUNCS.c **** void nRF24_set_standby_i_mode(void)
 227:Generated_Source\PSoC4/nRF24_FUNCS.c **** {
 228:Generated_Source\PSoC4/nRF24_FUNCS.c ****     nRF24_stop_listening();
 229:Generated_Source\PSoC4/nRF24_FUNCS.c ****     nRF24_set_bit(NRF_REG_CONFIG, NRF_CONFIG_PWR_UP);
 230:Generated_Source\PSoC4/nRF24_FUNCS.c **** }
 231:Generated_Source\PSoC4/nRF24_FUNCS.c **** 
 232:Generated_Source\PSoC4/nRF24_FUNCS.c **** /**
 233:Generated_Source\PSoC4/nRF24_FUNCS.c ****  * @brief Set the radio in Standby II Mode.
 234:Generated_Source\PSoC4/nRF24_FUNCS.c ****  *
 235:Generated_Source\PSoC4/nRF24_FUNCS.c ****  * In standby-II mode extra clock buffers are active and more current is used
 236:Generated_Source\PSoC4/nRF24_FUNCS.c ****  * compared to standby-I mode. nRF24 enters standby-II mode if CE is held high
 237:Generated_Source\PSoC4/nRF24_FUNCS.c ****  * on a TX device with an empty TX FIFO.
 238:Generated_Source\PSoC4/nRF24_FUNCS.c ****  * If a new packet is uploaded to the TX FIFO, the PLL immediately starts and
 239:Generated_Source\PSoC4/nRF24_FUNCS.c ****  * the packet is transmitted after the normal PLL settling  delay (130us).
 240:Generated_Source\PSoC4/nRF24_FUNCS.c ****  */
 241:Generated_Source\PSoC4/nRF24_FUNCS.c **** void nRF24_set_standby_ii_mode(void)
 242:Generated_Source\PSoC4/nRF24_FUNCS.c **** {
 243:Generated_Source\PSoC4/nRF24_FUNCS.c ****     nRF24_start_listening();
 244:Generated_Source\PSoC4/nRF24_FUNCS.c ****     nRF24_set_bit(NRF_REG_CONFIG, NRF_CONFIG_PWR_UP);
 245:Generated_Source\PSoC4/nRF24_FUNCS.c **** }
 246:Generated_Source\PSoC4/nRF24_FUNCS.c **** 
 247:Generated_Source\PSoC4/nRF24_FUNCS.c **** /**
 248:Generated_Source\PSoC4/nRF24_FUNCS.c ****  * @brief Set the radio in Receiver (Rx) Mode.
 249:Generated_Source\PSoC4/nRF24_FUNCS.c ****  *
 250:Generated_Source\PSoC4/nRF24_FUNCS.c ****  * RX mode is an active mode where the nRF24 radio is used as receiver. To
 251:Generated_Source\PSoC4/nRF24_FUNCS.c ****  * enter this mode, the nRF24 must have the PWR_UP bit, PRIM_RX bit and the CE
 252:Generated_Source\PSoC4/nRF24_FUNCS.c ****  * pin set high.
 253:Generated_Source\PSoC4/nRF24_FUNCS.c ****  */
 254:Generated_Source\PSoC4/nRF24_FUNCS.c **** void nRF24_set_rx_mode(void)
 255:Generated_Source\PSoC4/nRF24_FUNCS.c **** {
 292              		.loc 1 255 0
 293              		.cfi_startproc
 294              		@ args = 0, pretend = 0, frame = 0
 295              		@ frame_needed = 0, uses_anonymous_args = 0
 296 0000 10B5     		push	{r4, lr}
 297              		.cfi_def_cfa_offset 8
 298              		.cfi_offset 4, -8
 299              		.cfi_offset 14, -4
 256:Generated_Source\PSoC4/nRF24_FUNCS.c ****     nRF24_set_bit(NRF_REG_CONFIG, NRF_CONFIG_BIT_PRIM_RX);
 300              		.loc 1 256 0
 301 0002 0021     		movs	r1, #0
 302 0004 0020     		movs	r0, #0
 303 0006 FFF7FEFF 		bl	nRF24_set_bit
 304              	.LVL16:
 257:Generated_Source\PSoC4/nRF24_FUNCS.c **** }
 305              		.loc 1 257 0
 306              		@ sp needed
 307 000a 10BD     		pop	{r4, pc}
 308              		.cfi_endproc
 309              	.LFE14:
 310              		.size	nRF24_set_rx_mode, .-nRF24_set_rx_mode
 311              		.section	.text.nRF24_set_tx_mode,"ax",%progbits
 312              		.align	2
 313              		.global	nRF24_set_tx_mode
ARM GAS  C:\Users\Xwx47\AppData\Local\Temp\ccj7Qs1R.s 			page 11


 314              		.code	16
 315              		.thumb_func
 316              		.type	nRF24_set_tx_mode, %function
 317              	nRF24_set_tx_mode:
 318              	.LFB15:
 258:Generated_Source\PSoC4/nRF24_FUNCS.c **** 
 259:Generated_Source\PSoC4/nRF24_FUNCS.c **** /**
 260:Generated_Source\PSoC4/nRF24_FUNCS.c ****  * @brief Set the radio in Transmitted (Tx) Mode.
 261:Generated_Source\PSoC4/nRF24_FUNCS.c ****  *
 262:Generated_Source\PSoC4/nRF24_FUNCS.c ****  * TX mode is an active mode for transmitting packets. To enter this mode,
 263:Generated_Source\PSoC4/nRF24_FUNCS.c ****  * the nRF24 must have the PWR_UP bit set high, PRIM_RX bit set low, a payload
 264:Generated_Source\PSoC4/nRF24_FUNCS.c ****  * in the TX FIFO and a high pulse on the CE for more than 10us.
 265:Generated_Source\PSoC4/nRF24_FUNCS.c ****  */
 266:Generated_Source\PSoC4/nRF24_FUNCS.c **** void nRF24_set_tx_mode(void)
 267:Generated_Source\PSoC4/nRF24_FUNCS.c **** {
 319              		.loc 1 267 0
 320              		.cfi_startproc
 321              		@ args = 0, pretend = 0, frame = 0
 322              		@ frame_needed = 0, uses_anonymous_args = 0
 323 0000 10B5     		push	{r4, lr}
 324              		.cfi_def_cfa_offset 8
 325              		.cfi_offset 4, -8
 326              		.cfi_offset 14, -4
 268:Generated_Source\PSoC4/nRF24_FUNCS.c ****     nRF24_clear_bit(NRF_REG_CONFIG, NRF_CONFIG_BIT_PRIM_RX);
 327              		.loc 1 268 0
 328 0002 0021     		movs	r1, #0
 329 0004 0020     		movs	r0, #0
 330 0006 FFF7FEFF 		bl	nRF24_clear_bit
 331              	.LVL17:
 269:Generated_Source\PSoC4/nRF24_FUNCS.c **** }
 332              		.loc 1 269 0
 333              		@ sp needed
 334 000a 10BD     		pop	{r4, pc}
 335              		.cfi_endproc
 336              	.LFE15:
 337              		.size	nRF24_set_tx_mode, .-nRF24_set_tx_mode
 338              		.section	.text.nRF24_set_mode,"ax",%progbits
 339              		.align	2
 340              		.global	nRF24_set_mode
 341              		.code	16
 342              		.thumb_func
 343              		.type	nRF24_set_mode, %function
 344              	nRF24_set_mode:
 345              	.LFB10:
 198:Generated_Source\PSoC4/nRF24_FUNCS.c ****     mode ? nRF24_set_rx_mode() : nRF24_set_tx_mode();
 346              		.loc 1 198 0
 347              		.cfi_startproc
 348              		@ args = 0, pretend = 0, frame = 0
 349              		@ frame_needed = 0, uses_anonymous_args = 0
 350              	.LVL18:
 351 0000 10B5     		push	{r4, lr}
 352              		.cfi_def_cfa_offset 8
 353              		.cfi_offset 4, -8
 354              		.cfi_offset 14, -4
 199:Generated_Source\PSoC4/nRF24_FUNCS.c **** }
 355              		.loc 1 199 0
 356 0002 0028     		cmp	r0, #0
ARM GAS  C:\Users\Xwx47\AppData\Local\Temp\ccj7Qs1R.s 			page 12


 357 0004 02D0     		beq	.L18
 199:Generated_Source\PSoC4/nRF24_FUNCS.c **** }
 358              		.loc 1 199 0 is_stmt 0 discriminator 1
 359 0006 FFF7FEFF 		bl	nRF24_set_rx_mode
 360              	.LVL19:
 361 000a 01E0     		b	.L17
 362              	.LVL20:
 363              	.L18:
 199:Generated_Source\PSoC4/nRF24_FUNCS.c **** }
 364              		.loc 1 199 0 discriminator 2
 365 000c FFF7FEFF 		bl	nRF24_set_tx_mode
 366              	.LVL21:
 367              	.L17:
 200:Generated_Source\PSoC4/nRF24_FUNCS.c **** 
 368              		.loc 1 200 0 is_stmt 1
 369              		@ sp needed
 370 0010 10BD     		pop	{r4, pc}
 371              		.cfi_endproc
 372              	.LFE10:
 373              		.size	nRF24_set_mode, .-nRF24_set_mode
 374 0012 C046     		.section	.text.nRF24_enable_auto_ack,"ax",%progbits
 375              		.align	2
 376              		.global	nRF24_enable_auto_ack
 377              		.code	16
 378              		.thumb_func
 379              		.type	nRF24_enable_auto_ack, %function
 380              	nRF24_enable_auto_ack:
 381              	.LFB16:
 270:Generated_Source\PSoC4/nRF24_FUNCS.c **** 
 271:Generated_Source\PSoC4/nRF24_FUNCS.c **** /**
 272:Generated_Source\PSoC4/nRF24_FUNCS.c ****  * @brief Enable AutoACK in the given pipe.
 273:Generated_Source\PSoC4/nRF24_FUNCS.c ****  *
 274:Generated_Source\PSoC4/nRF24_FUNCS.c ****  * @param pipe: Enable AutoACK in the given pipe.
 275:Generated_Source\PSoC4/nRF24_FUNCS.c ****  */
 276:Generated_Source\PSoC4/nRF24_FUNCS.c **** void nRF24_enable_auto_ack(const nrf_pipe pipe)
 277:Generated_Source\PSoC4/nRF24_FUNCS.c **** {
 382              		.loc 1 277 0
 383              		.cfi_startproc
 384              		@ args = 0, pretend = 0, frame = 0
 385              		@ frame_needed = 0, uses_anonymous_args = 0
 386              	.LVL22:
 387 0000 10B5     		push	{r4, lr}
 388              		.cfi_def_cfa_offset 8
 389              		.cfi_offset 4, -8
 390              		.cfi_offset 14, -4
 391 0002 0100     		movs	r1, r0
 278:Generated_Source\PSoC4/nRF24_FUNCS.c ****     nRF24_set_bit(NRF_REG_EN_AA, pipe);
 392              		.loc 1 278 0
 393 0004 0120     		movs	r0, #1
 394              	.LVL23:
 395 0006 FFF7FEFF 		bl	nRF24_set_bit
 396              	.LVL24:
 279:Generated_Source\PSoC4/nRF24_FUNCS.c **** }
 397              		.loc 1 279 0
 398              		@ sp needed
 399 000a 10BD     		pop	{r4, pc}
 400              		.cfi_endproc
ARM GAS  C:\Users\Xwx47\AppData\Local\Temp\ccj7Qs1R.s 			page 13


 401              	.LFE16:
 402              		.size	nRF24_enable_auto_ack, .-nRF24_enable_auto_ack
 403              		.section	.text.nRF24_disable_auto_ack,"ax",%progbits
 404              		.align	2
 405              		.global	nRF24_disable_auto_ack
 406              		.code	16
 407              		.thumb_func
 408              		.type	nRF24_disable_auto_ack, %function
 409              	nRF24_disable_auto_ack:
 410              	.LFB17:
 280:Generated_Source\PSoC4/nRF24_FUNCS.c **** 
 281:Generated_Source\PSoC4/nRF24_FUNCS.c **** /**
 282:Generated_Source\PSoC4/nRF24_FUNCS.c ****  * @brief Disable AutoACK in the given pipe.
 283:Generated_Source\PSoC4/nRF24_FUNCS.c ****  *
 284:Generated_Source\PSoC4/nRF24_FUNCS.c ****  * @param pipe: Disable AutoACK in the given pipe.
 285:Generated_Source\PSoC4/nRF24_FUNCS.c ****  */
 286:Generated_Source\PSoC4/nRF24_FUNCS.c **** void nRF24_disable_auto_ack(const nrf_pipe pipe)
 287:Generated_Source\PSoC4/nRF24_FUNCS.c **** {
 411              		.loc 1 287 0
 412              		.cfi_startproc
 413              		@ args = 0, pretend = 0, frame = 0
 414              		@ frame_needed = 0, uses_anonymous_args = 0
 415              	.LVL25:
 416 0000 10B5     		push	{r4, lr}
 417              		.cfi_def_cfa_offset 8
 418              		.cfi_offset 4, -8
 419              		.cfi_offset 14, -4
 420 0002 0100     		movs	r1, r0
 288:Generated_Source\PSoC4/nRF24_FUNCS.c ****     nRF24_clear_bit(NRF_REG_EN_AA, pipe);
 421              		.loc 1 288 0
 422 0004 0120     		movs	r0, #1
 423              	.LVL26:
 424 0006 FFF7FEFF 		bl	nRF24_clear_bit
 425              	.LVL27:
 289:Generated_Source\PSoC4/nRF24_FUNCS.c **** }
 426              		.loc 1 289 0
 427              		@ sp needed
 428 000a 10BD     		pop	{r4, pc}
 429              		.cfi_endproc
 430              	.LFE17:
 431              		.size	nRF24_disable_auto_ack, .-nRF24_disable_auto_ack
 432              		.section	.text.nRF24_set_channel,"ax",%progbits
 433              		.align	2
 434              		.global	nRF24_set_channel
 435              		.code	16
 436              		.thumb_func
 437              		.type	nRF24_set_channel, %function
 438              	nRF24_set_channel:
 439              	.LFB18:
 290:Generated_Source\PSoC4/nRF24_FUNCS.c **** 
 291:Generated_Source\PSoC4/nRF24_FUNCS.c **** /**
 292:Generated_Source\PSoC4/nRF24_FUNCS.c ****  * @brief Set the channel where the radio will work.
 293:Generated_Source\PSoC4/nRF24_FUNCS.c ****  *
 294:Generated_Source\PSoC4/nRF24_FUNCS.c ****  * @param uint8_t channel: Channel where the radio will work.
 295:Generated_Source\PSoC4/nRF24_FUNCS.c ****  */
 296:Generated_Source\PSoC4/nRF24_FUNCS.c **** void nRF24_set_channel(uint8_t channel)
 297:Generated_Source\PSoC4/nRF24_FUNCS.c **** {
ARM GAS  C:\Users\Xwx47\AppData\Local\Temp\ccj7Qs1R.s 			page 14


 440              		.loc 1 297 0
 441              		.cfi_startproc
 442              		@ args = 0, pretend = 0, frame = 0
 443              		@ frame_needed = 0, uses_anonymous_args = 0
 444              	.LVL28:
 445 0000 10B5     		push	{r4, lr}
 446              		.cfi_def_cfa_offset 8
 447              		.cfi_offset 4, -8
 448              		.cfi_offset 14, -4
 449 0002 0100     		movs	r1, r0
 298:Generated_Source\PSoC4/nRF24_FUNCS.c ****     if (NRF_MAX_RF_CHANNEL < channel) {
 450              		.loc 1 298 0
 451 0004 7D28     		cmp	r0, #125
 452 0006 00D9     		bls	.L23
 299:Generated_Source\PSoC4/nRF24_FUNCS.c ****         channel = NRF_MAX_RF_CHANNEL;
 453              		.loc 1 299 0
 454 0008 7D21     		movs	r1, #125
 455              	.L23:
 456              	.LVL29:
 300:Generated_Source\PSoC4/nRF24_FUNCS.c ****     }
 301:Generated_Source\PSoC4/nRF24_FUNCS.c **** 
 302:Generated_Source\PSoC4/nRF24_FUNCS.c ****     nRF24_write_register(NRF_REG_RF_CH, channel);
 457              		.loc 1 302 0
 458 000a 0520     		movs	r0, #5
 459 000c FFF7FEFF 		bl	nRF24_write_register
 460              	.LVL30:
 303:Generated_Source\PSoC4/nRF24_FUNCS.c **** 
 304:Generated_Source\PSoC4/nRF24_FUNCS.c ****     // Flush both nRF24 FIFOs, from mcuoneclipse nrf24 component
 305:Generated_Source\PSoC4/nRF24_FUNCS.c ****     nRF24_flush_rx_cmd();
 461              		.loc 1 305 0
 462 0010 FFF7FEFF 		bl	nRF24_flush_rx_cmd
 463              	.LVL31:
 306:Generated_Source\PSoC4/nRF24_FUNCS.c ****     nRF24_flush_tx_cmd();
 464              		.loc 1 306 0
 465 0014 FFF7FEFF 		bl	nRF24_flush_tx_cmd
 466              	.LVL32:
 307:Generated_Source\PSoC4/nRF24_FUNCS.c **** }
 467              		.loc 1 307 0
 468              		@ sp needed
 469 0018 10BD     		pop	{r4, pc}
 470              		.cfi_endproc
 471              	.LFE18:
 472              		.size	nRF24_set_channel, .-nRF24_set_channel
 473 001a C046     		.section	.text.nRF24_get_channel,"ax",%progbits
 474              		.align	2
 475              		.global	nRF24_get_channel
 476              		.code	16
 477              		.thumb_func
 478              		.type	nRF24_get_channel, %function
 479              	nRF24_get_channel:
 480              	.LFB19:
 308:Generated_Source\PSoC4/nRF24_FUNCS.c **** 
 309:Generated_Source\PSoC4/nRF24_FUNCS.c **** /**
 310:Generated_Source\PSoC4/nRF24_FUNCS.c ****  * @brief Set the data pipes address width.
 311:Generated_Source\PSoC4/nRF24_FUNCS.c ****  *
 312:Generated_Source\PSoC4/nRF24_FUNCS.c ****  * @param const nrf_setup_address_width addr_width:
 313:Generated_Source\PSoC4/nRF24_FUNCS.c ****  */
ARM GAS  C:\Users\Xwx47\AppData\Local\Temp\ccj7Qs1R.s 			page 15


 314:Generated_Source\PSoC4/nRF24_FUNCS.c **** uint8_t nRF24_get_channel(void)
 315:Generated_Source\PSoC4/nRF24_FUNCS.c **** {
 481              		.loc 1 315 0
 482              		.cfi_startproc
 483              		@ args = 0, pretend = 0, frame = 0
 484              		@ frame_needed = 0, uses_anonymous_args = 0
 485 0000 10B5     		push	{r4, lr}
 486              		.cfi_def_cfa_offset 8
 487              		.cfi_offset 4, -8
 488              		.cfi_offset 14, -4
 316:Generated_Source\PSoC4/nRF24_FUNCS.c ****     return nRF24_read_register(NRF_REG_RF_CH);
 489              		.loc 1 316 0
 490 0002 0520     		movs	r0, #5
 491 0004 FFF7FEFF 		bl	nRF24_read_register
 492              	.LVL33:
 317:Generated_Source\PSoC4/nRF24_FUNCS.c **** }
 493              		.loc 1 317 0
 494              		@ sp needed
 495 0008 10BD     		pop	{r4, pc}
 496              		.cfi_endproc
 497              	.LFE19:
 498              		.size	nRF24_get_channel, .-nRF24_get_channel
 499 000a C046     		.section	.text.nRF24_set_address_width,"ax",%progbits
 500              		.align	2
 501              		.global	nRF24_set_address_width
 502              		.code	16
 503              		.thumb_func
 504              		.type	nRF24_set_address_width, %function
 505              	nRF24_set_address_width:
 506              	.LFB20:
 318:Generated_Source\PSoC4/nRF24_FUNCS.c **** 
 319:Generated_Source\PSoC4/nRF24_FUNCS.c **** /**
 320:Generated_Source\PSoC4/nRF24_FUNCS.c ****  * @brief Set the data pipes address width.
 321:Generated_Source\PSoC4/nRF24_FUNCS.c ****  *
 322:Generated_Source\PSoC4/nRF24_FUNCS.c ****  * @param const nrf_addr_width addr_width:
 323:Generated_Source\PSoC4/nRF24_FUNCS.c ****  */
 324:Generated_Source\PSoC4/nRF24_FUNCS.c **** void nRF24_set_address_width(const nrf_addr_width addr_width)
 325:Generated_Source\PSoC4/nRF24_FUNCS.c **** {
 507              		.loc 1 325 0
 508              		.cfi_startproc
 509              		@ args = 0, pretend = 0, frame = 0
 510              		@ frame_needed = 0, uses_anonymous_args = 0
 511              	.LVL34:
 512 0000 10B5     		push	{r4, lr}
 513              		.cfi_def_cfa_offset 8
 514              		.cfi_offset 4, -8
 515              		.cfi_offset 14, -4
 516 0002 0400     		movs	r4, r0
 326:Generated_Source\PSoC4/nRF24_FUNCS.c ****     nRF24_write_register(NRF_REG_SETUP_AW, (uint8_t)addr_width);
 517              		.loc 1 326 0
 518 0004 0100     		movs	r1, r0
 519 0006 0320     		movs	r0, #3
 520              	.LVL35:
 521 0008 FFF7FEFF 		bl	nRF24_write_register
 522              	.LVL36:
 327:Generated_Source\PSoC4/nRF24_FUNCS.c ****     // update the _nrf_addr_width variable
 328:Generated_Source\PSoC4/nRF24_FUNCS.c ****     _addr_width_conf_to_bytes(addr_width);
ARM GAS  C:\Users\Xwx47\AppData\Local\Temp\ccj7Qs1R.s 			page 16


 523              		.loc 1 328 0
 524 000c 2000     		movs	r0, r4
 525 000e FFF7FEFF 		bl	_addr_width_conf_to_bytes
 526              	.LVL37:
 329:Generated_Source\PSoC4/nRF24_FUNCS.c **** }
 527              		.loc 1 329 0
 528              		@ sp needed
 529 0012 10BD     		pop	{r4, pc}
 530              		.cfi_endproc
 531              	.LFE20:
 532              		.size	nRF24_set_address_width, .-nRF24_set_address_width
 533              		.section	.text.nRF24_get_address_width,"ax",%progbits
 534              		.align	2
 535              		.global	nRF24_get_address_width
 536              		.code	16
 537              		.thumb_func
 538              		.type	nRF24_get_address_width, %function
 539              	nRF24_get_address_width:
 540              	.LFB21:
 330:Generated_Source\PSoC4/nRF24_FUNCS.c **** 
 331:Generated_Source\PSoC4/nRF24_FUNCS.c **** /**
 332:Generated_Source\PSoC4/nRF24_FUNCS.c ****  * @brief Get the address width of the data pipes.
 333:Generated_Source\PSoC4/nRF24_FUNCS.c ****  *
 334:Generated_Source\PSoC4/nRF24_FUNCS.c ****  * @return uint8_t: Address width in bytes.
 335:Generated_Source\PSoC4/nRF24_FUNCS.c ****  */
 336:Generated_Source\PSoC4/nRF24_FUNCS.c **** uint8_t nRF24_get_address_width(void)
 337:Generated_Source\PSoC4/nRF24_FUNCS.c **** {
 541              		.loc 1 337 0
 542              		.cfi_startproc
 543              		@ args = 0, pretend = 0, frame = 0
 544              		@ frame_needed = 0, uses_anonymous_args = 0
 545              		@ link register save eliminated.
 338:Generated_Source\PSoC4/nRF24_FUNCS.c ****     return _nrf_addr_width;
 546              		.loc 1 338 0
 547 0000 014B     		ldr	r3, .L28
 548 0002 1878     		ldrb	r0, [r3]
 339:Generated_Source\PSoC4/nRF24_FUNCS.c **** }
 549              		.loc 1 339 0
 550              		@ sp needed
 551 0004 7047     		bx	lr
 552              	.L29:
 553 0006 C046     		.align	2
 554              	.L28:
 555 0008 00000000 		.word	.LANCHOR0
 556              		.cfi_endproc
 557              	.LFE21:
 558              		.size	nRF24_get_address_width, .-nRF24_get_address_width
 559              		.section	.text.nRF24_set_rx_pipe_address,"ax",%progbits
 560              		.align	2
 561              		.global	nRF24_set_rx_pipe_address
 562              		.code	16
 563              		.thumb_func
 564              		.type	nRF24_set_rx_pipe_address, %function
 565              	nRF24_set_rx_pipe_address:
 566              	.LFB22:
 340:Generated_Source\PSoC4/nRF24_FUNCS.c **** 
 341:Generated_Source\PSoC4/nRF24_FUNCS.c **** /**
ARM GAS  C:\Users\Xwx47\AppData\Local\Temp\ccj7Qs1R.s 			page 17


 342:Generated_Source\PSoC4/nRF24_FUNCS.c ****  * @brief Set the address of the RX Pipe 0 in the radio.
 343:Generated_Source\PSoC4/nRF24_FUNCS.c ****  *
 344:Generated_Source\PSoC4/nRF24_FUNCS.c ****  * This function configure the address of the Rx Pipe 0 of the radio.
 345:Generated_Source\PSoC4/nRF24_FUNCS.c ****  *
 346:Generated_Source\PSoC4/nRF24_FUNCS.c ****  * @param const uint8_t* addr:
 347:Generated_Source\PSoC4/nRF24_FUNCS.c ****  * @param size_t size:
 348:Generated_Source\PSoC4/nRF24_FUNCS.c ****  */
 349:Generated_Source\PSoC4/nRF24_FUNCS.c **** void nRF24_set_rx_pipe_address(const nrf_addr_rx_pipe pipe,
 350:Generated_Source\PSoC4/nRF24_FUNCS.c ****                                             const uint8_t *addr, size_t size)
 351:Generated_Source\PSoC4/nRF24_FUNCS.c **** {
 567              		.loc 1 351 0
 568              		.cfi_startproc
 569              		@ args = 0, pretend = 0, frame = 0
 570              		@ frame_needed = 0, uses_anonymous_args = 0
 571              	.LVL38:
 572 0000 10B5     		push	{r4, lr}
 573              		.cfi_def_cfa_offset 8
 574              		.cfi_offset 4, -8
 575              		.cfi_offset 14, -4
 352:Generated_Source\PSoC4/nRF24_FUNCS.c ****     if (NULL == addr) {
 576              		.loc 1 352 0
 577 0002 0029     		cmp	r1, #0
 578 0004 12D0     		beq	.L30
 353:Generated_Source\PSoC4/nRF24_FUNCS.c ****         return;
 354:Generated_Source\PSoC4/nRF24_FUNCS.c ****     }
 355:Generated_Source\PSoC4/nRF24_FUNCS.c ****     
 356:Generated_Source\PSoC4/nRF24_FUNCS.c ****     switch(pipe) {
 579              		.loc 1 356 0
 580 0006 0A28     		cmp	r0, #10
 581 0008 10D3     		bcc	.L30
 582 000a 0B28     		cmp	r0, #11
 583 000c 02D9     		bls	.L32
 584 000e 0F28     		cmp	r0, #15
 585 0010 09D9     		bls	.L35
 586 0012 0BE0     		b	.L30
 587              	.L32:
 357:Generated_Source\PSoC4/nRF24_FUNCS.c ****     // For pipes 0 and 1 we can change up to 5 bytes of it's addresses
 358:Generated_Source\PSoC4/nRF24_FUNCS.c ****     case NRF_ADDR_PIPE0:
 359:Generated_Source\PSoC4/nRF24_FUNCS.c ****     case NRF_ADDR_PIPE1:
 360:Generated_Source\PSoC4/nRF24_FUNCS.c ****         // The smaller address is 3 bytes
 361:Generated_Source\PSoC4/nRF24_FUNCS.c ****         if (NRF_PIPE_ADDR_WIDTH_3BYTES > size) {
 362:Generated_Source\PSoC4/nRF24_FUNCS.c ****             // TODO
 363:Generated_Source\PSoC4/nRF24_FUNCS.c ****         }
 364:Generated_Source\PSoC4/nRF24_FUNCS.c ****         
 365:Generated_Source\PSoC4/nRF24_FUNCS.c ****         if (_nrf_addr_width < size) {
 588              		.loc 1 365 0
 589 0014 064B     		ldr	r3, .L36
 590 0016 1B78     		ldrb	r3, [r3]
 591 0018 9342     		cmp	r3, r2
 592 001a 00D3     		bcc	.L34
 593 001c 1300     		movs	r3, r2
 594              	.L34:
 595              	.LVL39:
 366:Generated_Source\PSoC4/nRF24_FUNCS.c ****             size = _nrf_addr_width;
 367:Generated_Source\PSoC4/nRF24_FUNCS.c ****         }
 368:Generated_Source\PSoC4/nRF24_FUNCS.c ****             
 369:Generated_Source\PSoC4/nRF24_FUNCS.c ****         nRF24_write_long_register(pipe, addr, size);
ARM GAS  C:\Users\Xwx47\AppData\Local\Temp\ccj7Qs1R.s 			page 18


 596              		.loc 1 369 0
 597 001e 1A00     		movs	r2, r3
 598 0020 FFF7FEFF 		bl	nRF24_write_long_register
 599              	.LVL40:
 370:Generated_Source\PSoC4/nRF24_FUNCS.c ****         break;
 600              		.loc 1 370 0
 601 0024 02E0     		b	.L30
 602              	.LVL41:
 603              	.L35:
 371:Generated_Source\PSoC4/nRF24_FUNCS.c ****     // For pipes 2, 3, 4 and 5 we can change only the LSB of it's address
 372:Generated_Source\PSoC4/nRF24_FUNCS.c ****     case NRF_ADDR_PIPE2:
 373:Generated_Source\PSoC4/nRF24_FUNCS.c ****     case NRF_ADDR_PIPE3:
 374:Generated_Source\PSoC4/nRF24_FUNCS.c ****     case NRF_ADDR_PIPE4:
 375:Generated_Source\PSoC4/nRF24_FUNCS.c ****     case NRF_ADDR_PIPE5:
 376:Generated_Source\PSoC4/nRF24_FUNCS.c ****         (void)size; // so we don't get a warning on unused variable
 377:Generated_Source\PSoC4/nRF24_FUNCS.c ****         
 378:Generated_Source\PSoC4/nRF24_FUNCS.c ****         nRF24_write_long_register(pipe, addr, 1);
 604              		.loc 1 378 0
 605 0026 0122     		movs	r2, #1
 606              	.LVL42:
 607 0028 FFF7FEFF 		bl	nRF24_write_long_register
 608              	.LVL43:
 609              	.L30:
 379:Generated_Source\PSoC4/nRF24_FUNCS.c ****         break;
 380:Generated_Source\PSoC4/nRF24_FUNCS.c ****     }
 381:Generated_Source\PSoC4/nRF24_FUNCS.c **** }
 610              		.loc 1 381 0
 611              		@ sp needed
 612 002c 10BD     		pop	{r4, pc}
 613              	.L37:
 614 002e C046     		.align	2
 615              	.L36:
 616 0030 00000000 		.word	.LANCHOR0
 617              		.cfi_endproc
 618              	.LFE22:
 619              		.size	nRF24_set_rx_pipe_address, .-nRF24_set_rx_pipe_address
 620              		.section	.text.nRF24_get_rx_pipe_address,"ax",%progbits
 621              		.align	2
 622              		.global	nRF24_get_rx_pipe_address
 623              		.code	16
 624              		.thumb_func
 625              		.type	nRF24_get_rx_pipe_address, %function
 626              	nRF24_get_rx_pipe_address:
 627              	.LFB23:
 382:Generated_Source\PSoC4/nRF24_FUNCS.c **** 
 383:Generated_Source\PSoC4/nRF24_FUNCS.c **** /**
 384:Generated_Source\PSoC4/nRF24_FUNCS.c ****  * @brief Get the address of the RX Pipe 0 in the radio.
 385:Generated_Source\PSoC4/nRF24_FUNCS.c ****  *
 386:Generated_Source\PSoC4/nRF24_FUNCS.c ****  * @param uint8_t* addr:
 387:Generated_Source\PSoC4/nRF24_FUNCS.c ****  * @param size_t size:
 388:Generated_Source\PSoC4/nRF24_FUNCS.c ****  */
 389:Generated_Source\PSoC4/nRF24_FUNCS.c **** void nRF24_get_rx_pipe_address(const nrf_addr_rx_pipe pipe,
 390:Generated_Source\PSoC4/nRF24_FUNCS.c ****                                             uint8_t *addr, size_t size)
 391:Generated_Source\PSoC4/nRF24_FUNCS.c **** {
 628              		.loc 1 391 0
 629              		.cfi_startproc
 630              		@ args = 0, pretend = 0, frame = 0
ARM GAS  C:\Users\Xwx47\AppData\Local\Temp\ccj7Qs1R.s 			page 19


 631              		@ frame_needed = 0, uses_anonymous_args = 0
 632              	.LVL44:
 633 0000 70B5     		push	{r4, r5, r6, lr}
 634              		.cfi_def_cfa_offset 16
 635              		.cfi_offset 4, -16
 636              		.cfi_offset 5, -12
 637              		.cfi_offset 6, -8
 638              		.cfi_offset 14, -4
 639 0002 0500     		movs	r5, r0
 640 0004 0E1E     		subs	r6, r1, #0
 392:Generated_Source\PSoC4/nRF24_FUNCS.c ****     if (NULL == addr) {
 641              		.loc 1 392 0
 642 0006 1CD0     		beq	.L38
 393:Generated_Source\PSoC4/nRF24_FUNCS.c ****         return;
 394:Generated_Source\PSoC4/nRF24_FUNCS.c ****     }
 395:Generated_Source\PSoC4/nRF24_FUNCS.c ****     
 396:Generated_Source\PSoC4/nRF24_FUNCS.c ****     // The smaller address is 3 bytes
 397:Generated_Source\PSoC4/nRF24_FUNCS.c ****     if (NRF_PIPE_ADDR_WIDTH_3BYTES > size) {
 398:Generated_Source\PSoC4/nRF24_FUNCS.c ****         // TODO
 399:Generated_Source\PSoC4/nRF24_FUNCS.c ****     }
 400:Generated_Source\PSoC4/nRF24_FUNCS.c ****     
 401:Generated_Source\PSoC4/nRF24_FUNCS.c ****     if (_nrf_addr_width < size) {
 643              		.loc 1 401 0
 644 0008 0E4B     		ldr	r3, .L44
 645 000a 1978     		ldrb	r1, [r3]
 646              	.LVL45:
 647 000c 9142     		cmp	r1, r2
 648 000e 00D3     		bcc	.L40
 649 0010 1100     		movs	r1, r2
 650              	.L40:
 651              	.LVL46:
 402:Generated_Source\PSoC4/nRF24_FUNCS.c ****         size = _nrf_addr_width;
 403:Generated_Source\PSoC4/nRF24_FUNCS.c ****     }
 404:Generated_Source\PSoC4/nRF24_FUNCS.c ****     
 405:Generated_Source\PSoC4/nRF24_FUNCS.c ****     switch(pipe) {
 652              		.loc 1 405 0
 653 0012 0A2D     		cmp	r5, #10
 654 0014 15D3     		bcc	.L38
 655 0016 0B2D     		cmp	r5, #11
 656 0018 02D9     		bls	.L41
 657 001a 0F2D     		cmp	r5, #15
 658 001c 06D9     		bls	.L43
 659 001e 10E0     		b	.L38
 660              	.L41:
 406:Generated_Source\PSoC4/nRF24_FUNCS.c ****     // For pipes 0 and 1 we can read up to 5 bytes of it's addresses
 407:Generated_Source\PSoC4/nRF24_FUNCS.c ****     case NRF_ADDR_PIPE0:
 408:Generated_Source\PSoC4/nRF24_FUNCS.c ****     case NRF_ADDR_PIPE1:
 409:Generated_Source\PSoC4/nRF24_FUNCS.c ****         nRF24_read_long_register(pipe, addr, size);
 661              		.loc 1 409 0
 662 0020 0A00     		movs	r2, r1
 663 0022 3100     		movs	r1, r6
 664              	.LVL47:
 665 0024 2800     		movs	r0, r5
 666              	.LVL48:
 667 0026 FFF7FEFF 		bl	nRF24_read_long_register
 668              	.LVL49:
 410:Generated_Source\PSoC4/nRF24_FUNCS.c ****         break;
ARM GAS  C:\Users\Xwx47\AppData\Local\Temp\ccj7Qs1R.s 			page 20


 669              		.loc 1 410 0
 670 002a 0AE0     		b	.L38
 671              	.LVL50:
 672              	.L43:
 411:Generated_Source\PSoC4/nRF24_FUNCS.c ****     // For pipes 2, 3, 4 and 5 the address is the same to pipe1 except the LSB
 412:Generated_Source\PSoC4/nRF24_FUNCS.c ****     case NRF_ADDR_PIPE2:
 413:Generated_Source\PSoC4/nRF24_FUNCS.c ****     case NRF_ADDR_PIPE3:
 414:Generated_Source\PSoC4/nRF24_FUNCS.c ****     case NRF_ADDR_PIPE4:
 415:Generated_Source\PSoC4/nRF24_FUNCS.c ****     case NRF_ADDR_PIPE5:
 416:Generated_Source\PSoC4/nRF24_FUNCS.c ****         nRF24_read_long_register(NRF_REG_RX_ADDR_P1, addr, size - 1);
 673              		.loc 1 416 0
 674 002c 4C1E     		subs	r4, r1, #1
 675 002e 2200     		movs	r2, r4
 676 0030 3100     		movs	r1, r6
 677              	.LVL51:
 678 0032 0B20     		movs	r0, #11
 679              	.LVL52:
 680 0034 FFF7FEFF 		bl	nRF24_read_long_register
 681              	.LVL53:
 417:Generated_Source\PSoC4/nRF24_FUNCS.c ****         addr[size - 1] = nRF24_read_register(pipe);
 682              		.loc 1 417 0
 683 0038 3419     		adds	r4, r6, r4
 684              	.LVL54:
 685 003a 2800     		movs	r0, r5
 686 003c FFF7FEFF 		bl	nRF24_read_register
 687              	.LVL55:
 688 0040 2070     		strb	r0, [r4]
 689              	.L38:
 418:Generated_Source\PSoC4/nRF24_FUNCS.c ****         break;
 419:Generated_Source\PSoC4/nRF24_FUNCS.c ****     }
 420:Generated_Source\PSoC4/nRF24_FUNCS.c **** }
 690              		.loc 1 420 0
 691              		@ sp needed
 692              	.LVL56:
 693 0042 70BD     		pop	{r4, r5, r6, pc}
 694              	.L45:
 695              		.align	2
 696              	.L44:
 697 0044 00000000 		.word	.LANCHOR0
 698              		.cfi_endproc
 699              	.LFE23:
 700              		.size	nRF24_get_rx_pipe_address, .-nRF24_get_rx_pipe_address
 701              		.section	.text.nRF24_set_tx_address,"ax",%progbits
 702              		.align	2
 703              		.global	nRF24_set_tx_address
 704              		.code	16
 705              		.thumb_func
 706              		.type	nRF24_set_tx_address, %function
 707              	nRF24_set_tx_address:
 708              	.LFB24:
 421:Generated_Source\PSoC4/nRF24_FUNCS.c **** 
 422:Generated_Source\PSoC4/nRF24_FUNCS.c **** /**
 423:Generated_Source\PSoC4/nRF24_FUNCS.c ****  * @brief Set the TX Address of the radio.
 424:Generated_Source\PSoC4/nRF24_FUNCS.c ****  *
 425:Generated_Source\PSoC4/nRF24_FUNCS.c ****  * @param const uint8_t* addr:
 426:Generated_Source\PSoC4/nRF24_FUNCS.c ****  * @param size_t size:
 427:Generated_Source\PSoC4/nRF24_FUNCS.c ****  */
ARM GAS  C:\Users\Xwx47\AppData\Local\Temp\ccj7Qs1R.s 			page 21


 428:Generated_Source\PSoC4/nRF24_FUNCS.c **** void nRF24_set_tx_address(const uint8_t *const addr, size_t size)
 429:Generated_Source\PSoC4/nRF24_FUNCS.c **** {
 709              		.loc 1 429 0
 710              		.cfi_startproc
 711              		@ args = 0, pretend = 0, frame = 0
 712              		@ frame_needed = 0, uses_anonymous_args = 0
 713              	.LVL57:
 714 0000 10B5     		push	{r4, lr}
 715              		.cfi_def_cfa_offset 8
 716              		.cfi_offset 4, -8
 717              		.cfi_offset 14, -4
 430:Generated_Source\PSoC4/nRF24_FUNCS.c ****     if (NULL == addr) {
 718              		.loc 1 430 0
 719 0002 0028     		cmp	r0, #0
 720 0004 08D0     		beq	.L46
 431:Generated_Source\PSoC4/nRF24_FUNCS.c ****         return;
 432:Generated_Source\PSoC4/nRF24_FUNCS.c ****     }
 433:Generated_Source\PSoC4/nRF24_FUNCS.c **** 
 434:Generated_Source\PSoC4/nRF24_FUNCS.c ****     if (_nrf_addr_width < size) {
 721              		.loc 1 434 0
 722 0006 054B     		ldr	r3, .L49
 723 0008 1A78     		ldrb	r2, [r3]
 724 000a 8A42     		cmp	r2, r1
 725 000c 00D3     		bcc	.L48
 726 000e 0A00     		movs	r2, r1
 727              	.L48:
 728              	.LVL58:
 435:Generated_Source\PSoC4/nRF24_FUNCS.c ****         size = _nrf_addr_width;
 436:Generated_Source\PSoC4/nRF24_FUNCS.c ****     }
 437:Generated_Source\PSoC4/nRF24_FUNCS.c **** 
 438:Generated_Source\PSoC4/nRF24_FUNCS.c ****     nRF24_write_long_register(NRF_REG_TX_ADDR, addr, size);
 729              		.loc 1 438 0
 730 0010 0100     		movs	r1, r0
 731 0012 1020     		movs	r0, #16
 732              	.LVL59:
 733 0014 FFF7FEFF 		bl	nRF24_write_long_register
 734              	.LVL60:
 735              	.L46:
 439:Generated_Source\PSoC4/nRF24_FUNCS.c **** }
 736              		.loc 1 439 0
 737              		@ sp needed
 738 0018 10BD     		pop	{r4, pc}
 739              	.L50:
 740 001a C046     		.align	2
 741              	.L49:
 742 001c 00000000 		.word	.LANCHOR0
 743              		.cfi_endproc
 744              	.LFE24:
 745              		.size	nRF24_set_tx_address, .-nRF24_set_tx_address
 746              		.section	.text.nRF24_get_tx_address,"ax",%progbits
 747              		.align	2
 748              		.global	nRF24_get_tx_address
 749              		.code	16
 750              		.thumb_func
 751              		.type	nRF24_get_tx_address, %function
 752              	nRF24_get_tx_address:
 753              	.LFB25:
ARM GAS  C:\Users\Xwx47\AppData\Local\Temp\ccj7Qs1R.s 			page 22


 440:Generated_Source\PSoC4/nRF24_FUNCS.c **** 
 441:Generated_Source\PSoC4/nRF24_FUNCS.c **** /**
 442:Generated_Source\PSoC4/nRF24_FUNCS.c ****  * @brief Get the TX Address of the radio.
 443:Generated_Source\PSoC4/nRF24_FUNCS.c ****  *
 444:Generated_Source\PSoC4/nRF24_FUNCS.c ****  * @param const uint8_t* addr:
 445:Generated_Source\PSoC4/nRF24_FUNCS.c ****  * @param const size_t size:
 446:Generated_Source\PSoC4/nRF24_FUNCS.c ****  */
 447:Generated_Source\PSoC4/nRF24_FUNCS.c **** void nRF24_get_tx_address(uint8_t* addr, size_t size)
 448:Generated_Source\PSoC4/nRF24_FUNCS.c **** {
 754              		.loc 1 448 0
 755              		.cfi_startproc
 756              		@ args = 0, pretend = 0, frame = 0
 757              		@ frame_needed = 0, uses_anonymous_args = 0
 758              	.LVL61:
 759 0000 10B5     		push	{r4, lr}
 760              		.cfi_def_cfa_offset 8
 761              		.cfi_offset 4, -8
 762              		.cfi_offset 14, -4
 449:Generated_Source\PSoC4/nRF24_FUNCS.c ****     if (NULL == addr) {
 763              		.loc 1 449 0
 764 0002 0028     		cmp	r0, #0
 765 0004 08D0     		beq	.L51
 450:Generated_Source\PSoC4/nRF24_FUNCS.c ****         return;
 451:Generated_Source\PSoC4/nRF24_FUNCS.c ****     }
 452:Generated_Source\PSoC4/nRF24_FUNCS.c **** 
 453:Generated_Source\PSoC4/nRF24_FUNCS.c ****     if (_nrf_addr_width < size) {
 766              		.loc 1 453 0
 767 0006 054B     		ldr	r3, .L54
 768 0008 1A78     		ldrb	r2, [r3]
 769 000a 8A42     		cmp	r2, r1
 770 000c 00D3     		bcc	.L53
 771 000e 0A00     		movs	r2, r1
 772              	.L53:
 773              	.LVL62:
 454:Generated_Source\PSoC4/nRF24_FUNCS.c ****         size = _nrf_addr_width;
 455:Generated_Source\PSoC4/nRF24_FUNCS.c ****     }
 456:Generated_Source\PSoC4/nRF24_FUNCS.c **** 
 457:Generated_Source\PSoC4/nRF24_FUNCS.c ****     nRF24_read_long_register(NRF_REG_TX_ADDR, addr, size);
 774              		.loc 1 457 0
 775 0010 0100     		movs	r1, r0
 776 0012 1020     		movs	r0, #16
 777              	.LVL63:
 778 0014 FFF7FEFF 		bl	nRF24_read_long_register
 779              	.LVL64:
 780              	.L51:
 458:Generated_Source\PSoC4/nRF24_FUNCS.c **** }
 781              		.loc 1 458 0
 782              		@ sp needed
 783 0018 10BD     		pop	{r4, pc}
 784              	.L55:
 785 001a C046     		.align	2
 786              	.L54:
 787 001c 00000000 		.word	.LANCHOR0
 788              		.cfi_endproc
 789              	.LFE25:
 790              		.size	nRF24_get_tx_address, .-nRF24_get_tx_address
 791              		.section	.text.nRF24_set_payload_size,"ax",%progbits
ARM GAS  C:\Users\Xwx47\AppData\Local\Temp\ccj7Qs1R.s 			page 23


 792              		.align	2
 793              		.global	nRF24_set_payload_size
 794              		.code	16
 795              		.thumb_func
 796              		.type	nRF24_set_payload_size, %function
 797              	nRF24_set_payload_size:
 798              	.LFB26:
 459:Generated_Source\PSoC4/nRF24_FUNCS.c **** 
 460:Generated_Source\PSoC4/nRF24_FUNCS.c **** /**
 461:Generated_Source\PSoC4/nRF24_FUNCS.c ****  * @brief Set the payload size of the given pipe.
 462:Generated_Source\PSoC4/nRF24_FUNCS.c ****  *
 463:Generated_Source\PSoC4/nRF24_FUNCS.c ****  * Configure the payload size of the given pipe.
 464:Generated_Source\PSoC4/nRF24_FUNCS.c ****  *
 465:Generated_Source\PSoC4/nRF24_FUNCS.c ****  * @param const nrf_pipe pipe:
 466:Generated_Source\PSoC4/nRF24_FUNCS.c ****  * @param uint8_t size:
 467:Generated_Source\PSoC4/nRF24_FUNCS.c ****  */
 468:Generated_Source\PSoC4/nRF24_FUNCS.c **** void nRF24_set_payload_size(const nrf_pld_size pipe, uint8_t size)
 469:Generated_Source\PSoC4/nRF24_FUNCS.c **** {
 799              		.loc 1 469 0
 800              		.cfi_startproc
 801              		@ args = 0, pretend = 0, frame = 0
 802              		@ frame_needed = 0, uses_anonymous_args = 0
 803              	.LVL65:
 804 0000 10B5     		push	{r4, lr}
 805              		.cfi_def_cfa_offset 8
 806              		.cfi_offset 4, -8
 807              		.cfi_offset 14, -4
 470:Generated_Source\PSoC4/nRF24_FUNCS.c ****     if (NRF_PAYLOAD_SIZE_MAX < size) {
 808              		.loc 1 470 0
 809 0002 2029     		cmp	r1, #32
 810 0004 00D9     		bls	.L57
 471:Generated_Source\PSoC4/nRF24_FUNCS.c ****         size = NRF_PAYLOAD_SIZE_MAX;
 811              		.loc 1 471 0
 812 0006 2021     		movs	r1, #32
 813              	.LVL66:
 814              	.L57:
 472:Generated_Source\PSoC4/nRF24_FUNCS.c ****     }
 473:Generated_Source\PSoC4/nRF24_FUNCS.c **** 
 474:Generated_Source\PSoC4/nRF24_FUNCS.c ****     nRF24_write_register(pipe, size);
 815              		.loc 1 474 0
 816 0008 FFF7FEFF 		bl	nRF24_write_register
 817              	.LVL67:
 475:Generated_Source\PSoC4/nRF24_FUNCS.c **** }
 818              		.loc 1 475 0
 819              		@ sp needed
 820 000c 10BD     		pop	{r4, pc}
 821              		.cfi_endproc
 822              	.LFE26:
 823              		.size	nRF24_set_payload_size, .-nRF24_set_payload_size
 824 000e C046     		.section	.text.nRF24_get_payload_size,"ax",%progbits
 825              		.align	2
 826              		.global	nRF24_get_payload_size
 827              		.code	16
 828              		.thumb_func
 829              		.type	nRF24_get_payload_size, %function
 830              	nRF24_get_payload_size:
 831              	.LFB27:
ARM GAS  C:\Users\Xwx47\AppData\Local\Temp\ccj7Qs1R.s 			page 24


 476:Generated_Source\PSoC4/nRF24_FUNCS.c **** 
 477:Generated_Source\PSoC4/nRF24_FUNCS.c **** /**
 478:Generated_Source\PSoC4/nRF24_FUNCS.c ****  * Get the payload size of the given pipe.
 479:Generated_Source\PSoC4/nRF24_FUNCS.c ****  *
 480:Generated_Source\PSoC4/nRF24_FUNCS.c ****  * @param const nrf_pipe pipe: Pipe to be read.
 481:Generated_Source\PSoC4/nRF24_FUNCS.c ****  *
 482:Generated_Source\PSoC4/nRF24_FUNCS.c ****  * @return uint8_t: Configured payload size of the given pipe.
 483:Generated_Source\PSoC4/nRF24_FUNCS.c ****  */
 484:Generated_Source\PSoC4/nRF24_FUNCS.c **** uint8_t nRF24_get_payload_size(const nrf_pld_size pipe)
 485:Generated_Source\PSoC4/nRF24_FUNCS.c **** {
 832              		.loc 1 485 0
 833              		.cfi_startproc
 834              		@ args = 0, pretend = 0, frame = 0
 835              		@ frame_needed = 0, uses_anonymous_args = 0
 836              	.LVL68:
 837 0000 10B5     		push	{r4, lr}
 838              		.cfi_def_cfa_offset 8
 839              		.cfi_offset 4, -8
 840              		.cfi_offset 14, -4
 486:Generated_Source\PSoC4/nRF24_FUNCS.c ****     return nRF24_read_register(pipe);
 841              		.loc 1 486 0
 842 0002 FFF7FEFF 		bl	nRF24_read_register
 843              	.LVL69:
 487:Generated_Source\PSoC4/nRF24_FUNCS.c **** }
 844              		.loc 1 487 0
 845              		@ sp needed
 846 0006 10BD     		pop	{r4, pc}
 847              		.cfi_endproc
 848              	.LFE27:
 849              		.size	nRF24_get_payload_size, .-nRF24_get_payload_size
 850              		.section	.text.nRF24_enable_dynamic_payload,"ax",%progbits
 851              		.align	2
 852              		.global	nRF24_enable_dynamic_payload
 853              		.code	16
 854              		.thumb_func
 855              		.type	nRF24_enable_dynamic_payload, %function
 856              	nRF24_enable_dynamic_payload:
 857              	.LFB29:
 488:Generated_Source\PSoC4/nRF24_FUNCS.c **** 
 489:Generated_Source\PSoC4/nRF24_FUNCS.c **** /**
 490:Generated_Source\PSoC4/nRF24_FUNCS.c ****  * @brief Reuse last transmitted payload.
 491:Generated_Source\PSoC4/nRF24_FUNCS.c ****  *
 492:Generated_Source\PSoC4/nRF24_FUNCS.c ****  * This function issue the command ReuseTxPayload and then toggle the CE pin
 493:Generated_Source\PSoC4/nRF24_FUNCS.c ****  * to transmit the last transmitted payload.
 494:Generated_Source\PSoC4/nRF24_FUNCS.c ****  */
 495:Generated_Source\PSoC4/nRF24_FUNCS.c **** void nRF24_reuse_last_transmitted_payload(void)
 496:Generated_Source\PSoC4/nRF24_FUNCS.c **** {
 497:Generated_Source\PSoC4/nRF24_FUNCS.c ****     nRF24_reuse_tx_payload_cmd();
 498:Generated_Source\PSoC4/nRF24_FUNCS.c ****     nRF24_transmit_pulse();
 499:Generated_Source\PSoC4/nRF24_FUNCS.c **** }
 500:Generated_Source\PSoC4/nRF24_FUNCS.c **** 
 501:Generated_Source\PSoC4/nRF24_FUNCS.c **** /**
 502:Generated_Source\PSoC4/nRF24_FUNCS.c ****  * @brief Enable dynamic payload on the given pipe.
 503:Generated_Source\PSoC4/nRF24_FUNCS.c ****  *
 504:Generated_Source\PSoC4/nRF24_FUNCS.c ****  * @param const nrf_pipe pipe:
 505:Generated_Source\PSoC4/nRF24_FUNCS.c ****  */
 506:Generated_Source\PSoC4/nRF24_FUNCS.c **** void nRF24_enable_dynamic_payload(void)
ARM GAS  C:\Users\Xwx47\AppData\Local\Temp\ccj7Qs1R.s 			page 25


 507:Generated_Source\PSoC4/nRF24_FUNCS.c **** {
 858              		.loc 1 507 0
 859              		.cfi_startproc
 860              		@ args = 0, pretend = 0, frame = 0
 861              		@ frame_needed = 0, uses_anonymous_args = 0
 862 0000 10B5     		push	{r4, lr}
 863              		.cfi_def_cfa_offset 8
 864              		.cfi_offset 4, -8
 865              		.cfi_offset 14, -4
 508:Generated_Source\PSoC4/nRF24_FUNCS.c ****     // TODO: Read the FEATURE register, check the needed values and set
 509:Generated_Source\PSoC4/nRF24_FUNCS.c ****     // the bits if not set already
 510:Generated_Source\PSoC4/nRF24_FUNCS.c ****     nRF24_set_bit(NRF_REG_FEATURE, NRF_FEATURE_BIT_EN_ACK_PAY);
 866              		.loc 1 510 0
 867 0002 0121     		movs	r1, #1
 868 0004 1D20     		movs	r0, #29
 869 0006 FFF7FEFF 		bl	nRF24_set_bit
 870              	.LVL70:
 511:Generated_Source\PSoC4/nRF24_FUNCS.c ****     nRF24_set_bit(NRF_REG_FEATURE, NRF_FEATURE_BIT_EN_DPL);
 871              		.loc 1 511 0
 872 000a 0221     		movs	r1, #2
 873 000c 1D20     		movs	r0, #29
 874 000e FFF7FEFF 		bl	nRF24_set_bit
 875              	.LVL71:
 512:Generated_Source\PSoC4/nRF24_FUNCS.c **** }
 876              		.loc 1 512 0
 877              		@ sp needed
 878 0012 10BD     		pop	{r4, pc}
 879              		.cfi_endproc
 880              	.LFE29:
 881              		.size	nRF24_enable_dynamic_payload, .-nRF24_enable_dynamic_payload
 882              		.section	.text.nRF24_enable_dynamic_payload_on_pipe,"ax",%progbits
 883              		.align	2
 884              		.global	nRF24_enable_dynamic_payload_on_pipe
 885              		.code	16
 886              		.thumb_func
 887              		.type	nRF24_enable_dynamic_payload_on_pipe, %function
 888              	nRF24_enable_dynamic_payload_on_pipe:
 889              	.LFB30:
 513:Generated_Source\PSoC4/nRF24_FUNCS.c **** 
 514:Generated_Source\PSoC4/nRF24_FUNCS.c **** /**
 515:Generated_Source\PSoC4/nRF24_FUNCS.c ****  * @brief Enable dynamic payload on the given pipe.
 516:Generated_Source\PSoC4/nRF24_FUNCS.c ****  *
 517:Generated_Source\PSoC4/nRF24_FUNCS.c ****  * @param const nrf_pipe pipe:
 518:Generated_Source\PSoC4/nRF24_FUNCS.c ****  */
 519:Generated_Source\PSoC4/nRF24_FUNCS.c **** void nRF24_enable_dynamic_payload_on_pipe(const nrf_pipe pipe)
 520:Generated_Source\PSoC4/nRF24_FUNCS.c **** {
 890              		.loc 1 520 0
 891              		.cfi_startproc
 892              		@ args = 0, pretend = 0, frame = 0
 893              		@ frame_needed = 0, uses_anonymous_args = 0
 894              	.LVL72:
 895 0000 10B5     		push	{r4, lr}
 896              		.cfi_def_cfa_offset 8
 897              		.cfi_offset 4, -8
 898              		.cfi_offset 14, -4
 899 0002 0400     		movs	r4, r0
 521:Generated_Source\PSoC4/nRF24_FUNCS.c ****     nRF24_set_bit(NRF_REG_EN_AA, pipe);
ARM GAS  C:\Users\Xwx47\AppData\Local\Temp\ccj7Qs1R.s 			page 26


 900              		.loc 1 521 0
 901 0004 0100     		movs	r1, r0
 902 0006 0120     		movs	r0, #1
 903              	.LVL73:
 904 0008 FFF7FEFF 		bl	nRF24_set_bit
 905              	.LVL74:
 522:Generated_Source\PSoC4/nRF24_FUNCS.c ****     nRF24_set_bit(NRF_REG_DYNPD, pipe);
 906              		.loc 1 522 0
 907 000c 2100     		movs	r1, r4
 908 000e 1C20     		movs	r0, #28
 909 0010 FFF7FEFF 		bl	nRF24_set_bit
 910              	.LVL75:
 523:Generated_Source\PSoC4/nRF24_FUNCS.c **** }
 911              		.loc 1 523 0
 912              		@ sp needed
 913 0014 10BD     		pop	{r4, pc}
 914              		.cfi_endproc
 915              	.LFE30:
 916              		.size	nRF24_enable_dynamic_payload_on_pipe, .-nRF24_enable_dynamic_payload_on_pipe
 917 0016 C046     		.section	.text.nRF24_disable_dynamic_payload,"ax",%progbits
 918              		.align	2
 919              		.global	nRF24_disable_dynamic_payload
 920              		.code	16
 921              		.thumb_func
 922              		.type	nRF24_disable_dynamic_payload, %function
 923              	nRF24_disable_dynamic_payload:
 924              	.LFB31:
 524:Generated_Source\PSoC4/nRF24_FUNCS.c **** 
 525:Generated_Source\PSoC4/nRF24_FUNCS.c **** /**
 526:Generated_Source\PSoC4/nRF24_FUNCS.c ****  * @brief Disable dynamic payload on the given pipe.
 527:Generated_Source\PSoC4/nRF24_FUNCS.c ****  *
 528:Generated_Source\PSoC4/nRF24_FUNCS.c ****  * @param const nrf_pipe pipe:
 529:Generated_Source\PSoC4/nRF24_FUNCS.c ****  */
 530:Generated_Source\PSoC4/nRF24_FUNCS.c **** void nRF24_disable_dynamic_payload()
 531:Generated_Source\PSoC4/nRF24_FUNCS.c **** {
 925              		.loc 1 531 0
 926              		.cfi_startproc
 927              		@ args = 0, pretend = 0, frame = 0
 928              		@ frame_needed = 0, uses_anonymous_args = 0
 929 0000 10B5     		push	{r4, lr}
 930              		.cfi_def_cfa_offset 8
 931              		.cfi_offset 4, -8
 932              		.cfi_offset 14, -4
 532:Generated_Source\PSoC4/nRF24_FUNCS.c ****     // TODO: Read the FEATURE register, check the needed values and clear
 533:Generated_Source\PSoC4/nRF24_FUNCS.c ****     // the bits if not clear already
 534:Generated_Source\PSoC4/nRF24_FUNCS.c ****     nRF24_clear_bit(NRF_REG_FEATURE, NRF_FEATURE_BIT_EN_ACK_PAY);
 933              		.loc 1 534 0
 934 0002 0121     		movs	r1, #1
 935 0004 1D20     		movs	r0, #29
 936 0006 FFF7FEFF 		bl	nRF24_clear_bit
 937              	.LVL76:
 535:Generated_Source\PSoC4/nRF24_FUNCS.c ****     nRF24_clear_bit(NRF_REG_FEATURE, NRF_FEATURE_BIT_EN_DPL);
 938              		.loc 1 535 0
 939 000a 0221     		movs	r1, #2
 940 000c 1D20     		movs	r0, #29
 941 000e FFF7FEFF 		bl	nRF24_clear_bit
 942              	.LVL77:
ARM GAS  C:\Users\Xwx47\AppData\Local\Temp\ccj7Qs1R.s 			page 27


 536:Generated_Source\PSoC4/nRF24_FUNCS.c **** }
 943              		.loc 1 536 0
 944              		@ sp needed
 945 0012 10BD     		pop	{r4, pc}
 946              		.cfi_endproc
 947              	.LFE31:
 948              		.size	nRF24_disable_dynamic_payload, .-nRF24_disable_dynamic_payload
 949              		.section	.text.nRF24_disable_dynamic_payload_on_pipe,"ax",%progbits
 950              		.align	2
 951              		.global	nRF24_disable_dynamic_payload_on_pipe
 952              		.code	16
 953              		.thumb_func
 954              		.type	nRF24_disable_dynamic_payload_on_pipe, %function
 955              	nRF24_disable_dynamic_payload_on_pipe:
 956              	.LFB32:
 537:Generated_Source\PSoC4/nRF24_FUNCS.c **** 
 538:Generated_Source\PSoC4/nRF24_FUNCS.c **** /**
 539:Generated_Source\PSoC4/nRF24_FUNCS.c ****  * @brief Disable dynamic payload on the given pipe.
 540:Generated_Source\PSoC4/nRF24_FUNCS.c ****  *
 541:Generated_Source\PSoC4/nRF24_FUNCS.c ****  * @param const nrf_pipe pipe:
 542:Generated_Source\PSoC4/nRF24_FUNCS.c ****  */
 543:Generated_Source\PSoC4/nRF24_FUNCS.c **** void nRF24_disable_dynamic_payload_on_pipe(const nrf_pipe pipe)
 544:Generated_Source\PSoC4/nRF24_FUNCS.c **** {
 957              		.loc 1 544 0
 958              		.cfi_startproc
 959              		@ args = 0, pretend = 0, frame = 0
 960              		@ frame_needed = 0, uses_anonymous_args = 0
 961              	.LVL78:
 962 0000 10B5     		push	{r4, lr}
 963              		.cfi_def_cfa_offset 8
 964              		.cfi_offset 4, -8
 965              		.cfi_offset 14, -4
 966 0002 0400     		movs	r4, r0
 545:Generated_Source\PSoC4/nRF24_FUNCS.c ****     nRF24_clear_bit(NRF_REG_EN_AA, pipe);
 967              		.loc 1 545 0
 968 0004 0100     		movs	r1, r0
 969 0006 0120     		movs	r0, #1
 970              	.LVL79:
 971 0008 FFF7FEFF 		bl	nRF24_clear_bit
 972              	.LVL80:
 546:Generated_Source\PSoC4/nRF24_FUNCS.c ****     nRF24_clear_bit(NRF_REG_DYNPD, pipe);
 973              		.loc 1 546 0
 974 000c 2100     		movs	r1, r4
 975 000e 1C20     		movs	r0, #28
 976 0010 FFF7FEFF 		bl	nRF24_clear_bit
 977              	.LVL81:
 547:Generated_Source\PSoC4/nRF24_FUNCS.c **** }
 978              		.loc 1 547 0
 979              		@ sp needed
 980 0014 10BD     		pop	{r4, pc}
 981              		.cfi_endproc
 982              	.LFE32:
 983              		.size	nRF24_disable_dynamic_payload_on_pipe, .-nRF24_disable_dynamic_payload_on_pipe
 984 0016 C046     		.section	.text.nRF24_enable_dynamic_payload_length,"ax",%progbits
 985              		.align	2
 986              		.global	nRF24_enable_dynamic_payload_length
 987              		.code	16
ARM GAS  C:\Users\Xwx47\AppData\Local\Temp\ccj7Qs1R.s 			page 28


 988              		.thumb_func
 989              		.type	nRF24_enable_dynamic_payload_length, %function
 990              	nRF24_enable_dynamic_payload_length:
 991              	.LFB33:
 548:Generated_Source\PSoC4/nRF24_FUNCS.c **** 
 549:Generated_Source\PSoC4/nRF24_FUNCS.c **** /**
 550:Generated_Source\PSoC4/nRF24_FUNCS.c ****  * @brief Enable dinamic payload length.
 551:Generated_Source\PSoC4/nRF24_FUNCS.c ****  */
 552:Generated_Source\PSoC4/nRF24_FUNCS.c **** void nRF24_enable_dynamic_payload_length(void)
 553:Generated_Source\PSoC4/nRF24_FUNCS.c **** {
 992              		.loc 1 553 0
 993              		.cfi_startproc
 994              		@ args = 0, pretend = 0, frame = 0
 995              		@ frame_needed = 0, uses_anonymous_args = 0
 996 0000 10B5     		push	{r4, lr}
 997              		.cfi_def_cfa_offset 8
 998              		.cfi_offset 4, -8
 999              		.cfi_offset 14, -4
 554:Generated_Source\PSoC4/nRF24_FUNCS.c ****     nRF24_set_bit(NRF_REG_FEATURE, NRF_FEATURE_BIT_EN_DPL);
 1000              		.loc 1 554 0
 1001 0002 0221     		movs	r1, #2
 1002 0004 1D20     		movs	r0, #29
 1003 0006 FFF7FEFF 		bl	nRF24_set_bit
 1004              	.LVL82:
 555:Generated_Source\PSoC4/nRF24_FUNCS.c **** }
 1005              		.loc 1 555 0
 1006              		@ sp needed
 1007 000a 10BD     		pop	{r4, pc}
 1008              		.cfi_endproc
 1009              	.LFE33:
 1010              		.size	nRF24_enable_dynamic_payload_length, .-nRF24_enable_dynamic_payload_length
 1011              		.section	.text.nRF24_disable_dynamic_payload_length,"ax",%progbits
 1012              		.align	2
 1013              		.global	nRF24_disable_dynamic_payload_length
 1014              		.code	16
 1015              		.thumb_func
 1016              		.type	nRF24_disable_dynamic_payload_length, %function
 1017              	nRF24_disable_dynamic_payload_length:
 1018              	.LFB34:
 556:Generated_Source\PSoC4/nRF24_FUNCS.c **** 
 557:Generated_Source\PSoC4/nRF24_FUNCS.c **** /**
 558:Generated_Source\PSoC4/nRF24_FUNCS.c ****  * @brief Disable dynamic payload length.
 559:Generated_Source\PSoC4/nRF24_FUNCS.c ****  */
 560:Generated_Source\PSoC4/nRF24_FUNCS.c **** void nRF24_disable_dynamic_payload_length(void)
 561:Generated_Source\PSoC4/nRF24_FUNCS.c **** {
 1019              		.loc 1 561 0
 1020              		.cfi_startproc
 1021              		@ args = 0, pretend = 0, frame = 0
 1022              		@ frame_needed = 0, uses_anonymous_args = 0
 1023 0000 10B5     		push	{r4, lr}
 1024              		.cfi_def_cfa_offset 8
 1025              		.cfi_offset 4, -8
 1026              		.cfi_offset 14, -4
 562:Generated_Source\PSoC4/nRF24_FUNCS.c ****     nRF24_clear_bit(NRF_REG_FEATURE, NRF_FEATURE_BIT_EN_DPL);
 1027              		.loc 1 562 0
 1028 0002 0221     		movs	r1, #2
 1029 0004 1D20     		movs	r0, #29
ARM GAS  C:\Users\Xwx47\AppData\Local\Temp\ccj7Qs1R.s 			page 29


 1030 0006 FFF7FEFF 		bl	nRF24_clear_bit
 1031              	.LVL83:
 563:Generated_Source\PSoC4/nRF24_FUNCS.c **** }
 1032              		.loc 1 563 0
 1033              		@ sp needed
 1034 000a 10BD     		pop	{r4, pc}
 1035              		.cfi_endproc
 1036              	.LFE34:
 1037              		.size	nRF24_disable_dynamic_payload_length, .-nRF24_disable_dynamic_payload_length
 1038              		.section	.text.nRF24_enable_payload_with_ack,"ax",%progbits
 1039              		.align	2
 1040              		.global	nRF24_enable_payload_with_ack
 1041              		.code	16
 1042              		.thumb_func
 1043              		.type	nRF24_enable_payload_with_ack, %function
 1044              	nRF24_enable_payload_with_ack:
 1045              	.LFB35:
 564:Generated_Source\PSoC4/nRF24_FUNCS.c **** 
 565:Generated_Source\PSoC4/nRF24_FUNCS.c **** /**
 566:Generated_Source\PSoC4/nRF24_FUNCS.c ****  * @brief Enable payload with ACK.
 567:Generated_Source\PSoC4/nRF24_FUNCS.c ****  */
 568:Generated_Source\PSoC4/nRF24_FUNCS.c **** void nRF24_enable_payload_with_ack(void)
 569:Generated_Source\PSoC4/nRF24_FUNCS.c **** {
 1046              		.loc 1 569 0
 1047              		.cfi_startproc
 1048              		@ args = 0, pretend = 0, frame = 0
 1049              		@ frame_needed = 0, uses_anonymous_args = 0
 1050 0000 10B5     		push	{r4, lr}
 1051              		.cfi_def_cfa_offset 8
 1052              		.cfi_offset 4, -8
 1053              		.cfi_offset 14, -4
 570:Generated_Source\PSoC4/nRF24_FUNCS.c ****     nRF24_set_bit(NRF_REG_FEATURE, NRF_FEATURE_BIT_EN_ACK_PAY);
 1054              		.loc 1 570 0
 1055 0002 0121     		movs	r1, #1
 1056 0004 1D20     		movs	r0, #29
 1057 0006 FFF7FEFF 		bl	nRF24_set_bit
 1058              	.LVL84:
 571:Generated_Source\PSoC4/nRF24_FUNCS.c **** }
 1059              		.loc 1 571 0
 1060              		@ sp needed
 1061 000a 10BD     		pop	{r4, pc}
 1062              		.cfi_endproc
 1063              	.LFE35:
 1064              		.size	nRF24_enable_payload_with_ack, .-nRF24_enable_payload_with_ack
 1065              		.section	.text.nRF24_disable_payload_with_ack,"ax",%progbits
 1066              		.align	2
 1067              		.global	nRF24_disable_payload_with_ack
 1068              		.code	16
 1069              		.thumb_func
 1070              		.type	nRF24_disable_payload_with_ack, %function
 1071              	nRF24_disable_payload_with_ack:
 1072              	.LFB36:
 572:Generated_Source\PSoC4/nRF24_FUNCS.c **** 
 573:Generated_Source\PSoC4/nRF24_FUNCS.c **** /**
 574:Generated_Source\PSoC4/nRF24_FUNCS.c ****  * @brief Disable Payload with ACK.
 575:Generated_Source\PSoC4/nRF24_FUNCS.c ****  */
 576:Generated_Source\PSoC4/nRF24_FUNCS.c **** void nRF24_disable_payload_with_ack(void)
ARM GAS  C:\Users\Xwx47\AppData\Local\Temp\ccj7Qs1R.s 			page 30


 577:Generated_Source\PSoC4/nRF24_FUNCS.c **** {
 1073              		.loc 1 577 0
 1074              		.cfi_startproc
 1075              		@ args = 0, pretend = 0, frame = 0
 1076              		@ frame_needed = 0, uses_anonymous_args = 0
 1077 0000 10B5     		push	{r4, lr}
 1078              		.cfi_def_cfa_offset 8
 1079              		.cfi_offset 4, -8
 1080              		.cfi_offset 14, -4
 578:Generated_Source\PSoC4/nRF24_FUNCS.c ****     nRF24_clear_bit(NRF_REG_FEATURE, NRF_FEATURE_BIT_EN_ACK_PAY);
 1081              		.loc 1 578 0
 1082 0002 0121     		movs	r1, #1
 1083 0004 1D20     		movs	r0, #29
 1084 0006 FFF7FEFF 		bl	nRF24_clear_bit
 1085              	.LVL85:
 579:Generated_Source\PSoC4/nRF24_FUNCS.c **** }
 1086              		.loc 1 579 0
 1087              		@ sp needed
 1088 000a 10BD     		pop	{r4, pc}
 1089              		.cfi_endproc
 1090              	.LFE36:
 1091              		.size	nRF24_disable_payload_with_ack, .-nRF24_disable_payload_with_ack
 1092              		.section	.text.nRF24_enable_payload_with_no_ack,"ax",%progbits
 1093              		.align	2
 1094              		.global	nRF24_enable_payload_with_no_ack
 1095              		.code	16
 1096              		.thumb_func
 1097              		.type	nRF24_enable_payload_with_no_ack, %function
 1098              	nRF24_enable_payload_with_no_ack:
 1099              	.LFB37:
 580:Generated_Source\PSoC4/nRF24_FUNCS.c **** 
 581:Generated_Source\PSoC4/nRF24_FUNCS.c **** /**
 582:Generated_Source\PSoC4/nRF24_FUNCS.c ****  * @brief Enable dynamic payload length.
 583:Generated_Source\PSoC4/nRF24_FUNCS.c ****  */
 584:Generated_Source\PSoC4/nRF24_FUNCS.c **** void nRF24_enable_payload_with_no_ack(void)
 585:Generated_Source\PSoC4/nRF24_FUNCS.c **** {
 1100              		.loc 1 585 0
 1101              		.cfi_startproc
 1102              		@ args = 0, pretend = 0, frame = 0
 1103              		@ frame_needed = 0, uses_anonymous_args = 0
 1104 0000 10B5     		push	{r4, lr}
 1105              		.cfi_def_cfa_offset 8
 1106              		.cfi_offset 4, -8
 1107              		.cfi_offset 14, -4
 586:Generated_Source\PSoC4/nRF24_FUNCS.c ****     nRF24_set_bit(NRF_REG_FEATURE, NRF_FEATURE_BIT_EN_DYN_ACK);
 1108              		.loc 1 586 0
 1109 0002 0021     		movs	r1, #0
 1110 0004 1D20     		movs	r0, #29
 1111 0006 FFF7FEFF 		bl	nRF24_set_bit
 1112              	.LVL86:
 587:Generated_Source\PSoC4/nRF24_FUNCS.c **** }
 1113              		.loc 1 587 0
 1114              		@ sp needed
 1115 000a 10BD     		pop	{r4, pc}
 1116              		.cfi_endproc
 1117              	.LFE37:
 1118              		.size	nRF24_enable_payload_with_no_ack, .-nRF24_enable_payload_with_no_ack
ARM GAS  C:\Users\Xwx47\AppData\Local\Temp\ccj7Qs1R.s 			page 31


 1119              		.section	.text.nRF24_disable_payload_with_no_ack,"ax",%progbits
 1120              		.align	2
 1121              		.global	nRF24_disable_payload_with_no_ack
 1122              		.code	16
 1123              		.thumb_func
 1124              		.type	nRF24_disable_payload_with_no_ack, %function
 1125              	nRF24_disable_payload_with_no_ack:
 1126              	.LFB38:
 588:Generated_Source\PSoC4/nRF24_FUNCS.c **** 
 589:Generated_Source\PSoC4/nRF24_FUNCS.c **** /**
 590:Generated_Source\PSoC4/nRF24_FUNCS.c ****  * @brief Disable Payload with no ACK.
 591:Generated_Source\PSoC4/nRF24_FUNCS.c ****  */
 592:Generated_Source\PSoC4/nRF24_FUNCS.c **** void nRF24_disable_payload_with_no_ack(void)
 593:Generated_Source\PSoC4/nRF24_FUNCS.c **** {
 1127              		.loc 1 593 0
 1128              		.cfi_startproc
 1129              		@ args = 0, pretend = 0, frame = 0
 1130              		@ frame_needed = 0, uses_anonymous_args = 0
 1131 0000 10B5     		push	{r4, lr}
 1132              		.cfi_def_cfa_offset 8
 1133              		.cfi_offset 4, -8
 1134              		.cfi_offset 14, -4
 594:Generated_Source\PSoC4/nRF24_FUNCS.c ****     nRF24_clear_bit(NRF_REG_FEATURE, NRF_FEATURE_BIT_EN_DYN_ACK);
 1135              		.loc 1 594 0
 1136 0002 0021     		movs	r1, #0
 1137 0004 1D20     		movs	r0, #29
 1138 0006 FFF7FEFF 		bl	nRF24_clear_bit
 1139              	.LVL87:
 595:Generated_Source\PSoC4/nRF24_FUNCS.c **** }
 1140              		.loc 1 595 0
 1141              		@ sp needed
 1142 000a 10BD     		pop	{r4, pc}
 1143              		.cfi_endproc
 1144              	.LFE38:
 1145              		.size	nRF24_disable_payload_with_no_ack, .-nRF24_disable_payload_with_no_ack
 1146              		.section	.text.nRF24_start_listening,"ax",%progbits
 1147              		.align	2
 1148              		.global	nRF24_start_listening
 1149              		.code	16
 1150              		.thumb_func
 1151              		.type	nRF24_start_listening, %function
 1152              	nRF24_start_listening:
 1153              	.LFB39:
 596:Generated_Source\PSoC4/nRF24_FUNCS.c **** 
 597:Generated_Source\PSoC4/nRF24_FUNCS.c **** /**
 598:Generated_Source\PSoC4/nRF24_FUNCS.c ****  * @brief The nRF24 radio will start listening.
 599:Generated_Source\PSoC4/nRF24_FUNCS.c ****  *
 600:Generated_Source\PSoC4/nRF24_FUNCS.c ****  * This function set the pin CE to logic high, this enable the radio for
 601:Generated_Source\PSoC4/nRF24_FUNCS.c ****  * listening.
 602:Generated_Source\PSoC4/nRF24_FUNCS.c ****  */
 603:Generated_Source\PSoC4/nRF24_FUNCS.c **** void nRF24_start_listening(void)
 604:Generated_Source\PSoC4/nRF24_FUNCS.c **** {
 1154              		.loc 1 604 0
 1155              		.cfi_startproc
 1156              		@ args = 0, pretend = 0, frame = 0
 1157              		@ frame_needed = 0, uses_anonymous_args = 0
 1158 0000 10B5     		push	{r4, lr}
ARM GAS  C:\Users\Xwx47\AppData\Local\Temp\ccj7Qs1R.s 			page 32


 1159              		.cfi_def_cfa_offset 8
 1160              		.cfi_offset 4, -8
 1161              		.cfi_offset 14, -4
 605:Generated_Source\PSoC4/nRF24_FUNCS.c **** #if defined (_PSOC6)
 606:Generated_Source\PSoC4/nRF24_FUNCS.c ****     Cy_GPIO_Set(CE_PORT, CE_NUM);
 607:Generated_Source\PSoC4/nRF24_FUNCS.c **** #else
 608:Generated_Source\PSoC4/nRF24_FUNCS.c ****     CE_Write(1);
 1162              		.loc 1 608 0
 1163 0002 0120     		movs	r0, #1
 1164 0004 FFF7FEFF 		bl	CE_Write
 1165              	.LVL88:
 609:Generated_Source\PSoC4/nRF24_FUNCS.c **** #endif
 610:Generated_Source\PSoC4/nRF24_FUNCS.c **** }
 1166              		.loc 1 610 0
 1167              		@ sp needed
 1168 0008 10BD     		pop	{r4, pc}
 1169              		.cfi_endproc
 1170              	.LFE39:
 1171              		.size	nRF24_start_listening, .-nRF24_start_listening
 1172 000a C046     		.section	.text.nRF24_set_standby_ii_mode,"ax",%progbits
 1173              		.align	2
 1174              		.global	nRF24_set_standby_ii_mode
 1175              		.code	16
 1176              		.thumb_func
 1177              		.type	nRF24_set_standby_ii_mode, %function
 1178              	nRF24_set_standby_ii_mode:
 1179              	.LFB13:
 242:Generated_Source\PSoC4/nRF24_FUNCS.c ****     nRF24_start_listening();
 1180              		.loc 1 242 0
 1181              		.cfi_startproc
 1182              		@ args = 0, pretend = 0, frame = 0
 1183              		@ frame_needed = 0, uses_anonymous_args = 0
 1184 0000 10B5     		push	{r4, lr}
 1185              		.cfi_def_cfa_offset 8
 1186              		.cfi_offset 4, -8
 1187              		.cfi_offset 14, -4
 243:Generated_Source\PSoC4/nRF24_FUNCS.c ****     nRF24_set_bit(NRF_REG_CONFIG, NRF_CONFIG_PWR_UP);
 1188              		.loc 1 243 0
 1189 0002 FFF7FEFF 		bl	nRF24_start_listening
 1190              	.LVL89:
 244:Generated_Source\PSoC4/nRF24_FUNCS.c **** }
 1191              		.loc 1 244 0
 1192 0006 0221     		movs	r1, #2
 1193 0008 0020     		movs	r0, #0
 1194 000a FFF7FEFF 		bl	nRF24_set_bit
 1195              	.LVL90:
 245:Generated_Source\PSoC4/nRF24_FUNCS.c **** 
 1196              		.loc 1 245 0
 1197              		@ sp needed
 1198 000e 10BD     		pop	{r4, pc}
 1199              		.cfi_endproc
 1200              	.LFE13:
 1201              		.size	nRF24_set_standby_ii_mode, .-nRF24_set_standby_ii_mode
 1202              		.section	.text.nRF24_stop_listening,"ax",%progbits
 1203              		.align	2
 1204              		.global	nRF24_stop_listening
 1205              		.code	16
ARM GAS  C:\Users\Xwx47\AppData\Local\Temp\ccj7Qs1R.s 			page 33


 1206              		.thumb_func
 1207              		.type	nRF24_stop_listening, %function
 1208              	nRF24_stop_listening:
 1209              	.LFB40:
 611:Generated_Source\PSoC4/nRF24_FUNCS.c **** 
 612:Generated_Source\PSoC4/nRF24_FUNCS.c **** /**
 613:Generated_Source\PSoC4/nRF24_FUNCS.c ****  * @brief The nRF24 radio will stop listening.
 614:Generated_Source\PSoC4/nRF24_FUNCS.c ****  *
 615:Generated_Source\PSoC4/nRF24_FUNCS.c ****  * This function the pin CE of the nRF24 radio will be set to logic low,
 616:Generated_Source\PSoC4/nRF24_FUNCS.c ****  * this disable the radio for listening.
 617:Generated_Source\PSoC4/nRF24_FUNCS.c ****  */
 618:Generated_Source\PSoC4/nRF24_FUNCS.c **** void nRF24_stop_listening(void)
 619:Generated_Source\PSoC4/nRF24_FUNCS.c **** {
 1210              		.loc 1 619 0
 1211              		.cfi_startproc
 1212              		@ args = 0, pretend = 0, frame = 0
 1213              		@ frame_needed = 0, uses_anonymous_args = 0
 1214 0000 10B5     		push	{r4, lr}
 1215              		.cfi_def_cfa_offset 8
 1216              		.cfi_offset 4, -8
 1217              		.cfi_offset 14, -4
 620:Generated_Source\PSoC4/nRF24_FUNCS.c **** #if defined (_PSOC6)
 621:Generated_Source\PSoC4/nRF24_FUNCS.c ****     Cy_GPIO_Clr(CE_PORT, CE_NUM);
 622:Generated_Source\PSoC4/nRF24_FUNCS.c **** #else
 623:Generated_Source\PSoC4/nRF24_FUNCS.c ****     CE_Write(0);
 1218              		.loc 1 623 0
 1219 0002 0020     		movs	r0, #0
 1220 0004 FFF7FEFF 		bl	CE_Write
 1221              	.LVL91:
 624:Generated_Source\PSoC4/nRF24_FUNCS.c **** #endif
 625:Generated_Source\PSoC4/nRF24_FUNCS.c **** }
 1222              		.loc 1 625 0
 1223              		@ sp needed
 1224 0008 10BD     		pop	{r4, pc}
 1225              		.cfi_endproc
 1226              	.LFE40:
 1227              		.size	nRF24_stop_listening, .-nRF24_stop_listening
 1228 000a C046     		.section	.text.nRF24_set_standby_i_mode,"ax",%progbits
 1229              		.align	2
 1230              		.global	nRF24_set_standby_i_mode
 1231              		.code	16
 1232              		.thumb_func
 1233              		.type	nRF24_set_standby_i_mode, %function
 1234              	nRF24_set_standby_i_mode:
 1235              	.LFB12:
 227:Generated_Source\PSoC4/nRF24_FUNCS.c ****     nRF24_stop_listening();
 1236              		.loc 1 227 0
 1237              		.cfi_startproc
 1238              		@ args = 0, pretend = 0, frame = 0
 1239              		@ frame_needed = 0, uses_anonymous_args = 0
 1240 0000 10B5     		push	{r4, lr}
 1241              		.cfi_def_cfa_offset 8
 1242              		.cfi_offset 4, -8
 1243              		.cfi_offset 14, -4
 228:Generated_Source\PSoC4/nRF24_FUNCS.c ****     nRF24_set_bit(NRF_REG_CONFIG, NRF_CONFIG_PWR_UP);
 1244              		.loc 1 228 0
 1245 0002 FFF7FEFF 		bl	nRF24_stop_listening
ARM GAS  C:\Users\Xwx47\AppData\Local\Temp\ccj7Qs1R.s 			page 34


 1246              	.LVL92:
 229:Generated_Source\PSoC4/nRF24_FUNCS.c **** }
 1247              		.loc 1 229 0
 1248 0006 0221     		movs	r1, #2
 1249 0008 0020     		movs	r0, #0
 1250 000a FFF7FEFF 		bl	nRF24_set_bit
 1251              	.LVL93:
 230:Generated_Source\PSoC4/nRF24_FUNCS.c **** 
 1252              		.loc 1 230 0
 1253              		@ sp needed
 1254 000e 10BD     		pop	{r4, pc}
 1255              		.cfi_endproc
 1256              	.LFE12:
 1257              		.size	nRF24_set_standby_i_mode, .-nRF24_set_standby_i_mode
 1258              		.section	.text.nRF24_sleep,"ax",%progbits
 1259              		.align	2
 1260              		.global	nRF24_sleep
 1261              		.code	16
 1262              		.thumb_func
 1263              		.type	nRF24_sleep, %function
 1264              	nRF24_sleep:
 1265              	.LFB6:
 155:Generated_Source\PSoC4/nRF24_FUNCS.c ****     // is standby.I the lowest power mode?
 1266              		.loc 1 155 0
 1267              		.cfi_startproc
 1268              		@ args = 0, pretend = 0, frame = 0
 1269              		@ frame_needed = 0, uses_anonymous_args = 0
 1270 0000 10B5     		push	{r4, lr}
 1271              		.cfi_def_cfa_offset 8
 1272              		.cfi_offset 4, -8
 1273              		.cfi_offset 14, -4
 157:Generated_Source\PSoC4/nRF24_FUNCS.c **** }
 1274              		.loc 1 157 0
 1275 0002 FFF7FEFF 		bl	nRF24_set_standby_i_mode
 1276              	.LVL94:
 158:Generated_Source\PSoC4/nRF24_FUNCS.c **** 
 1277              		.loc 1 158 0
 1278              		@ sp needed
 1279 0006 10BD     		pop	{r4, pc}
 1280              		.cfi_endproc
 1281              	.LFE6:
 1282              		.size	nRF24_sleep, .-nRF24_sleep
 1283              		.section	.text.nRF24_transmit_pulse,"ax",%progbits
 1284              		.align	2
 1285              		.global	nRF24_transmit_pulse
 1286              		.code	16
 1287              		.thumb_func
 1288              		.type	nRF24_transmit_pulse, %function
 1289              	nRF24_transmit_pulse:
 1290              	.LFB41:
 626:Generated_Source\PSoC4/nRF24_FUNCS.c **** 
 627:Generated_Source\PSoC4/nRF24_FUNCS.c **** /**
 628:Generated_Source\PSoC4/nRF24_FUNCS.c ****  * @brief Transmit pulse on the CE pin.
 629:Generated_Source\PSoC4/nRF24_FUNCS.c ****  *
 630:Generated_Source\PSoC4/nRF24_FUNCS.c ****  * With this function the CE pin of the nRF24 radio will have a pulse of 15us,
 631:Generated_Source\PSoC4/nRF24_FUNCS.c ****  * this pulse trigger a transmission of the content of the TX FIFO.
 632:Generated_Source\PSoC4/nRF24_FUNCS.c ****  */
ARM GAS  C:\Users\Xwx47\AppData\Local\Temp\ccj7Qs1R.s 			page 35


 633:Generated_Source\PSoC4/nRF24_FUNCS.c **** void nRF24_transmit_pulse(void)
 634:Generated_Source\PSoC4/nRF24_FUNCS.c **** {
 1291              		.loc 1 634 0
 1292              		.cfi_startproc
 1293              		@ args = 0, pretend = 0, frame = 0
 1294              		@ frame_needed = 0, uses_anonymous_args = 0
 1295 0000 10B5     		push	{r4, lr}
 1296              		.cfi_def_cfa_offset 8
 1297              		.cfi_offset 4, -8
 1298              		.cfi_offset 14, -4
 635:Generated_Source\PSoC4/nRF24_FUNCS.c **** #if defined (_PSOC6)
 636:Generated_Source\PSoC4/nRF24_FUNCS.c ****     Cy_GPIO_Set(CE_PORT, CE_NUM);
 637:Generated_Source\PSoC4/nRF24_FUNCS.c **** #else
 638:Generated_Source\PSoC4/nRF24_FUNCS.c ****     CE_Write(1);
 1299              		.loc 1 638 0
 1300 0002 0120     		movs	r0, #1
 1301 0004 FFF7FEFF 		bl	CE_Write
 1302              	.LVL95:
 639:Generated_Source\PSoC4/nRF24_FUNCS.c **** #endif
 640:Generated_Source\PSoC4/nRF24_FUNCS.c **** 
 641:Generated_Source\PSoC4/nRF24_FUNCS.c ****     CyDelayUs(NRF_CE_PULSE_WIDTH_US);
 1303              		.loc 1 641 0
 1304 0008 0F20     		movs	r0, #15
 1305 000a FFF7FEFF 		bl	CyDelayUs
 1306              	.LVL96:
 642:Generated_Source\PSoC4/nRF24_FUNCS.c ****     
 643:Generated_Source\PSoC4/nRF24_FUNCS.c **** #if defined (_PSOC6)
 644:Generated_Source\PSoC4/nRF24_FUNCS.c ****     Cy_GPIO_Clr(CE_PORT, CE_NUM);
 645:Generated_Source\PSoC4/nRF24_FUNCS.c **** #else
 646:Generated_Source\PSoC4/nRF24_FUNCS.c ****     CE_Write(0);
 1307              		.loc 1 646 0
 1308 000e 0020     		movs	r0, #0
 1309 0010 FFF7FEFF 		bl	CE_Write
 1310              	.LVL97:
 647:Generated_Source\PSoC4/nRF24_FUNCS.c **** #endif
 648:Generated_Source\PSoC4/nRF24_FUNCS.c **** }
 1311              		.loc 1 648 0
 1312              		@ sp needed
 1313 0014 10BD     		pop	{r4, pc}
 1314              		.cfi_endproc
 1315              	.LFE41:
 1316              		.size	nRF24_transmit_pulse, .-nRF24_transmit_pulse
 1317 0016 C046     		.section	.text.nRF24_reuse_last_transmitted_payload,"ax",%progbits
 1318              		.align	2
 1319              		.global	nRF24_reuse_last_transmitted_payload
 1320              		.code	16
 1321              		.thumb_func
 1322              		.type	nRF24_reuse_last_transmitted_payload, %function
 1323              	nRF24_reuse_last_transmitted_payload:
 1324              	.LFB28:
 496:Generated_Source\PSoC4/nRF24_FUNCS.c ****     nRF24_reuse_tx_payload_cmd();
 1325              		.loc 1 496 0
 1326              		.cfi_startproc
 1327              		@ args = 0, pretend = 0, frame = 0
 1328              		@ frame_needed = 0, uses_anonymous_args = 0
 1329 0000 10B5     		push	{r4, lr}
 1330              		.cfi_def_cfa_offset 8
ARM GAS  C:\Users\Xwx47\AppData\Local\Temp\ccj7Qs1R.s 			page 36


 1331              		.cfi_offset 4, -8
 1332              		.cfi_offset 14, -4
 497:Generated_Source\PSoC4/nRF24_FUNCS.c ****     nRF24_transmit_pulse();
 1333              		.loc 1 497 0
 1334 0002 FFF7FEFF 		bl	nRF24_reuse_tx_payload_cmd
 1335              	.LVL98:
 498:Generated_Source\PSoC4/nRF24_FUNCS.c **** }
 1336              		.loc 1 498 0
 1337 0006 FFF7FEFF 		bl	nRF24_transmit_pulse
 1338              	.LVL99:
 499:Generated_Source\PSoC4/nRF24_FUNCS.c **** 
 1339              		.loc 1 499 0
 1340              		@ sp needed
 1341 000a 10BD     		pop	{r4, pc}
 1342              		.cfi_endproc
 1343              	.LFE28:
 1344              		.size	nRF24_reuse_last_transmitted_payload, .-nRF24_reuse_last_transmitted_payload
 1345              		.section	.text.nRF24_get_status,"ax",%progbits
 1346              		.align	2
 1347              		.global	nRF24_get_status
 1348              		.code	16
 1349              		.thumb_func
 1350              		.type	nRF24_get_status, %function
 1351              	nRF24_get_status:
 1352              	.LFB42:
 649:Generated_Source\PSoC4/nRF24_FUNCS.c **** 
 650:Generated_Source\PSoC4/nRF24_FUNCS.c **** /**
 651:Generated_Source\PSoC4/nRF24_FUNCS.c ****  * @brief Get the STATUS register of the nRF24.
 652:Generated_Source\PSoC4/nRF24_FUNCS.c ****  *
 653:Generated_Source\PSoC4/nRF24_FUNCS.c ****  * @return uint8_t: STATUS register of the nRF24.
 654:Generated_Source\PSoC4/nRF24_FUNCS.c ****  */
 655:Generated_Source\PSoC4/nRF24_FUNCS.c **** uint8_t nRF24_get_status(void)
 656:Generated_Source\PSoC4/nRF24_FUNCS.c **** {
 1353              		.loc 1 656 0
 1354              		.cfi_startproc
 1355              		@ args = 0, pretend = 0, frame = 0
 1356              		@ frame_needed = 0, uses_anonymous_args = 0
 1357 0000 10B5     		push	{r4, lr}
 1358              		.cfi_def_cfa_offset 8
 1359              		.cfi_offset 4, -8
 1360              		.cfi_offset 14, -4
 657:Generated_Source\PSoC4/nRF24_FUNCS.c ****     return nRF24_nop_cmd();
 1361              		.loc 1 657 0
 1362 0002 FFF7FEFF 		bl	nRF24_nop_cmd
 1363              	.LVL100:
 658:Generated_Source\PSoC4/nRF24_FUNCS.c **** }
 1364              		.loc 1 658 0
 1365              		@ sp needed
 1366 0006 10BD     		pop	{r4, pc}
 1367              		.cfi_endproc
 1368              	.LFE42:
 1369              		.size	nRF24_get_status, .-nRF24_get_status
 1370              		.section	.text.nRF24_get_fifo_status,"ax",%progbits
 1371              		.align	2
 1372              		.global	nRF24_get_fifo_status
 1373              		.code	16
 1374              		.thumb_func
ARM GAS  C:\Users\Xwx47\AppData\Local\Temp\ccj7Qs1R.s 			page 37


 1375              		.type	nRF24_get_fifo_status, %function
 1376              	nRF24_get_fifo_status:
 1377              	.LFB43:
 659:Generated_Source\PSoC4/nRF24_FUNCS.c **** 
 660:Generated_Source\PSoC4/nRF24_FUNCS.c **** /**
 661:Generated_Source\PSoC4/nRF24_FUNCS.c ****  * @brief Get the STATUS register of the nRF24.
 662:Generated_Source\PSoC4/nRF24_FUNCS.c ****  *
 663:Generated_Source\PSoC4/nRF24_FUNCS.c ****  * @return uint8_t: STATUS register of the nRF24.
 664:Generated_Source\PSoC4/nRF24_FUNCS.c ****  */
 665:Generated_Source\PSoC4/nRF24_FUNCS.c **** uint8_t nRF24_get_fifo_status(void)
 666:Generated_Source\PSoC4/nRF24_FUNCS.c **** {
 1378              		.loc 1 666 0
 1379              		.cfi_startproc
 1380              		@ args = 0, pretend = 0, frame = 0
 1381              		@ frame_needed = 0, uses_anonymous_args = 0
 1382 0000 10B5     		push	{r4, lr}
 1383              		.cfi_def_cfa_offset 8
 1384              		.cfi_offset 4, -8
 1385              		.cfi_offset 14, -4
 667:Generated_Source\PSoC4/nRF24_FUNCS.c ****     return nRF24_read_register(NRF_REG_FIFO_STATUS);
 1386              		.loc 1 667 0
 1387 0002 1720     		movs	r0, #23
 1388 0004 FFF7FEFF 		bl	nRF24_read_register
 1389              	.LVL101:
 668:Generated_Source\PSoC4/nRF24_FUNCS.c **** }
 1390              		.loc 1 668 0
 1391              		@ sp needed
 1392 0008 10BD     		pop	{r4, pc}
 1393              		.cfi_endproc
 1394              	.LFE43:
 1395              		.size	nRF24_get_fifo_status, .-nRF24_get_fifo_status
 1396 000a C046     		.section	.text.nRF24_get_retransmissions_count,"ax",%progbits
 1397              		.align	2
 1398              		.global	nRF24_get_retransmissions_count
 1399              		.code	16
 1400              		.thumb_func
 1401              		.type	nRF24_get_retransmissions_count, %function
 1402              	nRF24_get_retransmissions_count:
 1403              	.LFB44:
 669:Generated_Source\PSoC4/nRF24_FUNCS.c **** 
 670:Generated_Source\PSoC4/nRF24_FUNCS.c **** /**
 671:Generated_Source\PSoC4/nRF24_FUNCS.c ****  * @brief Get the number of retransmissions.
 672:Generated_Source\PSoC4/nRF24_FUNCS.c ****  *
 673:Generated_Source\PSoC4/nRF24_FUNCS.c ****  * @return uint8_t: Retransmissions count.
 674:Generated_Source\PSoC4/nRF24_FUNCS.c ****  */
 675:Generated_Source\PSoC4/nRF24_FUNCS.c **** uint8_t nRF24_get_retransmissions_count(void)
 676:Generated_Source\PSoC4/nRF24_FUNCS.c **** {
 1404              		.loc 1 676 0
 1405              		.cfi_startproc
 1406              		@ args = 0, pretend = 0, frame = 0
 1407              		@ frame_needed = 0, uses_anonymous_args = 0
 1408 0000 10B5     		push	{r4, lr}
 1409              		.cfi_def_cfa_offset 8
 1410              		.cfi_offset 4, -8
 1411              		.cfi_offset 14, -4
 677:Generated_Source\PSoC4/nRF24_FUNCS.c ****     uint8_t count = nRF24_read_register(NRF_REG_OBSERVE_TX);
 1412              		.loc 1 677 0
ARM GAS  C:\Users\Xwx47\AppData\Local\Temp\ccj7Qs1R.s 			page 38


 1413 0002 0820     		movs	r0, #8
 1414 0004 FFF7FEFF 		bl	nRF24_read_register
 1415              	.LVL102:
 678:Generated_Source\PSoC4/nRF24_FUNCS.c ****     return count & NRF_OBSERVE_TX_ARC_CNT_MASK;
 1416              		.loc 1 678 0
 1417 0008 0F23     		movs	r3, #15
 1418 000a 1840     		ands	r0, r3
 1419              	.LVL103:
 679:Generated_Source\PSoC4/nRF24_FUNCS.c **** }
 1420              		.loc 1 679 0
 1421              		@ sp needed
 1422 000c 10BD     		pop	{r4, pc}
 1423              		.cfi_endproc
 1424              	.LFE44:
 1425              		.size	nRF24_get_retransmissions_count, .-nRF24_get_retransmissions_count
 1426 000e C046     		.section	.text.nRF24_get_lost_packets_count,"ax",%progbits
 1427              		.align	2
 1428              		.global	nRF24_get_lost_packets_count
 1429              		.code	16
 1430              		.thumb_func
 1431              		.type	nRF24_get_lost_packets_count, %function
 1432              	nRF24_get_lost_packets_count:
 1433              	.LFB45:
 680:Generated_Source\PSoC4/nRF24_FUNCS.c **** 
 681:Generated_Source\PSoC4/nRF24_FUNCS.c **** /**
 682:Generated_Source\PSoC4/nRF24_FUNCS.c ****  * @brief Get the number of lost packets.
 683:Generated_Source\PSoC4/nRF24_FUNCS.c ****  *
 684:Generated_Source\PSoC4/nRF24_FUNCS.c ****  * @return uint8_t: Lost packets.
 685:Generated_Source\PSoC4/nRF24_FUNCS.c ****  */
 686:Generated_Source\PSoC4/nRF24_FUNCS.c **** uint8_t nRF24_get_lost_packets_count(void)
 687:Generated_Source\PSoC4/nRF24_FUNCS.c **** {
 1434              		.loc 1 687 0
 1435              		.cfi_startproc
 1436              		@ args = 0, pretend = 0, frame = 0
 1437              		@ frame_needed = 0, uses_anonymous_args = 0
 1438 0000 10B5     		push	{r4, lr}
 1439              		.cfi_def_cfa_offset 8
 1440              		.cfi_offset 4, -8
 1441              		.cfi_offset 14, -4
 688:Generated_Source\PSoC4/nRF24_FUNCS.c ****     uint8_t lostPackets = nRF24_read_register(NRF_REG_OBSERVE_TX);
 1442              		.loc 1 688 0
 1443 0002 0820     		movs	r0, #8
 1444 0004 FFF7FEFF 		bl	nRF24_read_register
 1445              	.LVL104:
 689:Generated_Source\PSoC4/nRF24_FUNCS.c ****     lostPackets = lostPackets & NRF_OBSERVE_TX_PLOS_CNT_MASK;
 690:Generated_Source\PSoC4/nRF24_FUNCS.c ****     return lostPackets >> NRF_OBSERVE_TX_BIT_PLOS_CNT;
 1446              		.loc 1 690 0
 1447 0008 0009     		lsrs	r0, r0, #4
 1448              	.LVL105:
 1449 000a C0B2     		uxtb	r0, r0
 691:Generated_Source\PSoC4/nRF24_FUNCS.c **** }
 1450              		.loc 1 691 0
 1451              		@ sp needed
 1452 000c 10BD     		pop	{r4, pc}
 1453              		.cfi_endproc
 1454              	.LFE45:
 1455              		.size	nRF24_get_lost_packets_count, .-nRF24_get_lost_packets_count
ARM GAS  C:\Users\Xwx47\AppData\Local\Temp\ccj7Qs1R.s 			page 39


 1456 000e C046     		.section	.text.nRF24_put_in_tx_fifo,"ax",%progbits
 1457              		.align	2
 1458              		.global	nRF24_put_in_tx_fifo
 1459              		.code	16
 1460              		.thumb_func
 1461              		.type	nRF24_put_in_tx_fifo, %function
 1462              	nRF24_put_in_tx_fifo:
 1463              	.LFB46:
 692:Generated_Source\PSoC4/nRF24_FUNCS.c **** 
 693:Generated_Source\PSoC4/nRF24_FUNCS.c **** /**
 694:Generated_Source\PSoC4/nRF24_FUNCS.c ****  * Put data into the TX FIFO wihout sending it.
 695:Generated_Source\PSoC4/nRF24_FUNCS.c ****  *
 696:Generated_Source\PSoC4/nRF24_FUNCS.c ****  * @param const uint8_t* data:
 697:Generated_Source\PSoC4/nRF24_FUNCS.c ****  * @param const size_t size:
 698:Generated_Source\PSoC4/nRF24_FUNCS.c ****  */
 699:Generated_Source\PSoC4/nRF24_FUNCS.c **** void nRF24_put_in_tx_fifo(const uint8_t* data, size_t size)
 700:Generated_Source\PSoC4/nRF24_FUNCS.c **** {
 1464              		.loc 1 700 0
 1465              		.cfi_startproc
 1466              		@ args = 0, pretend = 0, frame = 0
 1467              		@ frame_needed = 0, uses_anonymous_args = 0
 1468              	.LVL106:
 1469 0000 10B5     		push	{r4, lr}
 1470              		.cfi_def_cfa_offset 8
 1471              		.cfi_offset 4, -8
 1472              		.cfi_offset 14, -4
 701:Generated_Source\PSoC4/nRF24_FUNCS.c ****     if (NULL == data) {
 1473              		.loc 1 701 0
 1474 0002 0028     		cmp	r0, #0
 1475 0004 04D0     		beq	.L81
 702:Generated_Source\PSoC4/nRF24_FUNCS.c ****         return;
 703:Generated_Source\PSoC4/nRF24_FUNCS.c ****     }
 704:Generated_Source\PSoC4/nRF24_FUNCS.c **** 
 705:Generated_Source\PSoC4/nRF24_FUNCS.c ****     if (NRF_PAYLOAD_SIZE_MAX < size) {
 1476              		.loc 1 705 0
 1477 0006 2029     		cmp	r1, #32
 1478 0008 00D9     		bls	.L83
 706:Generated_Source\PSoC4/nRF24_FUNCS.c ****         size = NRF_PAYLOAD_SIZE_MAX;
 1479              		.loc 1 706 0
 1480 000a 2021     		movs	r1, #32
 1481              	.LVL107:
 1482              	.L83:
 707:Generated_Source\PSoC4/nRF24_FUNCS.c ****     }
 708:Generated_Source\PSoC4/nRF24_FUNCS.c **** 
 709:Generated_Source\PSoC4/nRF24_FUNCS.c ****     nRF24_write_tx_payload_cmd(data, size);
 1483              		.loc 1 709 0
 1484 000c FFF7FEFF 		bl	nRF24_write_tx_payload_cmd
 1485              	.LVL108:
 1486              	.L81:
 710:Generated_Source\PSoC4/nRF24_FUNCS.c **** }
 1487              		.loc 1 710 0
 1488              		@ sp needed
 1489 0010 10BD     		pop	{r4, pc}
 1490              		.cfi_endproc
 1491              	.LFE46:
 1492              		.size	nRF24_put_in_tx_fifo, .-nRF24_put_in_tx_fifo
 1493 0012 C046     		.section	.text.nRF24_transmit,"ax",%progbits
ARM GAS  C:\Users\Xwx47\AppData\Local\Temp\ccj7Qs1R.s 			page 40


 1494              		.align	2
 1495              		.global	nRF24_transmit
 1496              		.code	16
 1497              		.thumb_func
 1498              		.type	nRF24_transmit, %function
 1499              	nRF24_transmit:
 1500              	.LFB47:
 711:Generated_Source\PSoC4/nRF24_FUNCS.c **** 
 712:Generated_Source\PSoC4/nRF24_FUNCS.c **** /**
 713:Generated_Source\PSoC4/nRF24_FUNCS.c ****  * Put data in TX FIFO and transmit it.
 714:Generated_Source\PSoC4/nRF24_FUNCS.c ****  *
 715:Generated_Source\PSoC4/nRF24_FUNCS.c ****  * @param const uint8_t* data:
 716:Generated_Source\PSoC4/nRF24_FUNCS.c ****  * @param const size_t size:
 717:Generated_Source\PSoC4/nRF24_FUNCS.c ****  */
 718:Generated_Source\PSoC4/nRF24_FUNCS.c **** void nRF24_transmit(const uint8_t* data, size_t size)
 719:Generated_Source\PSoC4/nRF24_FUNCS.c **** {
 1501              		.loc 1 719 0
 1502              		.cfi_startproc
 1503              		@ args = 0, pretend = 0, frame = 0
 1504              		@ frame_needed = 0, uses_anonymous_args = 0
 1505              	.LVL109:
 1506 0000 10B5     		push	{r4, lr}
 1507              		.cfi_def_cfa_offset 8
 1508              		.cfi_offset 4, -8
 1509              		.cfi_offset 14, -4
 720:Generated_Source\PSoC4/nRF24_FUNCS.c ****     if (NULL == data) {
 1510              		.loc 1 720 0
 1511 0002 0028     		cmp	r0, #0
 1512 0004 06D0     		beq	.L85
 721:Generated_Source\PSoC4/nRF24_FUNCS.c ****         return;
 722:Generated_Source\PSoC4/nRF24_FUNCS.c ****     }
 723:Generated_Source\PSoC4/nRF24_FUNCS.c **** 
 724:Generated_Source\PSoC4/nRF24_FUNCS.c ****     if (NRF_PAYLOAD_SIZE_MAX < size) {
 1513              		.loc 1 724 0
 1514 0006 2029     		cmp	r1, #32
 1515 0008 00D9     		bls	.L87
 725:Generated_Source\PSoC4/nRF24_FUNCS.c ****         size = NRF_PAYLOAD_SIZE_MAX;
 1516              		.loc 1 725 0
 1517 000a 2021     		movs	r1, #32
 1518              	.LVL110:
 1519              	.L87:
 726:Generated_Source\PSoC4/nRF24_FUNCS.c ****     }
 727:Generated_Source\PSoC4/nRF24_FUNCS.c **** 
 728:Generated_Source\PSoC4/nRF24_FUNCS.c ****     nRF24_put_in_tx_fifo(data, size);
 1520              		.loc 1 728 0
 1521 000c FFF7FEFF 		bl	nRF24_put_in_tx_fifo
 1522              	.LVL111:
 729:Generated_Source\PSoC4/nRF24_FUNCS.c ****     nRF24_transmit_pulse();
 1523              		.loc 1 729 0
 1524 0010 FFF7FEFF 		bl	nRF24_transmit_pulse
 1525              	.LVL112:
 1526              	.L85:
 730:Generated_Source\PSoC4/nRF24_FUNCS.c **** }
 1527              		.loc 1 730 0
 1528              		@ sp needed
 1529 0014 10BD     		pop	{r4, pc}
 1530              		.cfi_endproc
ARM GAS  C:\Users\Xwx47\AppData\Local\Temp\ccj7Qs1R.s 			page 41


 1531              	.LFE47:
 1532              		.size	nRF24_transmit, .-nRF24_transmit
 1533 0016 C046     		.section	.text.nRF24_is_data_ready,"ax",%progbits
 1534              		.align	2
 1535              		.global	nRF24_is_data_ready
 1536              		.code	16
 1537              		.thumb_func
 1538              		.type	nRF24_is_data_ready, %function
 1539              	nRF24_is_data_ready:
 1540              	.LFB48:
 731:Generated_Source\PSoC4/nRF24_FUNCS.c **** 
 732:Generated_Source\PSoC4/nRF24_FUNCS.c **** /**
 733:Generated_Source\PSoC4/nRF24_FUNCS.c ****  * @brief
 734:Generated_Source\PSoC4/nRF24_FUNCS.c ****  *
 735:Generated_Source\PSoC4/nRF24_FUNCS.c ****  * @return bool: True if there's data ready.
 736:Generated_Source\PSoC4/nRF24_FUNCS.c ****  */
 737:Generated_Source\PSoC4/nRF24_FUNCS.c **** bool nRF24_is_data_ready(void)
 738:Generated_Source\PSoC4/nRF24_FUNCS.c **** {
 1541              		.loc 1 738 0
 1542              		.cfi_startproc
 1543              		@ args = 0, pretend = 0, frame = 0
 1544              		@ frame_needed = 0, uses_anonymous_args = 0
 1545 0000 10B5     		push	{r4, lr}
 1546              		.cfi_def_cfa_offset 8
 1547              		.cfi_offset 4, -8
 1548              		.cfi_offset 14, -4
 739:Generated_Source\PSoC4/nRF24_FUNCS.c ****     return NRF_STATUS_RX_DR_MASK & nRF24_get_status();
 1549              		.loc 1 739 0
 1550 0002 FFF7FEFF 		bl	nRF24_get_status
 1551              	.LVL113:
 1552 0006 8009     		lsrs	r0, r0, #6
 1553 0008 0123     		movs	r3, #1
 1554 000a 1840     		ands	r0, r3
 740:Generated_Source\PSoC4/nRF24_FUNCS.c **** }
 1555              		.loc 1 740 0
 1556              		@ sp needed
 1557 000c 10BD     		pop	{r4, pc}
 1558              		.cfi_endproc
 1559              	.LFE48:
 1560              		.size	nRF24_is_data_ready, .-nRF24_is_data_ready
 1561 000e C046     		.section	.text.nRF24_get_rx_payload,"ax",%progbits
 1562              		.align	2
 1563              		.global	nRF24_get_rx_payload
 1564              		.code	16
 1565              		.thumb_func
 1566              		.type	nRF24_get_rx_payload, %function
 1567              	nRF24_get_rx_payload:
 1568              	.LFB49:
 741:Generated_Source\PSoC4/nRF24_FUNCS.c **** 
 742:Generated_Source\PSoC4/nRF24_FUNCS.c **** /**
 743:Generated_Source\PSoC4/nRF24_FUNCS.c ****  * @brief
 744:Generated_Source\PSoC4/nRF24_FUNCS.c ****  *
 745:Generated_Source\PSoC4/nRF24_FUNCS.c ****  * @param uint8_t* data:
 746:Generated_Source\PSoC4/nRF24_FUNCS.c ****  * @param const size_t size:
 747:Generated_Source\PSoC4/nRF24_FUNCS.c ****  */
 748:Generated_Source\PSoC4/nRF24_FUNCS.c **** void nRF24_get_rx_payload(uint8_t *data, const size_t size)
 749:Generated_Source\PSoC4/nRF24_FUNCS.c **** {
ARM GAS  C:\Users\Xwx47\AppData\Local\Temp\ccj7Qs1R.s 			page 42


 1569              		.loc 1 749 0
 1570              		.cfi_startproc
 1571              		@ args = 0, pretend = 0, frame = 0
 1572              		@ frame_needed = 0, uses_anonymous_args = 0
 1573              	.LVL114:
 1574 0000 70B5     		push	{r4, r5, r6, lr}
 1575              		.cfi_def_cfa_offset 16
 1576              		.cfi_offset 4, -16
 1577              		.cfi_offset 5, -12
 1578              		.cfi_offset 6, -8
 1579              		.cfi_offset 14, -4
 1580 0002 0400     		movs	r4, r0
 1581 0004 0D00     		movs	r5, r1
 750:Generated_Source\PSoC4/nRF24_FUNCS.c ****     if (NULL == data) {
 1582              		.loc 1 750 0
 1583 0006 0028     		cmp	r0, #0
 1584 0008 09D0     		beq	.L90
 751:Generated_Source\PSoC4/nRF24_FUNCS.c ****         return;
 752:Generated_Source\PSoC4/nRF24_FUNCS.c ****     }
 753:Generated_Source\PSoC4/nRF24_FUNCS.c ****     
 754:Generated_Source\PSoC4/nRF24_FUNCS.c **** #if defined (_PSOC6)
 755:Generated_Source\PSoC4/nRF24_FUNCS.c ****     Cy_GPIO_Clr(CE_PORT, CE_NUM);
 756:Generated_Source\PSoC4/nRF24_FUNCS.c **** #else
 757:Generated_Source\PSoC4/nRF24_FUNCS.c ****     CE_Write(0);
 1585              		.loc 1 757 0
 1586 000a 0020     		movs	r0, #0
 1587              	.LVL115:
 1588 000c FFF7FEFF 		bl	CE_Write
 1589              	.LVL116:
 758:Generated_Source\PSoC4/nRF24_FUNCS.c **** #endif
 759:Generated_Source\PSoC4/nRF24_FUNCS.c **** 
 760:Generated_Source\PSoC4/nRF24_FUNCS.c ****     nRF24_read_rx_payload_cmd(data, size);
 1590              		.loc 1 760 0
 1591 0010 2900     		movs	r1, r5
 1592 0012 2000     		movs	r0, r4
 1593 0014 FFF7FEFF 		bl	nRF24_read_rx_payload_cmd
 1594              	.LVL117:
 761:Generated_Source\PSoC4/nRF24_FUNCS.c **** 
 762:Generated_Source\PSoC4/nRF24_FUNCS.c **** #if defined (_PSOC6)    
 763:Generated_Source\PSoC4/nRF24_FUNCS.c ****     Cy_GPIO_Set(CE_PORT, CE_NUM);
 764:Generated_Source\PSoC4/nRF24_FUNCS.c **** #else
 765:Generated_Source\PSoC4/nRF24_FUNCS.c ****     CE_Write(1);
 1595              		.loc 1 765 0
 1596 0018 0120     		movs	r0, #1
 1597 001a FFF7FEFF 		bl	CE_Write
 1598              	.LVL118:
 1599              	.L90:
 766:Generated_Source\PSoC4/nRF24_FUNCS.c **** #endif
 767:Generated_Source\PSoC4/nRF24_FUNCS.c **** }
 1600              		.loc 1 767 0
 1601              		@ sp needed
 1602              	.LVL119:
 1603              	.LVL120:
 1604 001e 70BD     		pop	{r4, r5, r6, pc}
 1605              		.cfi_endproc
 1606              	.LFE49:
 1607              		.size	nRF24_get_rx_payload, .-nRF24_get_rx_payload
ARM GAS  C:\Users\Xwx47\AppData\Local\Temp\ccj7Qs1R.s 			page 43


 1608              		.section	.text.nRF24_tx_transmit_no_ack,"ax",%progbits
 1609              		.align	2
 1610              		.global	nRF24_tx_transmit_no_ack
 1611              		.code	16
 1612              		.thumb_func
 1613              		.type	nRF24_tx_transmit_no_ack, %function
 1614              	nRF24_tx_transmit_no_ack:
 1615              	.LFB50:
 768:Generated_Source\PSoC4/nRF24_FUNCS.c **** 
 769:Generated_Source\PSoC4/nRF24_FUNCS.c **** /**
 770:Generated_Source\PSoC4/nRF24_FUNCS.c ****  * @brief
 771:Generated_Source\PSoC4/nRF24_FUNCS.c ****  *
 772:Generated_Source\PSoC4/nRF24_FUNCS.c ****  * @param const uint8_t* data:
 773:Generated_Source\PSoC4/nRF24_FUNCS.c ****  * @param size_t size:
 774:Generated_Source\PSoC4/nRF24_FUNCS.c ****  */
 775:Generated_Source\PSoC4/nRF24_FUNCS.c **** void nRF24_tx_transmit_no_ack(const uint8_t *data, size_t size)
 776:Generated_Source\PSoC4/nRF24_FUNCS.c **** {
 1616              		.loc 1 776 0
 1617              		.cfi_startproc
 1618              		@ args = 0, pretend = 0, frame = 0
 1619              		@ frame_needed = 0, uses_anonymous_args = 0
 1620              	.LVL121:
 1621 0000 10B5     		push	{r4, lr}
 1622              		.cfi_def_cfa_offset 8
 1623              		.cfi_offset 4, -8
 1624              		.cfi_offset 14, -4
 777:Generated_Source\PSoC4/nRF24_FUNCS.c ****     if (NULL == data) {
 1625              		.loc 1 777 0
 1626 0002 0028     		cmp	r0, #0
 1627 0004 05D0     		beq	.L92
 778:Generated_Source\PSoC4/nRF24_FUNCS.c ****         return;
 779:Generated_Source\PSoC4/nRF24_FUNCS.c ****     }
 780:Generated_Source\PSoC4/nRF24_FUNCS.c **** 
 781:Generated_Source\PSoC4/nRF24_FUNCS.c ****     if (NRF_PAYLOAD_SIZE_MAX < size) {
 1628              		.loc 1 781 0
 1629 0006 2029     		cmp	r1, #32
 1630 0008 03D8     		bhi	.L92
 782:Generated_Source\PSoC4/nRF24_FUNCS.c ****         return;
 783:Generated_Source\PSoC4/nRF24_FUNCS.c ****     }
 784:Generated_Source\PSoC4/nRF24_FUNCS.c **** 
 785:Generated_Source\PSoC4/nRF24_FUNCS.c ****     nRF24_no_ack_payload_cmd(data, size);
 1631              		.loc 1 785 0
 1632 000a FFF7FEFF 		bl	nRF24_no_ack_payload_cmd
 1633              	.LVL122:
 786:Generated_Source\PSoC4/nRF24_FUNCS.c ****     nRF24_transmit_pulse();
 1634              		.loc 1 786 0
 1635 000e FFF7FEFF 		bl	nRF24_transmit_pulse
 1636              	.LVL123:
 1637              	.L92:
 787:Generated_Source\PSoC4/nRF24_FUNCS.c **** }
 1638              		.loc 1 787 0
 1639              		@ sp needed
 1640 0012 10BD     		pop	{r4, pc}
 1641              		.cfi_endproc
 1642              	.LFE50:
 1643              		.size	nRF24_tx_transmit_no_ack, .-nRF24_tx_transmit_no_ack
 1644              		.section	.text.nRF24_rx_write_payload,"ax",%progbits
ARM GAS  C:\Users\Xwx47\AppData\Local\Temp\ccj7Qs1R.s 			page 44


 1645              		.align	2
 1646              		.global	nRF24_rx_write_payload
 1647              		.code	16
 1648              		.thumb_func
 1649              		.type	nRF24_rx_write_payload, %function
 1650              	nRF24_rx_write_payload:
 1651              	.LFB51:
 788:Generated_Source\PSoC4/nRF24_FUNCS.c **** 
 789:Generated_Source\PSoC4/nRF24_FUNCS.c **** /**
 790:Generated_Source\PSoC4/nRF24_FUNCS.c ****  * @brief
 791:Generated_Source\PSoC4/nRF24_FUNCS.c ****  *
 792:Generated_Source\PSoC4/nRF24_FUNCS.c ****  * @param const nrf_pipe pipe:
 793:Generated_Source\PSoC4/nRF24_FUNCS.c ****  * @param const uint8_t* data:
 794:Generated_Source\PSoC4/nRF24_FUNCS.c ****  * @param size_t size:
 795:Generated_Source\PSoC4/nRF24_FUNCS.c ****  */
 796:Generated_Source\PSoC4/nRF24_FUNCS.c **** void nRF24_rx_write_payload(const nrf_pipe pipe,
 797:Generated_Source\PSoC4/nRF24_FUNCS.c ****                                         const uint8_t *data, size_t size)
 798:Generated_Source\PSoC4/nRF24_FUNCS.c **** {
 1652              		.loc 1 798 0
 1653              		.cfi_startproc
 1654              		@ args = 0, pretend = 0, frame = 0
 1655              		@ frame_needed = 0, uses_anonymous_args = 0
 1656              	.LVL124:
 1657 0000 10B5     		push	{r4, lr}
 1658              		.cfi_def_cfa_offset 8
 1659              		.cfi_offset 4, -8
 1660              		.cfi_offset 14, -4
 799:Generated_Source\PSoC4/nRF24_FUNCS.c ****     if (NULL == data) {
 1661              		.loc 1 799 0
 1662 0002 0029     		cmp	r1, #0
 1663 0004 04D0     		beq	.L94
 800:Generated_Source\PSoC4/nRF24_FUNCS.c ****         return;
 801:Generated_Source\PSoC4/nRF24_FUNCS.c ****     }
 802:Generated_Source\PSoC4/nRF24_FUNCS.c **** 
 803:Generated_Source\PSoC4/nRF24_FUNCS.c ****     if (NRF_PAYLOAD_SIZE_MAX < size) {
 1664              		.loc 1 803 0
 1665 0006 202A     		cmp	r2, #32
 1666 0008 00D9     		bls	.L96
 804:Generated_Source\PSoC4/nRF24_FUNCS.c ****         size = NRF_PAYLOAD_SIZE_MAX;
 1667              		.loc 1 804 0
 1668 000a 2022     		movs	r2, #32
 1669              	.LVL125:
 1670              	.L96:
 805:Generated_Source\PSoC4/nRF24_FUNCS.c ****     }
 806:Generated_Source\PSoC4/nRF24_FUNCS.c **** 
 807:Generated_Source\PSoC4/nRF24_FUNCS.c ****     nRF24_write_ack_payload_cmd(pipe, data, size);
 1671              		.loc 1 807 0
 1672 000c FFF7FEFF 		bl	nRF24_write_ack_payload_cmd
 1673              	.LVL126:
 1674              	.L94:
 808:Generated_Source\PSoC4/nRF24_FUNCS.c **** }
 1675              		.loc 1 808 0
 1676              		@ sp needed
 1677 0010 10BD     		pop	{r4, pc}
 1678              		.cfi_endproc
 1679              	.LFE51:
 1680              		.size	nRF24_rx_write_payload, .-nRF24_rx_write_payload
ARM GAS  C:\Users\Xwx47\AppData\Local\Temp\ccj7Qs1R.s 			page 45


 1681 0012 C046     		.section	.text.nRF24_get_data_pipe_with_payload,"ax",%progbits
 1682              		.align	2
 1683              		.global	nRF24_get_data_pipe_with_payload
 1684              		.code	16
 1685              		.thumb_func
 1686              		.type	nRF24_get_data_pipe_with_payload, %function
 1687              	nRF24_get_data_pipe_with_payload:
 1688              	.LFB52:
 809:Generated_Source\PSoC4/nRF24_FUNCS.c **** 
 810:Generated_Source\PSoC4/nRF24_FUNCS.c **** /**
 811:Generated_Source\PSoC4/nRF24_FUNCS.c ****  * Return the pipe number with data.
 812:Generated_Source\PSoC4/nRF24_FUNCS.c ****  *
 813:Generated_Source\PSoC4/nRF24_FUNCS.c ****  * @return uint8_t:
 814:Generated_Source\PSoC4/nRF24_FUNCS.c ****  */
 815:Generated_Source\PSoC4/nRF24_FUNCS.c **** uint8_t nRF24_get_data_pipe_with_payload(void)
 816:Generated_Source\PSoC4/nRF24_FUNCS.c **** {
 1689              		.loc 1 816 0
 1690              		.cfi_startproc
 1691              		@ args = 0, pretend = 0, frame = 0
 1692              		@ frame_needed = 0, uses_anonymous_args = 0
 1693 0000 10B5     		push	{r4, lr}
 1694              		.cfi_def_cfa_offset 8
 1695              		.cfi_offset 4, -8
 1696              		.cfi_offset 14, -4
 817:Generated_Source\PSoC4/nRF24_FUNCS.c ****     uint8_t pipe = nRF24_read_register(NRF_REG_STATUS);
 1697              		.loc 1 817 0
 1698 0002 0720     		movs	r0, #7
 1699 0004 FFF7FEFF 		bl	nRF24_read_register
 1700              	.LVL127:
 818:Generated_Source\PSoC4/nRF24_FUNCS.c ****     return (pipe & NRF_STATUS_PIPES_MASK) >> NRF_STATUS_PIPES_SHIFT;
 1701              		.loc 1 818 0
 1702 0008 4010     		asrs	r0, r0, #1
 1703              	.LVL128:
 1704 000a 0723     		movs	r3, #7
 1705 000c 1840     		ands	r0, r3
 819:Generated_Source\PSoC4/nRF24_FUNCS.c **** }
 1706              		.loc 1 819 0
 1707              		@ sp needed
 1708 000e 10BD     		pop	{r4, pc}
 1709              		.cfi_endproc
 1710              	.LFE52:
 1711              		.size	nRF24_get_data_pipe_with_payload, .-nRF24_get_data_pipe_with_payload
 1712              		.section	.text.nRF24_received_power_detector,"ax",%progbits
 1713              		.align	2
 1714              		.global	nRF24_received_power_detector
 1715              		.code	16
 1716              		.thumb_func
 1717              		.type	nRF24_received_power_detector, %function
 1718              	nRF24_received_power_detector:
 1719              	.LFB53:
 820:Generated_Source\PSoC4/nRF24_FUNCS.c **** 
 821:Generated_Source\PSoC4/nRF24_FUNCS.c **** /**
 822:Generated_Source\PSoC4/nRF24_FUNCS.c ****  * @brief
 823:Generated_Source\PSoC4/nRF24_FUNCS.c ****  *
 824:Generated_Source\PSoC4/nRF24_FUNCS.c ****  * @return uint8_t:
 825:Generated_Source\PSoC4/nRF24_FUNCS.c ****  */
 826:Generated_Source\PSoC4/nRF24_FUNCS.c **** uint8_t nRF24_received_power_detector(void)
ARM GAS  C:\Users\Xwx47\AppData\Local\Temp\ccj7Qs1R.s 			page 46


 827:Generated_Source\PSoC4/nRF24_FUNCS.c **** {
 1720              		.loc 1 827 0
 1721              		.cfi_startproc
 1722              		@ args = 0, pretend = 0, frame = 0
 1723              		@ frame_needed = 0, uses_anonymous_args = 0
 1724 0000 10B5     		push	{r4, lr}
 1725              		.cfi_def_cfa_offset 8
 1726              		.cfi_offset 4, -8
 1727              		.cfi_offset 14, -4
 828:Generated_Source\PSoC4/nRF24_FUNCS.c ****     return nRF24_read_bit(NRF_REG_RPD, NRF_RPD_BIT_RPD);
 1728              		.loc 1 828 0
 1729 0002 0021     		movs	r1, #0
 1730 0004 0920     		movs	r0, #9
 1731 0006 FFF7FEFF 		bl	nRF24_read_bit
 1732              	.LVL129:
 829:Generated_Source\PSoC4/nRF24_FUNCS.c **** }
 1733              		.loc 1 829 0
 1734              		@ sp needed
 1735 000a 10BD     		pop	{r4, pc}
 1736              		.cfi_endproc
 1737              	.LFE53:
 1738              		.size	nRF24_received_power_detector, .-nRF24_received_power_detector
 1739              		.section	.text.nRF24_is_tx_fifo_full,"ax",%progbits
 1740              		.align	2
 1741              		.global	nRF24_is_tx_fifo_full
 1742              		.code	16
 1743              		.thumb_func
 1744              		.type	nRF24_is_tx_fifo_full, %function
 1745              	nRF24_is_tx_fifo_full:
 1746              	.LFB54:
 830:Generated_Source\PSoC4/nRF24_FUNCS.c **** 
 831:Generated_Source\PSoC4/nRF24_FUNCS.c **** /**
 832:Generated_Source\PSoC4/nRF24_FUNCS.c ****  * @return bool: true if the TX FIFO is full, false if it have available
 833:Generated_Source\PSoC4/nRF24_FUNCS.c ****  * locations.
 834:Generated_Source\PSoC4/nRF24_FUNCS.c ****  */
 835:Generated_Source\PSoC4/nRF24_FUNCS.c **** bool nRF24_is_tx_fifo_full(void)
 836:Generated_Source\PSoC4/nRF24_FUNCS.c **** {
 1747              		.loc 1 836 0
 1748              		.cfi_startproc
 1749              		@ args = 0, pretend = 0, frame = 0
 1750              		@ frame_needed = 0, uses_anonymous_args = 0
 1751 0000 10B5     		push	{r4, lr}
 1752              		.cfi_def_cfa_offset 8
 1753              		.cfi_offset 4, -8
 1754              		.cfi_offset 14, -4
 837:Generated_Source\PSoC4/nRF24_FUNCS.c ****     return nRF24_read_bit(NRF_REG_FIFO_STATUS, NRF_FIFO_STATUS_BIT_TX_FULL);
 1755              		.loc 1 837 0
 1756 0002 0521     		movs	r1, #5
 1757 0004 1720     		movs	r0, #23
 1758 0006 FFF7FEFF 		bl	nRF24_read_bit
 1759              	.LVL130:
 838:Generated_Source\PSoC4/nRF24_FUNCS.c **** }
 1760              		.loc 1 838 0
 1761              		@ sp needed
 1762 000a 10BD     		pop	{r4, pc}
 1763              		.cfi_endproc
 1764              	.LFE54:
ARM GAS  C:\Users\Xwx47\AppData\Local\Temp\ccj7Qs1R.s 			page 47


 1765              		.size	nRF24_is_tx_fifo_full, .-nRF24_is_tx_fifo_full
 1766              		.section	.text.nRF24_is_rx_fifo_empty,"ax",%progbits
 1767              		.align	2
 1768              		.global	nRF24_is_rx_fifo_empty
 1769              		.code	16
 1770              		.thumb_func
 1771              		.type	nRF24_is_rx_fifo_empty, %function
 1772              	nRF24_is_rx_fifo_empty:
 1773              	.LFB55:
 839:Generated_Source\PSoC4/nRF24_FUNCS.c **** 
 840:Generated_Source\PSoC4/nRF24_FUNCS.c **** /**
 841:Generated_Source\PSoC4/nRF24_FUNCS.c ****  * @return bool: true if the RX FIFO es empty, false if any pipe have data.
 842:Generated_Source\PSoC4/nRF24_FUNCS.c ****  */
 843:Generated_Source\PSoC4/nRF24_FUNCS.c **** bool nRF24_is_rx_fifo_empty(void)
 844:Generated_Source\PSoC4/nRF24_FUNCS.c **** {
 1774              		.loc 1 844 0
 1775              		.cfi_startproc
 1776              		@ args = 0, pretend = 0, frame = 0
 1777              		@ frame_needed = 0, uses_anonymous_args = 0
 1778 0000 10B5     		push	{r4, lr}
 1779              		.cfi_def_cfa_offset 8
 1780              		.cfi_offset 4, -8
 1781              		.cfi_offset 14, -4
 845:Generated_Source\PSoC4/nRF24_FUNCS.c ****     return nRF24_read_bit(NRF_REG_FIFO_STATUS, NRF_FIFO_STATUS_BIT_RX_EMPTY);
 1782              		.loc 1 845 0
 1783 0002 0021     		movs	r1, #0
 1784 0004 1720     		movs	r0, #23
 1785 0006 FFF7FEFF 		bl	nRF24_read_bit
 1786              	.LVL131:
 846:Generated_Source\PSoC4/nRF24_FUNCS.c **** }
 1787              		.loc 1 846 0
 1788              		@ sp needed
 1789 000a 10BD     		pop	{r4, pc}
 1790              		.cfi_endproc
 1791              	.LFE55:
 1792              		.size	nRF24_is_rx_fifo_empty, .-nRF24_is_rx_fifo_empty
 1793              		.section	.text.nRF24_test_carrier,"ax",%progbits
 1794              		.align	2
 1795              		.global	nRF24_test_carrier
 1796              		.code	16
 1797              		.thumb_func
 1798              		.type	nRF24_test_carrier, %function
 1799              	nRF24_test_carrier:
 1800              	.LFB56:
 847:Generated_Source\PSoC4/nRF24_FUNCS.c **** 
 848:Generated_Source\PSoC4/nRF24_FUNCS.c **** /**
 849:Generated_Source\PSoC4/nRF24_FUNCS.c ****  * Received Power Detector triggers at received power levels above -64dBm that
 850:Generated_Source\PSoC4/nRF24_FUNCS.c ****  * are present in the RF channel you receive on. If the received power is less
 851:Generated_Source\PSoC4/nRF24_FUNCS.c ****  * than -64dBm, RDP = 0.
 852:Generated_Source\PSoC4/nRF24_FUNCS.c ****  * The RPD can be read out at any time while nRF24L01+ is in receive mode.
 853:Generated_Source\PSoC4/nRF24_FUNCS.c ****  */
 854:Generated_Source\PSoC4/nRF24_FUNCS.c **** bool nRF24_test_carrier(void)
 855:Generated_Source\PSoC4/nRF24_FUNCS.c **** {
 1801              		.loc 1 855 0
 1802              		.cfi_startproc
 1803              		@ args = 0, pretend = 0, frame = 0
 1804              		@ frame_needed = 0, uses_anonymous_args = 0
ARM GAS  C:\Users\Xwx47\AppData\Local\Temp\ccj7Qs1R.s 			page 48


 1805 0000 10B5     		push	{r4, lr}
 1806              		.cfi_def_cfa_offset 8
 1807              		.cfi_offset 4, -8
 1808              		.cfi_offset 14, -4
 856:Generated_Source\PSoC4/nRF24_FUNCS.c ****     return nRF24_read_bit(NRF_REG_RPD, NRF_RPD_BIT_RPD);
 1809              		.loc 1 856 0
 1810 0002 0021     		movs	r1, #0
 1811 0004 0920     		movs	r0, #9
 1812 0006 FFF7FEFF 		bl	nRF24_read_bit
 1813              	.LVL132:
 857:Generated_Source\PSoC4/nRF24_FUNCS.c **** }
 1814              		.loc 1 857 0
 1815              		@ sp needed
 1816 000a 10BD     		pop	{r4, pc}
 1817              		.cfi_endproc
 1818              	.LFE56:
 1819              		.size	nRF24_test_carrier, .-nRF24_test_carrier
 1820              		.section	.text.nRF24_clear_all_irqs,"ax",%progbits
 1821              		.align	2
 1822              		.global	nRF24_clear_all_irqs
 1823              		.code	16
 1824              		.thumb_func
 1825              		.type	nRF24_clear_all_irqs, %function
 1826              	nRF24_clear_all_irqs:
 1827              	.LFB57:
 858:Generated_Source\PSoC4/nRF24_FUNCS.c **** 
 859:Generated_Source\PSoC4/nRF24_FUNCS.c **** /**
 860:Generated_Source\PSoC4/nRF24_FUNCS.c ****  * This function will write 1 to all the three IRQ "flag" bits on the
 861:Generated_Source\PSoC4/nRF24_FUNCS.c ****  * STATUS register.
 862:Generated_Source\PSoC4/nRF24_FUNCS.c ****  */
 863:Generated_Source\PSoC4/nRF24_FUNCS.c **** void nRF24_clear_all_irqs(void)
 864:Generated_Source\PSoC4/nRF24_FUNCS.c **** {
 1828              		.loc 1 864 0
 1829              		.cfi_startproc
 1830              		@ args = 0, pretend = 0, frame = 0
 1831              		@ frame_needed = 0, uses_anonymous_args = 0
 1832 0000 10B5     		push	{r4, lr}
 1833              		.cfi_def_cfa_offset 8
 1834              		.cfi_offset 4, -8
 1835              		.cfi_offset 14, -4
 865:Generated_Source\PSoC4/nRF24_FUNCS.c ****     nRF24_write_register(NRF_REG_STATUS, NRF_ALL_IRQ_MASK);
 1836              		.loc 1 865 0
 1837 0002 7021     		movs	r1, #112
 1838 0004 0720     		movs	r0, #7
 1839 0006 FFF7FEFF 		bl	nRF24_write_register
 1840              	.LVL133:
 866:Generated_Source\PSoC4/nRF24_FUNCS.c **** }
 1841              		.loc 1 866 0
 1842              		@ sp needed
 1843 000a 10BD     		pop	{r4, pc}
 1844              		.cfi_endproc
 1845              	.LFE57:
 1846              		.size	nRF24_clear_all_irqs, .-nRF24_clear_all_irqs
 1847              		.section	.text.nRF24_start,"ax",%progbits
 1848              		.align	2
 1849              		.global	nRF24_start
 1850              		.code	16
ARM GAS  C:\Users\Xwx47\AppData\Local\Temp\ccj7Qs1R.s 			page 49


 1851              		.thumb_func
 1852              		.type	nRF24_start, %function
 1853              	nRF24_start:
 1854              	.LFB2:
  56:Generated_Source\PSoC4/nRF24_FUNCS.c ****     // Recommended delay before start using the nRF24
 1855              		.loc 1 56 0
 1856              		.cfi_startproc
 1857              		@ args = 0, pretend = 0, frame = 0
 1858              		@ frame_needed = 0, uses_anonymous_args = 0
 1859 0000 10B5     		push	{r4, lr}
 1860              		.cfi_def_cfa_offset 8
 1861              		.cfi_offset 4, -8
 1862              		.cfi_offset 14, -4
  58:Generated_Source\PSoC4/nRF24_FUNCS.c **** 
 1863              		.loc 1 58 0
 1864 0002 6420     		movs	r0, #100
 1865 0004 FFF7FEFF 		bl	CyDelay
 1866              	.LVL134:
  70:Generated_Source\PSoC4/nRF24_FUNCS.c ****     CE_Write(0);
 1867              		.loc 1 70 0
 1868 0008 FFF7FEFF 		bl	SPI_Start
 1869              	.LVL135:
  71:Generated_Source\PSoC4/nRF24_FUNCS.c ****     SS_Write(1);
 1870              		.loc 1 71 0
 1871 000c 0020     		movs	r0, #0
 1872 000e FFF7FEFF 		bl	CE_Write
 1873              	.LVL136:
  72:Generated_Source\PSoC4/nRF24_FUNCS.c **** #endif
 1874              		.loc 1 72 0
 1875 0012 0120     		movs	r0, #1
 1876 0014 FFF7FEFF 		bl	SS_Write
 1877              	.LVL137:
  76:Generated_Source\PSoC4/nRF24_FUNCS.c ****     nRF24_flush_tx_cmd();
 1878              		.loc 1 76 0
 1879 0018 FFF7FEFF 		bl	nRF24_flush_rx_cmd
 1880              	.LVL138:
  77:Generated_Source\PSoC4/nRF24_FUNCS.c ****     // Clear IRQ flags
 1881              		.loc 1 77 0
 1882 001c FFF7FEFF 		bl	nRF24_flush_tx_cmd
 1883              	.LVL139:
  79:Generated_Source\PSoC4/nRF24_FUNCS.c **** 
 1884              		.loc 1 79 0
 1885 0020 FFF7FEFF 		bl	nRF24_clear_all_irqs
 1886              	.LVL140:
  82:Generated_Source\PSoC4/nRF24_FUNCS.c **** 
 1887              		.loc 1 82 0
 1888 0024 FFF7FEFF 		bl	nRF24_init
 1889              	.LVL141:
  85:Generated_Source\PSoC4/nRF24_FUNCS.c **** }
 1890              		.loc 1 85 0
 1891 0028 9620     		movs	r0, #150
 1892 002a FFF7FEFF 		bl	CyDelayUs
 1893              	.LVL142:
  86:Generated_Source\PSoC4/nRF24_FUNCS.c **** 
 1894              		.loc 1 86 0
 1895              		@ sp needed
 1896 002e 10BD     		pop	{r4, pc}
ARM GAS  C:\Users\Xwx47\AppData\Local\Temp\ccj7Qs1R.s 			page 50


 1897              		.cfi_endproc
 1898              	.LFE2:
 1899              		.size	nRF24_start, .-nRF24_start
 1900              		.section	.text.nRF24_clear_irq_flag,"ax",%progbits
 1901              		.align	2
 1902              		.global	nRF24_clear_irq_flag
 1903              		.code	16
 1904              		.thumb_func
 1905              		.type	nRF24_clear_irq_flag, %function
 1906              	nRF24_clear_irq_flag:
 1907              	.LFB58:
 867:Generated_Source\PSoC4/nRF24_FUNCS.c **** 
 868:Generated_Source\PSoC4/nRF24_FUNCS.c **** /**
 869:Generated_Source\PSoC4/nRF24_FUNCS.c ****  * @brief Clears the specific IRQ flag.
 870:Generated_Source\PSoC4/nRF24_FUNCS.c ****  *
 871:Generated_Source\PSoC4/nRF24_FUNCS.c ****  * Clear the flag by writing 1 to the interrupt flag bit.
 872:Generated_Source\PSoC4/nRF24_FUNCS.c ****  *
 873:Generated_Source\PSoC4/nRF24_FUNCS.c ****  * @param nrf_irq irq_flag: Interrupt flag to clear.
 874:Generated_Source\PSoC4/nRF24_FUNCS.c ****  */
 875:Generated_Source\PSoC4/nRF24_FUNCS.c **** void nRF24_clear_irq_flag(const nrf_irq irq_flag)
 876:Generated_Source\PSoC4/nRF24_FUNCS.c **** {
 1908              		.loc 1 876 0
 1909              		.cfi_startproc
 1910              		@ args = 0, pretend = 0, frame = 0
 1911              		@ frame_needed = 0, uses_anonymous_args = 0
 1912              	.LVL143:
 1913 0000 10B5     		push	{r4, lr}
 1914              		.cfi_def_cfa_offset 8
 1915              		.cfi_offset 4, -8
 1916              		.cfi_offset 14, -4
 877:Generated_Source\PSoC4/nRF24_FUNCS.c ****     nRF24_write_register(NRF_REG_STATUS, (1 << irq_flag));
 1917              		.loc 1 877 0
 1918 0002 0121     		movs	r1, #1
 1919 0004 8140     		lsls	r1, r1, r0
 1920 0006 C9B2     		uxtb	r1, r1
 1921 0008 0720     		movs	r0, #7
 1922              	.LVL144:
 1923 000a FFF7FEFF 		bl	nRF24_write_register
 1924              	.LVL145:
 878:Generated_Source\PSoC4/nRF24_FUNCS.c **** }
 1925              		.loc 1 878 0
 1926              		@ sp needed
 1927 000e 10BD     		pop	{r4, pc}
 1928              		.cfi_endproc
 1929              	.LFE58:
 1930              		.size	nRF24_clear_irq_flag, .-nRF24_clear_irq_flag
 1931              		.section	.text.nRF24_get_irq_flag,"ax",%progbits
 1932              		.align	2
 1933              		.global	nRF24_get_irq_flag
 1934              		.code	16
 1935              		.thumb_func
 1936              		.type	nRF24_get_irq_flag, %function
 1937              	nRF24_get_irq_flag:
 1938              	.LFB59:
 879:Generated_Source\PSoC4/nRF24_FUNCS.c **** 
 880:Generated_Source\PSoC4/nRF24_FUNCS.c **** /**
 881:Generated_Source\PSoC4/nRF24_FUNCS.c ****  * This method is used to get if any of the IRQ "flag" bits on the STATUS
ARM GAS  C:\Users\Xwx47\AppData\Local\Temp\ccj7Qs1R.s 			page 51


 882:Generated_Source\PSoC4/nRF24_FUNCS.c ****  * register is set to 1. This function returns 0 is none of the flag bits
 883:Generated_Source\PSoC4/nRF24_FUNCS.c ****  * is not set to 1.
 884:Generated_Source\PSoC4/nRF24_FUNCS.c ****  *
 885:Generated_Source\PSoC4/nRF24_FUNCS.c ****  * @return nrf_irq: Asserted bit of the interrupt flags.
 886:Generated_Source\PSoC4/nRF24_FUNCS.c ****  */
 887:Generated_Source\PSoC4/nRF24_FUNCS.c **** nrf_irq nRF24_get_irq_flag(void)
 888:Generated_Source\PSoC4/nRF24_FUNCS.c **** {
 1939              		.loc 1 888 0
 1940              		.cfi_startproc
 1941              		@ args = 0, pretend = 0, frame = 0
 1942              		@ frame_needed = 0, uses_anonymous_args = 0
 1943 0000 10B5     		push	{r4, lr}
 1944              		.cfi_def_cfa_offset 8
 1945              		.cfi_offset 4, -8
 1946              		.cfi_offset 14, -4
 1947              	.LVL146:
 889:Generated_Source\PSoC4/nRF24_FUNCS.c ****     nrf_irq irq = NRF_NONE_IRQ;
 890:Generated_Source\PSoC4/nRF24_FUNCS.c **** 
 891:Generated_Source\PSoC4/nRF24_FUNCS.c ****     // Get the STATUS register
 892:Generated_Source\PSoC4/nRF24_FUNCS.c ****     uint8_t sts = nRF24_nop_cmd();
 1948              		.loc 1 892 0
 1949 0002 FFF7FEFF 		bl	nRF24_nop_cmd
 1950              	.LVL147:
 893:Generated_Source\PSoC4/nRF24_FUNCS.c **** 
 894:Generated_Source\PSoC4/nRF24_FUNCS.c ****     // We only care if bits 4, 5 or 6 are set, so we mask the STATUS with 0x0111_0000
 895:Generated_Source\PSoC4/nRF24_FUNCS.c ****     switch (sts & NRF_ALL_IRQ_MASK) {
 1951              		.loc 1 895 0
 1952 0006 7023     		movs	r3, #112
 1953 0008 1840     		ands	r0, r3
 1954              	.LVL148:
 1955 000a 2028     		cmp	r0, #32
 1956 000c 0AD0     		beq	.L111
 1957 000e 4028     		cmp	r0, #64
 1958 0010 02D0     		beq	.L109
 1959 0012 1028     		cmp	r0, #16
 1960 0014 04D1     		bne	.L112
 1961 0016 01E0     		b	.L110
 1962              	.L109:
 896:Generated_Source\PSoC4/nRF24_FUNCS.c ****     case NRF_STATUS_RX_DR_MASK:
 897:Generated_Source\PSoC4/nRF24_FUNCS.c ****         irq = NRF_RX_DR_IRQ;
 1963              		.loc 1 897 0
 1964 0018 0620     		movs	r0, #6
 1965 001a 04E0     		b	.L108
 1966              	.L110:
 1967              	.LVL149:
 898:Generated_Source\PSoC4/nRF24_FUNCS.c ****         break;
 899:Generated_Source\PSoC4/nRF24_FUNCS.c ****     case NRF_STATUS_TX_DS_MASK:
 900:Generated_Source\PSoC4/nRF24_FUNCS.c ****         irq = NRF_TX_DS_IRQ;
 901:Generated_Source\PSoC4/nRF24_FUNCS.c ****         break;
 902:Generated_Source\PSoC4/nRF24_FUNCS.c ****     case NRF_STATUS_MAX_RT_MASK:
 903:Generated_Source\PSoC4/nRF24_FUNCS.c ****         irq = NRF_MAX_RT_IRQ;
 1968              		.loc 1 903 0
 1969 001c 0420     		movs	r0, #4
 904:Generated_Source\PSoC4/nRF24_FUNCS.c ****         break;
 1970              		.loc 1 904 0
 1971 001e 02E0     		b	.L108
 1972              	.LVL150:
ARM GAS  C:\Users\Xwx47\AppData\Local\Temp\ccj7Qs1R.s 			page 52


 1973              	.L112:
 905:Generated_Source\PSoC4/nRF24_FUNCS.c ****     default:
 906:Generated_Source\PSoC4/nRF24_FUNCS.c ****         irq = NRF_ALL_IRQ_MASK;
 1974              		.loc 1 906 0
 1975 0020 7020     		movs	r0, #112
 907:Generated_Source\PSoC4/nRF24_FUNCS.c ****         break;
 1976              		.loc 1 907 0
 1977 0022 00E0     		b	.L108
 1978              	.LVL151:
 1979              	.L111:
 900:Generated_Source\PSoC4/nRF24_FUNCS.c ****         break;
 1980              		.loc 1 900 0
 1981 0024 0520     		movs	r0, #5
 1982              	.LVL152:
 1983              	.L108:
 908:Generated_Source\PSoC4/nRF24_FUNCS.c ****     }
 909:Generated_Source\PSoC4/nRF24_FUNCS.c **** 
 910:Generated_Source\PSoC4/nRF24_FUNCS.c ****     return irq;
 911:Generated_Source\PSoC4/nRF24_FUNCS.c **** }
 1984              		.loc 1 911 0
 1985              		@ sp needed
 1986 0026 10BD     		pop	{r4, pc}
 1987              		.cfi_endproc
 1988              	.LFE59:
 1989              		.size	nRF24_get_irq_flag, .-nRF24_get_irq_flag
 1990              		.section	.text.nRF24_poll_interrupt,"ax",%progbits
 1991              		.align	2
 1992              		.global	nRF24_poll_interrupt
 1993              		.code	16
 1994              		.thumb_func
 1995              		.type	nRF24_poll_interrupt, %function
 1996              	nRF24_poll_interrupt:
 1997              	.LFB60:
 912:Generated_Source\PSoC4/nRF24_FUNCS.c **** 
 913:Generated_Source\PSoC4/nRF24_FUNCS.c **** void nRF24_poll_interrupt(void)
 914:Generated_Source\PSoC4/nRF24_FUNCS.c **** {
 1998              		.loc 1 914 0
 1999              		.cfi_startproc
 2000              		@ args = 0, pretend = 0, frame = 0
 2001              		@ frame_needed = 0, uses_anonymous_args = 0
 2002              		@ link register save eliminated.
 915:Generated_Source\PSoC4/nRF24_FUNCS.c **** 
 916:Generated_Source\PSoC4/nRF24_FUNCS.c **** }
 2003              		.loc 1 916 0
 2004              		@ sp needed
 2005 0000 7047     		bx	lr
 2006              		.cfi_endproc
 2007              	.LFE60:
 2008              		.size	nRF24_poll_interrupt, .-nRF24_poll_interrupt
 2009 0002 C046     		.section	.text.nRF24_get_status_clear_irq,"ax",%progbits
 2010              		.align	2
 2011              		.global	nRF24_get_status_clear_irq
 2012              		.code	16
 2013              		.thumb_func
 2014              		.type	nRF24_get_status_clear_irq, %function
 2015              	nRF24_get_status_clear_irq:
 2016              	.LFB61:
ARM GAS  C:\Users\Xwx47\AppData\Local\Temp\ccj7Qs1R.s 			page 53


 917:Generated_Source\PSoC4/nRF24_FUNCS.c **** 
 918:Generated_Source\PSoC4/nRF24_FUNCS.c **** uint8_t nRF24_get_status_clear_irq(void)
 919:Generated_Source\PSoC4/nRF24_FUNCS.c **** {
 2017              		.loc 1 919 0
 2018              		.cfi_startproc
 2019              		@ args = 0, pretend = 0, frame = 0
 2020              		@ frame_needed = 0, uses_anonymous_args = 0
 2021 0000 10B5     		push	{r4, lr}
 2022              		.cfi_def_cfa_offset 8
 2023              		.cfi_offset 4, -8
 2024              		.cfi_offset 14, -4
 920:Generated_Source\PSoC4/nRF24_FUNCS.c ****     uint8_t sts = nRF24_nop_cmd();
 2025              		.loc 1 920 0
 2026 0002 FFF7FEFF 		bl	nRF24_nop_cmd
 2027              	.LVL153:
 2028 0006 0400     		movs	r4, r0
 2029              	.LVL154:
 921:Generated_Source\PSoC4/nRF24_FUNCS.c ****     nRF24_write_register(NRF_REG_STATUS, NRF_ALL_IRQ_MASK);
 2030              		.loc 1 921 0
 2031 0008 7021     		movs	r1, #112
 2032 000a 0720     		movs	r0, #7
 2033 000c FFF7FEFF 		bl	nRF24_write_register
 2034              	.LVL155:
 922:Generated_Source\PSoC4/nRF24_FUNCS.c **** 
 923:Generated_Source\PSoC4/nRF24_FUNCS.c ****     return sts;
 924:Generated_Source\PSoC4/nRF24_FUNCS.c **** }
 2035              		.loc 1 924 0
 2036 0010 2000     		movs	r0, r4
 2037              		@ sp needed
 2038              	.LVL156:
 2039 0012 10BD     		pop	{r4, pc}
 2040              		.cfi_endproc
 2041              	.LFE61:
 2042              		.size	nRF24_get_status_clear_irq, .-nRF24_get_status_clear_irq
 2043              		.section	.text.nRF24_flush_rx,"ax",%progbits
 2044              		.align	2
 2045              		.global	nRF24_flush_rx
 2046              		.code	16
 2047              		.thumb_func
 2048              		.type	nRF24_flush_rx, %function
 2049              	nRF24_flush_rx:
 2050              	.LFB62:
 925:Generated_Source\PSoC4/nRF24_FUNCS.c **** 
 926:Generated_Source\PSoC4/nRF24_FUNCS.c **** // command wrappers
 927:Generated_Source\PSoC4/nRF24_FUNCS.c **** void nRF24_flush_rx(void)
 928:Generated_Source\PSoC4/nRF24_FUNCS.c **** {
 2051              		.loc 1 928 0
 2052              		.cfi_startproc
 2053              		@ args = 0, pretend = 0, frame = 0
 2054              		@ frame_needed = 0, uses_anonymous_args = 0
 2055 0000 10B5     		push	{r4, lr}
 2056              		.cfi_def_cfa_offset 8
 2057              		.cfi_offset 4, -8
 2058              		.cfi_offset 14, -4
 929:Generated_Source\PSoC4/nRF24_FUNCS.c ****     nRF24_flush_rx_cmd();
 2059              		.loc 1 929 0
 2060 0002 FFF7FEFF 		bl	nRF24_flush_rx_cmd
ARM GAS  C:\Users\Xwx47\AppData\Local\Temp\ccj7Qs1R.s 			page 54


 2061              	.LVL157:
 930:Generated_Source\PSoC4/nRF24_FUNCS.c **** }
 2062              		.loc 1 930 0
 2063              		@ sp needed
 2064 0006 10BD     		pop	{r4, pc}
 2065              		.cfi_endproc
 2066              	.LFE62:
 2067              		.size	nRF24_flush_rx, .-nRF24_flush_rx
 2068              		.section	.text.nRF24_flush_tx,"ax",%progbits
 2069              		.align	2
 2070              		.global	nRF24_flush_tx
 2071              		.code	16
 2072              		.thumb_func
 2073              		.type	nRF24_flush_tx, %function
 2074              	nRF24_flush_tx:
 2075              	.LFB63:
 931:Generated_Source\PSoC4/nRF24_FUNCS.c **** 
 932:Generated_Source\PSoC4/nRF24_FUNCS.c **** void nRF24_flush_tx(void)
 933:Generated_Source\PSoC4/nRF24_FUNCS.c **** {
 2076              		.loc 1 933 0
 2077              		.cfi_startproc
 2078              		@ args = 0, pretend = 0, frame = 0
 2079              		@ frame_needed = 0, uses_anonymous_args = 0
 2080 0000 10B5     		push	{r4, lr}
 2081              		.cfi_def_cfa_offset 8
 2082              		.cfi_offset 4, -8
 2083              		.cfi_offset 14, -4
 934:Generated_Source\PSoC4/nRF24_FUNCS.c ****     nRF24_flush_tx_cmd();
 2084              		.loc 1 934 0
 2085 0002 FFF7FEFF 		bl	nRF24_flush_tx_cmd
 2086              	.LVL158:
 935:Generated_Source\PSoC4/nRF24_FUNCS.c **** }
 2087              		.loc 1 935 0
 2088              		@ sp needed
 2089 0006 10BD     		pop	{r4, pc}
 2090              		.cfi_endproc
 2091              	.LFE63:
 2092              		.size	nRF24_flush_tx, .-nRF24_flush_tx
 2093              		.data
 2094              		.set	.LANCHOR0,. + 0
 2095              		.type	_nrf_addr_width, %object
 2096              		.size	_nrf_addr_width, 1
 2097              	_nrf_addr_width:
 2098 0000 05       		.byte	5
 2099              		.text
 2100              	.Letext0:
 2101              		.file 2 "c:\\program files (x86)\\cypress\\psoc creator\\4.1\\psoc creator\\import\\gnu\\arm\\5.4.
 2102              		.file 3 "c:\\program files (x86)\\cypress\\psoc creator\\4.1\\psoc creator\\import\\gnu\\arm\\5.4.
 2103              		.file 4 "c:\\program files (x86)\\cypress\\psoc creator\\4.1\\psoc creator\\import\\gnu\\arm\\5.4.
 2104              		.file 5 "Generated_Source\\PSoC4\\nRF24_DEFS.h"
 2105              		.file 6 "Generated_Source\\PSoC4\\nRF24_HAL.h"
 2106              		.file 7 "Generated_Source\\PSoC4/CyLib.h"
 2107              		.file 8 "Generated_Source\\PSoC4\\nRF24_COMMANDS.h"
 2108              		.file 9 "Generated_Source\\PSoC4\\CE.h"
 2109              		.file 10 "Generated_Source\\PSoC4\\SPI.h"
 2110              		.file 11 "Generated_Source\\PSoC4\\SS.h"