ARM GAS  C:\Users\Xwx47\AppData\Local\Temp\ccTLnL9b.s 			page 1


   1              		.syntax unified
   2              		.cpu cortex-m0plus
   3              		.fpu softvfp
   4              		.eabi_attribute 20, 1
   5              		.eabi_attribute 21, 1
   6              		.eabi_attribute 23, 3
   7              		.eabi_attribute 24, 1
   8              		.eabi_attribute 25, 1
   9              		.eabi_attribute 26, 1
  10              		.eabi_attribute 30, 1
  11              		.eabi_attribute 34, 0
  12              		.eabi_attribute 18, 4
  13              		.thumb
  14              		.syntax unified
  15              		.file	"nRF24_HAL.c"
  16              		.text
  17              	.Ltext0:
  18              		.cfi_sections	.debug_frame
  19              		.section	.text.nRF24_read_register,"ax",%progbits
  20              		.align	2
  21              		.global	nRF24_read_register
  22              		.code	16
  23              		.thumb_func
  24              		.type	nRF24_read_register, %function
  25              	nRF24_read_register:
  26              	.LFB1:
  27              		.file 1 "Generated_Source\\PSoC4\\nRF24_HAL.c"
   1:Generated_Source\PSoC4/nRF24_HAL.c **** /****************************************************************************
   2:Generated_Source\PSoC4/nRF24_HAL.c **** * This file is part of the nRF24 Custom Component for PSoC Devices.
   3:Generated_Source\PSoC4/nRF24_HAL.c **** *
   4:Generated_Source\PSoC4/nRF24_HAL.c **** * Copyright (C) 2017 Carlos Diaz <carlos.santiago.diaz@gmail.com>
   5:Generated_Source\PSoC4/nRF24_HAL.c **** *
   6:Generated_Source\PSoC4/nRF24_HAL.c **** * Permission to use, copy, modify, and/or distribute this software for any
   7:Generated_Source\PSoC4/nRF24_HAL.c **** * purpose with or without fee is hereby granted, provided that the above
   8:Generated_Source\PSoC4/nRF24_HAL.c **** * copyright notice and this permission notice appear in all copies.
   9:Generated_Source\PSoC4/nRF24_HAL.c **** *
  10:Generated_Source\PSoC4/nRF24_HAL.c **** * THE SOFTWARE IS PROVIDED "AS IS" AND THE AUTHOR DISCLAIMS ALL WARRANTIES
  11:Generated_Source\PSoC4/nRF24_HAL.c **** * WITH REGARD TO THIS SOFTWARE INCLUDING ALL IMPLIED WARRANTIES OF
  12:Generated_Source\PSoC4/nRF24_HAL.c **** * MERCHANTABILITY AND FITNESS. IN NO EVENT SHALL THE AUTHOR BE LIABLE FOR
  13:Generated_Source\PSoC4/nRF24_HAL.c **** * ANY SPECIAL, DIRECT, INDIRECT, OR CONSEQUENTIAL DAMAGES OR ANY DAMAGES
  14:Generated_Source\PSoC4/nRF24_HAL.c **** * WHATSOEVER RESULTING FROM LOSS OF USE, DATA OR PROFITS, WHETHER IN AN
  15:Generated_Source\PSoC4/nRF24_HAL.c **** * ACTION OF CONTRACT, NEGLIGENCE OR OTHER TORTIOUS ACTION, ARISING OUT OF
  16:Generated_Source\PSoC4/nRF24_HAL.c **** * OR IN CONNECTION WITH THE USE OR PERFORMANCE OF THIS SOFTWARE.
  17:Generated_Source\PSoC4/nRF24_HAL.c **** ****************************************************************************/
  18:Generated_Source\PSoC4/nRF24_HAL.c **** 
  19:Generated_Source\PSoC4/nRF24_HAL.c **** /**
  20:Generated_Source\PSoC4/nRF24_HAL.c **** * @file nRF24_HAL.c
  21:Generated_Source\PSoC4/nRF24_HAL.c **** *
  22:Generated_Source\PSoC4/nRF24_HAL.c **** * @brief The nRF24 radio is controlled via SPI, this file have all the SPI
  23:Generated_Source\PSoC4/nRF24_HAL.c **** * communication between the PSoC and the nRF24 radio.
  24:Generated_Source\PSoC4/nRF24_HAL.c **** */
  25:Generated_Source\PSoC4/nRF24_HAL.c **** 
  26:Generated_Source\PSoC4/nRF24_HAL.c **** #include "nRF24_CONFIG.h"
  27:Generated_Source\PSoC4/nRF24_HAL.c **** #include "nRF24_HAL.h"
  28:Generated_Source\PSoC4/nRF24_HAL.c **** 
  29:Generated_Source\PSoC4/nRF24_HAL.c **** /**
  30:Generated_Source\PSoC4/nRF24_HAL.c ****  * Read the specified nRF24 register (1byte).
ARM GAS  C:\Users\Xwx47\AppData\Local\Temp\ccTLnL9b.s 			page 2


  31:Generated_Source\PSoC4/nRF24_HAL.c ****  *
  32:Generated_Source\PSoC4/nRF24_HAL.c ****  * @param const nrf_register reg: Register to be read.
  33:Generated_Source\PSoC4/nRF24_HAL.c ****  *
  34:Generated_Source\PSoC4/nRF24_HAL.c ****  * @return uint8_t: Content of the specified register.
  35:Generated_Source\PSoC4/nRF24_HAL.c ****  */
  36:Generated_Source\PSoC4/nRF24_HAL.c **** uint8_t nRF24_read_register(const nrf_register reg)
  37:Generated_Source\PSoC4/nRF24_HAL.c **** {
  28              		.loc 1 37 0
  29              		.cfi_startproc
  30              		@ args = 0, pretend = 0, frame = 0
  31              		@ frame_needed = 0, uses_anonymous_args = 0
  32              	.LVL0:
  33 0000 10B5     		push	{r4, lr}
  34              		.cfi_def_cfa_offset 8
  35              		.cfi_offset 4, -8
  36              		.cfi_offset 14, -4
  37 0002 0400     		movs	r4, r0
  38              	.LVL1:
  38:Generated_Source\PSoC4/nRF24_HAL.c ****     uint8_t data = 0;
  39:Generated_Source\PSoC4/nRF24_HAL.c **** #if defined (_PSOC6) // PSoC6
  40:Generated_Source\PSoC4/nRF24_HAL.c ****     Cy_SCB_ClearRxFifo(SPI_HW);
  41:Generated_Source\PSoC4/nRF24_HAL.c ****     Cy_SCB_ClearTxFifo(SPI_HW);
  42:Generated_Source\PSoC4/nRF24_HAL.c **** 
  43:Generated_Source\PSoC4/nRF24_HAL.c ****     Cy_GPIO_Clr(SS_PORT, SS_NUM);
  44:Generated_Source\PSoC4/nRF24_HAL.c **** 
  45:Generated_Source\PSoC4/nRF24_HAL.c ****     Cy_SCB_WriteArrayBlocking(SPI_HW, (uint8_t []){NRF_CMD_R_REGISTER | reg, NRF_CMD_NOP}, 2);
  46:Generated_Source\PSoC4/nRF24_HAL.c **** 
  47:Generated_Source\PSoC4/nRF24_HAL.c ****     while (Cy_SCB_IsTxComplete(SPI_HW) == false) {
  48:Generated_Source\PSoC4/nRF24_HAL.c ****     }
  49:Generated_Source\PSoC4/nRF24_HAL.c ****     CyDelayUs(1);
  50:Generated_Source\PSoC4/nRF24_HAL.c **** 
  51:Generated_Source\PSoC4/nRF24_HAL.c ****     Cy_GPIO_Set(SS_PORT, SS_NUM);
  52:Generated_Source\PSoC4/nRF24_HAL.c **** 
  53:Generated_Source\PSoC4/nRF24_HAL.c ****     (void)Cy_SCB_ReadRxFifo(SPI_HW);
  54:Generated_Source\PSoC4/nRF24_HAL.c ****     data = Cy_SCB_ReadRxFifo(SPI_HW);
  55:Generated_Source\PSoC4/nRF24_HAL.c **** #elif defined (_PSOC4_SCB) // PSoC4
  56:Generated_Source\PSoC4/nRF24_HAL.c ****     SPI_SpiUartClearRxBuffer();
  39              		.loc 1 56 0
  40 0004 FFF7FEFF 		bl	SPI_SpiUartClearRxBuffer
  41              	.LVL2:
  57:Generated_Source\PSoC4/nRF24_HAL.c ****     SPI_SpiUartClearTxBuffer();
  42              		.loc 1 57 0
  43 0008 FFF7FEFF 		bl	SPI_SpiUartClearTxBuffer
  44              	.LVL3:
  58:Generated_Source\PSoC4/nRF24_HAL.c **** 
  59:Generated_Source\PSoC4/nRF24_HAL.c ****     SS_Write(0);
  45              		.loc 1 59 0
  46 000c 0020     		movs	r0, #0
  47 000e FFF7FEFF 		bl	SS_Write
  48              	.LVL4:
  60:Generated_Source\PSoC4/nRF24_HAL.c ****     SPI_SpiUartWriteTxData(NRF_CMD_R_REGISTER | reg);
  49              		.loc 1 60 0
  50 0012 2000     		movs	r0, r4
  51 0014 FFF7FEFF 		bl	SPI_SpiUartWriteTxData
  52              	.LVL5:
  61:Generated_Source\PSoC4/nRF24_HAL.c ****     SPI_SpiUartWriteTxData(NRF_CMD_NOP);
  53              		.loc 1 61 0
ARM GAS  C:\Users\Xwx47\AppData\Local\Temp\ccTLnL9b.s 			page 3


  54 0018 FF20     		movs	r0, #255
  55 001a FFF7FEFF 		bl	SPI_SpiUartWriteTxData
  56              	.LVL6:
  57              	.L2:
  62:Generated_Source\PSoC4/nRF24_HAL.c **** 
  63:Generated_Source\PSoC4/nRF24_HAL.c ****     while (SPI_SpiUartGetRxBufferSize() != 2) {
  58              		.loc 1 63 0 discriminator 1
  59 001e FFF7FEFF 		bl	SPI_SpiUartGetRxBufferSize
  60              	.LVL7:
  61 0022 0228     		cmp	r0, #2
  62 0024 FBD1     		bne	.L2
  64:Generated_Source\PSoC4/nRF24_HAL.c ****     }
  65:Generated_Source\PSoC4/nRF24_HAL.c ****     SS_Write(1);
  63              		.loc 1 65 0
  64 0026 0138     		subs	r0, r0, #1
  65 0028 FFF7FEFF 		bl	SS_Write
  66              	.LVL8:
  66:Generated_Source\PSoC4/nRF24_HAL.c **** 
  67:Generated_Source\PSoC4/nRF24_HAL.c ****     // This is the STATUS Register
  68:Generated_Source\PSoC4/nRF24_HAL.c ****     (void)SPI_SpiUartReadRxData();
  67              		.loc 1 68 0
  68 002c FFF7FEFF 		bl	SPI_SpiUartReadRxData
  69              	.LVL9:
  69:Generated_Source\PSoC4/nRF24_HAL.c ****     // This is the data we want
  70:Generated_Source\PSoC4/nRF24_HAL.c ****     data = SPI_SpiUartReadRxData();
  70              		.loc 1 70 0
  71 0030 FFF7FEFF 		bl	SPI_SpiUartReadRxData
  72              	.LVL10:
  73 0034 C0B2     		uxtb	r0, r0
  74              	.LVL11:
  71:Generated_Source\PSoC4/nRF24_HAL.c **** #else // _PSOC_UDB
  72:Generated_Source\PSoC4/nRF24_HAL.c ****     SPI_ClearFIFO();
  73:Generated_Source\PSoC4/nRF24_HAL.c **** 
  74:Generated_Source\PSoC4/nRF24_HAL.c ****     SS_Write(0);
  75:Generated_Source\PSoC4/nRF24_HAL.c ****     SPI_WriteTxData(NRF_CMD_R_REGISTER | reg);
  76:Generated_Source\PSoC4/nRF24_HAL.c ****     SPI_WriteTxData(NRF_CMD_NOP);
  77:Generated_Source\PSoC4/nRF24_HAL.c **** 
  78:Generated_Source\PSoC4/nRF24_HAL.c ****     while (!(SPI_ReadTxStatus() & SPI_STS_SPI_IDLE)) {
  79:Generated_Source\PSoC4/nRF24_HAL.c ****     }
  80:Generated_Source\PSoC4/nRF24_HAL.c ****     SS_Write(1);
  81:Generated_Source\PSoC4/nRF24_HAL.c **** 
  82:Generated_Source\PSoC4/nRF24_HAL.c ****     // This is the STATUS Register
  83:Generated_Source\PSoC4/nRF24_HAL.c ****     (void)SPI_ReadRxData();
  84:Generated_Source\PSoC4/nRF24_HAL.c ****     // This is the data we want
  85:Generated_Source\PSoC4/nRF24_HAL.c ****     data = SPI_ReadRxData();
  86:Generated_Source\PSoC4/nRF24_HAL.c **** #endif
  87:Generated_Source\PSoC4/nRF24_HAL.c ****     return data;
  88:Generated_Source\PSoC4/nRF24_HAL.c **** }
  75              		.loc 1 88 0
  76              		@ sp needed
  77 0036 10BD     		pop	{r4, pc}
  78              		.cfi_endproc
  79              	.LFE1:
  80              		.size	nRF24_read_register, .-nRF24_read_register
  81              		.section	.text.nRF24_read_long_register,"ax",%progbits
  82              		.align	2
  83              		.global	nRF24_read_long_register
ARM GAS  C:\Users\Xwx47\AppData\Local\Temp\ccTLnL9b.s 			page 4


  84              		.code	16
  85              		.thumb_func
  86              		.type	nRF24_read_long_register, %function
  87              	nRF24_read_long_register:
  88              	.LFB2:
  89:Generated_Source\PSoC4/nRF24_HAL.c **** 
  90:Generated_Source\PSoC4/nRF24_HAL.c **** /**
  91:Generated_Source\PSoC4/nRF24_HAL.c ****  * Read the specified nRF24 register (bigger than 1 byte).
  92:Generated_Source\PSoC4/nRF24_HAL.c ****  *
  93:Generated_Source\PSoC4/nRF24_HAL.c ****  * @param const nrf_register reg: Register to be read.
  94:Generated_Source\PSoC4/nRF24_HAL.c ****  * @param uint8_t* data: Pointer to where the content of the register
  95:Generated_Source\PSoC4/nRF24_HAL.c ****  * will be stored.
  96:Generated_Source\PSoC4/nRF24_HAL.c ****  * @param size_t size: Size of the register and data.
  97:Generated_Source\PSoC4/nRF24_HAL.c ****  */
  98:Generated_Source\PSoC4/nRF24_HAL.c **** void nRF24_read_long_register(const nrf_register reg,
  99:Generated_Source\PSoC4/nRF24_HAL.c ****                                            uint8_t* data, const size_t size)
 100:Generated_Source\PSoC4/nRF24_HAL.c **** {
  89              		.loc 1 100 0
  90              		.cfi_startproc
  91              		@ args = 0, pretend = 0, frame = 0
  92              		@ frame_needed = 0, uses_anonymous_args = 0
  93              	.LVL12:
  94 0000 F8B5     		push	{r3, r4, r5, r6, r7, lr}
  95              		.cfi_def_cfa_offset 24
  96              		.cfi_offset 3, -24
  97              		.cfi_offset 4, -20
  98              		.cfi_offset 5, -16
  99              		.cfi_offset 6, -12
 100              		.cfi_offset 7, -8
 101              		.cfi_offset 14, -4
 102 0002 0400     		movs	r4, r0
 103 0004 0F00     		movs	r7, r1
 104 0006 1600     		movs	r6, r2
 101:Generated_Source\PSoC4/nRF24_HAL.c **** #if defined (_PSOC6) // PSoC6
 102:Generated_Source\PSoC4/nRF24_HAL.c ****     Cy_SCB_ClearRxFifo(SPI_HW);
 103:Generated_Source\PSoC4/nRF24_HAL.c ****     Cy_SCB_ClearTxFifo(SPI_HW);
 104:Generated_Source\PSoC4/nRF24_HAL.c **** 
 105:Generated_Source\PSoC4/nRF24_HAL.c ****     Cy_GPIO_Clr(SS_PORT, SS_NUM);
 106:Generated_Source\PSoC4/nRF24_HAL.c ****     Cy_SCB_Write(SPI_HW, NRF_CMD_R_REGISTER | reg);
 107:Generated_Source\PSoC4/nRF24_HAL.c ****     while (Cy_SCB_GetNumInRxFifo(SPI_HW) == 0) {
 108:Generated_Source\PSoC4/nRF24_HAL.c ****     }
 109:Generated_Source\PSoC4/nRF24_HAL.c **** 
 110:Generated_Source\PSoC4/nRF24_HAL.c ****     (void)Cy_SCB_ReadRxFifo(SPI_HW);
 111:Generated_Source\PSoC4/nRF24_HAL.c **** 
 112:Generated_Source\PSoC4/nRF24_HAL.c ****     for(size_t i = 0; i < size; i++){
 113:Generated_Source\PSoC4/nRF24_HAL.c ****         while(Cy_SCB_Write(SPI_HW, NRF_CMD_NOP) == 0);
 114:Generated_Source\PSoC4/nRF24_HAL.c ****         while (Cy_SCB_GetNumInRxFifo(SPI_HW) == 0) {}
 115:Generated_Source\PSoC4/nRF24_HAL.c ****         data[1] = Cy_SCB_ReadRxFifo(SPI_HW);
 116:Generated_Source\PSoC4/nRF24_HAL.c ****     }
 117:Generated_Source\PSoC4/nRF24_HAL.c **** 
 118:Generated_Source\PSoC4/nRF24_HAL.c ****     Cy_GPIO_Set(SS_PORT, SS_NUM);
 119:Generated_Source\PSoC4/nRF24_HAL.c **** #elif defined (_PSOC4_SCB) // PSoC4
 120:Generated_Source\PSoC4/nRF24_HAL.c ****     SPI_SpiUartClearRxBuffer();
 105              		.loc 1 120 0
 106 0008 FFF7FEFF 		bl	SPI_SpiUartClearRxBuffer
 107              	.LVL13:
 121:Generated_Source\PSoC4/nRF24_HAL.c ****     SPI_SpiUartClearTxBuffer();
ARM GAS  C:\Users\Xwx47\AppData\Local\Temp\ccTLnL9b.s 			page 5


 108              		.loc 1 121 0
 109 000c FFF7FEFF 		bl	SPI_SpiUartClearTxBuffer
 110              	.LVL14:
 122:Generated_Source\PSoC4/nRF24_HAL.c **** 
 123:Generated_Source\PSoC4/nRF24_HAL.c ****     SS_Write(0);
 111              		.loc 1 123 0
 112 0010 0020     		movs	r0, #0
 113 0012 FFF7FEFF 		bl	SS_Write
 114              	.LVL15:
 124:Generated_Source\PSoC4/nRF24_HAL.c ****     SPI_SpiUartWriteTxData(NRF_CMD_R_REGISTER | reg);
 115              		.loc 1 124 0
 116 0016 2000     		movs	r0, r4
 117 0018 FFF7FEFF 		bl	SPI_SpiUartWriteTxData
 118              	.LVL16:
 119              	.L4:
 125:Generated_Source\PSoC4/nRF24_HAL.c ****     while (SPI_SpiUartGetRxBufferSize() == 0){
 120              		.loc 1 125 0 discriminator 1
 121 001c FFF7FEFF 		bl	SPI_SpiUartGetRxBufferSize
 122              	.LVL17:
 123 0020 0028     		cmp	r0, #0
 124 0022 FBD0     		beq	.L4
 126:Generated_Source\PSoC4/nRF24_HAL.c ****     }
 127:Generated_Source\PSoC4/nRF24_HAL.c **** 
 128:Generated_Source\PSoC4/nRF24_HAL.c ****     // Read the status register, just to clear the rx fifo
 129:Generated_Source\PSoC4/nRF24_HAL.c ****     SPI_SpiUartReadRxData();
 125              		.loc 1 129 0
 126 0024 FFF7FEFF 		bl	SPI_SpiUartReadRxData
 127              	.LVL18:
 128              	.LBB2:
 130:Generated_Source\PSoC4/nRF24_HAL.c **** 
 131:Generated_Source\PSoC4/nRF24_HAL.c ****     for (size_t i = 0; i < size; i++) {
 129              		.loc 1 131 0
 130 0028 0024     		movs	r4, #0
 131 002a 0BE0     		b	.L5
 132              	.LVL19:
 133              	.L7:
 132:Generated_Source\PSoC4/nRF24_HAL.c ****         SPI_SpiUartWriteTxData(NRF_CMD_NOP);
 134              		.loc 1 132 0
 135 002c FF20     		movs	r0, #255
 136 002e FFF7FEFF 		bl	SPI_SpiUartWriteTxData
 137              	.LVL20:
 138              	.L6:
 133:Generated_Source\PSoC4/nRF24_HAL.c ****         while (SPI_SpiUartGetRxBufferSize() == 0){}
 139              		.loc 1 133 0 discriminator 1
 140 0032 FFF7FEFF 		bl	SPI_SpiUartGetRxBufferSize
 141              	.LVL21:
 142 0036 0028     		cmp	r0, #0
 143 0038 FBD0     		beq	.L6
 134:Generated_Source\PSoC4/nRF24_HAL.c ****         data[i] = SPI_SpiUartReadRxData();
 144              		.loc 1 134 0 discriminator 2
 145 003a 3D19     		adds	r5, r7, r4
 146 003c FFF7FEFF 		bl	SPI_SpiUartReadRxData
 147              	.LVL22:
 148 0040 2870     		strb	r0, [r5]
 131:Generated_Source\PSoC4/nRF24_HAL.c ****         SPI_SpiUartWriteTxData(NRF_CMD_NOP);
 149              		.loc 1 131 0 discriminator 2
 150 0042 0134     		adds	r4, r4, #1
ARM GAS  C:\Users\Xwx47\AppData\Local\Temp\ccTLnL9b.s 			page 6


 151              	.LVL23:
 152              	.L5:
 131:Generated_Source\PSoC4/nRF24_HAL.c ****         SPI_SpiUartWriteTxData(NRF_CMD_NOP);
 153              		.loc 1 131 0 is_stmt 0 discriminator 1
 154 0044 B442     		cmp	r4, r6
 155 0046 F1D3     		bcc	.L7
 156              	.LBE2:
 135:Generated_Source\PSoC4/nRF24_HAL.c ****     }
 136:Generated_Source\PSoC4/nRF24_HAL.c ****     SS_Write(1);
 157              		.loc 1 136 0 is_stmt 1
 158 0048 0120     		movs	r0, #1
 159 004a FFF7FEFF 		bl	SS_Write
 160              	.LVL24:
 137:Generated_Source\PSoC4/nRF24_HAL.c **** #else // _PSOC_UDB
 138:Generated_Source\PSoC4/nRF24_HAL.c ****     SPI_ClearFIFO();
 139:Generated_Source\PSoC4/nRF24_HAL.c **** 
 140:Generated_Source\PSoC4/nRF24_HAL.c ****     SS_Write(0);
 141:Generated_Source\PSoC4/nRF24_HAL.c ****     SPI_WriteTxData(NRF_CMD_R_REGISTER | reg);
 142:Generated_Source\PSoC4/nRF24_HAL.c ****     
 143:Generated_Source\PSoC4/nRF24_HAL.c ****     // Wait for the byte to be sent
 144:Generated_Source\PSoC4/nRF24_HAL.c ****     while (!(SPI_ReadTxStatus() & SPI_STS_BYTE_COMPLETE)) {
 145:Generated_Source\PSoC4/nRF24_HAL.c ****     }
 146:Generated_Source\PSoC4/nRF24_HAL.c ****     // Read the status register, just to clear the rx fifo
 147:Generated_Source\PSoC4/nRF24_HAL.c ****     (void)SPI_ReadRxData();
 148:Generated_Source\PSoC4/nRF24_HAL.c **** 
 149:Generated_Source\PSoC4/nRF24_HAL.c ****     for (size_t i = 0; i < size; i++) {
 150:Generated_Source\PSoC4/nRF24_HAL.c ****         SPI_WriteTxData(NRF_CMD_NOP);
 151:Generated_Source\PSoC4/nRF24_HAL.c ****         while (!(SPI_ReadTxStatus() & SPI_STS_BYTE_COMPLETE)) {
 152:Generated_Source\PSoC4/nRF24_HAL.c ****         }
 153:Generated_Source\PSoC4/nRF24_HAL.c ****         data[i] = SPI_ReadRxData();
 154:Generated_Source\PSoC4/nRF24_HAL.c ****     }
 155:Generated_Source\PSoC4/nRF24_HAL.c **** 
 156:Generated_Source\PSoC4/nRF24_HAL.c ****     SS_Write(1);
 157:Generated_Source\PSoC4/nRF24_HAL.c **** #endif
 158:Generated_Source\PSoC4/nRF24_HAL.c **** }
 161              		.loc 1 158 0
 162              		@ sp needed
 163              	.LVL25:
 164              	.LVL26:
 165              	.LVL27:
 166 004e F8BD     		pop	{r3, r4, r5, r6, r7, pc}
 167              		.cfi_endproc
 168              	.LFE2:
 169              		.size	nRF24_read_long_register, .-nRF24_read_long_register
 170              		.section	.text.nRF24_write_register,"ax",%progbits
 171              		.align	2
 172              		.global	nRF24_write_register
 173              		.code	16
 174              		.thumb_func
 175              		.type	nRF24_write_register, %function
 176              	nRF24_write_register:
 177              	.LFB3:
 159:Generated_Source\PSoC4/nRF24_HAL.c **** 
 160:Generated_Source\PSoC4/nRF24_HAL.c **** /**
 161:Generated_Source\PSoC4/nRF24_HAL.c ****  * Write to the specified nRF24 Register (1byte).
 162:Generated_Source\PSoC4/nRF24_HAL.c ****  *
 163:Generated_Source\PSoC4/nRF24_HAL.c ****  * @param const nrf_register reg: Register to be written.
ARM GAS  C:\Users\Xwx47\AppData\Local\Temp\ccTLnL9b.s 			page 7


 164:Generated_Source\PSoC4/nRF24_HAL.c ****  * @param const uint8_t data: Data to be written into the specified register.
 165:Generated_Source\PSoC4/nRF24_HAL.c ****  */
 166:Generated_Source\PSoC4/nRF24_HAL.c **** void nRF24_write_register(const nrf_register reg, const uint8_t data)
 167:Generated_Source\PSoC4/nRF24_HAL.c **** {
 178              		.loc 1 167 0
 179              		.cfi_startproc
 180              		@ args = 0, pretend = 0, frame = 0
 181              		@ frame_needed = 0, uses_anonymous_args = 0
 182              	.LVL28:
 183 0000 70B5     		push	{r4, r5, r6, lr}
 184              		.cfi_def_cfa_offset 16
 185              		.cfi_offset 4, -16
 186              		.cfi_offset 5, -12
 187              		.cfi_offset 6, -8
 188              		.cfi_offset 14, -4
 189 0002 0500     		movs	r5, r0
 190 0004 0C00     		movs	r4, r1
 168:Generated_Source\PSoC4/nRF24_HAL.c **** #if defined (_PSOC6)
 169:Generated_Source\PSoC4/nRF24_HAL.c ****     Cy_SCB_ClearRxFifo(SPI_HW);
 170:Generated_Source\PSoC4/nRF24_HAL.c ****     Cy_SCB_ClearTxFifo(SPI_HW);
 171:Generated_Source\PSoC4/nRF24_HAL.c **** 
 172:Generated_Source\PSoC4/nRF24_HAL.c ****     Cy_GPIO_Clr(SS_PORT, SS_NUM);
 173:Generated_Source\PSoC4/nRF24_HAL.c **** 
 174:Generated_Source\PSoC4/nRF24_HAL.c ****     Cy_SCB_WriteArrayBlocking(SPI_HW, (uint8_t []){NRF_CMD_W_REGISTER | reg, data}, 2);
 175:Generated_Source\PSoC4/nRF24_HAL.c **** 
 176:Generated_Source\PSoC4/nRF24_HAL.c ****     while (Cy_SCB_IsTxComplete(SPI_HW) == false) {
 177:Generated_Source\PSoC4/nRF24_HAL.c ****     }
 178:Generated_Source\PSoC4/nRF24_HAL.c ****     CyDelayUs(1);
 179:Generated_Source\PSoC4/nRF24_HAL.c **** 
 180:Generated_Source\PSoC4/nRF24_HAL.c ****     Cy_GPIO_Set(SS_PORT, SS_NUM);
 181:Generated_Source\PSoC4/nRF24_HAL.c **** #elif defined (_PSOC4_SCB)
 182:Generated_Source\PSoC4/nRF24_HAL.c ****     SPI_SpiUartClearRxBuffer();
 191              		.loc 1 182 0
 192 0006 FFF7FEFF 		bl	SPI_SpiUartClearRxBuffer
 193              	.LVL29:
 183:Generated_Source\PSoC4/nRF24_HAL.c ****     SPI_SpiUartClearTxBuffer();
 194              		.loc 1 183 0
 195 000a FFF7FEFF 		bl	SPI_SpiUartClearTxBuffer
 196              	.LVL30:
 184:Generated_Source\PSoC4/nRF24_HAL.c **** 
 185:Generated_Source\PSoC4/nRF24_HAL.c ****     SS_Write(0);
 197              		.loc 1 185 0
 198 000e 0020     		movs	r0, #0
 199 0010 FFF7FEFF 		bl	SS_Write
 200              	.LVL31:
 186:Generated_Source\PSoC4/nRF24_HAL.c ****     SPI_SpiUartWriteTxData(NRF_CMD_W_REGISTER | reg);
 201              		.loc 1 186 0
 202 0014 2020     		movs	r0, #32
 203 0016 2843     		orrs	r0, r5
 204 0018 C0B2     		uxtb	r0, r0
 205 001a FFF7FEFF 		bl	SPI_SpiUartWriteTxData
 206              	.LVL32:
 187:Generated_Source\PSoC4/nRF24_HAL.c ****     SPI_SpiUartWriteTxData(data);
 207              		.loc 1 187 0
 208 001e 2000     		movs	r0, r4
 209 0020 FFF7FEFF 		bl	SPI_SpiUartWriteTxData
 210              	.LVL33:
ARM GAS  C:\Users\Xwx47\AppData\Local\Temp\ccTLnL9b.s 			page 8


 211              	.L9:
 188:Generated_Source\PSoC4/nRF24_HAL.c **** 
 189:Generated_Source\PSoC4/nRF24_HAL.c ****     while (SPI_SpiUartGetRxBufferSize() != 2) {
 212              		.loc 1 189 0 discriminator 1
 213 0024 FFF7FEFF 		bl	SPI_SpiUartGetRxBufferSize
 214              	.LVL34:
 215 0028 0228     		cmp	r0, #2
 216 002a FBD1     		bne	.L9
 190:Generated_Source\PSoC4/nRF24_HAL.c ****     }
 191:Generated_Source\PSoC4/nRF24_HAL.c ****     SS_Write(1);
 217              		.loc 1 191 0
 218 002c 0138     		subs	r0, r0, #1
 219 002e FFF7FEFF 		bl	SS_Write
 220              	.LVL35:
 192:Generated_Source\PSoC4/nRF24_HAL.c **** #else // _PSOC_UDB
 193:Generated_Source\PSoC4/nRF24_HAL.c ****     SPI_ClearFIFO();
 194:Generated_Source\PSoC4/nRF24_HAL.c **** 
 195:Generated_Source\PSoC4/nRF24_HAL.c ****     SS_Write(0);
 196:Generated_Source\PSoC4/nRF24_HAL.c ****     SPI_WriteTxData(NRF_CMD_W_REGISTER | reg);
 197:Generated_Source\PSoC4/nRF24_HAL.c ****     SPI_WriteTxData(data);
 198:Generated_Source\PSoC4/nRF24_HAL.c **** 
 199:Generated_Source\PSoC4/nRF24_HAL.c ****     while (!(SPI_ReadTxStatus() & SPI_STS_SPI_IDLE)) {
 200:Generated_Source\PSoC4/nRF24_HAL.c ****     }
 201:Generated_Source\PSoC4/nRF24_HAL.c ****     SS_Write(1);
 202:Generated_Source\PSoC4/nRF24_HAL.c **** #endif
 203:Generated_Source\PSoC4/nRF24_HAL.c **** }
 221              		.loc 1 203 0
 222              		@ sp needed
 223 0032 70BD     		pop	{r4, r5, r6, pc}
 224              		.cfi_endproc
 225              	.LFE3:
 226              		.size	nRF24_write_register, .-nRF24_write_register
 227              		.section	.text.nRF24_write_bit,"ax",%progbits
 228              		.align	2
 229              		.code	16
 230              		.thumb_func
 231              		.type	nRF24_write_bit, %function
 232              	nRF24_write_bit:
 233              	.LFB6:
 204:Generated_Source\PSoC4/nRF24_HAL.c **** 
 205:Generated_Source\PSoC4/nRF24_HAL.c **** /**
 206:Generated_Source\PSoC4/nRF24_HAL.c ****  * Write one or more bytes to the specified nRF24 Register.
 207:Generated_Source\PSoC4/nRF24_HAL.c ****  *
 208:Generated_Source\PSoC4/nRF24_HAL.c ****  * @param const nrf_register reg: Register to be written.
 209:Generated_Source\PSoC4/nRF24_HAL.c ****  * @param const uint8_t* data: Data to writen into the register.
 210:Generated_Source\PSoC4/nRF24_HAL.c ****  * @param size_t size: Bytes of the data to be written in the specified register.
 211:Generated_Source\PSoC4/nRF24_HAL.c ****  */
 212:Generated_Source\PSoC4/nRF24_HAL.c **** void nRF24_write_long_register(const nrf_register reg,
 213:Generated_Source\PSoC4/nRF24_HAL.c ****                                             const uint8_t* data, const size_t size)
 214:Generated_Source\PSoC4/nRF24_HAL.c **** {
 215:Generated_Source\PSoC4/nRF24_HAL.c **** #if defined (_PSOC6)
 216:Generated_Source\PSoC4/nRF24_HAL.c ****     Cy_SCB_ClearRxFifo(SPI_HW);
 217:Generated_Source\PSoC4/nRF24_HAL.c ****     Cy_SCB_ClearTxFifo(SPI_HW);
 218:Generated_Source\PSoC4/nRF24_HAL.c **** 
 219:Generated_Source\PSoC4/nRF24_HAL.c ****     Cy_GPIO_Clr(SS_PORT, SS_NUM);
 220:Generated_Source\PSoC4/nRF24_HAL.c ****     Cy_SCB_SPI_Write(SPI_HW, NRF_CMD_W_REGISTER | reg);
 221:Generated_Source\PSoC4/nRF24_HAL.c ****     Cy_SCB_SPI_WriteArrayBlocking(SPI_HW, (void *) data, size);
ARM GAS  C:\Users\Xwx47\AppData\Local\Temp\ccTLnL9b.s 			page 9


 222:Generated_Source\PSoC4/nRF24_HAL.c **** 
 223:Generated_Source\PSoC4/nRF24_HAL.c ****     while (Cy_SCB_IsTxComplete(SPI_HW) == false) {
 224:Generated_Source\PSoC4/nRF24_HAL.c ****     }
 225:Generated_Source\PSoC4/nRF24_HAL.c ****     CyDelayUs(1);
 226:Generated_Source\PSoC4/nRF24_HAL.c **** 
 227:Generated_Source\PSoC4/nRF24_HAL.c ****     Cy_GPIO_Set(SS_PORT, SS_NUM);
 228:Generated_Source\PSoC4/nRF24_HAL.c **** #elif defined (_PSOC4_SCB)
 229:Generated_Source\PSoC4/nRF24_HAL.c ****     SPI_SpiUartClearRxBuffer();
 230:Generated_Source\PSoC4/nRF24_HAL.c ****     SPI_SpiUartClearTxBuffer();
 231:Generated_Source\PSoC4/nRF24_HAL.c **** 
 232:Generated_Source\PSoC4/nRF24_HAL.c ****     SS_Write(0);
 233:Generated_Source\PSoC4/nRF24_HAL.c **** 
 234:Generated_Source\PSoC4/nRF24_HAL.c ****     SPI_SpiUartWriteTxData(NRF_CMD_W_REGISTER | reg);
 235:Generated_Source\PSoC4/nRF24_HAL.c ****     SPI_SpiUartPutArray(data, size);
 236:Generated_Source\PSoC4/nRF24_HAL.c **** 
 237:Generated_Source\PSoC4/nRF24_HAL.c ****     // we're not using the embedded SS pin on the SCB component, can't use the
 238:Generated_Source\PSoC4/nRF24_HAL.c ****     // SPI_Status function, we have to count the bytes on the RxBuffer to know
 239:Generated_Source\PSoC4/nRF24_HAL.c ****     // when the transition is done, size + 1 bytes == W_REGISTER_CMD + data
 240:Generated_Source\PSoC4/nRF24_HAL.c ****     while (SPI_SpiUartGetRxBufferSize() != (1 + size)) {
 241:Generated_Source\PSoC4/nRF24_HAL.c ****     }
 242:Generated_Source\PSoC4/nRF24_HAL.c ****     SS_Write(1);
 243:Generated_Source\PSoC4/nRF24_HAL.c **** #else // _PSOC_UDB
 244:Generated_Source\PSoC4/nRF24_HAL.c ****     SPI_ClearFIFO();
 245:Generated_Source\PSoC4/nRF24_HAL.c **** 
 246:Generated_Source\PSoC4/nRF24_HAL.c ****     SS_Write(0);
 247:Generated_Source\PSoC4/nRF24_HAL.c ****     SPI_WriteTxData(NRF_CMD_W_REGISTER | reg);
 248:Generated_Source\PSoC4/nRF24_HAL.c ****     for (size_t i = 0; i < size; i++) {
 249:Generated_Source\PSoC4/nRF24_HAL.c ****         SPI_WriteTxData(data[i]);
 250:Generated_Source\PSoC4/nRF24_HAL.c ****         while (!(SPI_ReadTxStatus() & SPI_STS_BYTE_COMPLETE)){
 251:Generated_Source\PSoC4/nRF24_HAL.c ****         }
 252:Generated_Source\PSoC4/nRF24_HAL.c ****     }
 253:Generated_Source\PSoC4/nRF24_HAL.c **** 
 254:Generated_Source\PSoC4/nRF24_HAL.c ****     while (!(SPI_ReadTxStatus() & SPI_STS_SPI_IDLE)) {
 255:Generated_Source\PSoC4/nRF24_HAL.c ****     }
 256:Generated_Source\PSoC4/nRF24_HAL.c ****     SS_Write(1);
 257:Generated_Source\PSoC4/nRF24_HAL.c **** #endif
 258:Generated_Source\PSoC4/nRF24_HAL.c **** }
 259:Generated_Source\PSoC4/nRF24_HAL.c **** 
 260:Generated_Source\PSoC4/nRF24_HAL.c **** /**
 261:Generated_Source\PSoC4/nRF24_HAL.c ****  * Read the content of the specified bit of the specified nrf_register.
 262:Generated_Source\PSoC4/nRF24_HAL.c ****  *
 263:Generated_Source\PSoC4/nRF24_HAL.c ****  * @param const nrf_register reg: Register to be read.
 264:Generated_Source\PSoC4/nRF24_HAL.c ****  * @param uint8_t bit: Bit to be read.
 265:Generated_Source\PSoC4/nRF24_HAL.c ****  *
 266:Generated_Source\PSoC4/nRF24_HAL.c ****  * @return bool: Return the content of the bit.
 267:Generated_Source\PSoC4/nRF24_HAL.c ****  */
 268:Generated_Source\PSoC4/nRF24_HAL.c **** bool nRF24_read_bit(const nrf_register reg, const uint8_t bit)
 269:Generated_Source\PSoC4/nRF24_HAL.c **** {
 270:Generated_Source\PSoC4/nRF24_HAL.c **** #if 0
 271:Generated_Source\PSoC4/nRF24_HAL.c ****     if (8 < bit) {
 272:Generated_Source\PSoC4/nRF24_HAL.c ****         return false; // how to deal with this?
 273:Generated_Source\PSoC4/nRF24_HAL.c ****     }
 274:Generated_Source\PSoC4/nRF24_HAL.c **** #endif
 275:Generated_Source\PSoC4/nRF24_HAL.c **** 
 276:Generated_Source\PSoC4/nRF24_HAL.c ****     return (nRF24_read_register(reg) & (1 << bit)) != 0;
 277:Generated_Source\PSoC4/nRF24_HAL.c **** }
 278:Generated_Source\PSoC4/nRF24_HAL.c **** 
ARM GAS  C:\Users\Xwx47\AppData\Local\Temp\ccTLnL9b.s 			page 10


 279:Generated_Source\PSoC4/nRF24_HAL.c **** /**
 280:Generated_Source\PSoC4/nRF24_HAL.c ****  * Set (1) or clear (0) the specified bit of the specified nRF24 register.
 281:Generated_Source\PSoC4/nRF24_HAL.c ****  *
 282:Generated_Source\PSoC4/nRF24_HAL.c ****  * First we read the specified register and check the content of the specified
 283:Generated_Source\PSoC4/nRF24_HAL.c ****  * bit, exit early if the bit already is the value we wanted, otherwise we set
 284:Generated_Source\PSoC4/nRF24_HAL.c ****  * the bit to the specified value.
 285:Generated_Source\PSoC4/nRF24_HAL.c ****  *
 286:Generated_Source\PSoC4/nRF24_HAL.c ****  * @param const nrf_register reg: Register to be written.
 287:Generated_Source\PSoC4/nRF24_HAL.c ****  * @param const uint8_t bit: Position of the bit to be written.
 288:Generated_Source\PSoC4/nRF24_HAL.c ****  * @param const bool value: Value (1 or 0) to write into the bit.
 289:Generated_Source\PSoC4/nRF24_HAL.c ****  */
 290:Generated_Source\PSoC4/nRF24_HAL.c **** static void nRF24_write_bit(const nrf_register reg,
 291:Generated_Source\PSoC4/nRF24_HAL.c ****                                   const uint8_t bit, const bool value)
 292:Generated_Source\PSoC4/nRF24_HAL.c **** {
 234              		.loc 1 292 0
 235              		.cfi_startproc
 236              		@ args = 0, pretend = 0, frame = 0
 237              		@ frame_needed = 0, uses_anonymous_args = 0
 238              	.LVL36:
 239 0000 70B5     		push	{r4, r5, r6, lr}
 240              		.cfi_def_cfa_offset 16
 241              		.cfi_offset 4, -16
 242              		.cfi_offset 5, -12
 243              		.cfi_offset 6, -8
 244              		.cfi_offset 14, -4
 245 0002 0400     		movs	r4, r0
 246 0004 0D00     		movs	r5, r1
 247 0006 1600     		movs	r6, r2
 293:Generated_Source\PSoC4/nRF24_HAL.c ****     uint8_t temp = nRF24_read_register(reg);
 248              		.loc 1 293 0
 249 0008 FFF7FEFF 		bl	nRF24_read_register
 250              	.LVL37:
 294:Generated_Source\PSoC4/nRF24_HAL.c **** 
 295:Generated_Source\PSoC4/nRF24_HAL.c ****     // Check if the bit is 1
 296:Generated_Source\PSoC4/nRF24_HAL.c ****     if ((temp & (1 << bit)) != 0) {
 251              		.loc 1 296 0
 252 000c 0300     		movs	r3, r0
 253 000e 2B41     		asrs	r3, r3, r5
 254 0010 DB07     		lsls	r3, r3, #31
 255 0012 02D5     		bpl	.L11
 297:Generated_Source\PSoC4/nRF24_HAL.c ****         // it is 1, return if we wanted to set it to 1
 298:Generated_Source\PSoC4/nRF24_HAL.c ****         if (value) {
 256              		.loc 1 298 0
 257 0014 002E     		cmp	r6, #0
 258 0016 02D0     		beq	.L13
 259 0018 0FE0     		b	.L10
 260              	.L11:
 299:Generated_Source\PSoC4/nRF24_HAL.c ****             return;
 300:Generated_Source\PSoC4/nRF24_HAL.c ****         }
 301:Generated_Source\PSoC4/nRF24_HAL.c ****     } else { // the bit is 0
 302:Generated_Source\PSoC4/nRF24_HAL.c ****         // it is 0, return if we wanted to set it to 0
 303:Generated_Source\PSoC4/nRF24_HAL.c ****         if (!value) {
 261              		.loc 1 303 0
 262 001a 002E     		cmp	r6, #0
 263 001c 0DD0     		beq	.L10
 264              	.L13:
 304:Generated_Source\PSoC4/nRF24_HAL.c ****             return;
ARM GAS  C:\Users\Xwx47\AppData\Local\Temp\ccTLnL9b.s 			page 11


 305:Generated_Source\PSoC4/nRF24_HAL.c ****         }
 306:Generated_Source\PSoC4/nRF24_HAL.c ****     }
 307:Generated_Source\PSoC4/nRF24_HAL.c **** 
 308:Generated_Source\PSoC4/nRF24_HAL.c ****     // Calculate the new value to be written into the register
 309:Generated_Source\PSoC4/nRF24_HAL.c ****     temp = value ? temp | (1 << bit) : temp & ~(1 << bit);
 265              		.loc 1 309 0
 266 001e 002E     		cmp	r6, #0
 267 0020 04D0     		beq	.L14
 268              		.loc 1 309 0 is_stmt 0 discriminator 1
 269 0022 0121     		movs	r1, #1
 270 0024 A940     		lsls	r1, r1, r5
 271 0026 0843     		orrs	r0, r1
 272              	.LVL38:
 273 0028 C1B2     		uxtb	r1, r0
 274 002a 03E0     		b	.L15
 275              	.LVL39:
 276              	.L14:
 277              		.loc 1 309 0 discriminator 2
 278 002c 0123     		movs	r3, #1
 279 002e AB40     		lsls	r3, r3, r5
 280 0030 9843     		bics	r0, r3
 281              	.LVL40:
 282 0032 C1B2     		uxtb	r1, r0
 283              	.L15:
 284              	.LVL41:
 310:Generated_Source\PSoC4/nRF24_HAL.c **** 
 311:Generated_Source\PSoC4/nRF24_HAL.c ****     nRF24_write_register(reg, temp);
 285              		.loc 1 311 0 is_stmt 1 discriminator 4
 286 0034 2000     		movs	r0, r4
 287 0036 FFF7FEFF 		bl	nRF24_write_register
 288              	.LVL42:
 289              	.L10:
 312:Generated_Source\PSoC4/nRF24_HAL.c **** }
 290              		.loc 1 312 0
 291              		@ sp needed
 292 003a 70BD     		pop	{r4, r5, r6, pc}
 293              		.cfi_endproc
 294              	.LFE6:
 295              		.size	nRF24_write_bit, .-nRF24_write_bit
 296              		.section	.text.nRF24_write_long_register,"ax",%progbits
 297              		.align	2
 298              		.global	nRF24_write_long_register
 299              		.code	16
 300              		.thumb_func
 301              		.type	nRF24_write_long_register, %function
 302              	nRF24_write_long_register:
 303              	.LFB4:
 214:Generated_Source\PSoC4/nRF24_HAL.c **** #if defined (_PSOC6)
 304              		.loc 1 214 0
 305              		.cfi_startproc
 306              		@ args = 0, pretend = 0, frame = 0
 307              		@ frame_needed = 0, uses_anonymous_args = 0
 308              	.LVL43:
 309 0000 70B5     		push	{r4, r5, r6, lr}
 310              		.cfi_def_cfa_offset 16
 311              		.cfi_offset 4, -16
 312              		.cfi_offset 5, -12
ARM GAS  C:\Users\Xwx47\AppData\Local\Temp\ccTLnL9b.s 			page 12


 313              		.cfi_offset 6, -8
 314              		.cfi_offset 14, -4
 315 0002 0600     		movs	r6, r0
 316 0004 0D00     		movs	r5, r1
 317 0006 1400     		movs	r4, r2
 229:Generated_Source\PSoC4/nRF24_HAL.c ****     SPI_SpiUartClearTxBuffer();
 318              		.loc 1 229 0
 319 0008 FFF7FEFF 		bl	SPI_SpiUartClearRxBuffer
 320              	.LVL44:
 230:Generated_Source\PSoC4/nRF24_HAL.c **** 
 321              		.loc 1 230 0
 322 000c FFF7FEFF 		bl	SPI_SpiUartClearTxBuffer
 323              	.LVL45:
 232:Generated_Source\PSoC4/nRF24_HAL.c **** 
 324              		.loc 1 232 0
 325 0010 0020     		movs	r0, #0
 326 0012 FFF7FEFF 		bl	SS_Write
 327              	.LVL46:
 234:Generated_Source\PSoC4/nRF24_HAL.c ****     SPI_SpiUartPutArray(data, size);
 328              		.loc 1 234 0
 329 0016 2020     		movs	r0, #32
 330 0018 3043     		orrs	r0, r6
 331 001a C0B2     		uxtb	r0, r0
 332 001c FFF7FEFF 		bl	SPI_SpiUartWriteTxData
 333              	.LVL47:
 235:Generated_Source\PSoC4/nRF24_HAL.c **** 
 334              		.loc 1 235 0
 335 0020 2100     		movs	r1, r4
 336 0022 2800     		movs	r0, r5
 337 0024 FFF7FEFF 		bl	SPI_SpiUartPutArray
 338              	.LVL48:
 339              	.L17:
 240:Generated_Source\PSoC4/nRF24_HAL.c ****     }
 340              		.loc 1 240 0 discriminator 1
 341 0028 FFF7FEFF 		bl	SPI_SpiUartGetRxBufferSize
 342              	.LVL49:
 343 002c 631C     		adds	r3, r4, #1
 344 002e 9842     		cmp	r0, r3
 345 0030 FAD1     		bne	.L17
 242:Generated_Source\PSoC4/nRF24_HAL.c **** #else // _PSOC_UDB
 346              		.loc 1 242 0
 347 0032 0120     		movs	r0, #1
 348 0034 FFF7FEFF 		bl	SS_Write
 349              	.LVL50:
 258:Generated_Source\PSoC4/nRF24_HAL.c **** 
 350              		.loc 1 258 0
 351              		@ sp needed
 352              	.LVL51:
 353              	.LVL52:
 354 0038 70BD     		pop	{r4, r5, r6, pc}
 355              		.cfi_endproc
 356              	.LFE4:
 357              		.size	nRF24_write_long_register, .-nRF24_write_long_register
 358 003a C046     		.section	.text.nRF24_read_bit,"ax",%progbits
 359              		.align	2
 360              		.global	nRF24_read_bit
 361              		.code	16
ARM GAS  C:\Users\Xwx47\AppData\Local\Temp\ccTLnL9b.s 			page 13


 362              		.thumb_func
 363              		.type	nRF24_read_bit, %function
 364              	nRF24_read_bit:
 365              	.LFB5:
 269:Generated_Source\PSoC4/nRF24_HAL.c **** #if 0
 366              		.loc 1 269 0
 367              		.cfi_startproc
 368              		@ args = 0, pretend = 0, frame = 0
 369              		@ frame_needed = 0, uses_anonymous_args = 0
 370              	.LVL53:
 371 0000 10B5     		push	{r4, lr}
 372              		.cfi_def_cfa_offset 8
 373              		.cfi_offset 4, -8
 374              		.cfi_offset 14, -4
 375 0002 0C00     		movs	r4, r1
 276:Generated_Source\PSoC4/nRF24_HAL.c **** }
 376              		.loc 1 276 0
 377 0004 FFF7FEFF 		bl	nRF24_read_register
 378              	.LVL54:
 379 0008 2041     		asrs	r0, r0, r4
 380 000a 0123     		movs	r3, #1
 381 000c 1840     		ands	r0, r3
 277:Generated_Source\PSoC4/nRF24_HAL.c **** 
 382              		.loc 1 277 0
 383              		@ sp needed
 384 000e 10BD     		pop	{r4, pc}
 385              		.cfi_endproc
 386              	.LFE5:
 387              		.size	nRF24_read_bit, .-nRF24_read_bit
 388              		.section	.text.nRF24_clear_bit,"ax",%progbits
 389              		.align	2
 390              		.global	nRF24_clear_bit
 391              		.code	16
 392              		.thumb_func
 393              		.type	nRF24_clear_bit, %function
 394              	nRF24_clear_bit:
 395              	.LFB7:
 313:Generated_Source\PSoC4/nRF24_HAL.c **** 
 314:Generated_Source\PSoC4/nRF24_HAL.c **** /**
 315:Generated_Source\PSoC4/nRF24_HAL.c ****  * Set to 0 the specified bit of the specified nRF24 register.
 316:Generated_Source\PSoC4/nRF24_HAL.c ****  *
 317:Generated_Source\PSoC4/nRF24_HAL.c ****  * @param const nrf_register reg: Register to be written.
 318:Generated_Source\PSoC4/nRF24_HAL.c ****  * @param const uint8_t bit: Bit to be written.
 319:Generated_Source\PSoC4/nRF24_HAL.c ****  */
 320:Generated_Source\PSoC4/nRF24_HAL.c **** void nRF24_clear_bit(const nrf_register reg, const uint8_t bit)
 321:Generated_Source\PSoC4/nRF24_HAL.c **** {
 396              		.loc 1 321 0
 397              		.cfi_startproc
 398              		@ args = 0, pretend = 0, frame = 0
 399              		@ frame_needed = 0, uses_anonymous_args = 0
 400              	.LVL55:
 401 0000 10B5     		push	{r4, lr}
 402              		.cfi_def_cfa_offset 8
 403              		.cfi_offset 4, -8
 404              		.cfi_offset 14, -4
 322:Generated_Source\PSoC4/nRF24_HAL.c ****     if (8 < bit) {
 405              		.loc 1 322 0
ARM GAS  C:\Users\Xwx47\AppData\Local\Temp\ccTLnL9b.s 			page 14


 406 0002 0829     		cmp	r1, #8
 407 0004 02D8     		bhi	.L19
 323:Generated_Source\PSoC4/nRF24_HAL.c ****         return;
 324:Generated_Source\PSoC4/nRF24_HAL.c ****     }
 325:Generated_Source\PSoC4/nRF24_HAL.c **** 
 326:Generated_Source\PSoC4/nRF24_HAL.c ****     nRF24_write_bit(reg, bit, 0);
 408              		.loc 1 326 0
 409 0006 0022     		movs	r2, #0
 410 0008 FFF7FEFF 		bl	nRF24_write_bit
 411              	.LVL56:
 412              	.L19:
 327:Generated_Source\PSoC4/nRF24_HAL.c **** }
 413              		.loc 1 327 0
 414              		@ sp needed
 415 000c 10BD     		pop	{r4, pc}
 416              		.cfi_endproc
 417              	.LFE7:
 418              		.size	nRF24_clear_bit, .-nRF24_clear_bit
 419 000e C046     		.section	.text.nRF24_set_bit,"ax",%progbits
 420              		.align	2
 421              		.global	nRF24_set_bit
 422              		.code	16
 423              		.thumb_func
 424              		.type	nRF24_set_bit, %function
 425              	nRF24_set_bit:
 426              	.LFB8:
 328:Generated_Source\PSoC4/nRF24_HAL.c **** 
 329:Generated_Source\PSoC4/nRF24_HAL.c **** /**
 330:Generated_Source\PSoC4/nRF24_HAL.c ****  * Set to 1 the specified bit of the specified nRF24 register.
 331:Generated_Source\PSoC4/nRF24_HAL.c ****  *
 332:Generated_Source\PSoC4/nRF24_HAL.c ****  * @param const nrf_register reg: Register to be written.
 333:Generated_Source\PSoC4/nRF24_HAL.c ****  * @param const uint8_t bit: Bit to be written.
 334:Generated_Source\PSoC4/nRF24_HAL.c ****  */
 335:Generated_Source\PSoC4/nRF24_HAL.c **** void nRF24_set_bit(const nrf_register reg, const uint8_t bit)
 336:Generated_Source\PSoC4/nRF24_HAL.c **** {
 427              		.loc 1 336 0
 428              		.cfi_startproc
 429              		@ args = 0, pretend = 0, frame = 0
 430              		@ frame_needed = 0, uses_anonymous_args = 0
 431              	.LVL57:
 432 0000 10B5     		push	{r4, lr}
 433              		.cfi_def_cfa_offset 8
 434              		.cfi_offset 4, -8
 435              		.cfi_offset 14, -4
 337:Generated_Source\PSoC4/nRF24_HAL.c ****     if (8 < bit) {
 436              		.loc 1 337 0
 437 0002 0829     		cmp	r1, #8
 438 0004 02D8     		bhi	.L21
 338:Generated_Source\PSoC4/nRF24_HAL.c ****         return;
 339:Generated_Source\PSoC4/nRF24_HAL.c ****     }
 340:Generated_Source\PSoC4/nRF24_HAL.c **** 
 341:Generated_Source\PSoC4/nRF24_HAL.c ****     nRF24_write_bit(reg, bit, 1);
 439              		.loc 1 341 0
 440 0006 0122     		movs	r2, #1
 441 0008 FFF7FEFF 		bl	nRF24_write_bit
 442              	.LVL58:
 443              	.L21:
ARM GAS  C:\Users\Xwx47\AppData\Local\Temp\ccTLnL9b.s 			page 15


 342:Generated_Source\PSoC4/nRF24_HAL.c **** }
 444              		.loc 1 342 0
 445              		@ sp needed
 446 000c 10BD     		pop	{r4, pc}
 447              		.cfi_endproc
 448              	.LFE8:
 449              		.size	nRF24_set_bit, .-nRF24_set_bit
 450 000e C046     		.text
 451              	.Letext0:
 452              		.file 2 "c:\\program files (x86)\\cypress\\psoc creator\\4.1\\psoc creator\\import\\gnu\\arm\\5.4.
 453              		.file 3 "c:\\program files (x86)\\cypress\\psoc creator\\4.1\\psoc creator\\import\\gnu\\arm\\5.4.
 454              		.file 4 "c:\\program files (x86)\\cypress\\psoc creator\\4.1\\psoc creator\\import\\gnu\\arm\\5.4.
 455              		.file 5 "Generated_Source\\PSoC4\\nRF24_DEFS.h"
 456              		.file 6 "Generated_Source\\PSoC4\\SPI_SPI_UART.h"
 457              		.file 7 "Generated_Source\\PSoC4\\SS.h"